<?xml version="1.0" encoding="UTF-8"?>
<LIBRARY NAME="cvextern.dll" PATH="/DLLArchive/etc/cvextern.dll" DATE="Wed Jan 31 08:30:32 PST 2024" VERSION="">
    <EXPORT ORDINAL="1" NAME="??0?$RotationWarperBase@UCompressedRectilinearPortraitProjector@detail@cv@@@detail@cv@@QEAA@AEBV012@@Z" PURGE="0" COMMENT="" />
    <EXPORT ORDINAL="2" NAME="??0?$RotationWarperBase@UCompressedRectilinearPortraitProjector@detail@cv@@@detail@cv@@QEAA@XZ" PURGE="0" COMMENT="" />
    <EXPORT ORDINAL="3" NAME="??0?$RotationWarperBase@UCompressedRectilinearProjector@detail@cv@@@detail@cv@@QEAA@AEBV012@@Z" PURGE="0" COMMENT="" />
    <EXPORT ORDINAL="4" NAME="??0?$RotationWarperBase@UCompressedRectilinearProjector@detail@cv@@@detail@cv@@QEAA@XZ" PURGE="0" COMMENT="" />
    <EXPORT ORDINAL="5" NAME="??0?$RotationWarperBase@UCylindricalPortraitProjector@detail@cv@@@detail@cv@@QEAA@AEBV012@@Z" PURGE="0" COMMENT="" />
    <EXPORT ORDINAL="6" NAME="??0?$RotationWarperBase@UCylindricalPortraitProjector@detail@cv@@@detail@cv@@QEAA@XZ" PURGE="0" COMMENT="" />
    <EXPORT ORDINAL="7" NAME="??0?$RotationWarperBase@UCylindricalProjector@detail@cv@@@detail@cv@@QEAA@AEBV012@@Z" PURGE="0" COMMENT="" />
    <EXPORT ORDINAL="8" NAME="??0?$RotationWarperBase@UCylindricalProjector@detail@cv@@@detail@cv@@QEAA@XZ" PURGE="0" COMMENT="" />
    <EXPORT ORDINAL="9" NAME="??0?$RotationWarperBase@UFisheyeProjector@detail@cv@@@detail@cv@@QEAA@AEBV012@@Z" PURGE="0" COMMENT="" />
    <EXPORT ORDINAL="10" NAME="??0?$RotationWarperBase@UFisheyeProjector@detail@cv@@@detail@cv@@QEAA@XZ" PURGE="0" COMMENT="" />
    <EXPORT ORDINAL="11" NAME="??0?$RotationWarperBase@UMercatorProjector@detail@cv@@@detail@cv@@QEAA@AEBV012@@Z" PURGE="0" COMMENT="" />
    <EXPORT ORDINAL="12" NAME="??0?$RotationWarperBase@UMercatorProjector@detail@cv@@@detail@cv@@QEAA@XZ" PURGE="0" COMMENT="" />
    <EXPORT ORDINAL="13" NAME="??0?$RotationWarperBase@UPaniniPortraitProjector@detail@cv@@@detail@cv@@QEAA@AEBV012@@Z" PURGE="0" COMMENT="" />
    <EXPORT ORDINAL="14" NAME="??0?$RotationWarperBase@UPaniniPortraitProjector@detail@cv@@@detail@cv@@QEAA@XZ" PURGE="0" COMMENT="" />
    <EXPORT ORDINAL="15" NAME="??0?$RotationWarperBase@UPaniniProjector@detail@cv@@@detail@cv@@QEAA@AEBV012@@Z" PURGE="0" COMMENT="" />
    <EXPORT ORDINAL="16" NAME="??0?$RotationWarperBase@UPaniniProjector@detail@cv@@@detail@cv@@QEAA@XZ" PURGE="0" COMMENT="" />
    <EXPORT ORDINAL="17" NAME="??0?$RotationWarperBase@UPlanePortraitProjector@detail@cv@@@detail@cv@@QEAA@AEBV012@@Z" PURGE="0" COMMENT="" />
    <EXPORT ORDINAL="18" NAME="??0?$RotationWarperBase@UPlanePortraitProjector@detail@cv@@@detail@cv@@QEAA@XZ" PURGE="0" COMMENT="" />
    <EXPORT ORDINAL="19" NAME="??0?$RotationWarperBase@UPlaneProjector@detail@cv@@@detail@cv@@QEAA@AEBV012@@Z" PURGE="0" COMMENT="" />
    <EXPORT ORDINAL="20" NAME="??0?$RotationWarperBase@UPlaneProjector@detail@cv@@@detail@cv@@QEAA@XZ" PURGE="0" COMMENT="" />
    <EXPORT ORDINAL="21" NAME="??0?$RotationWarperBase@USphericalPortraitProjector@detail@cv@@@detail@cv@@QEAA@AEBV012@@Z" PURGE="0" COMMENT="" />
    <EXPORT ORDINAL="22" NAME="??0?$RotationWarperBase@USphericalPortraitProjector@detail@cv@@@detail@cv@@QEAA@XZ" PURGE="0" COMMENT="" />
    <EXPORT ORDINAL="23" NAME="??0?$RotationWarperBase@USphericalProjector@detail@cv@@@detail@cv@@QEAA@AEBV012@@Z" PURGE="0" COMMENT="" />
    <EXPORT ORDINAL="24" NAME="??0?$RotationWarperBase@USphericalProjector@detail@cv@@@detail@cv@@QEAA@XZ" PURGE="0" COMMENT="" />
    <EXPORT ORDINAL="25" NAME="??0?$RotationWarperBase@UStereographicProjector@detail@cv@@@detail@cv@@QEAA@AEBV012@@Z" PURGE="0" COMMENT="" />
    <EXPORT ORDINAL="26" NAME="??0?$RotationWarperBase@UStereographicProjector@detail@cv@@@detail@cv@@QEAA@XZ" PURGE="0" COMMENT="" />
    <EXPORT ORDINAL="27" NAME="??0?$RotationWarperBase@UTransverseMercatorProjector@detail@cv@@@detail@cv@@QEAA@AEBV012@@Z" PURGE="0" COMMENT="" />
    <EXPORT ORDINAL="28" NAME="??0?$RotationWarperBase@UTransverseMercatorProjector@detail@cv@@@detail@cv@@QEAA@XZ" PURGE="0" COMMENT="" />
    <EXPORT ORDINAL="29" NAME="??0AKAZE@cv@@QEAA@AEBV01@@Z" PURGE="0" COMMENT="" />
    <EXPORT ORDINAL="30" NAME="??0AKAZE@cv@@QEAA@XZ" PURGE="0" COMMENT="" />
    <EXPORT ORDINAL="31" NAME="??0ANN_MLP@ml@cv@@QEAA@AEBV012@@Z" PURGE="0" COMMENT="" />
    <EXPORT ORDINAL="32" NAME="??0ANN_MLP@ml@cv@@QEAA@XZ" PURGE="0" COMMENT="" />
    <EXPORT ORDINAL="33" NAME="??0AffineTransformer@cv@@QEAA@AEBV01@@Z" PURGE="0" COMMENT="" />
    <EXPORT ORDINAL="34" NAME="??0AffineTransformer@cv@@QEAA@XZ" PURGE="0" COMMENT="" />
    <EXPORT ORDINAL="35" NAME="??0AgastFeatureDetector@cv@@QEAA@AEBV01@@Z" PURGE="0" COMMENT="" />
    <EXPORT ORDINAL="36" NAME="??0AgastFeatureDetector@cv@@QEAA@XZ" PURGE="0" COMMENT="" />
    <EXPORT ORDINAL="37" NAME="??0Algorithm@cv@@QEAA@AEBV01@@Z" PURGE="0" COMMENT="" />
    <EXPORT ORDINAL="38" NAME="??0AlignExposures@cv@@QEAA@AEBV01@@Z" PURGE="0" COMMENT="" />
    <EXPORT ORDINAL="39" NAME="??0AlignExposures@cv@@QEAA@XZ" PURGE="0" COMMENT="" />
    <EXPORT ORDINAL="40" NAME="??0AlignMTB@cv@@QEAA@AEBV01@@Z" PURGE="0" COMMENT="" />
    <EXPORT ORDINAL="41" NAME="??0AlignMTB@cv@@QEAA@XZ" PURGE="0" COMMENT="" />
    <EXPORT ORDINAL="42" NAME="??0Allocator@GpuMat@cuda@cv@@QEAA@AEBV0123@@Z" PURGE="0" COMMENT="" />
    <EXPORT ORDINAL="43" NAME="??0Allocator@GpuMat@cuda@cv@@QEAA@XZ" PURGE="0" COMMENT="" />
    <EXPORT ORDINAL="44" NAME="??0AutoLock@cv@@QEAA@AEAVMutex@1@@Z" PURGE="0" COMMENT="" />
    <EXPORT ORDINAL="45" NAME="??0BFMatcher@cv@@QEAA@AEBV01@@Z" PURGE="0" COMMENT="" />
    <EXPORT ORDINAL="46" NAME="??0BOWImgDescriptorExtractor@cv@@QEAA@AEBV01@@Z" PURGE="0" COMMENT="" />
    <EXPORT ORDINAL="47" NAME="??0BOWKMeansTrainer@cv@@QEAA@AEBV01@@Z" PURGE="0" COMMENT="" />
    <EXPORT ORDINAL="48" NAME="??0BOWTrainer@cv@@QEAA@AEBV01@@Z" PURGE="0" COMMENT="" />
    <EXPORT ORDINAL="49" NAME="??0BRISK@cv@@QEAA@AEBV01@@Z" PURGE="0" COMMENT="" />
    <EXPORT ORDINAL="50" NAME="??0BRISK@cv@@QEAA@XZ" PURGE="0" COMMENT="" />
    <EXPORT ORDINAL="51" NAME="??0BackgroundSubtractor@cv@@QEAA@AEBV01@@Z" PURGE="0" COMMENT="" />
    <EXPORT ORDINAL="52" NAME="??0BackgroundSubtractor@cv@@QEAA@XZ" PURGE="0" COMMENT="" />
    <EXPORT ORDINAL="53" NAME="??0BackgroundSubtractorGMG@bgsegm@cv@@QEAA@AEBV012@@Z" PURGE="0" COMMENT="" />
    <EXPORT ORDINAL="54" NAME="??0BackgroundSubtractorGMG@bgsegm@cv@@QEAA@XZ" PURGE="0" COMMENT="" />
    <EXPORT ORDINAL="55" NAME="??0BackgroundSubtractorKNN@cv@@QEAA@AEBV01@@Z" PURGE="0" COMMENT="" />
    <EXPORT ORDINAL="56" NAME="??0BackgroundSubtractorKNN@cv@@QEAA@XZ" PURGE="0" COMMENT="" />
    <EXPORT ORDINAL="57" NAME="??0BackgroundSubtractorMOG2@cv@@QEAA@AEBV01@@Z" PURGE="0" COMMENT="" />
    <EXPORT ORDINAL="58" NAME="??0BackgroundSubtractorMOG2@cv@@QEAA@XZ" PURGE="0" COMMENT="" />
    <EXPORT ORDINAL="59" NAME="??0BackgroundSubtractorMOG@bgsegm@cv@@QEAA@AEBV012@@Z" PURGE="0" COMMENT="" />
    <EXPORT ORDINAL="60" NAME="??0BackgroundSubtractorMOG@bgsegm@cv@@QEAA@XZ" PURGE="0" COMMENT="" />
    <EXPORT ORDINAL="61" NAME="??0BaseCascadeClassifier@cv@@QEAA@AEBV01@@Z" PURGE="0" COMMENT="" />
    <EXPORT ORDINAL="62" NAME="??0BaseCascadeClassifier@cv@@QEAA@XZ" PURGE="0" COMMENT="" />
    <EXPORT ORDINAL="63" NAME="??0BasicFaceRecognizer@face@cv@@QEAA@AEBV012@@Z" PURGE="0" COMMENT="" />
    <EXPORT ORDINAL="64" NAME="??0BasicFaceRecognizer@face@cv@@QEAA@XZ" PURGE="0" COMMENT="" />
    <EXPORT ORDINAL="65" NAME="??0BestOf2NearestMatcher@detail@cv@@QEAA@AEBV012@@Z" PURGE="0" COMMENT="" />
    <EXPORT ORDINAL="66" NAME="??0BestOf2NearestRangeMatcher@detail@cv@@QEAA@AEBV012@@Z" PURGE="0" COMMENT="" />
    <EXPORT ORDINAL="67" NAME="??0Blender@detail@cv@@QEAA@AEBV012@@Z" PURGE="0" COMMENT="" />
    <EXPORT ORDINAL="68" NAME="??0Blender@detail@cv@@QEAA@XZ" PURGE="0" COMMENT="" />
    <EXPORT ORDINAL="69" NAME="??0BlocksGainCompensator@detail@cv@@QEAA@AEBV012@@Z" PURGE="0" COMMENT="" />
    <EXPORT ORDINAL="70" NAME="??0BlocksGainCompensator@detail@cv@@QEAA@HH@Z" PURGE="0" COMMENT="" />
    <EXPORT ORDINAL="71" NAME="??0Boost@ml@cv@@QEAA@AEBV012@@Z" PURGE="0" COMMENT="" />
    <EXPORT ORDINAL="72" NAME="??0Boost@ml@cv@@QEAA@XZ" PURGE="0" COMMENT="" />
    <EXPORT ORDINAL="73" NAME="??0BriefDescriptorExtractor@xfeatures2d@cv@@QEAA@AEBV012@@Z" PURGE="0" COMMENT="" />
    <EXPORT ORDINAL="74" NAME="??0BriefDescriptorExtractor@xfeatures2d@cv@@QEAA@XZ" PURGE="0" COMMENT="" />
    <EXPORT ORDINAL="75" NAME="??0BroxOpticalFlow@superres@cv@@QEAA@AEBV012@@Z" PURGE="0" COMMENT="" />
    <EXPORT ORDINAL="76" NAME="??0BroxOpticalFlow@superres@cv@@QEAA@XZ" PURGE="0" COMMENT="" />
    <EXPORT ORDINAL="77" NAME="??0BundleAdjusterBase@detail@cv@@IEAA@HH@Z" PURGE="0" COMMENT="" />
    <EXPORT ORDINAL="78" NAME="??0BundleAdjusterBase@detail@cv@@QEAA@AEBV012@@Z" PURGE="0" COMMENT="" />
    <EXPORT ORDINAL="79" NAME="??0BundleAdjusterRay@detail@cv@@QEAA@AEBV012@@Z" PURGE="0" COMMENT="" />
    <EXPORT ORDINAL="80" NAME="??0BundleAdjusterRay@detail@cv@@QEAA@XZ" PURGE="0" COMMENT="" />
    <EXPORT ORDINAL="81" NAME="??0BundleAdjusterReproj@detail@cv@@QEAA@AEBV012@@Z" PURGE="0" COMMENT="" />
    <EXPORT ORDINAL="82" NAME="??0BundleAdjusterReproj@detail@cv@@QEAA@XZ" PURGE="0" COMMENT="" />
    <EXPORT ORDINAL="83" NAME="??0CLAHE@cv@@QEAA@AEBV01@@Z" PURGE="0" COMMENT="" />
    <EXPORT ORDINAL="84" NAME="??0CLAHE@cv@@QEAA@XZ" PURGE="0" COMMENT="" />
    <EXPORT ORDINAL="85" NAME="??0CalibrateCRF@cv@@QEAA@AEBV01@@Z" PURGE="0" COMMENT="" />
    <EXPORT ORDINAL="86" NAME="??0CalibrateCRF@cv@@QEAA@XZ" PURGE="0" COMMENT="" />
    <EXPORT ORDINAL="87" NAME="??0CalibrateDebevec@cv@@QEAA@AEBV01@@Z" PURGE="0" COMMENT="" />
    <EXPORT ORDINAL="88" NAME="??0CalibrateDebevec@cv@@QEAA@XZ" PURGE="0" COMMENT="" />
    <EXPORT ORDINAL="89" NAME="??0CalibrateRobertson@cv@@QEAA@AEBV01@@Z" PURGE="0" COMMENT="" />
    <EXPORT ORDINAL="90" NAME="??0CalibrateRobertson@cv@@QEAA@XZ" PURGE="0" COMMENT="" />
    <EXPORT ORDINAL="91" NAME="??0Callback@ERFilter@text@cv@@QEAA@AEBV0123@@Z" PURGE="0" COMMENT="" />
    <EXPORT ORDINAL="92" NAME="??0Callback@ERFilter@text@cv@@QEAA@XZ" PURGE="0" COMMENT="" />
    <EXPORT ORDINAL="93" NAME="??0CascadeClassifier@cv@@QEAA@AEBV01@@Z" PURGE="0" COMMENT="" />
    <EXPORT ORDINAL="94" NAME="??0ChiHistogramCostExtractor@cv@@QEAA@AEBV01@@Z" PURGE="0" COMMENT="" />
    <EXPORT ORDINAL="95" NAME="??0ChiHistogramCostExtractor@cv@@QEAA@XZ" PURGE="0" COMMENT="" />
    <EXPORT ORDINAL="96" NAME="??0ColorAverageInpainter@videostab@cv@@QEAA@AEBV012@@Z" PURGE="0" COMMENT="" />
    <EXPORT ORDINAL="97" NAME="??0ColorAverageInpainter@videostab@cv@@QEAA@XZ" PURGE="0" COMMENT="" />
    <EXPORT ORDINAL="98" NAME="??0ColorInpainter@videostab@cv@@QEAA@AEBV012@@Z" PURGE="0" COMMENT="" />
    <EXPORT ORDINAL="99" NAME="??0ColorInpainter@videostab@cv@@QEAA@HN@Z" PURGE="0" COMMENT="" />
    <EXPORT ORDINAL="100" NAME="??0CompressedRectilinearPortraitWarper@detail@cv@@QEAA@AEBV012@@Z" PURGE="0" COMMENT="" />
    <EXPORT ORDINAL="101" NAME="??0CompressedRectilinearPortraitWarper@detail@cv@@QEAA@MMM@Z" PURGE="0" COMMENT="" />
    <EXPORT ORDINAL="102" NAME="??0CompressedRectilinearWarper@detail@cv@@QEAA@AEBV012@@Z" PURGE="0" COMMENT="" />
    <EXPORT ORDINAL="103" NAME="??0CompressedRectilinearWarper@detail@cv@@QEAA@MMM@Z" PURGE="0" COMMENT="" />
    <EXPORT ORDINAL="104" NAME="??0ConjGradSolver@cv@@QEAA@AEBV01@@Z" PURGE="0" COMMENT="" />
    <EXPORT ORDINAL="105" NAME="??0ConjGradSolver@cv@@QEAA@XZ" PURGE="0" COMMENT="" />
    <EXPORT ORDINAL="106" NAME="??0ConsistentMosaicInpainter@videostab@cv@@QEAA@AEBV012@@Z" PURGE="0" COMMENT="" />
    <EXPORT ORDINAL="107" NAME="??0CvLevMarq@@QEAA@AEBV0@@Z" PURGE="0" COMMENT="" />
    <EXPORT ORDINAL="108" NAME="??0CvMatND@@QEAA@XZ" PURGE="0" COMMENT="" />
    <EXPORT ORDINAL="109" NAME="??0CylindricalPortraitWarper@detail@cv@@QEAA@AEBV012@@Z" PURGE="0" COMMENT="" />
    <EXPORT ORDINAL="110" NAME="??0CylindricalPortraitWarper@detail@cv@@QEAA@M@Z" PURGE="0" COMMENT="" />
    <EXPORT ORDINAL="111" NAME="??0CylindricalWarper@detail@cv@@QEAA@AEBV012@@Z" PURGE="0" COMMENT="" />
    <EXPORT ORDINAL="112" NAME="??0CylindricalWarper@detail@cv@@QEAA@M@Z" PURGE="0" COMMENT="" />
    <EXPORT ORDINAL="113" NAME="??0CylindricalWarperGpu@detail@cv@@QEAA@AEBV012@@Z" PURGE="0" COMMENT="" />
    <EXPORT ORDINAL="114" NAME="??0CylindricalWarperGpu@detail@cv@@QEAA@M@Z" PURGE="0" COMMENT="" />
    <EXPORT ORDINAL="115" NAME="??0DAISY@xfeatures2d@cv@@QEAA@AEBV012@@Z" PURGE="0" COMMENT="" />
    <EXPORT ORDINAL="116" NAME="??0DAISY@xfeatures2d@cv@@QEAA@XZ" PURGE="0" COMMENT="" />
    <EXPORT ORDINAL="117" NAME="??0DMatch@cv@@QEAA@HHHM@Z" PURGE="0" COMMENT="" />
    <EXPORT ORDINAL="118" NAME="??0DMatch@cv@@QEAA@HHM@Z" PURGE="0" COMMENT="" />
    <EXPORT ORDINAL="119" NAME="??0DMatch@cv@@QEAA@XZ" PURGE="0" COMMENT="" />
    <EXPORT ORDINAL="120" NAME="??0DTrees@ml@cv@@QEAA@AEBV012@@Z" PURGE="0" COMMENT="" />
    <EXPORT ORDINAL="121" NAME="??0DTrees@ml@cv@@QEAA@XZ" PURGE="0" COMMENT="" />
    <EXPORT ORDINAL="122" NAME="??0DataLogger@emgu@@QEAA@HH@Z" PURGE="0" COMMENT="" />
    <EXPORT ORDINAL="123" NAME="??0DeblurerBase@videostab@cv@@QEAA@AEBV012@@Z" PURGE="0" COMMENT="" />
    <EXPORT ORDINAL="124" NAME="??0DeblurerBase@videostab@cv@@QEAA@XZ" PURGE="0" COMMENT="" />
    <EXPORT ORDINAL="125" NAME="??0DenseOpticalFlow@cv@@QEAA@AEBV01@@Z" PURGE="0" COMMENT="" />
    <EXPORT ORDINAL="126" NAME="??0DenseOpticalFlow@cv@@QEAA@XZ" PURGE="0" COMMENT="" />
    <EXPORT ORDINAL="127" NAME="??0DenseOpticalFlowExt@superres@cv@@QEAA@AEBV012@@Z" PURGE="0" COMMENT="" />
    <EXPORT ORDINAL="128" NAME="??0DenseOpticalFlowExt@superres@cv@@QEAA@XZ" PURGE="0" COMMENT="" />
    <EXPORT ORDINAL="129" NAME="??0DescriptorMatcher@cv@@QEAA@AEBV01@@Z" PURGE="0" COMMENT="" />
    <EXPORT ORDINAL="130" NAME="??0DescriptorMatcher@cv@@QEAA@XZ" PURGE="0" COMMENT="" />
    <EXPORT ORDINAL="131" NAME="??0DetectionBasedTracker@cv@@QEAA@AEBV01@@Z" PURGE="0" COMMENT="" />
    <EXPORT ORDINAL="132" NAME="??0DeviceInfo@cuda@cv@@QEAA@H@Z" PURGE="0" COMMENT="" />
    <EXPORT ORDINAL="133" NAME="??0DeviceInfo@cuda@cv@@QEAA@XZ" PURGE="0" COMMENT="" />
    <EXPORT ORDINAL="134" NAME="??0DisjointSets@detail@cv@@QEAA@AEBV012@@Z" PURGE="0" COMMENT="" />
    <EXPORT ORDINAL="135" NAME="??0DisjointSets@detail@cv@@QEAA@H@Z" PURGE="0" COMMENT="" />
    <EXPORT ORDINAL="136" NAME="??0DownhillSolver@cv@@QEAA@AEBV01@@Z" PURGE="0" COMMENT="" />
    <EXPORT ORDINAL="137" NAME="??0DownhillSolver@cv@@QEAA@XZ" PURGE="0" COMMENT="" />
    <EXPORT ORDINAL="138" NAME="??0DpSeamFinder@detail@cv@@QEAA@AEBV012@@Z" PURGE="0" COMMENT="" />
    <EXPORT ORDINAL="139" NAME="??0DualTVL1OpticalFlow@cv@@QEAA@AEBV01@@Z" PURGE="0" COMMENT="" />
    <EXPORT ORDINAL="140" NAME="??0DualTVL1OpticalFlow@cv@@QEAA@XZ" PURGE="0" COMMENT="" />
    <EXPORT ORDINAL="141" NAME="??0DualTVL1OpticalFlow@superres@cv@@QEAA@AEBV012@@Z" PURGE="0" COMMENT="" />
    <EXPORT ORDINAL="142" NAME="??0DualTVL1OpticalFlow@superres@cv@@QEAA@XZ" PURGE="0" COMMENT="" />
    <EXPORT ORDINAL="143" NAME="??0EM@ml@cv@@QEAA@AEBV012@@Z" PURGE="0" COMMENT="" />
    <EXPORT ORDINAL="144" NAME="??0EM@ml@cv@@QEAA@XZ" PURGE="0" COMMENT="" />
    <EXPORT ORDINAL="145" NAME="??0EMDHistogramCostExtractor@cv@@QEAA@AEBV01@@Z" PURGE="0" COMMENT="" />
    <EXPORT ORDINAL="146" NAME="??0EMDHistogramCostExtractor@cv@@QEAA@XZ" PURGE="0" COMMENT="" />
    <EXPORT ORDINAL="147" NAME="??0EMDL1HistogramCostExtractor@cv@@QEAA@AEBV01@@Z" PURGE="0" COMMENT="" />
    <EXPORT ORDINAL="148" NAME="??0EMDL1HistogramCostExtractor@cv@@QEAA@XZ" PURGE="0" COMMENT="" />
    <EXPORT ORDINAL="149" NAME="??0ERFilter@text@cv@@QEAA@AEBV012@@Z" PURGE="0" COMMENT="" />
    <EXPORT ORDINAL="150" NAME="??0ERFilter@text@cv@@QEAA@XZ" PURGE="0" COMMENT="" />
    <EXPORT ORDINAL="151" NAME="??0ERStat@text@cv@@QEAA@AEBU012@@Z" PURGE="0" COMMENT="" />
    <EXPORT ORDINAL="152" NAME="??0Estimator@detail@cv@@QEAA@AEBV012@@Z" PURGE="0" COMMENT="" />
    <EXPORT ORDINAL="153" NAME="??0Estimator@detail@cv@@QEAA@XZ" PURGE="0" COMMENT="" />
    <EXPORT ORDINAL="154" NAME="??0Event@cuda@cv@@QEAA@AEBV012@@Z" PURGE="0" COMMENT="" />
    <EXPORT ORDINAL="155" NAME="??0Exception@cv@@QEAA@AEBV01@@Z" PURGE="0" COMMENT="" />
    <EXPORT ORDINAL="156" NAME="??0ExposureCompensator@detail@cv@@QEAA@AEBV012@@Z" PURGE="0" COMMENT="" />
    <EXPORT ORDINAL="157" NAME="??0ExposureCompensator@detail@cv@@QEAA@XZ" PURGE="0" COMMENT="" />
    <EXPORT ORDINAL="158" NAME="??0FREAK@xfeatures2d@cv@@QEAA@AEBV012@@Z" PURGE="0" COMMENT="" />
    <EXPORT ORDINAL="159" NAME="??0FREAK@xfeatures2d@cv@@QEAA@XZ" PURGE="0" COMMENT="" />
    <EXPORT ORDINAL="160" NAME="??0FaceRecognizer@face@cv@@QEAA@AEBV012@@Z" PURGE="0" COMMENT="" />
    <EXPORT ORDINAL="161" NAME="??0FaceRecognizer@face@cv@@QEAA@XZ" PURGE="0" COMMENT="" />
    <EXPORT ORDINAL="162" NAME="??0FarnebackOpticalFlow@superres@cv@@QEAA@AEBV012@@Z" PURGE="0" COMMENT="" />
    <EXPORT ORDINAL="163" NAME="??0FarnebackOpticalFlow@superres@cv@@QEAA@XZ" PURGE="0" COMMENT="" />
    <EXPORT ORDINAL="164" NAME="??0FastFeatureDetector@cv@@QEAA@AEBV01@@Z" PURGE="0" COMMENT="" />
    <EXPORT ORDINAL="165" NAME="??0FastFeatureDetector@cv@@QEAA@XZ" PURGE="0" COMMENT="" />
    <EXPORT ORDINAL="166" NAME="??0FastMarchingMethod@videostab@cv@@QEAA@AEBV012@@Z" PURGE="0" COMMENT="" />
    <EXPORT ORDINAL="167" NAME="??0FastMarchingMethod@videostab@cv@@QEAA@XZ" PURGE="0" COMMENT="" />
    <EXPORT ORDINAL="168" NAME="??0FeatherBlender@detail@cv@@QEAA@AEBV012@@Z" PURGE="0" COMMENT="" />
    <EXPORT ORDINAL="169" NAME="??0FeatherBlender@detail@cv@@QEAA@M@Z" PURGE="0" COMMENT="" />
    <EXPORT ORDINAL="170" NAME="??0Feature2D@cv@@QEAA@AEBV01@@Z" PURGE="0" COMMENT="" />
    <EXPORT ORDINAL="171" NAME="??0Feature2D@cv@@QEAA@XZ" PURGE="0" COMMENT="" />
    <EXPORT ORDINAL="172" NAME="??0FeaturesFinder@detail@cv@@QEAA@AEBV012@@Z" PURGE="0" COMMENT="" />
    <EXPORT ORDINAL="173" NAME="??0FeaturesFinder@detail@cv@@QEAA@XZ" PURGE="0" COMMENT="" />
    <EXPORT ORDINAL="174" NAME="??0FeaturesMatcher@detail@cv@@IEAA@_N@Z" PURGE="0" COMMENT="" />
    <EXPORT ORDINAL="175" NAME="??0FeaturesMatcher@detail@cv@@QEAA@AEBV012@@Z" PURGE="0" COMMENT="" />
    <EXPORT ORDINAL="176" NAME="??0FileNode@cv@@QEAA@AEBV01@@Z" PURGE="0" COMMENT="" />
    <EXPORT ORDINAL="177" NAME="??0FileNode@cv@@QEAA@PEBUCvFileStorage@@PEBUCvFileNode@@@Z" PURGE="0" COMMENT="" />
    <EXPORT ORDINAL="178" NAME="??0FileNode@cv@@QEAA@XZ" PURGE="0" COMMENT="" />
    <EXPORT ORDINAL="179" NAME="??0FileStorage@cv@@QEAA@AEBV01@@Z" PURGE="0" COMMENT="" />
    <EXPORT ORDINAL="180" NAME="??0FisheyeWarper@detail@cv@@QEAA@AEBV012@@Z" PURGE="0" COMMENT="" />
    <EXPORT ORDINAL="181" NAME="??0FisheyeWarper@detail@cv@@QEAA@M@Z" PURGE="0" COMMENT="" />
    <EXPORT ORDINAL="182" NAME="??0FlannBasedMatcher@cv@@QEAA@AEBV01@@Z" PURGE="0" COMMENT="" />
    <EXPORT ORDINAL="183" NAME="??0Formatted@cv@@QEAA@AEBV01@@Z" PURGE="0" COMMENT="" />
    <EXPORT ORDINAL="184" NAME="??0Formatted@cv@@QEAA@XZ" PURGE="0" COMMENT="" />
    <EXPORT ORDINAL="185" NAME="??0Formatter@cv@@QEAA@AEBV01@@Z" PURGE="0" COMMENT="" />
    <EXPORT ORDINAL="186" NAME="??0Formatter@cv@@QEAA@XZ" PURGE="0" COMMENT="" />
    <EXPORT ORDINAL="187" NAME="??0FrameSource@superres@cv@@QEAA@AEBV012@@Z" PURGE="0" COMMENT="" />
    <EXPORT ORDINAL="188" NAME="??0FrameSource@superres@cv@@QEAA@XZ" PURGE="0" COMMENT="" />
    <EXPORT ORDINAL="189" NAME="??0Function@MinProblemSolver@cv@@QEAA@AEBV012@@Z" PURGE="0" COMMENT="" />
    <EXPORT ORDINAL="190" NAME="??0Function@MinProblemSolver@cv@@QEAA@XZ" PURGE="0" COMMENT="" />
    <EXPORT ORDINAL="191" NAME="??0GFTTDetector@cv@@QEAA@AEBV01@@Z" PURGE="0" COMMENT="" />
    <EXPORT ORDINAL="192" NAME="??0GFTTDetector@cv@@QEAA@XZ" PURGE="0" COMMENT="" />
    <EXPORT ORDINAL="193" NAME="??0GainCompensator@detail@cv@@QEAA@AEBV012@@Z" PURGE="0" COMMENT="" />
    <EXPORT ORDINAL="194" NAME="??0GainCompensator@detail@cv@@QEAA@XZ" PURGE="0" COMMENT="" />
    <EXPORT ORDINAL="195" NAME="??0GaussianMotionFilter@videostab@cv@@QEAA@AEBV012@@Z" PURGE="0" COMMENT="" />
    <EXPORT ORDINAL="196" NAME="??0GaussianMotionFilter@videostab@cv@@QEAA@HM@Z" PURGE="0" COMMENT="" />
    <EXPORT ORDINAL="197" NAME="??0GeneralizedHough@cv@@QEAA@AEBV01@@Z" PURGE="0" COMMENT="" />
    <EXPORT ORDINAL="198" NAME="??0GeneralizedHough@cv@@QEAA@XZ" PURGE="0" COMMENT="" />
    <EXPORT ORDINAL="199" NAME="??0GeneralizedHoughBallard@cv@@QEAA@AEBV01@@Z" PURGE="0" COMMENT="" />
    <EXPORT ORDINAL="200" NAME="??0GeneralizedHoughBallard@cv@@QEAA@XZ" PURGE="0" COMMENT="" />
    <EXPORT ORDINAL="201" NAME="??0GeneralizedHoughGuil@cv@@QEAA@AEBV01@@Z" PURGE="0" COMMENT="" />
    <EXPORT ORDINAL="202" NAME="??0GeneralizedHoughGuil@cv@@QEAA@XZ" PURGE="0" COMMENT="" />
    <EXPORT ORDINAL="203" NAME="??0GpuMat@cuda@cv@@QEAA@AEBV012@@Z" PURGE="0" COMMENT="" />
    <EXPORT ORDINAL="204" NAME="??0GpuMat@cuda@cv@@QEAA@AEBV_InputArray@2@PEAVAllocator@012@@Z" PURGE="0" COMMENT="" />
    <EXPORT ORDINAL="205" NAME="??0GpuMat@cuda@cv@@QEAA@HHHPEAVAllocator@012@@Z" PURGE="0" COMMENT="" />
    <EXPORT ORDINAL="206" NAME="??0GpuMat@cuda@cv@@QEAA@HHHV?$Scalar_@N@2@PEAVAllocator@012@@Z" PURGE="0" COMMENT="" />
    <EXPORT ORDINAL="207" NAME="??0GpuMat@cuda@cv@@QEAA@PEAVAllocator@012@@Z" PURGE="0" COMMENT="" />
    <EXPORT ORDINAL="208" NAME="??0GpuMat@cuda@cv@@QEAA@V?$Size_@H@2@HPEAVAllocator@012@@Z" PURGE="0" COMMENT="" />
    <EXPORT ORDINAL="209" NAME="??0GpuMat@cuda@cv@@QEAA@V?$Size_@H@2@HV?$Scalar_@N@2@PEAVAllocator@012@@Z" PURGE="0" COMMENT="" />
    <EXPORT ORDINAL="210" NAME="??0Graph@detail@cv@@QEAA@AEBV012@@Z" PURGE="0" COMMENT="" />
    <EXPORT ORDINAL="211" NAME="??0Graph@detail@cv@@QEAA@H@Z" PURGE="0" COMMENT="" />
    <EXPORT ORDINAL="212" NAME="??0GraphCutSeamFinder@detail@cv@@QEAA@AEBV012@@Z" PURGE="0" COMMENT="" />
    <EXPORT ORDINAL="213" NAME="??0GraphEdge@detail@cv@@QEAA@HHM@Z" PURGE="0" COMMENT="" />
    <EXPORT ORDINAL="214" NAME="??0HOGDescriptor@cv@@QEAA@AEBU01@@Z" PURGE="0" COMMENT="" />
    <EXPORT ORDINAL="215" NAME="??0HOGDescriptor@cv@@QEAA@AEBVString@1@@Z" PURGE="0" COMMENT="" />
    <EXPORT ORDINAL="216" NAME="??0HOGDescriptor@cv@@QEAA@V?$Size_@H@1@000HHNHN_NH1@Z" PURGE="0" COMMENT="" />
    <EXPORT ORDINAL="217" NAME="??0HOGDescriptor@cv@@QEAA@XZ" PURGE="0" COMMENT="" />
    <EXPORT ORDINAL="218" NAME="??0HausdorffDistanceExtractor@cv@@QEAA@AEBV01@@Z" PURGE="0" COMMENT="" />
    <EXPORT ORDINAL="219" NAME="??0HausdorffDistanceExtractor@cv@@QEAA@XZ" PURGE="0" COMMENT="" />
    <EXPORT ORDINAL="220" NAME="??0Hdr@SparseMat@cv@@QEAA@AEBU012@@Z" PURGE="0" COMMENT="" />
    <EXPORT ORDINAL="221" NAME="??0HistogramCostExtractor@cv@@QEAA@AEBV01@@Z" PURGE="0" COMMENT="" />
    <EXPORT ORDINAL="222" NAME="??0HistogramCostExtractor@cv@@QEAA@XZ" PURGE="0" COMMENT="" />
    <EXPORT ORDINAL="223" NAME="??0HomographyBasedEstimator@detail@cv@@QEAA@AEBV012@@Z" PURGE="0" COMMENT="" />
    <EXPORT ORDINAL="224" NAME="??0HomographyBasedEstimator@detail@cv@@QEAA@_N@Z" PURGE="0" COMMENT="" />
    <EXPORT ORDINAL="225" NAME="??0HostMem@cuda@cv@@QEAA@AEBV012@@Z" PURGE="0" COMMENT="" />
    <EXPORT ORDINAL="226" NAME="??0HostMem@cuda@cv@@QEAA@AEBV_InputArray@2@W4AllocType@012@@Z" PURGE="0" COMMENT="" />
    <EXPORT ORDINAL="227" NAME="??0HostMem@cuda@cv@@QEAA@HHHW4AllocType@012@@Z" PURGE="0" COMMENT="" />
    <EXPORT ORDINAL="228" NAME="??0HostMem@cuda@cv@@QEAA@V?$Size_@H@2@HW4AllocType@012@@Z" PURGE="0" COMMENT="" />
    <EXPORT ORDINAL="229" NAME="??0HostMem@cuda@cv@@QEAA@W4AllocType@012@@Z" PURGE="0" COMMENT="" />
    <EXPORT ORDINAL="230" NAME="??0IDenseOptFlowEstimator@videostab@cv@@QEAA@AEBV012@@Z" PURGE="0" COMMENT="" />
    <EXPORT ORDINAL="231" NAME="??0IDenseOptFlowEstimator@videostab@cv@@QEAA@XZ" PURGE="0" COMMENT="" />
    <EXPORT ORDINAL="232" NAME="??0IFrameSource@videostab@cv@@QEAA@AEBV012@@Z" PURGE="0" COMMENT="" />
    <EXPORT ORDINAL="233" NAME="??0IFrameSource@videostab@cv@@QEAA@XZ" PURGE="0" COMMENT="" />
    <EXPORT ORDINAL="234" NAME="??0ILog@videostab@cv@@QEAA@AEBV012@@Z" PURGE="0" COMMENT="" />
    <EXPORT ORDINAL="235" NAME="??0ILog@videostab@cv@@QEAA@XZ" PURGE="0" COMMENT="" />
    <EXPORT ORDINAL="236" NAME="??0IMotionStabilizer@videostab@cv@@QEAA@AEBV012@@Z" PURGE="0" COMMENT="" />
    <EXPORT ORDINAL="237" NAME="??0IMotionStabilizer@videostab@cv@@QEAA@XZ" PURGE="0" COMMENT="" />
    <EXPORT ORDINAL="238" NAME="??0IOutlierRejector@videostab@cv@@QEAA@AEBV012@@Z" PURGE="0" COMMENT="" />
    <EXPORT ORDINAL="239" NAME="??0IOutlierRejector@videostab@cv@@QEAA@XZ" PURGE="0" COMMENT="" />
    <EXPORT ORDINAL="240" NAME="??0ISparseOptFlowEstimator@videostab@cv@@QEAA@AEBV012@@Z" PURGE="0" COMMENT="" />
    <EXPORT ORDINAL="241" NAME="??0ISparseOptFlowEstimator@videostab@cv@@QEAA@XZ" PURGE="0" COMMENT="" />
    <EXPORT ORDINAL="242" NAME="??0ImageFeatures@detail@cv@@QEAA@AEBU012@@Z" PURGE="0" COMMENT="" />
    <EXPORT ORDINAL="243" NAME="??0ImageFeatures@detail@cv@@QEAA@XZ" PURGE="0" COMMENT="" />
    <EXPORT ORDINAL="244" NAME="??0ImageMotionEstimatorBase@videostab@cv@@IEAA@W4MotionModel@12@@Z" PURGE="0" COMMENT="" />
    <EXPORT ORDINAL="245" NAME="??0ImageMotionEstimatorBase@videostab@cv@@QEAA@AEBV012@@Z" PURGE="0" COMMENT="" />
    <EXPORT ORDINAL="246" NAME="??0Index@flann@cv@@QEAA@AEBV012@@Z" PURGE="0" COMMENT="" />
    <EXPORT ORDINAL="247" NAME="??0InpainterBase@videostab@cv@@QEAA@AEBV012@@Z" PURGE="0" COMMENT="" />
    <EXPORT ORDINAL="248" NAME="??0InpainterBase@videostab@cv@@QEAA@XZ" PURGE="0" COMMENT="" />
    <EXPORT ORDINAL="249" NAME="??0InpaintingPipeline@videostab@cv@@QEAA@AEBV012@@Z" PURGE="0" COMMENT="" />
    <EXPORT ORDINAL="250" NAME="??0InpaintingPipeline@videostab@cv@@QEAA@XZ" PURGE="0" COMMENT="" />
    <EXPORT ORDINAL="251" NAME="??0KAZE@cv@@QEAA@AEBV01@@Z" PURGE="0" COMMENT="" />
    <EXPORT ORDINAL="252" NAME="??0KAZE@cv@@QEAA@XZ" PURGE="0" COMMENT="" />
    <EXPORT ORDINAL="253" NAME="??0KNearest@ml@cv@@QEAA@AEBV012@@Z" PURGE="0" COMMENT="" />
    <EXPORT ORDINAL="254" NAME="??0KNearest@ml@cv@@QEAA@XZ" PURGE="0" COMMENT="" />
    <EXPORT ORDINAL="255" NAME="??0KalmanFilter@cv@@QEAA@AEBV01@@Z" PURGE="0" COMMENT="" />
    <EXPORT ORDINAL="256" NAME="??0Kernel@SVM@ml@cv@@QEAA@AEBV0123@@Z" PURGE="0" COMMENT="" />
    <EXPORT ORDINAL="257" NAME="??0Kernel@SVM@ml@cv@@QEAA@XZ" PURGE="0" COMMENT="" />
    <EXPORT ORDINAL="258" NAME="??0KeyPoint@cv@@QEAA@AEBV01@@Z" PURGE="0" COMMENT="" />
    <EXPORT ORDINAL="259" NAME="??0KeyPoint@cv@@QEAA@MMMMMHH@Z" PURGE="0" COMMENT="" />
    <EXPORT ORDINAL="260" NAME="??0KeyPoint@cv@@QEAA@V?$Point_@M@1@MMMHH@Z" PURGE="0" COMMENT="" />
    <EXPORT ORDINAL="261" NAME="??0KeyPoint@cv@@QEAA@XZ" PURGE="0" COMMENT="" />
    <EXPORT ORDINAL="262" NAME="??0KeyPointsFilter@cv@@QEAA@XZ" PURGE="0" COMMENT="" />
    <EXPORT ORDINAL="263" NAME="??0KeypointBasedMotionEstimator@videostab@cv@@QEAA@AEBV012@@Z" PURGE="0" COMMENT="" />
    <EXPORT ORDINAL="264" NAME="??0LATCH@xfeatures2d@cv@@QEAA@AEBV012@@Z" PURGE="0" COMMENT="" />
    <EXPORT ORDINAL="265" NAME="??0LATCH@xfeatures2d@cv@@QEAA@XZ" PURGE="0" COMMENT="" />
    <EXPORT ORDINAL="266" NAME="??0LBPHFaceRecognizer@face@cv@@QEAA@AEBV012@@Z" PURGE="0" COMMENT="" />
    <EXPORT ORDINAL="267" NAME="??0LBPHFaceRecognizer@face@cv@@QEAA@XZ" PURGE="0" COMMENT="" />
    <EXPORT ORDINAL="268" NAME="??0LDA@cv@@QEAA@AEBV01@@Z" PURGE="0" COMMENT="" />
    <EXPORT ORDINAL="269" NAME="??0LSVMDetector@lsvm@cv@@QEAA@AEBV012@@Z" PURGE="0" COMMENT="" />
    <EXPORT ORDINAL="270" NAME="??0LSVMDetector@lsvm@cv@@QEAA@XZ" PURGE="0" COMMENT="" />
    <EXPORT ORDINAL="271" NAME="??0LUCID@xfeatures2d@cv@@QEAA@AEBV012@@Z" PURGE="0" COMMENT="" />
    <EXPORT ORDINAL="272" NAME="??0LUCID@xfeatures2d@cv@@QEAA@XZ" PURGE="0" COMMENT="" />
    <EXPORT ORDINAL="273" NAME="??0LineSegmentDetector@cv@@QEAA@AEBV01@@Z" PURGE="0" COMMENT="" />
    <EXPORT ORDINAL="274" NAME="??0LineSegmentDetector@cv@@QEAA@XZ" PURGE="0" COMMENT="" />
    <EXPORT ORDINAL="275" NAME="??0LogToStdout@videostab@cv@@QEAA@AEBV012@@Z" PURGE="0" COMMENT="" />
    <EXPORT ORDINAL="276" NAME="??0LogToStdout@videostab@cv@@QEAA@XZ" PURGE="0" COMMENT="" />
    <EXPORT ORDINAL="277" NAME="??0LogisticRegression@ml@cv@@QEAA@AEBV012@@Z" PURGE="0" COMMENT="" />
    <EXPORT ORDINAL="278" NAME="??0LogisticRegression@ml@cv@@QEAA@XZ" PURGE="0" COMMENT="" />
    <EXPORT ORDINAL="279" NAME="??0LpMotionStabilizer@videostab@cv@@QEAA@AEBV012@@Z" PURGE="0" COMMENT="" />
    <EXPORT ORDINAL="280" NAME="??0MSER@cv@@QEAA@AEBV01@@Z" PURGE="0" COMMENT="" />
    <EXPORT ORDINAL="281" NAME="??0MSER@cv@@QEAA@XZ" PURGE="0" COMMENT="" />
    <EXPORT ORDINAL="282" NAME="??0MaskGenerator@BaseCascadeClassifier@cv@@QEAA@AEBV012@@Z" PURGE="0" COMMENT="" />
    <EXPORT ORDINAL="283" NAME="??0MaskGenerator@BaseCascadeClassifier@cv@@QEAA@XZ" PURGE="0" COMMENT="" />
    <EXPORT ORDINAL="284" NAME="??0Mat@cv@@QEAA@AEBV01@@Z" PURGE="0" COMMENT="" />
    <EXPORT ORDINAL="285" NAME="??0Mat@cv@@QEAA@AEBVGpuMat@cuda@1@@Z" PURGE="0" COMMENT="" />
    <EXPORT ORDINAL="286" NAME="??0Mat@cv@@QEAA@HHH@Z" PURGE="0" COMMENT="" />
    <EXPORT ORDINAL="287" NAME="??0Mat@cv@@QEAA@HHHAEBV?$Scalar_@N@1@@Z" PURGE="0" COMMENT="" />
    <EXPORT ORDINAL="288" NAME="??0Mat@cv@@QEAA@HHHPEAX_K@Z" PURGE="0" COMMENT="" />
    <EXPORT ORDINAL="289" NAME="??0Mat@cv@@QEAA@HPEBHH@Z" PURGE="0" COMMENT="" />
    <EXPORT ORDINAL="290" NAME="??0Mat@cv@@QEAA@HPEBHHAEBV?$Scalar_@N@1@@Z" PURGE="0" COMMENT="" />
    <EXPORT ORDINAL="291" NAME="??0Mat@cv@@QEAA@V?$Size_@H@1@H@Z" PURGE="0" COMMENT="" />
    <EXPORT ORDINAL="292" NAME="??0Mat@cv@@QEAA@V?$Size_@H@1@HAEBV?$Scalar_@N@1@@Z" PURGE="0" COMMENT="" />
    <EXPORT ORDINAL="293" NAME="??0Mat@cv@@QEAA@V?$Size_@H@1@HPEAX_K@Z" PURGE="0" COMMENT="" />
    <EXPORT ORDINAL="294" NAME="??0Mat@cv@@QEAA@XZ" PURGE="0" COMMENT="" />
    <EXPORT ORDINAL="295" NAME="??0MatAllocator@cv@@QEAA@AEBV01@@Z" PURGE="0" COMMENT="" />
    <EXPORT ORDINAL="296" NAME="??0MatAllocator@cv@@QEAA@XZ" PURGE="0" COMMENT="" />
    <EXPORT ORDINAL="297" NAME="??0MatConstIterator@cv@@QEAA@AEBV01@@Z" PURGE="0" COMMENT="" />
    <EXPORT ORDINAL="298" NAME="??0MatConstIterator@cv@@QEAA@PEBVMat@1@@Z" PURGE="0" COMMENT="" />
    <EXPORT ORDINAL="299" NAME="??0MatConstIterator@cv@@QEAA@PEBVMat@1@HH@Z" PURGE="0" COMMENT="" />
    <EXPORT ORDINAL="300" NAME="??0MatConstIterator@cv@@QEAA@PEBVMat@1@V?$Point_@H@1@@Z" PURGE="0" COMMENT="" />
    <EXPORT ORDINAL="301" NAME="??0MatConstIterator@cv@@QEAA@XZ" PURGE="0" COMMENT="" />
    <EXPORT ORDINAL="302" NAME="??0MatExpr@cv@@QEAA@AEBV01@@Z" PURGE="0" COMMENT="" />
    <EXPORT ORDINAL="303" NAME="??0MatExpr@cv@@QEAA@PEBVMatOp@1@HAEBVMat@1@11NNAEBV?$Scalar_@N@1@@Z" PURGE="0" COMMENT="" />
    <EXPORT ORDINAL="304" NAME="??0MatExpr@cv@@QEAA@XZ" PURGE="0" COMMENT="" />
    <EXPORT ORDINAL="305" NAME="??0MatOp@cv@@QEAA@AEBV01@@Z" PURGE="0" COMMENT="" />
    <EXPORT ORDINAL="306" NAME="??0MatSize@cv@@QEAA@PEAH@Z" PURGE="0" COMMENT="" />
    <EXPORT ORDINAL="307" NAME="??0MatStep@cv@@QEAA@XZ" PURGE="0" COMMENT="" />
    <EXPORT ORDINAL="308" NAME="??0MatStep@cv@@QEAA@_K@Z" PURGE="0" COMMENT="" />
    <EXPORT ORDINAL="309" NAME="??0MercatorWarper@detail@cv@@QEAA@AEBV012@@Z" PURGE="0" COMMENT="" />
    <EXPORT ORDINAL="310" NAME="??0MercatorWarper@detail@cv@@QEAA@M@Z" PURGE="0" COMMENT="" />
    <EXPORT ORDINAL="311" NAME="??0MergeDebevec@cv@@QEAA@AEBV01@@Z" PURGE="0" COMMENT="" />
    <EXPORT ORDINAL="312" NAME="??0MergeDebevec@cv@@QEAA@XZ" PURGE="0" COMMENT="" />
    <EXPORT ORDINAL="313" NAME="??0MergeExposures@cv@@QEAA@AEBV01@@Z" PURGE="0" COMMENT="" />
    <EXPORT ORDINAL="314" NAME="??0MergeExposures@cv@@QEAA@XZ" PURGE="0" COMMENT="" />
    <EXPORT ORDINAL="315" NAME="??0MergeMertens@cv@@QEAA@AEBV01@@Z" PURGE="0" COMMENT="" />
    <EXPORT ORDINAL="316" NAME="??0MergeMertens@cv@@QEAA@XZ" PURGE="0" COMMENT="" />
    <EXPORT ORDINAL="317" NAME="??0MergeRobertson@cv@@QEAA@AEBV01@@Z" PURGE="0" COMMENT="" />
    <EXPORT ORDINAL="318" NAME="??0MergeRobertson@cv@@QEAA@XZ" PURGE="0" COMMENT="" />
    <EXPORT ORDINAL="319" NAME="??0MinProblemSolver@cv@@QEAA@AEBV01@@Z" PURGE="0" COMMENT="" />
    <EXPORT ORDINAL="320" NAME="??0MinProblemSolver@cv@@QEAA@XZ" PURGE="0" COMMENT="" />
    <EXPORT ORDINAL="321" NAME="??0MoreAccurateMotionWobbleSuppressor@videostab@cv@@QEAA@AEBV012@@Z" PURGE="0" COMMENT="" />
    <EXPORT ORDINAL="322" NAME="??0MoreAccurateMotionWobbleSuppressor@videostab@cv@@QEAA@XZ" PURGE="0" COMMENT="" />
    <EXPORT ORDINAL="323" NAME="??0MoreAccurateMotionWobbleSuppressorBase@videostab@cv@@IEAA@XZ" PURGE="0" COMMENT="" />
    <EXPORT ORDINAL="324" NAME="??0MoreAccurateMotionWobbleSuppressorBase@videostab@cv@@QEAA@AEBV012@@Z" PURGE="0" COMMENT="" />
    <EXPORT ORDINAL="325" NAME="??0MotionEstimatorBase@videostab@cv@@IEAA@W4MotionModel@12@@Z" PURGE="0" COMMENT="" />
    <EXPORT ORDINAL="326" NAME="??0MotionEstimatorBase@videostab@cv@@QEAA@AEBV012@@Z" PURGE="0" COMMENT="" />
    <EXPORT ORDINAL="327" NAME="??0MotionEstimatorL1@videostab@cv@@QEAA@AEBV012@@Z" PURGE="0" COMMENT="" />
    <EXPORT ORDINAL="328" NAME="??0MotionEstimatorRansacL2@videostab@cv@@QEAA@AEBV012@@Z" PURGE="0" COMMENT="" />
    <EXPORT ORDINAL="329" NAME="??0MotionFilterBase@videostab@cv@@QEAA@AEBV012@@Z" PURGE="0" COMMENT="" />
    <EXPORT ORDINAL="330" NAME="??0MotionFilterBase@videostab@cv@@QEAA@XZ" PURGE="0" COMMENT="" />
    <EXPORT ORDINAL="331" NAME="??0MotionInpainter@videostab@cv@@QEAA@AEBV012@@Z" PURGE="0" COMMENT="" />
    <EXPORT ORDINAL="332" NAME="??0MotionStabilizationPipeline@videostab@cv@@QEAA@AEBV012@@Z" PURGE="0" COMMENT="" />
    <EXPORT ORDINAL="333" NAME="??0MotionStabilizationPipeline@videostab@cv@@QEAA@XZ" PURGE="0" COMMENT="" />
    <EXPORT ORDINAL="334" NAME="??0MultiBandBlender@detail@cv@@QEAA@AEBV012@@Z" PURGE="0" COMMENT="" />
    <EXPORT ORDINAL="335" NAME="??0NoExposureCompensator@detail@cv@@QEAA@AEBV012@@Z" PURGE="0" COMMENT="" />
    <EXPORT ORDINAL="336" NAME="??0NoExposureCompensator@detail@cv@@QEAA@XZ" PURGE="0" COMMENT="" />
    <EXPORT ORDINAL="337" NAME="??0NoSeamFinder@detail@cv@@QEAA@AEBV012@@Z" PURGE="0" COMMENT="" />
    <EXPORT ORDINAL="338" NAME="??0NoSeamFinder@detail@cv@@QEAA@XZ" PURGE="0" COMMENT="" />
    <EXPORT ORDINAL="339" NAME="??0NormHistogramCostExtractor@cv@@QEAA@AEBV01@@Z" PURGE="0" COMMENT="" />
    <EXPORT ORDINAL="340" NAME="??0NormHistogramCostExtractor@cv@@QEAA@XZ" PURGE="0" COMMENT="" />
    <EXPORT ORDINAL="341" NAME="??0NormalBayesClassifier@ml@cv@@QEAA@AEBV012@@Z" PURGE="0" COMMENT="" />
    <EXPORT ORDINAL="342" NAME="??0NormalBayesClassifier@ml@cv@@QEAA@XZ" PURGE="0" COMMENT="" />
    <EXPORT ORDINAL="343" NAME="??0NullDeblurer@videostab@cv@@QEAA@AEBV012@@Z" PURGE="0" COMMENT="" />
    <EXPORT ORDINAL="344" NAME="??0NullDeblurer@videostab@cv@@QEAA@XZ" PURGE="0" COMMENT="" />
    <EXPORT ORDINAL="345" NAME="??0NullFrameSource@videostab@cv@@QEAA@AEBV012@@Z" PURGE="0" COMMENT="" />
    <EXPORT ORDINAL="346" NAME="??0NullFrameSource@videostab@cv@@QEAA@XZ" PURGE="0" COMMENT="" />
    <EXPORT ORDINAL="347" NAME="??0NullInpainter@videostab@cv@@QEAA@AEBV012@@Z" PURGE="0" COMMENT="" />
    <EXPORT ORDINAL="348" NAME="??0NullInpainter@videostab@cv@@QEAA@XZ" PURGE="0" COMMENT="" />
    <EXPORT ORDINAL="349" NAME="??0NullLog@videostab@cv@@QEAA@AEBV012@@Z" PURGE="0" COMMENT="" />
    <EXPORT ORDINAL="350" NAME="??0NullLog@videostab@cv@@QEAA@XZ" PURGE="0" COMMENT="" />
    <EXPORT ORDINAL="351" NAME="??0NullOutlierRejector@videostab@cv@@QEAA@AEBV012@@Z" PURGE="0" COMMENT="" />
    <EXPORT ORDINAL="352" NAME="??0NullOutlierRejector@videostab@cv@@QEAA@XZ" PURGE="0" COMMENT="" />
    <EXPORT ORDINAL="353" NAME="??0NullWobbleSuppressor@videostab@cv@@QEAA@AEBV012@@Z" PURGE="0" COMMENT="" />
    <EXPORT ORDINAL="354" NAME="??0NullWobbleSuppressor@videostab@cv@@QEAA@XZ" PURGE="0" COMMENT="" />
    <EXPORT ORDINAL="355" NAME="??0ORB@cv@@QEAA@AEBV01@@Z" PURGE="0" COMMENT="" />
    <EXPORT ORDINAL="356" NAME="??0ORB@cv@@QEAA@XZ" PURGE="0" COMMENT="" />
    <EXPORT ORDINAL="357" NAME="??0ObjectDetection@LSVMDetector@lsvm@cv@@QEAA@AEBU0123@@Z" PURGE="0" COMMENT="" />
    <EXPORT ORDINAL="358" NAME="??0OnePassStabilizer@videostab@cv@@QEAA@AEBV012@@Z" PURGE="0" COMMENT="" />
    <EXPORT ORDINAL="359" NAME="??0OrbFeaturesFinder@detail@cv@@QEAA@AEBV012@@Z" PURGE="0" COMMENT="" />
    <EXPORT ORDINAL="360" NAME="??0PCA@cv@@QEAA@AEBV01@@Z" PURGE="0" COMMENT="" />
    <EXPORT ORDINAL="361" NAME="??0PairwiseSeamFinder@detail@cv@@QEAA@AEBV012@@Z" PURGE="0" COMMENT="" />
    <EXPORT ORDINAL="362" NAME="??0PairwiseSeamFinder@detail@cv@@QEAA@XZ" PURGE="0" COMMENT="" />
    <EXPORT ORDINAL="363" NAME="??0PaniniPortraitWarper@detail@cv@@QEAA@AEBV012@@Z" PURGE="0" COMMENT="" />
    <EXPORT ORDINAL="364" NAME="??0PaniniPortraitWarper@detail@cv@@QEAA@MMM@Z" PURGE="0" COMMENT="" />
    <EXPORT ORDINAL="365" NAME="??0PaniniWarper@detail@cv@@QEAA@AEBV012@@Z" PURGE="0" COMMENT="" />
    <EXPORT ORDINAL="366" NAME="??0PaniniWarper@detail@cv@@QEAA@MMM@Z" PURGE="0" COMMENT="" />
    <EXPORT ORDINAL="367" NAME="??0ParallelLoopBody@cv@@QEAA@AEBV01@@Z" PURGE="0" COMMENT="" />
    <EXPORT ORDINAL="368" NAME="??0ParallelLoopBody@cv@@QEAA@XZ" PURGE="0" COMMENT="" />
    <EXPORT ORDINAL="369" NAME="??0PlanePortraitWarper@detail@cv@@QEAA@AEBV012@@Z" PURGE="0" COMMENT="" />
    <EXPORT ORDINAL="370" NAME="??0PlanePortraitWarper@detail@cv@@QEAA@M@Z" PURGE="0" COMMENT="" />
    <EXPORT ORDINAL="371" NAME="??0PlaneWarper@detail@cv@@QEAA@AEBV012@@Z" PURGE="0" COMMENT="" />
    <EXPORT ORDINAL="372" NAME="??0PlaneWarper@detail@cv@@QEAA@M@Z" PURGE="0" COMMENT="" />
    <EXPORT ORDINAL="373" NAME="??0PlaneWarperGpu@detail@cv@@QEAA@AEBV012@@Z" PURGE="0" COMMENT="" />
    <EXPORT ORDINAL="374" NAME="??0PlaneWarperGpu@detail@cv@@QEAA@M@Z" PURGE="0" COMMENT="" />
    <EXPORT ORDINAL="375" NAME="??0PyrLkOptFlowEstimatorBase@videostab@cv@@QEAA@AEBV012@@Z" PURGE="0" COMMENT="" />
    <EXPORT ORDINAL="376" NAME="??0PyrLkOptFlowEstimatorBase@videostab@cv@@QEAA@XZ" PURGE="0" COMMENT="" />
    <EXPORT ORDINAL="377" NAME="??0RNG@cv@@QEAA@XZ" PURGE="0" COMMENT="" />
    <EXPORT ORDINAL="378" NAME="??0RNG@cv@@QEAA@_K@Z" PURGE="0" COMMENT="" />
    <EXPORT ORDINAL="379" NAME="??0RTrees@ml@cv@@QEAA@AEBV012@@Z" PURGE="0" COMMENT="" />
    <EXPORT ORDINAL="380" NAME="??0RTrees@ml@cv@@QEAA@XZ" PURGE="0" COMMENT="" />
    <EXPORT ORDINAL="381" NAME="??0Range@cv@@QEAA@HH@Z" PURGE="0" COMMENT="" />
    <EXPORT ORDINAL="382" NAME="??0Range@cv@@QEAA@XZ" PURGE="0" COMMENT="" />
    <EXPORT ORDINAL="383" NAME="??0RansacParams@videostab@cv@@QEAA@HMMM@Z" PURGE="0" COMMENT="" />
    <EXPORT ORDINAL="384" NAME="??0RansacParams@videostab@cv@@QEAA@XZ" PURGE="0" COMMENT="" />
    <EXPORT ORDINAL="385" NAME="??0RotatedRect@cv@@QEAA@AEBV01@@Z" PURGE="0" COMMENT="" />
    <EXPORT ORDINAL="386" NAME="??0RotatedRect@cv@@QEAA@AEBV?$Point_@M@1@AEBV?$Size_@M@1@M@Z" PURGE="0" COMMENT="" />
    <EXPORT ORDINAL="387" NAME="??0RotatedRect@cv@@QEAA@XZ" PURGE="0" COMMENT="" />
    <EXPORT ORDINAL="388" NAME="??0RotationWarper@detail@cv@@QEAA@AEBV012@@Z" PURGE="0" COMMENT="" />
    <EXPORT ORDINAL="389" NAME="??0RotationWarper@detail@cv@@QEAA@XZ" PURGE="0" COMMENT="" />
    <EXPORT ORDINAL="390" NAME="??0SIFT@xfeatures2d@cv@@QEAA@AEBV012@@Z" PURGE="0" COMMENT="" />
    <EXPORT ORDINAL="391" NAME="??0SIFT@xfeatures2d@cv@@QEAA@XZ" PURGE="0" COMMENT="" />
    <EXPORT ORDINAL="392" NAME="??0SURF@xfeatures2d@cv@@QEAA@AEBV012@@Z" PURGE="0" COMMENT="" />
    <EXPORT ORDINAL="393" NAME="??0SURF@xfeatures2d@cv@@QEAA@XZ" PURGE="0" COMMENT="" />
    <EXPORT ORDINAL="394" NAME="??0SURF_CUDA@cuda@cv@@QEAA@AEBV012@@Z" PURGE="0" COMMENT="" />
    <EXPORT ORDINAL="395" NAME="??0SVD@cv@@QEAA@AEBV01@@Z" PURGE="0" COMMENT="" />
    <EXPORT ORDINAL="396" NAME="??0SVD@cv@@QEAA@AEBV_InputArray@1@H@Z" PURGE="0" COMMENT="" />
    <EXPORT ORDINAL="397" NAME="??0SVD@cv@@QEAA@XZ" PURGE="0" COMMENT="" />
    <EXPORT ORDINAL="398" NAME="??0SVM@ml@cv@@QEAA@AEBV012@@Z" PURGE="0" COMMENT="" />
    <EXPORT ORDINAL="399" NAME="??0SVM@ml@cv@@QEAA@XZ" PURGE="0" COMMENT="" />
    <EXPORT ORDINAL="400" NAME="??0SeamFinder@detail@cv@@QEAA@AEBV012@@Z" PURGE="0" COMMENT="" />
    <EXPORT ORDINAL="401" NAME="??0SeamFinder@detail@cv@@QEAA@XZ" PURGE="0" COMMENT="" />
    <EXPORT ORDINAL="402" NAME="??0ShapeContextDistanceExtractor@cv@@QEAA@AEBV01@@Z" PURGE="0" COMMENT="" />
    <EXPORT ORDINAL="403" NAME="??0ShapeContextDistanceExtractor@cv@@QEAA@XZ" PURGE="0" COMMENT="" />
    <EXPORT ORDINAL="404" NAME="??0ShapeDistanceExtractor@cv@@QEAA@AEBV01@@Z" PURGE="0" COMMENT="" />
    <EXPORT ORDINAL="405" NAME="??0ShapeDistanceExtractor@cv@@QEAA@XZ" PURGE="0" COMMENT="" />
    <EXPORT ORDINAL="406" NAME="??0ShapeTransformer@cv@@QEAA@AEBV01@@Z" PURGE="0" COMMENT="" />
    <EXPORT ORDINAL="407" NAME="??0ShapeTransformer@cv@@QEAA@XZ" PURGE="0" COMMENT="" />
    <EXPORT ORDINAL="408" NAME="??0SimilarRects@cv@@QEAA@N@Z" PURGE="0" COMMENT="" />
    <EXPORT ORDINAL="409" NAME="??0SimpleBlobDetector@cv@@QEAA@AEBV01@@Z" PURGE="0" COMMENT="" />
    <EXPORT ORDINAL="410" NAME="??0SimpleBlobDetector@cv@@QEAA@XZ" PURGE="0" COMMENT="" />
    <EXPORT ORDINAL="411" NAME="??0SparseMat@cv@@QEAA@AEBV01@@Z" PURGE="0" COMMENT="" />
    <EXPORT ORDINAL="412" NAME="??0SparseMat@cv@@QEAA@HPEBHH@Z" PURGE="0" COMMENT="" />
    <EXPORT ORDINAL="413" NAME="??0SparseMat@cv@@QEAA@XZ" PURGE="0" COMMENT="" />
    <EXPORT ORDINAL="414" NAME="??0SparseMatConstIterator@cv@@QEAA@AEBV01@@Z" PURGE="0" COMMENT="" />
    <EXPORT ORDINAL="415" NAME="??0SparseMatConstIterator@cv@@QEAA@XZ" PURGE="0" COMMENT="" />
    <EXPORT ORDINAL="416" NAME="??0SparseMatIterator@cv@@QEAA@AEBV01@@Z" PURGE="0" COMMENT="" />
    <EXPORT ORDINAL="417" NAME="??0SparseMatIterator@cv@@QEAA@PEAVSparseMat@1@@Z" PURGE="0" COMMENT="" />
    <EXPORT ORDINAL="418" NAME="??0SparseMatIterator@cv@@QEAA@XZ" PURGE="0" COMMENT="" />
    <EXPORT ORDINAL="419" NAME="??0SparsePyrLkOptFlowEstimator@videostab@cv@@QEAA@AEBV012@@Z" PURGE="0" COMMENT="" />
    <EXPORT ORDINAL="420" NAME="??0SparsePyrLkOptFlowEstimator@videostab@cv@@QEAA@XZ" PURGE="0" COMMENT="" />
    <EXPORT ORDINAL="421" NAME="??0SphericalPortraitWarper@detail@cv@@QEAA@AEBV012@@Z" PURGE="0" COMMENT="" />
    <EXPORT ORDINAL="422" NAME="??0SphericalPortraitWarper@detail@cv@@QEAA@M@Z" PURGE="0" COMMENT="" />
    <EXPORT ORDINAL="423" NAME="??0SphericalWarper@detail@cv@@QEAA@AEBV012@@Z" PURGE="0" COMMENT="" />
    <EXPORT ORDINAL="424" NAME="??0SphericalWarper@detail@cv@@QEAA@M@Z" PURGE="0" COMMENT="" />
    <EXPORT ORDINAL="425" NAME="??0SphericalWarperGpu@detail@cv@@QEAA@AEBV012@@Z" PURGE="0" COMMENT="" />
    <EXPORT ORDINAL="426" NAME="??0SphericalWarperGpu@detail@cv@@QEAA@M@Z" PURGE="0" COMMENT="" />
    <EXPORT ORDINAL="427" NAME="??0StabilizerBase@videostab@cv@@QEAA@AEBV012@@Z" PURGE="0" COMMENT="" />
    <EXPORT ORDINAL="428" NAME="??0StarDetector@xfeatures2d@cv@@QEAA@AEBV012@@Z" PURGE="0" COMMENT="" />
    <EXPORT ORDINAL="429" NAME="??0StarDetector@xfeatures2d@cv@@QEAA@XZ" PURGE="0" COMMENT="" />
    <EXPORT ORDINAL="430" NAME="??0StatModel@ml@cv@@QEAA@AEBV012@@Z" PURGE="0" COMMENT="" />
    <EXPORT ORDINAL="431" NAME="??0StatModel@ml@cv@@QEAA@XZ" PURGE="0" COMMENT="" />
    <EXPORT ORDINAL="432" NAME="??0StereoBM@cv@@QEAA@AEBV01@@Z" PURGE="0" COMMENT="" />
    <EXPORT ORDINAL="433" NAME="??0StereoBM@cv@@QEAA@XZ" PURGE="0" COMMENT="" />
    <EXPORT ORDINAL="434" NAME="??0StereoMatcher@cv@@QEAA@AEBV01@@Z" PURGE="0" COMMENT="" />
    <EXPORT ORDINAL="435" NAME="??0StereoMatcher@cv@@QEAA@XZ" PURGE="0" COMMENT="" />
    <EXPORT ORDINAL="436" NAME="??0StereoSGBM@cv@@QEAA@AEBV01@@Z" PURGE="0" COMMENT="" />
    <EXPORT ORDINAL="437" NAME="??0StereoSGBM@cv@@QEAA@XZ" PURGE="0" COMMENT="" />
    <EXPORT ORDINAL="438" NAME="??0StereographicWarper@detail@cv@@QEAA@AEBV012@@Z" PURGE="0" COMMENT="" />
    <EXPORT ORDINAL="439" NAME="??0StereographicWarper@detail@cv@@QEAA@M@Z" PURGE="0" COMMENT="" />
    <EXPORT ORDINAL="440" NAME="??0Stitcher@cv@@QEAA@AEBV01@@Z" PURGE="0" COMMENT="" />
    <EXPORT ORDINAL="441" NAME="??0Stitcher@cv@@QEAA@XZ" PURGE="0" COMMENT="" />
    <EXPORT ORDINAL="442" NAME="??0StitcherWrapper@cv@@QEAA@AEBV01@@Z" PURGE="0" COMMENT="" />
    <EXPORT ORDINAL="443" NAME="??0StitcherWrapper@cv@@QEAA@_N@Z" PURGE="0" COMMENT="" />
    <EXPORT ORDINAL="444" NAME="??0Stream@cuda@cv@@AEAA@AEBU?$Ptr@VImpl@Stream@cuda@cv@@@2@@Z" PURGE="0" COMMENT="" />
    <EXPORT ORDINAL="445" NAME="??0Stream@cuda@cv@@QEAA@AEBV012@@Z" PURGE="0" COMMENT="" />
    <EXPORT ORDINAL="446" NAME="??0String@cv@@QEAA@AEBV01@@Z" PURGE="0" COMMENT="" />
    <EXPORT ORDINAL="447" NAME="??0String@cv@@QEAA@AEBV01@_K1@Z" PURGE="0" COMMENT="" />
    <EXPORT ORDINAL="448" NAME="??0String@cv@@QEAA@AEBV?$basic_string@DU?$char_traits@D@std@@V?$allocator@D@2@@std@@@Z" PURGE="0" COMMENT="" />
    <EXPORT ORDINAL="449" NAME="??0String@cv@@QEAA@AEBV?$basic_string@DU?$char_traits@D@std@@V?$allocator@D@2@@std@@_K1@Z" PURGE="0" COMMENT="" />
    <EXPORT ORDINAL="450" NAME="??0String@cv@@QEAA@AEBVFileNode@1@@Z" PURGE="0" COMMENT="" />
    <EXPORT ORDINAL="451" NAME="??0String@cv@@QEAA@PEBD0@Z" PURGE="0" COMMENT="" />
    <EXPORT ORDINAL="452" NAME="??0String@cv@@QEAA@PEBD@Z" PURGE="0" COMMENT="" />
    <EXPORT ORDINAL="453" NAME="??0String@cv@@QEAA@PEBD_K@Z" PURGE="0" COMMENT="" />
    <EXPORT ORDINAL="454" NAME="??0String@cv@@QEAA@XZ" PURGE="0" COMMENT="" />
    <EXPORT ORDINAL="455" NAME="??0String@cv@@QEAA@_KD@Z" PURGE="0" COMMENT="" />
    <EXPORT ORDINAL="456" NAME="??0Subdiv2D@cv@@QEAA@AEBV01@@Z" PURGE="0" COMMENT="" />
    <EXPORT ORDINAL="457" NAME="??0SuperResolution@superres@cv@@QEAA@AEBV012@@Z" PURGE="0" COMMENT="" />
    <EXPORT ORDINAL="458" NAME="??0SurfFeaturesFinder@detail@cv@@QEAA@AEBV012@@Z" PURGE="0" COMMENT="" />
    <EXPORT ORDINAL="459" NAME="??0SurfFeaturesFinderGpu@detail@cv@@QEAA@AEBV012@@Z" PURGE="0" COMMENT="" />
    <EXPORT ORDINAL="460" NAME="??0TLSDataContainer@cv@@QEAA@AEBV01@@Z" PURGE="0" COMMENT="" />
    <EXPORT ORDINAL="461" NAME="??0TermCriteria@cv@@QEAA@HHN@Z" PURGE="0" COMMENT="" />
    <EXPORT ORDINAL="462" NAME="??0TermCriteria@cv@@QEAA@XZ" PURGE="0" COMMENT="" />
    <EXPORT ORDINAL="463" NAME="??0ThinPlateSplineShapeTransformer@cv@@QEAA@AEBV01@@Z" PURGE="0" COMMENT="" />
    <EXPORT ORDINAL="464" NAME="??0ThinPlateSplineShapeTransformer@cv@@QEAA@XZ" PURGE="0" COMMENT="" />
    <EXPORT ORDINAL="465" NAME="??0Tonemap@cv@@QEAA@AEBV01@@Z" PURGE="0" COMMENT="" />
    <EXPORT ORDINAL="466" NAME="??0Tonemap@cv@@QEAA@XZ" PURGE="0" COMMENT="" />
    <EXPORT ORDINAL="467" NAME="??0TonemapDrago@cv@@QEAA@AEBV01@@Z" PURGE="0" COMMENT="" />
    <EXPORT ORDINAL="468" NAME="??0TonemapDrago@cv@@QEAA@XZ" PURGE="0" COMMENT="" />
    <EXPORT ORDINAL="469" NAME="??0TonemapDurand@cv@@QEAA@AEBV01@@Z" PURGE="0" COMMENT="" />
    <EXPORT ORDINAL="470" NAME="??0TonemapDurand@cv@@QEAA@XZ" PURGE="0" COMMENT="" />
    <EXPORT ORDINAL="471" NAME="??0TonemapMantiuk@cv@@QEAA@AEBV01@@Z" PURGE="0" COMMENT="" />
    <EXPORT ORDINAL="472" NAME="??0TonemapMantiuk@cv@@QEAA@XZ" PURGE="0" COMMENT="" />
    <EXPORT ORDINAL="473" NAME="??0TonemapReinhard@cv@@QEAA@AEBV01@@Z" PURGE="0" COMMENT="" />
    <EXPORT ORDINAL="474" NAME="??0TonemapReinhard@cv@@QEAA@XZ" PURGE="0" COMMENT="" />
    <EXPORT ORDINAL="475" NAME="??0TrainData@ml@cv@@QEAA@AEBV012@@Z" PURGE="0" COMMENT="" />
    <EXPORT ORDINAL="476" NAME="??0TrainData@ml@cv@@QEAA@XZ" PURGE="0" COMMENT="" />
    <EXPORT ORDINAL="477" NAME="??0TranslationBasedLocalOutlierRejector@videostab@cv@@QEAA@AEBV012@@Z" PURGE="0" COMMENT="" />
    <EXPORT ORDINAL="478" NAME="??0TransverseMercatorWarper@detail@cv@@QEAA@AEBV012@@Z" PURGE="0" COMMENT="" />
    <EXPORT ORDINAL="479" NAME="??0TransverseMercatorWarper@detail@cv@@QEAA@M@Z" PURGE="0" COMMENT="" />
    <EXPORT ORDINAL="480" NAME="??0TwoPassStabilizer@videostab@cv@@QEAA@AEBV012@@Z" PURGE="0" COMMENT="" />
    <EXPORT ORDINAL="481" NAME="??0UMat@cv@@QEAA@AEBV01@@Z" PURGE="0" COMMENT="" />
    <EXPORT ORDINAL="482" NAME="??0UMat@cv@@QEAA@HHHAEBV?$Scalar_@N@1@W4UMatUsageFlags@1@@Z" PURGE="0" COMMENT="" />
    <EXPORT ORDINAL="483" NAME="??0UMat@cv@@QEAA@HHHW4UMatUsageFlags@1@@Z" PURGE="0" COMMENT="" />
    <EXPORT ORDINAL="484" NAME="??0UMat@cv@@QEAA@HPEBHHAEBV?$Scalar_@N@1@W4UMatUsageFlags@1@@Z" PURGE="0" COMMENT="" />
    <EXPORT ORDINAL="485" NAME="??0UMat@cv@@QEAA@HPEBHHW4UMatUsageFlags@1@@Z" PURGE="0" COMMENT="" />
    <EXPORT ORDINAL="486" NAME="??0UMat@cv@@QEAA@V?$Size_@H@1@HAEBV?$Scalar_@N@1@W4UMatUsageFlags@1@@Z" PURGE="0" COMMENT="" />
    <EXPORT ORDINAL="487" NAME="??0UMat@cv@@QEAA@V?$Size_@H@1@HW4UMatUsageFlags@1@@Z" PURGE="0" COMMENT="" />
    <EXPORT ORDINAL="488" NAME="??0UMat@cv@@QEAA@W4UMatUsageFlags@1@@Z" PURGE="0" COMMENT="" />
    <EXPORT ORDINAL="489" NAME="??0UMatDataAutoLock@cv@@QEAA@PEAUUMatData@1@@Z" PURGE="0" COMMENT="" />
    <EXPORT ORDINAL="490" NAME="??0Vertex@Subdiv2D@cv@@QEAA@AEBU012@@Z" PURGE="0" COMMENT="" />
    <EXPORT ORDINAL="491" NAME="??0VideoCapture@cv@@QEAA@AEBV01@@Z" PURGE="0" COMMENT="" />
    <EXPORT ORDINAL="492" NAME="??0VideoFileSource@videostab@cv@@QEAA@AEBV012@@Z" PURGE="0" COMMENT="" />
    <EXPORT ORDINAL="493" NAME="??0VideoWriter@cv@@QEAA@AEBV01@@Z" PURGE="0" COMMENT="" />
    <EXPORT ORDINAL="494" NAME="??0VoronoiSeamFinder@detail@cv@@QEAA@AEBV012@@Z" PURGE="0" COMMENT="" />
    <EXPORT ORDINAL="495" NAME="??0VoronoiSeamFinder@detail@cv@@QEAA@XZ" PURGE="0" COMMENT="" />
    <EXPORT ORDINAL="496" NAME="??0WeightingDeblurer@videostab@cv@@QEAA@AEBV012@@Z" PURGE="0" COMMENT="" />
    <EXPORT ORDINAL="497" NAME="??0WobbleSuppressorBase@videostab@cv@@QEAA@AEBV012@@Z" PURGE="0" COMMENT="" />
    <EXPORT ORDINAL="498" NAME="??0_InputArray@cv@@QEAA@AEBN@Z" PURGE="0" COMMENT="" />
    <EXPORT ORDINAL="499" NAME="??0_InputArray@cv@@QEAA@AEBV01@@Z" PURGE="0" COMMENT="" />
    <EXPORT ORDINAL="500" NAME="??0_InputArray@cv@@QEAA@AEBV?$vector@VMat@cv@@V?$allocator@VMat@cv@@@std@@@std@@@Z" PURGE="0" COMMENT="" />
    <EXPORT ORDINAL="501" NAME="??0_InputArray@cv@@QEAA@AEBV?$vector@VUMat@cv@@V?$allocator@VUMat@cv@@@std@@@std@@@Z" PURGE="0" COMMENT="" />
    <EXPORT ORDINAL="502" NAME="??0_InputArray@cv@@QEAA@AEBV?$vector@_NV?$allocator@_N@std@@@std@@@Z" PURGE="0" COMMENT="" />
    <EXPORT ORDINAL="503" NAME="??0_InputArray@cv@@QEAA@AEBVBuffer@ogl@1@@Z" PURGE="0" COMMENT="" />
    <EXPORT ORDINAL="504" NAME="??0_InputArray@cv@@QEAA@AEBVGpuMat@cuda@1@@Z" PURGE="0" COMMENT="" />
    <EXPORT ORDINAL="505" NAME="??0_InputArray@cv@@QEAA@AEBVHostMem@cuda@1@@Z" PURGE="0" COMMENT="" />
    <EXPORT ORDINAL="506" NAME="??0_InputArray@cv@@QEAA@AEBVMat@1@@Z" PURGE="0" COMMENT="" />
    <EXPORT ORDINAL="507" NAME="??0_InputArray@cv@@QEAA@AEBVMatExpr@1@@Z" PURGE="0" COMMENT="" />
    <EXPORT ORDINAL="508" NAME="??0_InputArray@cv@@QEAA@AEBVUMat@1@@Z" PURGE="0" COMMENT="" />
    <EXPORT ORDINAL="509" NAME="??0_InputArray@cv@@QEAA@HPEAX@Z" PURGE="0" COMMENT="" />
    <EXPORT ORDINAL="510" NAME="??0_InputArray@cv@@QEAA@XZ" PURGE="0" COMMENT="" />
    <EXPORT ORDINAL="511" NAME="??0_InputOutputArray@cv@@QEAA@AEAV?$vector@VMat@cv@@V?$allocator@VMat@cv@@@std@@@std@@@Z" PURGE="0" COMMENT="" />
    <EXPORT ORDINAL="512" NAME="??0_InputOutputArray@cv@@QEAA@AEAV?$vector@VUMat@cv@@V?$allocator@VUMat@cv@@@std@@@std@@@Z" PURGE="0" COMMENT="" />
    <EXPORT ORDINAL="513" NAME="??0_InputOutputArray@cv@@QEAA@AEAV?$vector@_NV?$allocator@_N@std@@@std@@@Z" PURGE="0" COMMENT="" />
    <EXPORT ORDINAL="514" NAME="??0_InputOutputArray@cv@@QEAA@AEAVBuffer@ogl@1@@Z" PURGE="0" COMMENT="" />
    <EXPORT ORDINAL="515" NAME="??0_InputOutputArray@cv@@QEAA@AEAVGpuMat@cuda@1@@Z" PURGE="0" COMMENT="" />
    <EXPORT ORDINAL="516" NAME="??0_InputOutputArray@cv@@QEAA@AEAVHostMem@cuda@1@@Z" PURGE="0" COMMENT="" />
    <EXPORT ORDINAL="517" NAME="??0_InputOutputArray@cv@@QEAA@AEAVMat@1@@Z" PURGE="0" COMMENT="" />
    <EXPORT ORDINAL="518" NAME="??0_InputOutputArray@cv@@QEAA@AEAVUMat@1@@Z" PURGE="0" COMMENT="" />
    <EXPORT ORDINAL="519" NAME="??0_InputOutputArray@cv@@QEAA@AEBV01@@Z" PURGE="0" COMMENT="" />
    <EXPORT ORDINAL="520" NAME="??0_InputOutputArray@cv@@QEAA@AEBV?$vector@VMat@cv@@V?$allocator@VMat@cv@@@std@@@std@@@Z" PURGE="0" COMMENT="" />
    <EXPORT ORDINAL="521" NAME="??0_InputOutputArray@cv@@QEAA@AEBV?$vector@VUMat@cv@@V?$allocator@VUMat@cv@@@std@@@std@@@Z" PURGE="0" COMMENT="" />
    <EXPORT ORDINAL="522" NAME="??0_InputOutputArray@cv@@QEAA@AEBVBuffer@ogl@1@@Z" PURGE="0" COMMENT="" />
    <EXPORT ORDINAL="523" NAME="??0_InputOutputArray@cv@@QEAA@AEBVGpuMat@cuda@1@@Z" PURGE="0" COMMENT="" />
    <EXPORT ORDINAL="524" NAME="??0_InputOutputArray@cv@@QEAA@AEBVHostMem@cuda@1@@Z" PURGE="0" COMMENT="" />
    <EXPORT ORDINAL="525" NAME="??0_InputOutputArray@cv@@QEAA@AEBVMat@1@@Z" PURGE="0" COMMENT="" />
    <EXPORT ORDINAL="526" NAME="??0_InputOutputArray@cv@@QEAA@AEBVUMat@1@@Z" PURGE="0" COMMENT="" />
    <EXPORT ORDINAL="527" NAME="??0_InputOutputArray@cv@@QEAA@HPEAX@Z" PURGE="0" COMMENT="" />
    <EXPORT ORDINAL="528" NAME="??0_InputOutputArray@cv@@QEAA@XZ" PURGE="0" COMMENT="" />
    <EXPORT ORDINAL="529" NAME="??0_IplImage@@QEAA@XZ" PURGE="0" COMMENT="" />
    <EXPORT ORDINAL="530" NAME="??0_OutputArray@cv@@QEAA@AEAV?$vector@VMat@cv@@V?$allocator@VMat@cv@@@std@@@std@@@Z" PURGE="0" COMMENT="" />
    <EXPORT ORDINAL="531" NAME="??0_OutputArray@cv@@QEAA@AEAV?$vector@VUMat@cv@@V?$allocator@VUMat@cv@@@std@@@std@@@Z" PURGE="0" COMMENT="" />
    <EXPORT ORDINAL="532" NAME="??0_OutputArray@cv@@QEAA@AEAV?$vector@_NV?$allocator@_N@std@@@std@@@Z" PURGE="0" COMMENT="" />
    <EXPORT ORDINAL="533" NAME="??0_OutputArray@cv@@QEAA@AEAVBuffer@ogl@1@@Z" PURGE="0" COMMENT="" />
    <EXPORT ORDINAL="534" NAME="??0_OutputArray@cv@@QEAA@AEAVGpuMat@cuda@1@@Z" PURGE="0" COMMENT="" />
    <EXPORT ORDINAL="535" NAME="??0_OutputArray@cv@@QEAA@AEAVHostMem@cuda@1@@Z" PURGE="0" COMMENT="" />
    <EXPORT ORDINAL="536" NAME="??0_OutputArray@cv@@QEAA@AEAVMat@1@@Z" PURGE="0" COMMENT="" />
    <EXPORT ORDINAL="537" NAME="??0_OutputArray@cv@@QEAA@AEAVUMat@1@@Z" PURGE="0" COMMENT="" />
    <EXPORT ORDINAL="538" NAME="??0_OutputArray@cv@@QEAA@AEBV01@@Z" PURGE="0" COMMENT="" />
    <EXPORT ORDINAL="539" NAME="??0_OutputArray@cv@@QEAA@AEBV?$vector@VMat@cv@@V?$allocator@VMat@cv@@@std@@@std@@@Z" PURGE="0" COMMENT="" />
    <EXPORT ORDINAL="540" NAME="??0_OutputArray@cv@@QEAA@AEBV?$vector@VUMat@cv@@V?$allocator@VUMat@cv@@@std@@@std@@@Z" PURGE="0" COMMENT="" />
    <EXPORT ORDINAL="541" NAME="??0_OutputArray@cv@@QEAA@AEBVBuffer@ogl@1@@Z" PURGE="0" COMMENT="" />
    <EXPORT ORDINAL="542" NAME="??0_OutputArray@cv@@QEAA@AEBVGpuMat@cuda@1@@Z" PURGE="0" COMMENT="" />
    <EXPORT ORDINAL="543" NAME="??0_OutputArray@cv@@QEAA@AEBVHostMem@cuda@1@@Z" PURGE="0" COMMENT="" />
    <EXPORT ORDINAL="544" NAME="??0_OutputArray@cv@@QEAA@AEBVMat@1@@Z" PURGE="0" COMMENT="" />
    <EXPORT ORDINAL="545" NAME="??0_OutputArray@cv@@QEAA@AEBVUMat@1@@Z" PURGE="0" COMMENT="" />
    <EXPORT ORDINAL="546" NAME="??0_OutputArray@cv@@QEAA@HPEAX@Z" PURGE="0" COMMENT="" />
    <EXPORT ORDINAL="547" NAME="??0_OutputArray@cv@@QEAA@XZ" PURGE="0" COMMENT="" />
    <EXPORT ORDINAL="548" NAME="??1?$RotationWarperBase@UCompressedRectilinearPortraitProjector@detail@cv@@@detail@cv@@UEAA@XZ" PURGE="0" COMMENT="" />
    <EXPORT ORDINAL="549" NAME="??1?$RotationWarperBase@UCompressedRectilinearProjector@detail@cv@@@detail@cv@@UEAA@XZ" PURGE="0" COMMENT="" />
    <EXPORT ORDINAL="550" NAME="??1?$RotationWarperBase@UCylindricalPortraitProjector@detail@cv@@@detail@cv@@UEAA@XZ" PURGE="0" COMMENT="" />
    <EXPORT ORDINAL="551" NAME="??1?$RotationWarperBase@UCylindricalProjector@detail@cv@@@detail@cv@@UEAA@XZ" PURGE="0" COMMENT="" />
    <EXPORT ORDINAL="552" NAME="??1?$RotationWarperBase@UFisheyeProjector@detail@cv@@@detail@cv@@UEAA@XZ" PURGE="0" COMMENT="" />
    <EXPORT ORDINAL="553" NAME="??1?$RotationWarperBase@UMercatorProjector@detail@cv@@@detail@cv@@UEAA@XZ" PURGE="0" COMMENT="" />
    <EXPORT ORDINAL="554" NAME="??1?$RotationWarperBase@UPaniniPortraitProjector@detail@cv@@@detail@cv@@UEAA@XZ" PURGE="0" COMMENT="" />
    <EXPORT ORDINAL="555" NAME="??1?$RotationWarperBase@UPaniniProjector@detail@cv@@@detail@cv@@UEAA@XZ" PURGE="0" COMMENT="" />
    <EXPORT ORDINAL="556" NAME="??1?$RotationWarperBase@UPlanePortraitProjector@detail@cv@@@detail@cv@@UEAA@XZ" PURGE="0" COMMENT="" />
    <EXPORT ORDINAL="557" NAME="??1?$RotationWarperBase@UPlaneProjector@detail@cv@@@detail@cv@@UEAA@XZ" PURGE="0" COMMENT="" />
    <EXPORT ORDINAL="558" NAME="??1?$RotationWarperBase@USphericalPortraitProjector@detail@cv@@@detail@cv@@UEAA@XZ" PURGE="0" COMMENT="" />
    <EXPORT ORDINAL="559" NAME="??1?$RotationWarperBase@USphericalProjector@detail@cv@@@detail@cv@@UEAA@XZ" PURGE="0" COMMENT="" />
    <EXPORT ORDINAL="560" NAME="??1?$RotationWarperBase@UStereographicProjector@detail@cv@@@detail@cv@@UEAA@XZ" PURGE="0" COMMENT="" />
    <EXPORT ORDINAL="561" NAME="??1?$RotationWarperBase@UTransverseMercatorProjector@detail@cv@@@detail@cv@@UEAA@XZ" PURGE="0" COMMENT="" />
    <EXPORT ORDINAL="562" NAME="??1AKAZE@cv@@UEAA@XZ" PURGE="0" COMMENT="" />
    <EXPORT ORDINAL="563" NAME="??1ANN_MLP@ml@cv@@UEAA@XZ" PURGE="0" COMMENT="" />
    <EXPORT ORDINAL="564" NAME="??1AffineTransformer@cv@@UEAA@XZ" PURGE="0" COMMENT="" />
    <EXPORT ORDINAL="565" NAME="??1AgastFeatureDetector@cv@@UEAA@XZ" PURGE="0" COMMENT="" />
    <EXPORT ORDINAL="566" NAME="??1AlignExposures@cv@@UEAA@XZ" PURGE="0" COMMENT="" />
    <EXPORT ORDINAL="567" NAME="??1AlignMTB@cv@@UEAA@XZ" PURGE="0" COMMENT="" />
    <EXPORT ORDINAL="568" NAME="??1Allocator@GpuMat@cuda@cv@@UEAA@XZ" PURGE="0" COMMENT="" />
    <EXPORT ORDINAL="569" NAME="??1AutoLock@cv@@QEAA@XZ" PURGE="-1" COMMENT="" />
    <EXPORT ORDINAL="570" NAME="??1AutotunedIndexParams@flann@cv@@QEAA@XZ" PURGE="0" COMMENT="" />
    <EXPORT ORDINAL="571" NAME="??1BFMatcher@cv@@UEAA@XZ" PURGE="0" COMMENT="" />
    <EXPORT ORDINAL="572" NAME="??1BRISK@cv@@UEAA@XZ" PURGE="0" COMMENT="" />
    <EXPORT ORDINAL="573" NAME="??1BackgroundSubtractor@cv@@UEAA@XZ" PURGE="0" COMMENT="" />
    <EXPORT ORDINAL="574" NAME="??1BackgroundSubtractorGMG@bgsegm@cv@@UEAA@XZ" PURGE="0" COMMENT="" />
    <EXPORT ORDINAL="575" NAME="??1BackgroundSubtractorKNN@cv@@UEAA@XZ" PURGE="0" COMMENT="" />
    <EXPORT ORDINAL="576" NAME="??1BackgroundSubtractorMOG2@cv@@UEAA@XZ" PURGE="0" COMMENT="" />
    <EXPORT ORDINAL="577" NAME="??1BackgroundSubtractorMOG@bgsegm@cv@@UEAA@XZ" PURGE="0" COMMENT="" />
    <EXPORT ORDINAL="578" NAME="??1BasicFaceRecognizer@face@cv@@UEAA@XZ" PURGE="0" COMMENT="" />
    <EXPORT ORDINAL="579" NAME="??1BestOf2NearestMatcher@detail@cv@@UEAA@XZ" PURGE="0" COMMENT="" />
    <EXPORT ORDINAL="580" NAME="??1BestOf2NearestRangeMatcher@detail@cv@@UEAA@XZ" PURGE="0" COMMENT="" />
    <EXPORT ORDINAL="581" NAME="??1Blender@detail@cv@@UEAA@XZ" PURGE="0" COMMENT="" />
    <EXPORT ORDINAL="582" NAME="??1BlocksGainCompensator@detail@cv@@UEAA@XZ" PURGE="0" COMMENT="" />
    <EXPORT ORDINAL="583" NAME="??1Boost@ml@cv@@UEAA@XZ" PURGE="0" COMMENT="" />
    <EXPORT ORDINAL="584" NAME="??1BriefDescriptorExtractor@xfeatures2d@cv@@UEAA@XZ" PURGE="0" COMMENT="" />
    <EXPORT ORDINAL="585" NAME="??1BroxOpticalFlow@superres@cv@@UEAA@XZ" PURGE="0" COMMENT="" />
    <EXPORT ORDINAL="586" NAME="??1BundleAdjusterBase@detail@cv@@UEAA@XZ" PURGE="0" COMMENT="" />
    <EXPORT ORDINAL="587" NAME="??1BundleAdjusterRay@detail@cv@@UEAA@XZ" PURGE="0" COMMENT="" />
    <EXPORT ORDINAL="588" NAME="??1BundleAdjusterReproj@detail@cv@@UEAA@XZ" PURGE="0" COMMENT="" />
    <EXPORT ORDINAL="589" NAME="??1CLAHE@cv@@UEAA@XZ" PURGE="0" COMMENT="" />
    <EXPORT ORDINAL="590" NAME="??1CalibrateCRF@cv@@UEAA@XZ" PURGE="0" COMMENT="" />
    <EXPORT ORDINAL="591" NAME="??1CalibrateDebevec@cv@@UEAA@XZ" PURGE="0" COMMENT="" />
    <EXPORT ORDINAL="592" NAME="??1CalibrateRobertson@cv@@UEAA@XZ" PURGE="0" COMMENT="" />
    <EXPORT ORDINAL="593" NAME="??1Callback@ERFilter@text@cv@@UEAA@XZ" PURGE="0" COMMENT="" />
    <EXPORT ORDINAL="594" NAME="??1CameraParams@detail@cv@@QEAA@XZ" PURGE="0" COMMENT="" />
    <EXPORT ORDINAL="595" NAME="??1ChiHistogramCostExtractor@cv@@UEAA@XZ" PURGE="0" COMMENT="" />
    <EXPORT ORDINAL="596" NAME="??1ColorAverageInpainter@videostab@cv@@UEAA@XZ" PURGE="0" COMMENT="" />
    <EXPORT ORDINAL="597" NAME="??1ColorInpainter@videostab@cv@@UEAA@XZ" PURGE="0" COMMENT="" />
    <EXPORT ORDINAL="598" NAME="??1CompositeIndexParams@flann@cv@@QEAA@XZ" PURGE="0" COMMENT="" />
    <EXPORT ORDINAL="599" NAME="??1CompressedRectilinearPortraitWarper@detail@cv@@UEAA@XZ" PURGE="0" COMMENT="" />
    <EXPORT ORDINAL="600" NAME="??1CompressedRectilinearWarper@detail@cv@@UEAA@XZ" PURGE="0" COMMENT="" />
    <EXPORT ORDINAL="601" NAME="??1ConjGradSolver@cv@@UEAA@XZ" PURGE="0" COMMENT="" />
    <EXPORT ORDINAL="602" NAME="??1ConsistentMosaicInpainter@videostab@cv@@UEAA@XZ" PURGE="0" COMMENT="" />
    <EXPORT ORDINAL="603" NAME="??1CylindricalPortraitWarper@detail@cv@@UEAA@XZ" PURGE="0" COMMENT="" />
    <EXPORT ORDINAL="604" NAME="??1CylindricalWarper@detail@cv@@UEAA@XZ" PURGE="0" COMMENT="" />
    <EXPORT ORDINAL="605" NAME="??1CylindricalWarperGpu@detail@cv@@UEAA@XZ" PURGE="0" COMMENT="" />
    <EXPORT ORDINAL="606" NAME="??1DAISY@xfeatures2d@cv@@UEAA@XZ" PURGE="0" COMMENT="" />
    <EXPORT ORDINAL="607" NAME="??1DTrees@ml@cv@@UEAA@XZ" PURGE="0" COMMENT="" />
    <EXPORT ORDINAL="608" NAME="??1DeblurerBase@videostab@cv@@UEAA@XZ" PURGE="0" COMMENT="" />
    <EXPORT ORDINAL="609" NAME="??1DenseOpticalFlow@cv@@UEAA@XZ" PURGE="0" COMMENT="" />
    <EXPORT ORDINAL="610" NAME="??1DenseOpticalFlowExt@superres@cv@@UEAA@XZ" PURGE="0" COMMENT="" />
    <EXPORT ORDINAL="611" NAME="??1DisjointSets@detail@cv@@QEAA@XZ" PURGE="0" COMMENT="" />
    <EXPORT ORDINAL="612" NAME="??1DownhillSolver@cv@@UEAA@XZ" PURGE="0" COMMENT="" />
    <EXPORT ORDINAL="613" NAME="??1DpSeamFinder@detail@cv@@UEAA@XZ" PURGE="0" COMMENT="" />
    <EXPORT ORDINAL="614" NAME="??1DualTVL1OpticalFlow@cv@@UEAA@XZ" PURGE="0" COMMENT="" />
    <EXPORT ORDINAL="615" NAME="??1DualTVL1OpticalFlow@superres@cv@@UEAA@XZ" PURGE="0" COMMENT="" />
    <EXPORT ORDINAL="616" NAME="??1EM@ml@cv@@UEAA@XZ" PURGE="0" COMMENT="" />
    <EXPORT ORDINAL="617" NAME="??1EMDHistogramCostExtractor@cv@@UEAA@XZ" PURGE="0" COMMENT="" />
    <EXPORT ORDINAL="618" NAME="??1EMDL1HistogramCostExtractor@cv@@UEAA@XZ" PURGE="0" COMMENT="" />
    <EXPORT ORDINAL="619" NAME="??1ERFilter@text@cv@@UEAA@XZ" PURGE="0" COMMENT="" />
    <EXPORT ORDINAL="620" NAME="??1ERStat@text@cv@@QEAA@XZ" PURGE="0" COMMENT="" />
    <EXPORT ORDINAL="621" NAME="??1Estimator@detail@cv@@UEAA@XZ" PURGE="0" COMMENT="" />
    <EXPORT ORDINAL="622" NAME="??1Event@cuda@cv@@QEAA@XZ" PURGE="0" COMMENT="" />
    <EXPORT ORDINAL="623" NAME="??1ExposureCompensator@detail@cv@@UEAA@XZ" PURGE="0" COMMENT="" />
    <EXPORT ORDINAL="624" NAME="??1FREAK@xfeatures2d@cv@@UEAA@XZ" PURGE="0" COMMENT="" />
    <EXPORT ORDINAL="625" NAME="??1FaceRecognizer@face@cv@@UEAA@XZ" PURGE="0" COMMENT="" />
    <EXPORT ORDINAL="626" NAME="??1FarnebackOpticalFlow@superres@cv@@UEAA@XZ" PURGE="0" COMMENT="" />
    <EXPORT ORDINAL="627" NAME="??1FastFeatureDetector@cv@@UEAA@XZ" PURGE="0" COMMENT="" />
    <EXPORT ORDINAL="628" NAME="??1FastMarchingMethod@videostab@cv@@QEAA@XZ" PURGE="0" COMMENT="" />
    <EXPORT ORDINAL="629" NAME="??1FeatherBlender@detail@cv@@UEAA@XZ" PURGE="0" COMMENT="" />
    <EXPORT ORDINAL="630" NAME="??1FeaturesFinder@detail@cv@@UEAA@XZ" PURGE="0" COMMENT="" />
    <EXPORT ORDINAL="631" NAME="??1FeaturesMatcher@detail@cv@@UEAA@XZ" PURGE="0" COMMENT="" />
    <EXPORT ORDINAL="632" NAME="??1FisheyeWarper@detail@cv@@UEAA@XZ" PURGE="0" COMMENT="" />
    <EXPORT ORDINAL="633" NAME="??1FlannBasedMatcher@cv@@UEAA@XZ" PURGE="0" COMMENT="" />
    <EXPORT ORDINAL="634" NAME="??1FromFileMotionReader@videostab@cv@@UEAA@XZ" PURGE="0" COMMENT="" />
    <EXPORT ORDINAL="635" NAME="??1Function@MinProblemSolver@cv@@UEAA@XZ" PURGE="0" COMMENT="" />
    <EXPORT ORDINAL="636" NAME="??1GFTTDetector@cv@@UEAA@XZ" PURGE="0" COMMENT="" />
    <EXPORT ORDINAL="637" NAME="??1GainCompensator@detail@cv@@UEAA@XZ" PURGE="0" COMMENT="" />
    <EXPORT ORDINAL="638" NAME="??1GaussianMotionFilter@videostab@cv@@UEAA@XZ" PURGE="0" COMMENT="" />
    <EXPORT ORDINAL="639" NAME="??1GeneralizedHough@cv@@UEAA@XZ" PURGE="0" COMMENT="" />
    <EXPORT ORDINAL="640" NAME="??1GeneralizedHoughBallard@cv@@UEAA@XZ" PURGE="0" COMMENT="" />
    <EXPORT ORDINAL="641" NAME="??1GeneralizedHoughGuil@cv@@UEAA@XZ" PURGE="0" COMMENT="" />
    <EXPORT ORDINAL="642" NAME="??1GpuMat@cuda@cv@@QEAA@XZ" PURGE="0" COMMENT="" />
    <EXPORT ORDINAL="643" NAME="??1Graph@detail@cv@@QEAA@XZ" PURGE="0" COMMENT="" />
    <EXPORT ORDINAL="644" NAME="??1HOGDescriptor@cv@@UEAA@XZ" PURGE="0" COMMENT="" />
    <EXPORT ORDINAL="645" NAME="??1HausdorffDistanceExtractor@cv@@UEAA@XZ" PURGE="0" COMMENT="" />
    <EXPORT ORDINAL="646" NAME="??1Hdr@SparseMat@cv@@QEAA@XZ" PURGE="0" COMMENT="" />
    <EXPORT ORDINAL="647" NAME="??1HierarchicalClusteringIndexParams@flann@cv@@QEAA@XZ" PURGE="0" COMMENT="" />
    <EXPORT ORDINAL="648" NAME="??1HistogramCostExtractor@cv@@UEAA@XZ" PURGE="0" COMMENT="" />
    <EXPORT ORDINAL="649" NAME="??1HomographyBasedEstimator@detail@cv@@UEAA@XZ" PURGE="0" COMMENT="" />
    <EXPORT ORDINAL="650" NAME="??1HostMem@cuda@cv@@QEAA@XZ" PURGE="0" COMMENT="" />
    <EXPORT ORDINAL="651" NAME="??1IDenseOptFlowEstimator@videostab@cv@@UEAA@XZ" PURGE="0" COMMENT="" />
    <EXPORT ORDINAL="652" NAME="??1IFrameSource@videostab@cv@@UEAA@XZ" PURGE="0" COMMENT="" />
    <EXPORT ORDINAL="653" NAME="??1ILog@videostab@cv@@UEAA@XZ" PURGE="0" COMMENT="" />
    <EXPORT ORDINAL="654" NAME="??1IMotionStabilizer@videostab@cv@@UEAA@XZ" PURGE="0" COMMENT="" />
    <EXPORT ORDINAL="655" NAME="??1IOutlierRejector@videostab@cv@@UEAA@XZ" PURGE="0" COMMENT="" />
    <EXPORT ORDINAL="656" NAME="??1ISparseOptFlowEstimator@videostab@cv@@UEAA@XZ" PURGE="0" COMMENT="" />
    <EXPORT ORDINAL="657" NAME="??1ImageFeatures@detail@cv@@QEAA@XZ" PURGE="0" COMMENT="" />
    <EXPORT ORDINAL="658" NAME="??1ImageMotionEstimatorBase@videostab@cv@@UEAA@XZ" PURGE="0" COMMENT="" />
    <EXPORT ORDINAL="659" NAME="??1InpainterBase@videostab@cv@@UEAA@XZ" PURGE="0" COMMENT="" />
    <EXPORT ORDINAL="660" NAME="??1InpaintingPipeline@videostab@cv@@UEAA@XZ" PURGE="0" COMMENT="" />
    <EXPORT ORDINAL="661" NAME="??1KAZE@cv@@UEAA@XZ" PURGE="0" COMMENT="" />
    <EXPORT ORDINAL="662" NAME="??1KDTreeIndexParams@flann@cv@@QEAA@XZ" PURGE="0" COMMENT="" />
    <EXPORT ORDINAL="663" NAME="??1KMeansIndexParams@flann@cv@@QEAA@XZ" PURGE="0" COMMENT="" />
    <EXPORT ORDINAL="664" NAME="??1KNearest@ml@cv@@UEAA@XZ" PURGE="0" COMMENT="" />
    <EXPORT ORDINAL="665" NAME="??1KalmanFilter@cv@@QEAA@XZ" PURGE="0" COMMENT="" />
    <EXPORT ORDINAL="666" NAME="??1Kernel@SVM@ml@cv@@UEAA@XZ" PURGE="0" COMMENT="" />
    <EXPORT ORDINAL="667" NAME="??1KeypointBasedMotionEstimator@videostab@cv@@UEAA@XZ" PURGE="0" COMMENT="" />
    <EXPORT ORDINAL="668" NAME="??1LATCH@xfeatures2d@cv@@UEAA@XZ" PURGE="0" COMMENT="" />
    <EXPORT ORDINAL="669" NAME="??1LBPHFaceRecognizer@face@cv@@UEAA@XZ" PURGE="0" COMMENT="" />
    <EXPORT ORDINAL="670" NAME="??1LSVMDetector@lsvm@cv@@UEAA@XZ" PURGE="0" COMMENT="" />
    <EXPORT ORDINAL="671" NAME="??1LUCID@xfeatures2d@cv@@UEAA@XZ" PURGE="0" COMMENT="" />
    <EXPORT ORDINAL="672" NAME="??1LineSegmentDetector@cv@@UEAA@XZ" PURGE="0" COMMENT="" />
    <EXPORT ORDINAL="673" NAME="??1LinearIndexParams@flann@cv@@QEAA@XZ" PURGE="0" COMMENT="" />
    <EXPORT ORDINAL="674" NAME="??1LogToStdout@videostab@cv@@UEAA@XZ" PURGE="0" COMMENT="" />
    <EXPORT ORDINAL="675" NAME="??1LogisticRegression@ml@cv@@UEAA@XZ" PURGE="0" COMMENT="" />
    <EXPORT ORDINAL="676" NAME="??1LpMotionStabilizer@videostab@cv@@UEAA@XZ" PURGE="0" COMMENT="" />
    <EXPORT ORDINAL="677" NAME="??1LshIndexParams@flann@cv@@QEAA@XZ" PURGE="0" COMMENT="" />
    <EXPORT ORDINAL="678" NAME="??1MSER@cv@@UEAA@XZ" PURGE="0" COMMENT="" />
    <EXPORT ORDINAL="679" NAME="??1MaskGenerator@BaseCascadeClassifier@cv@@UEAA@XZ" PURGE="0" COMMENT="" />
    <EXPORT ORDINAL="680" NAME="??1Mat@cv@@QEAA@XZ" PURGE="0" COMMENT="" />
    <EXPORT ORDINAL="681" NAME="??1MatAllocator@cv@@UEAA@XZ" PURGE="0" COMMENT="" />
    <EXPORT ORDINAL="682" NAME="??1MatExpr@cv@@QEAA@XZ" PURGE="0" COMMENT="" />
    <EXPORT ORDINAL="683" NAME="??1MatchesInfo@detail@cv@@QEAA@XZ" PURGE="0" COMMENT="" />
    <EXPORT ORDINAL="684" NAME="??1MercatorWarper@detail@cv@@UEAA@XZ" PURGE="0" COMMENT="" />
    <EXPORT ORDINAL="685" NAME="??1MergeDebevec@cv@@UEAA@XZ" PURGE="0" COMMENT="" />
    <EXPORT ORDINAL="686" NAME="??1MergeExposures@cv@@UEAA@XZ" PURGE="0" COMMENT="" />
    <EXPORT ORDINAL="687" NAME="??1MergeMertens@cv@@UEAA@XZ" PURGE="0" COMMENT="" />
    <EXPORT ORDINAL="688" NAME="??1MergeRobertson@cv@@UEAA@XZ" PURGE="0" COMMENT="" />
    <EXPORT ORDINAL="689" NAME="??1MinProblemSolver@cv@@UEAA@XZ" PURGE="0" COMMENT="" />
    <EXPORT ORDINAL="690" NAME="??1MoreAccurateMotionWobbleSuppressor@videostab@cv@@UEAA@XZ" PURGE="0" COMMENT="" />
    <EXPORT ORDINAL="691" NAME="??1MoreAccurateMotionWobbleSuppressorBase@videostab@cv@@UEAA@XZ" PURGE="0" COMMENT="" />
    <EXPORT ORDINAL="692" NAME="??1MotionEstimatorBase@videostab@cv@@UEAA@XZ" PURGE="0" COMMENT="" />
    <EXPORT ORDINAL="693" NAME="??1MotionEstimatorL1@videostab@cv@@UEAA@XZ" PURGE="0" COMMENT="" />
    <EXPORT ORDINAL="694" NAME="??1MotionEstimatorRansacL2@videostab@cv@@UEAA@XZ" PURGE="0" COMMENT="" />
    <EXPORT ORDINAL="695" NAME="??1MotionFilterBase@videostab@cv@@UEAA@XZ" PURGE="0" COMMENT="" />
    <EXPORT ORDINAL="696" NAME="??1MotionInpainter@videostab@cv@@UEAA@XZ" PURGE="0" COMMENT="" />
    <EXPORT ORDINAL="697" NAME="??1MotionStabilizationPipeline@videostab@cv@@UEAA@XZ" PURGE="0" COMMENT="" />
    <EXPORT ORDINAL="698" NAME="??1MultiBandBlender@detail@cv@@UEAA@XZ" PURGE="0" COMMENT="" />
    <EXPORT ORDINAL="699" NAME="??1NoExposureCompensator@detail@cv@@UEAA@XZ" PURGE="0" COMMENT="" />
    <EXPORT ORDINAL="700" NAME="??1NoSeamFinder@detail@cv@@UEAA@XZ" PURGE="0" COMMENT="" />
    <EXPORT ORDINAL="701" NAME="??1NormHistogramCostExtractor@cv@@UEAA@XZ" PURGE="0" COMMENT="" />
    <EXPORT ORDINAL="702" NAME="??1NormalBayesClassifier@ml@cv@@UEAA@XZ" PURGE="0" COMMENT="" />
    <EXPORT ORDINAL="703" NAME="??1NullDeblurer@videostab@cv@@UEAA@XZ" PURGE="0" COMMENT="" />
    <EXPORT ORDINAL="704" NAME="??1NullFrameSource@videostab@cv@@UEAA@XZ" PURGE="0" COMMENT="" />
    <EXPORT ORDINAL="705" NAME="??1NullInpainter@videostab@cv@@UEAA@XZ" PURGE="0" COMMENT="" />
    <EXPORT ORDINAL="706" NAME="??1NullLog@videostab@cv@@UEAA@XZ" PURGE="0" COMMENT="" />
    <EXPORT ORDINAL="707" NAME="??1NullOutlierRejector@videostab@cv@@UEAA@XZ" PURGE="0" COMMENT="" />
    <EXPORT ORDINAL="708" NAME="??1NullWobbleSuppressor@videostab@cv@@UEAA@XZ" PURGE="0" COMMENT="" />
    <EXPORT ORDINAL="709" NAME="??1ORB@cv@@UEAA@XZ" PURGE="0" COMMENT="" />
    <EXPORT ORDINAL="710" NAME="??1OnePassStabilizer@videostab@cv@@UEAA@XZ" PURGE="0" COMMENT="" />
    <EXPORT ORDINAL="711" NAME="??1OrbFeaturesFinder@detail@cv@@UEAA@XZ" PURGE="0" COMMENT="" />
    <EXPORT ORDINAL="712" NAME="??1PCA@cv@@QEAA@XZ" PURGE="0" COMMENT="" />
    <EXPORT ORDINAL="713" NAME="??1PairwiseSeamFinder@detail@cv@@UEAA@XZ" PURGE="0" COMMENT="" />
    <EXPORT ORDINAL="714" NAME="??1PaniniPortraitWarper@detail@cv@@UEAA@XZ" PURGE="0" COMMENT="" />
    <EXPORT ORDINAL="715" NAME="??1PaniniWarper@detail@cv@@UEAA@XZ" PURGE="0" COMMENT="" />
    <EXPORT ORDINAL="716" NAME="??1PlanePortraitWarper@detail@cv@@UEAA@XZ" PURGE="0" COMMENT="" />
    <EXPORT ORDINAL="717" NAME="??1PlaneWarper@detail@cv@@UEAA@XZ" PURGE="0" COMMENT="" />
    <EXPORT ORDINAL="718" NAME="??1PlaneWarperGpu@detail@cv@@UEAA@XZ" PURGE="0" COMMENT="" />
    <EXPORT ORDINAL="719" NAME="??1PyrLkOptFlowEstimatorBase@videostab@cv@@UEAA@XZ" PURGE="0" COMMENT="" />
    <EXPORT ORDINAL="720" NAME="??1RTrees@ml@cv@@UEAA@XZ" PURGE="0" COMMENT="" />
    <EXPORT ORDINAL="721" NAME="??1RotationWarper@detail@cv@@UEAA@XZ" PURGE="0" COMMENT="" />
    <EXPORT ORDINAL="722" NAME="??1SIFT@xfeatures2d@cv@@UEAA@XZ" PURGE="0" COMMENT="" />
    <EXPORT ORDINAL="723" NAME="??1SURF@xfeatures2d@cv@@UEAA@XZ" PURGE="0" COMMENT="" />
    <EXPORT ORDINAL="724" NAME="??1SURF_CUDA@cuda@cv@@QEAA@XZ" PURGE="0" COMMENT="" />
    <EXPORT ORDINAL="725" NAME="??1SVD@cv@@QEAA@XZ" PURGE="0" COMMENT="" />
    <EXPORT ORDINAL="726" NAME="??1SVM@ml@cv@@UEAA@XZ" PURGE="0" COMMENT="" />
    <EXPORT ORDINAL="727" NAME="??1SavedIndexParams@flann@cv@@QEAA@XZ" PURGE="0" COMMENT="" />
    <EXPORT ORDINAL="728" NAME="??1SeamFinder@detail@cv@@UEAA@XZ" PURGE="0" COMMENT="" />
    <EXPORT ORDINAL="729" NAME="??1SearchParams@flann@cv@@QEAA@XZ" PURGE="0" COMMENT="" />
    <EXPORT ORDINAL="730" NAME="??1ShapeContextDistanceExtractor@cv@@UEAA@XZ" PURGE="0" COMMENT="" />
    <EXPORT ORDINAL="731" NAME="??1ShapeDistanceExtractor@cv@@UEAA@XZ" PURGE="0" COMMENT="" />
    <EXPORT ORDINAL="732" NAME="??1ShapeTransformer@cv@@UEAA@XZ" PURGE="0" COMMENT="" />
    <EXPORT ORDINAL="733" NAME="??1SimpleBlobDetector@cv@@UEAA@XZ" PURGE="0" COMMENT="" />
    <EXPORT ORDINAL="734" NAME="??1SparseMat@cv@@QEAA@XZ" PURGE="0" COMMENT="" />
    <EXPORT ORDINAL="735" NAME="??1SparsePyrLkOptFlowEstimator@videostab@cv@@UEAA@XZ" PURGE="0" COMMENT="" />
    <EXPORT ORDINAL="736" NAME="??1SphericalPortraitWarper@detail@cv@@UEAA@XZ" PURGE="0" COMMENT="" />
    <EXPORT ORDINAL="737" NAME="??1SphericalWarper@detail@cv@@UEAA@XZ" PURGE="0" COMMENT="" />
    <EXPORT ORDINAL="738" NAME="??1SphericalWarperGpu@detail@cv@@UEAA@XZ" PURGE="0" COMMENT="" />
    <EXPORT ORDINAL="739" NAME="??1StabilizerBase@videostab@cv@@UEAA@XZ" PURGE="0" COMMENT="" />
    <EXPORT ORDINAL="740" NAME="??1StarDetector@xfeatures2d@cv@@UEAA@XZ" PURGE="0" COMMENT="" />
    <EXPORT ORDINAL="741" NAME="??1StatModel@ml@cv@@UEAA@XZ" PURGE="0" COMMENT="" />
    <EXPORT ORDINAL="742" NAME="??1StereoBM@cv@@UEAA@XZ" PURGE="0" COMMENT="" />
    <EXPORT ORDINAL="743" NAME="??1StereoMatcher@cv@@UEAA@XZ" PURGE="0" COMMENT="" />
    <EXPORT ORDINAL="744" NAME="??1StereoSGBM@cv@@UEAA@XZ" PURGE="0" COMMENT="" />
    <EXPORT ORDINAL="745" NAME="??1StereographicWarper@detail@cv@@UEAA@XZ" PURGE="0" COMMENT="" />
    <EXPORT ORDINAL="746" NAME="??1Stitcher@cv@@QEAA@XZ" PURGE="0" COMMENT="" />
    <EXPORT ORDINAL="747" NAME="??1StitcherWrapper@cv@@QEAA@XZ" PURGE="0" COMMENT="" />
    <EXPORT ORDINAL="748" NAME="??1Stream@cuda@cv@@QEAA@XZ" PURGE="0" COMMENT="" />
    <EXPORT ORDINAL="749" NAME="??1String@cv@@QEAA@XZ" PURGE="0" COMMENT="" />
    <EXPORT ORDINAL="750" NAME="??1Subdiv2D@cv@@QEAA@XZ" PURGE="0" COMMENT="" />
    <EXPORT ORDINAL="751" NAME="??1SuperResolution@superres@cv@@UEAA@XZ" PURGE="0" COMMENT="" />
    <EXPORT ORDINAL="752" NAME="??1SurfFeaturesFinder@detail@cv@@UEAA@XZ" PURGE="0" COMMENT="" />
    <EXPORT ORDINAL="753" NAME="??1SurfFeaturesFinderGpu@detail@cv@@UEAA@XZ" PURGE="0" COMMENT="" />
    <EXPORT ORDINAL="754" NAME="??1ThinPlateSplineShapeTransformer@cv@@UEAA@XZ" PURGE="0" COMMENT="" />
    <EXPORT ORDINAL="755" NAME="??1ToFileMotionWriter@videostab@cv@@UEAA@XZ" PURGE="0" COMMENT="" />
    <EXPORT ORDINAL="756" NAME="??1Tonemap@cv@@UEAA@XZ" PURGE="0" COMMENT="" />
    <EXPORT ORDINAL="757" NAME="??1TonemapDrago@cv@@UEAA@XZ" PURGE="0" COMMENT="" />
    <EXPORT ORDINAL="758" NAME="??1TonemapDurand@cv@@UEAA@XZ" PURGE="0" COMMENT="" />
    <EXPORT ORDINAL="759" NAME="??1TonemapMantiuk@cv@@UEAA@XZ" PURGE="0" COMMENT="" />
    <EXPORT ORDINAL="760" NAME="??1TonemapReinhard@cv@@UEAA@XZ" PURGE="0" COMMENT="" />
    <EXPORT ORDINAL="761" NAME="??1TranslationBasedLocalOutlierRejector@videostab@cv@@UEAA@XZ" PURGE="0" COMMENT="" />
    <EXPORT ORDINAL="762" NAME="??1TransverseMercatorWarper@detail@cv@@UEAA@XZ" PURGE="0" COMMENT="" />
    <EXPORT ORDINAL="763" NAME="??1TwoPassStabilizer@videostab@cv@@UEAA@XZ" PURGE="0" COMMENT="" />
    <EXPORT ORDINAL="764" NAME="??1UMatDataAutoLock@cv@@QEAA@XZ" PURGE="-1" COMMENT="" />
    <EXPORT ORDINAL="765" NAME="??1VideoFileSource@videostab@cv@@UEAA@XZ" PURGE="0" COMMENT="" />
    <EXPORT ORDINAL="766" NAME="??1VoronoiSeamFinder@detail@cv@@UEAA@XZ" PURGE="0" COMMENT="" />
    <EXPORT ORDINAL="767" NAME="??1WeightingDeblurer@videostab@cv@@UEAA@XZ" PURGE="0" COMMENT="" />
    <EXPORT ORDINAL="768" NAME="??1WobbleSuppressorBase@videostab@cv@@UEAA@XZ" PURGE="0" COMMENT="" />
    <EXPORT ORDINAL="769" NAME="??1_InputArray@cv@@QEAA@XZ" PURGE="0" COMMENT="" />
    <EXPORT ORDINAL="770" NAME="??1_InputOutputArray@cv@@QEAA@XZ" PURGE="0" COMMENT="" />
    <EXPORT ORDINAL="771" NAME="??1_OutputArray@cv@@QEAA@XZ" PURGE="0" COMMENT="" />
    <EXPORT ORDINAL="772" NAME="??4?$RotationWarperBase@UCompressedRectilinearPortraitProjector@detail@cv@@@detail@cv@@QEAAAEAV012@AEBV012@@Z" PURGE="0" COMMENT="" />
    <EXPORT ORDINAL="773" NAME="??4?$RotationWarperBase@UCompressedRectilinearProjector@detail@cv@@@detail@cv@@QEAAAEAV012@AEBV012@@Z" PURGE="0" COMMENT="" />
    <EXPORT ORDINAL="774" NAME="??4?$RotationWarperBase@UCylindricalPortraitProjector@detail@cv@@@detail@cv@@QEAAAEAV012@AEBV012@@Z" PURGE="0" COMMENT="" />
    <EXPORT ORDINAL="775" NAME="??4?$RotationWarperBase@UCylindricalProjector@detail@cv@@@detail@cv@@QEAAAEAV012@AEBV012@@Z" PURGE="0" COMMENT="" />
    <EXPORT ORDINAL="776" NAME="??4?$RotationWarperBase@UFisheyeProjector@detail@cv@@@detail@cv@@QEAAAEAV012@AEBV012@@Z" PURGE="0" COMMENT="" />
    <EXPORT ORDINAL="777" NAME="??4?$RotationWarperBase@UMercatorProjector@detail@cv@@@detail@cv@@QEAAAEAV012@AEBV012@@Z" PURGE="0" COMMENT="" />
    <EXPORT ORDINAL="778" NAME="??4?$RotationWarperBase@UPaniniPortraitProjector@detail@cv@@@detail@cv@@QEAAAEAV012@AEBV012@@Z" PURGE="0" COMMENT="" />
    <EXPORT ORDINAL="779" NAME="??4?$RotationWarperBase@UPaniniProjector@detail@cv@@@detail@cv@@QEAAAEAV012@AEBV012@@Z" PURGE="0" COMMENT="" />
    <EXPORT ORDINAL="780" NAME="??4?$RotationWarperBase@UPlanePortraitProjector@detail@cv@@@detail@cv@@QEAAAEAV012@AEBV012@@Z" PURGE="0" COMMENT="" />
    <EXPORT ORDINAL="781" NAME="??4?$RotationWarperBase@UPlaneProjector@detail@cv@@@detail@cv@@QEAAAEAV012@AEBV012@@Z" PURGE="0" COMMENT="" />
    <EXPORT ORDINAL="782" NAME="??4?$RotationWarperBase@USphericalPortraitProjector@detail@cv@@@detail@cv@@QEAAAEAV012@AEBV012@@Z" PURGE="0" COMMENT="" />
    <EXPORT ORDINAL="783" NAME="??4?$RotationWarperBase@USphericalProjector@detail@cv@@@detail@cv@@QEAAAEAV012@AEBV012@@Z" PURGE="0" COMMENT="" />
    <EXPORT ORDINAL="784" NAME="??4?$RotationWarperBase@UStereographicProjector@detail@cv@@@detail@cv@@QEAAAEAV012@AEBV012@@Z" PURGE="0" COMMENT="" />
    <EXPORT ORDINAL="785" NAME="??4?$RotationWarperBase@UTransverseMercatorProjector@detail@cv@@@detail@cv@@QEAAAEAV012@AEBV012@@Z" PURGE="0" COMMENT="" />
    <EXPORT ORDINAL="786" NAME="??4AKAZE@cv@@QEAAAEAV01@AEBV01@@Z" PURGE="0" COMMENT="" />
    <EXPORT ORDINAL="787" NAME="??4ANN_MLP@ml@cv@@QEAAAEAV012@AEBV012@@Z" PURGE="0" COMMENT="" />
    <EXPORT ORDINAL="788" NAME="??4AffineTransformer@cv@@QEAAAEAV01@AEBV01@@Z" PURGE="0" COMMENT="" />
    <EXPORT ORDINAL="789" NAME="??4AgastFeatureDetector@cv@@QEAAAEAV01@AEBV01@@Z" PURGE="0" COMMENT="" />
    <EXPORT ORDINAL="790" NAME="??4Algorithm@cv@@QEAAAEAV01@AEBV01@@Z" PURGE="0" COMMENT="" />
    <EXPORT ORDINAL="791" NAME="??4AlignExposures@cv@@QEAAAEAV01@AEBV01@@Z" PURGE="0" COMMENT="" />
    <EXPORT ORDINAL="792" NAME="??4AlignMTB@cv@@QEAAAEAV01@AEBV01@@Z" PURGE="0" COMMENT="" />
    <EXPORT ORDINAL="793" NAME="??4Allocator@GpuMat@cuda@cv@@QEAAAEAV0123@AEBV0123@@Z" PURGE="0" COMMENT="" />
    <EXPORT ORDINAL="794" NAME="??4AutotunedIndexParams@flann@cv@@QEAAAEAU012@AEBU012@@Z" PURGE="0" COMMENT="" />
    <EXPORT ORDINAL="795" NAME="??4BFMatcher@cv@@QEAAAEAV01@AEBV01@@Z" PURGE="0" COMMENT="" />
    <EXPORT ORDINAL="796" NAME="??4BOWImgDescriptorExtractor@cv@@QEAAAEAV01@AEBV01@@Z" PURGE="0" COMMENT="" />
    <EXPORT ORDINAL="797" NAME="??4BOWKMeansTrainer@cv@@QEAAAEAV01@AEBV01@@Z" PURGE="0" COMMENT="" />
    <EXPORT ORDINAL="798" NAME="??4BOWTrainer@cv@@QEAAAEAV01@AEBV01@@Z" PURGE="0" COMMENT="" />
    <EXPORT ORDINAL="799" NAME="??4BRISK@cv@@QEAAAEAV01@AEBV01@@Z" PURGE="0" COMMENT="" />
    <EXPORT ORDINAL="800" NAME="??4BackgroundSubtractor@cv@@QEAAAEAV01@AEBV01@@Z" PURGE="0" COMMENT="" />
    <EXPORT ORDINAL="801" NAME="??4BackgroundSubtractorGMG@bgsegm@cv@@QEAAAEAV012@AEBV012@@Z" PURGE="0" COMMENT="" />
    <EXPORT ORDINAL="802" NAME="??4BackgroundSubtractorKNN@cv@@QEAAAEAV01@AEBV01@@Z" PURGE="0" COMMENT="" />
    <EXPORT ORDINAL="803" NAME="??4BackgroundSubtractorMOG2@cv@@QEAAAEAV01@AEBV01@@Z" PURGE="0" COMMENT="" />
    <EXPORT ORDINAL="804" NAME="??4BackgroundSubtractorMOG@bgsegm@cv@@QEAAAEAV012@AEBV012@@Z" PURGE="0" COMMENT="" />
    <EXPORT ORDINAL="805" NAME="??4BaseCascadeClassifier@cv@@QEAAAEAV01@AEBV01@@Z" PURGE="0" COMMENT="" />
    <EXPORT ORDINAL="806" NAME="??4BasicFaceRecognizer@face@cv@@QEAAAEAV012@AEBV012@@Z" PURGE="0" COMMENT="" />
    <EXPORT ORDINAL="807" NAME="??4BestOf2NearestMatcher@detail@cv@@QEAAAEAV012@AEBV012@@Z" PURGE="0" COMMENT="" />
    <EXPORT ORDINAL="808" NAME="??4BestOf2NearestRangeMatcher@detail@cv@@QEAAAEAV012@AEBV012@@Z" PURGE="0" COMMENT="" />
    <EXPORT ORDINAL="809" NAME="??4Blender@detail@cv@@QEAAAEAV012@AEBV012@@Z" PURGE="0" COMMENT="" />
    <EXPORT ORDINAL="810" NAME="??4BlocksGainCompensator@detail@cv@@QEAAAEAV012@AEBV012@@Z" PURGE="0" COMMENT="" />
    <EXPORT ORDINAL="811" NAME="??4Boost@ml@cv@@QEAAAEAV012@AEBV012@@Z" PURGE="0" COMMENT="" />
    <EXPORT ORDINAL="812" NAME="??4BriefDescriptorExtractor@xfeatures2d@cv@@QEAAAEAV012@AEBV012@@Z" PURGE="0" COMMENT="" />
    <EXPORT ORDINAL="813" NAME="??4BroxOpticalFlow@superres@cv@@QEAAAEAV012@AEBV012@@Z" PURGE="0" COMMENT="" />
    <EXPORT ORDINAL="814" NAME="??4BundleAdjusterBase@detail@cv@@QEAAAEAV012@AEBV012@@Z" PURGE="0" COMMENT="" />
    <EXPORT ORDINAL="815" NAME="??4BundleAdjusterRay@detail@cv@@QEAAAEAV012@AEBV012@@Z" PURGE="0" COMMENT="" />
    <EXPORT ORDINAL="816" NAME="??4BundleAdjusterReproj@detail@cv@@QEAAAEAV012@AEBV012@@Z" PURGE="0" COMMENT="" />
    <EXPORT ORDINAL="817" NAME="??4CLAHE@cv@@QEAAAEAV01@AEBV01@@Z" PURGE="0" COMMENT="" />
    <EXPORT ORDINAL="818" NAME="??4CalibrateCRF@cv@@QEAAAEAV01@AEBV01@@Z" PURGE="0" COMMENT="" />
    <EXPORT ORDINAL="819" NAME="??4CalibrateDebevec@cv@@QEAAAEAV01@AEBV01@@Z" PURGE="0" COMMENT="" />
    <EXPORT ORDINAL="820" NAME="??4CalibrateRobertson@cv@@QEAAAEAV01@AEBV01@@Z" PURGE="0" COMMENT="" />
    <EXPORT ORDINAL="821" NAME="??4Callback@ERFilter@text@cv@@QEAAAEAV0123@AEBV0123@@Z" PURGE="0" COMMENT="" />
    <EXPORT ORDINAL="822" NAME="??4CascadeClassifier@cv@@QEAAAEAV01@AEBV01@@Z" PURGE="0" COMMENT="" />
    <EXPORT ORDINAL="823" NAME="??4ChiHistogramCostExtractor@cv@@QEAAAEAV01@AEBV01@@Z" PURGE="0" COMMENT="" />
    <EXPORT ORDINAL="824" NAME="??4ColorAverageInpainter@videostab@cv@@QEAAAEAV012@AEBV012@@Z" PURGE="0" COMMENT="" />
    <EXPORT ORDINAL="825" NAME="??4ColorInpainter@videostab@cv@@QEAAAEAV012@AEBV012@@Z" PURGE="0" COMMENT="" />
    <EXPORT ORDINAL="826" NAME="??4CompositeIndexParams@flann@cv@@QEAAAEAU012@AEBU012@@Z" PURGE="0" COMMENT="" />
    <EXPORT ORDINAL="827" NAME="??4CompressedRectilinearPortraitProjector@detail@cv@@QEAAAEAU012@AEBU012@@Z" PURGE="0" COMMENT="" />
    <EXPORT ORDINAL="828" NAME="??4CompressedRectilinearPortraitWarper@detail@cv@@QEAAAEAV012@AEBV012@@Z" PURGE="0" COMMENT="" />
    <EXPORT ORDINAL="829" NAME="??4CompressedRectilinearProjector@detail@cv@@QEAAAEAU012@AEBU012@@Z" PURGE="0" COMMENT="" />
    <EXPORT ORDINAL="830" NAME="??4CompressedRectilinearWarper@detail@cv@@QEAAAEAV012@AEBV012@@Z" PURGE="0" COMMENT="" />
    <EXPORT ORDINAL="831" NAME="??4ConjGradSolver@cv@@QEAAAEAV01@AEBV01@@Z" PURGE="0" COMMENT="" />
    <EXPORT ORDINAL="832" NAME="??4ConsistentMosaicInpainter@videostab@cv@@QEAAAEAV012@AEBV012@@Z" PURGE="0" COMMENT="" />
    <EXPORT ORDINAL="833" NAME="??4CvLevMarq@@QEAAAEAV0@AEBV0@@Z" PURGE="0" COMMENT="" />
    <EXPORT ORDINAL="834" NAME="??4CvMatND@@QEAAAEAU0@AEBU0@@Z" PURGE="0" COMMENT="" />
    <EXPORT ORDINAL="835" NAME="??4CvSparseMat@@QEAAAEAU0@AEBU0@@Z" PURGE="0" COMMENT="" />
    <EXPORT ORDINAL="836" NAME="??4CvType@@QEAAAEAU0@AEBU0@@Z" PURGE="0" COMMENT="" />
    <EXPORT ORDINAL="837" NAME="??4CylindricalPortraitWarper@detail@cv@@QEAAAEAV012@AEBV012@@Z" PURGE="0" COMMENT="" />
    <EXPORT ORDINAL="838" NAME="??4CylindricalProjector@detail@cv@@QEAAAEAU012@AEBU012@@Z" PURGE="0" COMMENT="" />
    <EXPORT ORDINAL="839" NAME="??4CylindricalWarper@detail@cv@@QEAAAEAV012@AEBV012@@Z" PURGE="0" COMMENT="" />
    <EXPORT ORDINAL="840" NAME="??4CylindricalWarperGpu@detail@cv@@QEAAAEAV012@AEBV012@@Z" PURGE="0" COMMENT="" />
    <EXPORT ORDINAL="841" NAME="??4DAISY@xfeatures2d@cv@@QEAAAEAV012@AEBV012@@Z" PURGE="0" COMMENT="" />
    <EXPORT ORDINAL="842" NAME="??4DMatch@cv@@QEAAAEAV01@AEBV01@@Z" PURGE="0" COMMENT="" />
    <EXPORT ORDINAL="843" NAME="??4DTrees@ml@cv@@QEAAAEAV012@AEBV012@@Z" PURGE="0" COMMENT="" />
    <EXPORT ORDINAL="844" NAME="??4DataLogger@emgu@@QEAAAEAV01@AEBV01@@Z" PURGE="0" COMMENT="" />
    <EXPORT ORDINAL="845" NAME="??4DeblurerBase@videostab@cv@@QEAAAEAV012@AEBV012@@Z" PURGE="0" COMMENT="" />
    <EXPORT ORDINAL="846" NAME="??4DenseOpticalFlow@cv@@QEAAAEAV01@AEBV01@@Z" PURGE="0" COMMENT="" />
    <EXPORT ORDINAL="847" NAME="??4DenseOpticalFlowExt@superres@cv@@QEAAAEAV012@AEBV012@@Z" PURGE="0" COMMENT="" />
    <EXPORT ORDINAL="848" NAME="??4DescriptorCollection@DescriptorMatcher@cv@@QEAAAEAV012@AEBV012@@Z" PURGE="0" COMMENT="" />
    <EXPORT ORDINAL="849" NAME="??4DescriptorMatcher@cv@@QEAAAEAV01@AEBV01@@Z" PURGE="0" COMMENT="" />
    <EXPORT ORDINAL="850" NAME="??4DetectionBasedTracker@cv@@QEAAAEAV01@AEBV01@@Z" PURGE="0" COMMENT="" />
    <EXPORT ORDINAL="851" NAME="??4DeviceInfo@cuda@cv@@QEAAAEAV012@AEBV012@@Z" PURGE="0" COMMENT="" />
    <EXPORT ORDINAL="852" NAME="??4DisjointSets@detail@cv@@QEAAAEAV012@AEBV012@@Z" PURGE="0" COMMENT="" />
    <EXPORT ORDINAL="853" NAME="??4DownhillSolver@cv@@QEAAAEAV01@AEBV01@@Z" PURGE="0" COMMENT="" />
    <EXPORT ORDINAL="854" NAME="??4DpSeamFinder@detail@cv@@QEAAAEAV012@AEBV012@@Z" PURGE="0" COMMENT="" />
    <EXPORT ORDINAL="855" NAME="??4DrawMatchesFlags@cv@@QEAAAEAU01@AEBU01@@Z" PURGE="0" COMMENT="" />
    <EXPORT ORDINAL="856" NAME="??4DualTVL1OpticalFlow@cv@@QEAAAEAV01@AEBV01@@Z" PURGE="0" COMMENT="" />
    <EXPORT ORDINAL="857" NAME="??4DualTVL1OpticalFlow@superres@cv@@QEAAAEAV012@AEBV012@@Z" PURGE="0" COMMENT="" />
    <EXPORT ORDINAL="858" NAME="??4EM@ml@cv@@QEAAAEAV012@AEBV012@@Z" PURGE="0" COMMENT="" />
    <EXPORT ORDINAL="859" NAME="??4EMDHistogramCostExtractor@cv@@QEAAAEAV01@AEBV01@@Z" PURGE="0" COMMENT="" />
    <EXPORT ORDINAL="860" NAME="??4EMDL1HistogramCostExtractor@cv@@QEAAAEAV01@AEBV01@@Z" PURGE="0" COMMENT="" />
    <EXPORT ORDINAL="861" NAME="??4ERFilter@text@cv@@QEAAAEAV012@AEBV012@@Z" PURGE="0" COMMENT="" />
    <EXPORT ORDINAL="862" NAME="??4ERStat@text@cv@@QEAAAEAU012@AEBU012@@Z" PURGE="0" COMMENT="" />
    <EXPORT ORDINAL="863" NAME="??4Estimator@detail@cv@@QEAAAEAV012@AEBV012@@Z" PURGE="0" COMMENT="" />
    <EXPORT ORDINAL="864" NAME="??4Event@cuda@cv@@QEAAAEAV012@AEBV012@@Z" PURGE="0" COMMENT="" />
    <EXPORT ORDINAL="865" NAME="??4Exception@cv@@QEAAAEAV01@AEBV01@@Z" PURGE="0" COMMENT="" />
    <EXPORT ORDINAL="866" NAME="??4ExposureCompensator@detail@cv@@QEAAAEAV012@AEBV012@@Z" PURGE="0" COMMENT="" />
    <EXPORT ORDINAL="867" NAME="??4FREAK@xfeatures2d@cv@@QEAAAEAV012@AEBV012@@Z" PURGE="0" COMMENT="" />
    <EXPORT ORDINAL="868" NAME="??4FaceRecognizer@face@cv@@QEAAAEAV012@AEBV012@@Z" PURGE="0" COMMENT="" />
    <EXPORT ORDINAL="869" NAME="??4FarnebackOpticalFlow@superres@cv@@QEAAAEAV012@AEBV012@@Z" PURGE="0" COMMENT="" />
    <EXPORT ORDINAL="870" NAME="??4FastFeatureDetector@cv@@QEAAAEAV01@AEBV01@@Z" PURGE="0" COMMENT="" />
    <EXPORT ORDINAL="871" NAME="??4FastMarchingMethod@videostab@cv@@QEAAAEAV012@AEBV012@@Z" PURGE="0" COMMENT="" />
    <EXPORT ORDINAL="872" NAME="??4FeatherBlender@detail@cv@@QEAAAEAV012@AEBV012@@Z" PURGE="0" COMMENT="" />
    <EXPORT ORDINAL="873" NAME="??4Feature2D@cv@@QEAAAEAV01@AEBV01@@Z" PURGE="0" COMMENT="" />
    <EXPORT ORDINAL="874" NAME="??4FeaturesFinder@detail@cv@@QEAAAEAV012@AEBV012@@Z" PURGE="0" COMMENT="" />
    <EXPORT ORDINAL="875" NAME="??4FeaturesMatcher@detail@cv@@QEAAAEAV012@AEBV012@@Z" PURGE="0" COMMENT="" />
    <EXPORT ORDINAL="876" NAME="??4FileNode@cv@@QEAAAEAV01@AEBV01@@Z" PURGE="0" COMMENT="" />
    <EXPORT ORDINAL="877" NAME="??4FileNodeIterator@cv@@QEAAAEAV01@AEBV01@@Z" PURGE="0" COMMENT="" />
    <EXPORT ORDINAL="878" NAME="??4FileStorage@cv@@QEAAAEAV01@AEBV01@@Z" PURGE="0" COMMENT="" />
    <EXPORT ORDINAL="879" NAME="??4FisheyeProjector@detail@cv@@QEAAAEAU012@AEBU012@@Z" PURGE="0" COMMENT="" />
    <EXPORT ORDINAL="880" NAME="??4FisheyeWarper@detail@cv@@QEAAAEAV012@AEBV012@@Z" PURGE="0" COMMENT="" />
    <EXPORT ORDINAL="881" NAME="??4FlannBasedMatcher@cv@@QEAAAEAV01@AEBV01@@Z" PURGE="0" COMMENT="" />
    <EXPORT ORDINAL="882" NAME="??4Formatted@cv@@QEAAAEAV01@AEBV01@@Z" PURGE="0" COMMENT="" />
    <EXPORT ORDINAL="883" NAME="??4Formatter@cv@@QEAAAEAV01@AEBV01@@Z" PURGE="0" COMMENT="" />
    <EXPORT ORDINAL="884" NAME="??4FrameSource@superres@cv@@QEAAAEAV012@AEBV012@@Z" PURGE="0" COMMENT="" />
    <EXPORT ORDINAL="885" NAME="??4Function@MinProblemSolver@cv@@QEAAAEAV012@AEBV012@@Z" PURGE="0" COMMENT="" />
    <EXPORT ORDINAL="886" NAME="??4GFTTDetector@cv@@QEAAAEAV01@AEBV01@@Z" PURGE="0" COMMENT="" />
    <EXPORT ORDINAL="887" NAME="??4GainCompensator@detail@cv@@QEAAAEAV012@AEBV012@@Z" PURGE="0" COMMENT="" />
    <EXPORT ORDINAL="888" NAME="??4GaussianMotionFilter@videostab@cv@@QEAAAEAV012@AEBV012@@Z" PURGE="0" COMMENT="" />
    <EXPORT ORDINAL="889" NAME="??4GeneralizedHough@cv@@QEAAAEAV01@AEBV01@@Z" PURGE="0" COMMENT="" />
    <EXPORT ORDINAL="890" NAME="??4GeneralizedHoughBallard@cv@@QEAAAEAV01@AEBV01@@Z" PURGE="0" COMMENT="" />
    <EXPORT ORDINAL="891" NAME="??4GeneralizedHoughGuil@cv@@QEAAAEAV01@AEBV01@@Z" PURGE="0" COMMENT="" />
    <EXPORT ORDINAL="892" NAME="??4GpuMat@cuda@cv@@QEAAAEAV012@AEBV012@@Z" PURGE="0" COMMENT="" />
    <EXPORT ORDINAL="893" NAME="??4Graph@detail@cv@@QEAAAEAV012@AEBV012@@Z" PURGE="0" COMMENT="" />
    <EXPORT ORDINAL="894" NAME="??4GraphCutSeamFinder@detail@cv@@QEAAAEAV012@AEBV012@@Z" PURGE="0" COMMENT="" />
    <EXPORT ORDINAL="895" NAME="??4GraphCutSeamFinderBase@detail@cv@@QEAAAEAV012@AEBV012@@Z" PURGE="0" COMMENT="" />
    <EXPORT ORDINAL="896" NAME="??4GraphEdge@detail@cv@@QEAAAEAU012@AEBU012@@Z" PURGE="0" COMMENT="" />
    <EXPORT ORDINAL="897" NAME="??4HOGDescriptor@cv@@QEAAAEAU01@AEBU01@@Z" PURGE="0" COMMENT="" />
    <EXPORT ORDINAL="898" NAME="??4Hamming@cv@@QEAAAEAU01@AEBU01@@Z" PURGE="0" COMMENT="" />
    <EXPORT ORDINAL="899" NAME="??4HausdorffDistanceExtractor@cv@@QEAAAEAV01@AEBV01@@Z" PURGE="0" COMMENT="" />
    <EXPORT ORDINAL="900" NAME="??4Hdr@SparseMat@cv@@QEAAAEAU012@AEBU012@@Z" PURGE="0" COMMENT="" />
    <EXPORT ORDINAL="901" NAME="??4HierarchicalClusteringIndexParams@flann@cv@@QEAAAEAU012@AEBU012@@Z" PURGE="0" COMMENT="" />
    <EXPORT ORDINAL="902" NAME="??4HistogramCostExtractor@cv@@QEAAAEAV01@AEBV01@@Z" PURGE="0" COMMENT="" />
    <EXPORT ORDINAL="903" NAME="??4HomographyBasedEstimator@detail@cv@@QEAAAEAV012@AEBV012@@Z" PURGE="0" COMMENT="" />
    <EXPORT ORDINAL="904" NAME="??4HostMem@cuda@cv@@QEAAAEAV012@AEBV012@@Z" PURGE="0" COMMENT="" />
    <EXPORT ORDINAL="905" NAME="??4IDenseOptFlowEstimator@videostab@cv@@QEAAAEAV012@AEBV012@@Z" PURGE="0" COMMENT="" />
    <EXPORT ORDINAL="906" NAME="??4IFrameSource@videostab@cv@@QEAAAEAV012@AEBV012@@Z" PURGE="0" COMMENT="" />
    <EXPORT ORDINAL="907" NAME="??4ILog@videostab@cv@@QEAAAEAV012@AEBV012@@Z" PURGE="0" COMMENT="" />
    <EXPORT ORDINAL="908" NAME="??4IMotionStabilizer@videostab@cv@@QEAAAEAV012@AEBV012@@Z" PURGE="0" COMMENT="" />
    <EXPORT ORDINAL="909" NAME="??4IOutlierRejector@videostab@cv@@QEAAAEAV012@AEBV012@@Z" PURGE="0" COMMENT="" />
    <EXPORT ORDINAL="910" NAME="??4ISparseOptFlowEstimator@videostab@cv@@QEAAAEAV012@AEBV012@@Z" PURGE="0" COMMENT="" />
    <EXPORT ORDINAL="911" NAME="??4ImageFeatures@detail@cv@@QEAAAEAU012@AEBU012@@Z" PURGE="0" COMMENT="" />
    <EXPORT ORDINAL="912" NAME="??4ImageMotionEstimatorBase@videostab@cv@@QEAAAEAV012@AEBV012@@Z" PURGE="0" COMMENT="" />
    <EXPORT ORDINAL="913" NAME="??4Index@flann@cv@@QEAAAEAV012@AEBV012@@Z" PURGE="0" COMMENT="" />
    <EXPORT ORDINAL="914" NAME="??4IndexParams@flann@cv@@QEAAAEAU012@AEBU012@@Z" PURGE="0" COMMENT="" />
    <EXPORT ORDINAL="915" NAME="??4InpainterBase@videostab@cv@@QEAAAEAV012@AEBV012@@Z" PURGE="0" COMMENT="" />
    <EXPORT ORDINAL="916" NAME="??4InpaintingPipeline@videostab@cv@@QEAAAEAV012@AEBV012@@Z" PURGE="0" COMMENT="" />
    <EXPORT ORDINAL="917" NAME="??4KAZE@cv@@QEAAAEAV01@AEBV01@@Z" PURGE="0" COMMENT="" />
    <EXPORT ORDINAL="918" NAME="??4KDTreeIndexParams@flann@cv@@QEAAAEAU012@AEBU012@@Z" PURGE="0" COMMENT="" />
    <EXPORT ORDINAL="919" NAME="??4KMeansIndexParams@flann@cv@@QEAAAEAU012@AEBU012@@Z" PURGE="0" COMMENT="" />
    <EXPORT ORDINAL="920" NAME="??4KNearest@ml@cv@@QEAAAEAV012@AEBV012@@Z" PURGE="0" COMMENT="" />
    <EXPORT ORDINAL="921" NAME="??4KalmanFilter@cv@@QEAAAEAV01@AEBV01@@Z" PURGE="0" COMMENT="" />
    <EXPORT ORDINAL="922" NAME="??4Kernel@SVM@ml@cv@@QEAAAEAV0123@AEBV0123@@Z" PURGE="0" COMMENT="" />
    <EXPORT ORDINAL="923" NAME="??4KernelArg@ocl@cv@@QEAAAEAV012@AEBV012@@Z" PURGE="0" COMMENT="" />
    <EXPORT ORDINAL="924" NAME="??4KeyPoint@cv@@QEAAAEAV01@AEBV01@@Z" PURGE="0" COMMENT="" />
    <EXPORT ORDINAL="925" NAME="??4KeyPointsFilter@cv@@QEAAAEAV01@AEBV01@@Z" PURGE="0" COMMENT="" />
    <EXPORT ORDINAL="926" NAME="??4KeypointBasedMotionEstimator@videostab@cv@@QEAAAEAV012@AEBV012@@Z" PURGE="0" COMMENT="" />
    <EXPORT ORDINAL="927" NAME="??4LATCH@xfeatures2d@cv@@QEAAAEAV012@AEBV012@@Z" PURGE="0" COMMENT="" />
    <EXPORT ORDINAL="928" NAME="??4LBPHFaceRecognizer@face@cv@@QEAAAEAV012@AEBV012@@Z" PURGE="0" COMMENT="" />
    <EXPORT ORDINAL="929" NAME="??4LDA@cv@@QEAAAEAV01@AEBV01@@Z" PURGE="0" COMMENT="" />
    <EXPORT ORDINAL="930" NAME="??4LSVMDetector@lsvm@cv@@QEAAAEAV012@AEBV012@@Z" PURGE="0" COMMENT="" />
    <EXPORT ORDINAL="931" NAME="??4LUCID@xfeatures2d@cv@@QEAAAEAV012@AEBV012@@Z" PURGE="0" COMMENT="" />
    <EXPORT ORDINAL="932" NAME="??4LineIterator@cv@@QEAAAEAV01@AEBV01@@Z" PURGE="0" COMMENT="" />
    <EXPORT ORDINAL="933" NAME="??4LineSegmentDetector@cv@@QEAAAEAV01@AEBV01@@Z" PURGE="0" COMMENT="" />
    <EXPORT ORDINAL="934" NAME="??4LinearIndexParams@flann@cv@@QEAAAEAU012@AEBU012@@Z" PURGE="0" COMMENT="" />
    <EXPORT ORDINAL="935" NAME="??4LogToStdout@videostab@cv@@QEAAAEAV012@AEBV012@@Z" PURGE="0" COMMENT="" />
    <EXPORT ORDINAL="936" NAME="??4LogisticRegression@ml@cv@@QEAAAEAV012@AEBV012@@Z" PURGE="0" COMMENT="" />
    <EXPORT ORDINAL="937" NAME="??4LpMotionStabilizer@videostab@cv@@QEAAAEAV012@AEBV012@@Z" PURGE="0" COMMENT="" />
    <EXPORT ORDINAL="938" NAME="??4LshIndexParams@flann@cv@@QEAAAEAU012@AEBU012@@Z" PURGE="0" COMMENT="" />
    <EXPORT ORDINAL="939" NAME="??4MSER@cv@@QEAAAEAV01@AEBV01@@Z" PURGE="0" COMMENT="" />
    <EXPORT ORDINAL="940" NAME="??4MaskGenerator@BaseCascadeClassifier@cv@@QEAAAEAV012@AEBV012@@Z" PURGE="0" COMMENT="" />
    <EXPORT ORDINAL="941" NAME="??4Mat@cv@@QEAAAEAV01@AEBV01@@Z" PURGE="0" COMMENT="" />
    <EXPORT ORDINAL="942" NAME="??4Mat@cv@@QEAAAEAV01@AEBVMatExpr@1@@Z" PURGE="0" COMMENT="" />
    <EXPORT ORDINAL="943" NAME="??4MatAllocator@cv@@QEAAAEAV01@AEBV01@@Z" PURGE="0" COMMENT="" />
    <EXPORT ORDINAL="944" NAME="??4MatConstIterator@cv@@QEAAAEAV01@AEBV01@@Z" PURGE="0" COMMENT="" />
    <EXPORT ORDINAL="945" NAME="??4MatExpr@cv@@QEAAAEAV01@AEBV01@@Z" PURGE="0" COMMENT="" />
    <EXPORT ORDINAL="946" NAME="??4MatOp@cv@@QEAAAEAV01@AEBV01@@Z" PURGE="0" COMMENT="" />
    <EXPORT ORDINAL="947" NAME="??4MatSize@cv@@QEAAAEAU01@AEBU01@@Z" PURGE="0" COMMENT="" />
    <EXPORT ORDINAL="948" NAME="??4MatStep@cv@@QEAAAEAU01@_K@Z" PURGE="0" COMMENT="" />
    <EXPORT ORDINAL="949" NAME="??4Matx_AddOp@cv@@QEAAAEAU01@AEBU01@@Z" PURGE="0" COMMENT="" />
    <EXPORT ORDINAL="950" NAME="??4Matx_DivOp@cv@@QEAAAEAU01@AEBU01@@Z" PURGE="0" COMMENT="" />
    <EXPORT ORDINAL="951" NAME="??4Matx_MatMulOp@cv@@QEAAAEAU01@AEBU01@@Z" PURGE="0" COMMENT="" />
    <EXPORT ORDINAL="952" NAME="??4Matx_MulOp@cv@@QEAAAEAU01@AEBU01@@Z" PURGE="0" COMMENT="" />
    <EXPORT ORDINAL="953" NAME="??4Matx_ScaleOp@cv@@QEAAAEAU01@AEBU01@@Z" PURGE="0" COMMENT="" />
    <EXPORT ORDINAL="954" NAME="??4Matx_SubOp@cv@@QEAAAEAU01@AEBU01@@Z" PURGE="0" COMMENT="" />
    <EXPORT ORDINAL="955" NAME="??4Matx_TOp@cv@@QEAAAEAU01@AEBU01@@Z" PURGE="0" COMMENT="" />
    <EXPORT ORDINAL="956" NAME="??4MercatorProjector@detail@cv@@QEAAAEAU012@AEBU012@@Z" PURGE="0" COMMENT="" />
    <EXPORT ORDINAL="957" NAME="??4MercatorWarper@detail@cv@@QEAAAEAV012@AEBV012@@Z" PURGE="0" COMMENT="" />
    <EXPORT ORDINAL="958" NAME="??4MergeDebevec@cv@@QEAAAEAV01@AEBV01@@Z" PURGE="0" COMMENT="" />
    <EXPORT ORDINAL="959" NAME="??4MergeExposures@cv@@QEAAAEAV01@AEBV01@@Z" PURGE="0" COMMENT="" />
    <EXPORT ORDINAL="960" NAME="??4MergeMertens@cv@@QEAAAEAV01@AEBV01@@Z" PURGE="0" COMMENT="" />
    <EXPORT ORDINAL="961" NAME="??4MergeRobertson@cv@@QEAAAEAV01@AEBV01@@Z" PURGE="0" COMMENT="" />
    <EXPORT ORDINAL="962" NAME="??4MinProblemSolver@cv@@QEAAAEAV01@AEBV01@@Z" PURGE="0" COMMENT="" />
    <EXPORT ORDINAL="963" NAME="??4Moments@cv@@QEAAAEAV01@AEBV01@@Z" PURGE="0" COMMENT="" />
    <EXPORT ORDINAL="964" NAME="??4MoreAccurateMotionWobbleSuppressor@videostab@cv@@QEAAAEAV012@AEBV012@@Z" PURGE="0" COMMENT="" />
    <EXPORT ORDINAL="965" NAME="??4MoreAccurateMotionWobbleSuppressorBase@videostab@cv@@QEAAAEAV012@AEBV012@@Z" PURGE="0" COMMENT="" />
    <EXPORT ORDINAL="966" NAME="??4MotionEstimatorBase@videostab@cv@@QEAAAEAV012@AEBV012@@Z" PURGE="0" COMMENT="" />
    <EXPORT ORDINAL="967" NAME="??4MotionEstimatorL1@videostab@cv@@QEAAAEAV012@AEBV012@@Z" PURGE="0" COMMENT="" />
    <EXPORT ORDINAL="968" NAME="??4MotionEstimatorRansacL2@videostab@cv@@QEAAAEAV012@AEBV012@@Z" PURGE="0" COMMENT="" />
    <EXPORT ORDINAL="969" NAME="??4MotionFilterBase@videostab@cv@@QEAAAEAV012@AEBV012@@Z" PURGE="0" COMMENT="" />
    <EXPORT ORDINAL="970" NAME="??4MotionInpainter@videostab@cv@@QEAAAEAV012@AEBV012@@Z" PURGE="0" COMMENT="" />
    <EXPORT ORDINAL="971" NAME="??4MotionStabilizationPipeline@videostab@cv@@QEAAAEAV012@AEBV012@@Z" PURGE="0" COMMENT="" />
    <EXPORT ORDINAL="972" NAME="??4MultiBandBlender@detail@cv@@QEAAAEAV012@AEBV012@@Z" PURGE="0" COMMENT="" />
    <EXPORT ORDINAL="973" NAME="??4NAryMatIterator@cv@@QEAAAEAV01@AEBV01@@Z" PURGE="0" COMMENT="" />
    <EXPORT ORDINAL="974" NAME="??4NoExposureCompensator@detail@cv@@QEAAAEAV012@AEBV012@@Z" PURGE="0" COMMENT="" />
    <EXPORT ORDINAL="975" NAME="??4NoSeamFinder@detail@cv@@QEAAAEAV012@AEBV012@@Z" PURGE="0" COMMENT="" />
    <EXPORT ORDINAL="976" NAME="??4Node@DTrees@ml@cv@@QEAAAEAV0123@AEBV0123@@Z" PURGE="0" COMMENT="" />
    <EXPORT ORDINAL="977" NAME="??4Node@SparseMat@cv@@QEAAAEAU012@AEBU012@@Z" PURGE="0" COMMENT="" />
    <EXPORT ORDINAL="978" NAME="??4NormHistogramCostExtractor@cv@@QEAAAEAV01@AEBV01@@Z" PURGE="0" COMMENT="" />
    <EXPORT ORDINAL="979" NAME="??4NormalBayesClassifier@ml@cv@@QEAAAEAV012@AEBV012@@Z" PURGE="0" COMMENT="" />
    <EXPORT ORDINAL="980" NAME="??4NullDeblurer@videostab@cv@@QEAAAEAV012@AEBV012@@Z" PURGE="0" COMMENT="" />
    <EXPORT ORDINAL="981" NAME="??4NullFrameSource@videostab@cv@@QEAAAEAV012@AEBV012@@Z" PURGE="0" COMMENT="" />
    <EXPORT ORDINAL="982" NAME="??4NullInpainter@videostab@cv@@QEAAAEAV012@AEBV012@@Z" PURGE="0" COMMENT="" />
    <EXPORT ORDINAL="983" NAME="??4NullLog@videostab@cv@@QEAAAEAV012@AEBV012@@Z" PURGE="0" COMMENT="" />
    <EXPORT ORDINAL="984" NAME="??4NullOutlierRejector@videostab@cv@@QEAAAEAV012@AEBV012@@Z" PURGE="0" COMMENT="" />
    <EXPORT ORDINAL="985" NAME="??4NullWobbleSuppressor@videostab@cv@@QEAAAEAV012@AEBV012@@Z" PURGE="0" COMMENT="" />
    <EXPORT ORDINAL="986" NAME="??4ORB@cv@@QEAAAEAV01@AEBV01@@Z" PURGE="0" COMMENT="" />
    <EXPORT ORDINAL="987" NAME="??4ObjectDetection@LSVMDetector@lsvm@cv@@QEAAAEAU0123@AEBU0123@@Z" PURGE="0" COMMENT="" />
    <EXPORT ORDINAL="988" NAME="??4OnePassStabilizer@videostab@cv@@QEAAAEAV012@AEBV012@@Z" PURGE="0" COMMENT="" />
    <EXPORT ORDINAL="989" NAME="??4OrbFeaturesFinder@detail@cv@@QEAAAEAV012@AEBV012@@Z" PURGE="0" COMMENT="" />
    <EXPORT ORDINAL="990" NAME="??4PCA@cv@@QEAAAEAV01@AEBV01@@Z" PURGE="0" COMMENT="" />
    <EXPORT ORDINAL="991" NAME="??4PairwiseSeamFinder@detail@cv@@QEAAAEAV012@AEBV012@@Z" PURGE="0" COMMENT="" />
    <EXPORT ORDINAL="992" NAME="??4PaniniPortraitProjector@detail@cv@@QEAAAEAU012@AEBU012@@Z" PURGE="0" COMMENT="" />
    <EXPORT ORDINAL="993" NAME="??4PaniniPortraitWarper@detail@cv@@QEAAAEAV012@AEBV012@@Z" PURGE="0" COMMENT="" />
    <EXPORT ORDINAL="994" NAME="??4PaniniProjector@detail@cv@@QEAAAEAU012@AEBU012@@Z" PURGE="0" COMMENT="" />
    <EXPORT ORDINAL="995" NAME="??4PaniniWarper@detail@cv@@QEAAAEAV012@AEBV012@@Z" PURGE="0" COMMENT="" />
    <EXPORT ORDINAL="996" NAME="??4ParallelLoopBody@cv@@QEAAAEAV01@AEBV01@@Z" PURGE="0" COMMENT="" />
    <EXPORT ORDINAL="997" NAME="??4ParamGrid@ml@cv@@QEAAAEAV012@AEBV012@@Z" PURGE="0" COMMENT="" />
    <EXPORT ORDINAL="998" NAME="??4Params@SimpleBlobDetector@cv@@QEAAAEAU012@AEBU012@@Z" PURGE="0" COMMENT="" />
    <EXPORT ORDINAL="999" NAME="??4PlanePortraitWarper@detail@cv@@QEAAAEAV012@AEBV012@@Z" PURGE="0" COMMENT="" />
    <EXPORT ORDINAL="1000" NAME="??4PlaneProjector@detail@cv@@QEAAAEAU012@AEBU012@@Z" PURGE="0" COMMENT="" />
    <EXPORT ORDINAL="1001" NAME="??4PlaneWarper@detail@cv@@QEAAAEAV012@AEBV012@@Z" PURGE="0" COMMENT="" />
    <EXPORT ORDINAL="1002" NAME="??4PlaneWarperGpu@detail@cv@@QEAAAEAV012@AEBV012@@Z" PURGE="0" COMMENT="" />
    <EXPORT ORDINAL="1003" NAME="??4ProjectorBase@detail@cv@@QEAAAEAU012@AEBU012@@Z" PURGE="0" COMMENT="" />
    <EXPORT ORDINAL="1004" NAME="??4PyrLkOptFlowEstimatorBase@videostab@cv@@QEAAAEAV012@AEBV012@@Z" PURGE="0" COMMENT="" />
    <EXPORT ORDINAL="1005" NAME="??4QuadEdge@Subdiv2D@cv@@QEAAAEAU012@AEBU012@@Z" PURGE="0" COMMENT="" />
    <EXPORT ORDINAL="1006" NAME="??4RNG@cv@@QEAAAEAV01@AEBV01@@Z" PURGE="0" COMMENT="" />
    <EXPORT ORDINAL="1007" NAME="??4RNG_MT19937@cv@@QEAAAEAV01@AEBV01@@Z" PURGE="0" COMMENT="" />
    <EXPORT ORDINAL="1008" NAME="??4RTrees@ml@cv@@QEAAAEAV012@AEBV012@@Z" PURGE="0" COMMENT="" />
    <EXPORT ORDINAL="1009" NAME="??4Range@cv@@QEAAAEAV01@AEBV01@@Z" PURGE="0" COMMENT="" />
    <EXPORT ORDINAL="1010" NAME="??4RansacParams@videostab@cv@@QEAAAEAU012@AEBU012@@Z" PURGE="0" COMMENT="" />
    <EXPORT ORDINAL="1011" NAME="??4RotatedRect@cv@@QEAAAEAV01@AEBV01@@Z" PURGE="0" COMMENT="" />
    <EXPORT ORDINAL="1012" NAME="??4RotationWarper@detail@cv@@QEAAAEAV012@AEBV012@@Z" PURGE="0" COMMENT="" />
    <EXPORT ORDINAL="1013" NAME="??4SIFT@xfeatures2d@cv@@QEAAAEAV012@AEBV012@@Z" PURGE="0" COMMENT="" />
    <EXPORT ORDINAL="1014" NAME="??4SURF@xfeatures2d@cv@@QEAAAEAV012@AEBV012@@Z" PURGE="0" COMMENT="" />
    <EXPORT ORDINAL="1015" NAME="??4SURF_CUDA@cuda@cv@@QEAAAEAV012@AEBV012@@Z" PURGE="0" COMMENT="" />
    <EXPORT ORDINAL="1016" NAME="??4SVD@cv@@QEAAAEAV01@AEBV01@@Z" PURGE="0" COMMENT="" />
    <EXPORT ORDINAL="1017" NAME="??4SVM@ml@cv@@QEAAAEAV012@AEBV012@@Z" PURGE="0" COMMENT="" />
    <EXPORT ORDINAL="1018" NAME="??4SavedIndexParams@flann@cv@@QEAAAEAU012@AEBU012@@Z" PURGE="0" COMMENT="" />
    <EXPORT ORDINAL="1019" NAME="??4SeamFinder@detail@cv@@QEAAAEAV012@AEBV012@@Z" PURGE="0" COMMENT="" />
    <EXPORT ORDINAL="1020" NAME="??4SearchParams@flann@cv@@QEAAAEAU012@AEBU012@@Z" PURGE="0" COMMENT="" />
    <EXPORT ORDINAL="1021" NAME="??4ShapeContextDistanceExtractor@cv@@QEAAAEAV01@AEBV01@@Z" PURGE="0" COMMENT="" />
    <EXPORT ORDINAL="1022" NAME="??4ShapeDistanceExtractor@cv@@QEAAAEAV01@AEBV01@@Z" PURGE="0" COMMENT="" />
    <EXPORT ORDINAL="1023" NAME="??4ShapeTransformer@cv@@QEAAAEAV01@AEBV01@@Z" PURGE="0" COMMENT="" />
    <EXPORT ORDINAL="1024" NAME="??4SimilarRects@cv@@QEAAAEAV01@AEBV01@@Z" PURGE="0" COMMENT="" />
    <EXPORT ORDINAL="1025" NAME="??4SimpleBlobDetector@cv@@QEAAAEAV01@AEBV01@@Z" PURGE="0" COMMENT="" />
    <EXPORT ORDINAL="1026" NAME="??4SparseMat@cv@@QEAAAEAV01@AEBV01@@Z" PURGE="0" COMMENT="" />
    <EXPORT ORDINAL="1027" NAME="??4SparseMat@cv@@QEAAAEAV01@AEBVMat@1@@Z" PURGE="0" COMMENT="" />
    <EXPORT ORDINAL="1028" NAME="??4SparseMatConstIterator@cv@@QEAAAEAV01@AEBV01@@Z" PURGE="0" COMMENT="" />
    <EXPORT ORDINAL="1029" NAME="??4SparseMatIterator@cv@@QEAAAEAV01@AEBV01@@Z" PURGE="0" COMMENT="" />
    <EXPORT ORDINAL="1030" NAME="??4SparsePyrLkOptFlowEstimator@videostab@cv@@QEAAAEAV012@AEBV012@@Z" PURGE="0" COMMENT="" />
    <EXPORT ORDINAL="1031" NAME="??4SphericalPortraitWarper@detail@cv@@QEAAAEAV012@AEBV012@@Z" PURGE="0" COMMENT="" />
    <EXPORT ORDINAL="1032" NAME="??4SphericalProjector@detail@cv@@QEAAAEAU012@AEBU012@@Z" PURGE="0" COMMENT="" />
    <EXPORT ORDINAL="1033" NAME="??4SphericalWarper@detail@cv@@QEAAAEAV012@AEBV012@@Z" PURGE="0" COMMENT="" />
    <EXPORT ORDINAL="1034" NAME="??4SphericalWarperGpu@detail@cv@@QEAAAEAV012@AEBV012@@Z" PURGE="0" COMMENT="" />
    <EXPORT ORDINAL="1035" NAME="??4Split@DTrees@ml@cv@@QEAAAEAV0123@AEBV0123@@Z" PURGE="0" COMMENT="" />
    <EXPORT ORDINAL="1036" NAME="??4StabilizerBase@videostab@cv@@QEAAAEAV012@AEBV012@@Z" PURGE="0" COMMENT="" />
    <EXPORT ORDINAL="1037" NAME="??4StarDetector@xfeatures2d@cv@@QEAAAEAV012@AEBV012@@Z" PURGE="0" COMMENT="" />
    <EXPORT ORDINAL="1038" NAME="??4StatModel@ml@cv@@QEAAAEAV012@AEBV012@@Z" PURGE="0" COMMENT="" />
    <EXPORT ORDINAL="1039" NAME="??4StereoBM@cv@@QEAAAEAV01@AEBV01@@Z" PURGE="0" COMMENT="" />
    <EXPORT ORDINAL="1040" NAME="??4StereoMatcher@cv@@QEAAAEAV01@AEBV01@@Z" PURGE="0" COMMENT="" />
    <EXPORT ORDINAL="1041" NAME="??4StereoSGBM@cv@@QEAAAEAV01@AEBV01@@Z" PURGE="0" COMMENT="" />
    <EXPORT ORDINAL="1042" NAME="??4StereographicProjector@detail@cv@@QEAAAEAU012@AEBU012@@Z" PURGE="0" COMMENT="" />
    <EXPORT ORDINAL="1043" NAME="??4StereographicWarper@detail@cv@@QEAAAEAV012@AEBV012@@Z" PURGE="0" COMMENT="" />
    <EXPORT ORDINAL="1044" NAME="??4Stitcher@cv@@QEAAAEAV01@AEBV01@@Z" PURGE="0" COMMENT="" />
    <EXPORT ORDINAL="1045" NAME="??4StitcherWrapper@cv@@QEAAAEAV01@AEBV01@@Z" PURGE="0" COMMENT="" />
    <EXPORT ORDINAL="1046" NAME="??4Stream@cuda@cv@@QEAAAEAV012@AEBV012@@Z" PURGE="0" COMMENT="" />
    <EXPORT ORDINAL="1047" NAME="??4String@cv@@QEAAAEAV01@AEBV01@@Z" PURGE="0" COMMENT="" />
    <EXPORT ORDINAL="1048" NAME="??4String@cv@@QEAAAEAV01@AEBV?$basic_string@DU?$char_traits@D@std@@V?$allocator@D@2@@std@@@Z" PURGE="0" COMMENT="" />
    <EXPORT ORDINAL="1049" NAME="??4String@cv@@QEAAAEAV01@D@Z" PURGE="0" COMMENT="" />
    <EXPORT ORDINAL="1050" NAME="??4String@cv@@QEAAAEAV01@PEBD@Z" PURGE="0" COMMENT="" />
    <EXPORT ORDINAL="1051" NAME="??4Subdiv2D@cv@@QEAAAEAV01@AEBV01@@Z" PURGE="0" COMMENT="" />
    <EXPORT ORDINAL="1052" NAME="??4SuperResolution@superres@cv@@QEAAAEAV012@AEBV012@@Z" PURGE="0" COMMENT="" />
    <EXPORT ORDINAL="1053" NAME="??4SurfFeaturesFinder@detail@cv@@QEAAAEAV012@AEBV012@@Z" PURGE="0" COMMENT="" />
    <EXPORT ORDINAL="1054" NAME="??4SurfFeaturesFinderGpu@detail@cv@@QEAAAEAV012@AEBV012@@Z" PURGE="0" COMMENT="" />
    <EXPORT ORDINAL="1055" NAME="??4TLSDataContainer@cv@@QEAAAEAV01@AEBV01@@Z" PURGE="0" COMMENT="" />
    <EXPORT ORDINAL="1056" NAME="??4TargetArchs@cuda@cv@@QEAAAEAV012@AEBV012@@Z" PURGE="0" COMMENT="" />
    <EXPORT ORDINAL="1057" NAME="??4TermCriteria@cv@@QEAAAEAV01@AEBV01@@Z" PURGE="0" COMMENT="" />
    <EXPORT ORDINAL="1058" NAME="??4ThinPlateSplineShapeTransformer@cv@@QEAAAEAV01@AEBV01@@Z" PURGE="0" COMMENT="" />
    <EXPORT ORDINAL="1059" NAME="??4Tonemap@cv@@QEAAAEAV01@AEBV01@@Z" PURGE="0" COMMENT="" />
    <EXPORT ORDINAL="1060" NAME="??4TonemapDrago@cv@@QEAAAEAV01@AEBV01@@Z" PURGE="0" COMMENT="" />
    <EXPORT ORDINAL="1061" NAME="??4TonemapDurand@cv@@QEAAAEAV01@AEBV01@@Z" PURGE="0" COMMENT="" />
    <EXPORT ORDINAL="1062" NAME="??4TonemapMantiuk@cv@@QEAAAEAV01@AEBV01@@Z" PURGE="0" COMMENT="" />
    <EXPORT ORDINAL="1063" NAME="??4TonemapReinhard@cv@@QEAAAEAV01@AEBV01@@Z" PURGE="0" COMMENT="" />
    <EXPORT ORDINAL="1064" NAME="??4TrainData@ml@cv@@QEAAAEAV012@AEBV012@@Z" PURGE="0" COMMENT="" />
    <EXPORT ORDINAL="1065" NAME="??4TranslationBasedLocalOutlierRejector@videostab@cv@@QEAAAEAV012@AEBV012@@Z" PURGE="0" COMMENT="" />
    <EXPORT ORDINAL="1066" NAME="??4TransverseMercatorProjector@detail@cv@@QEAAAEAU012@AEBU012@@Z" PURGE="0" COMMENT="" />
    <EXPORT ORDINAL="1067" NAME="??4TransverseMercatorWarper@detail@cv@@QEAAAEAV012@AEBV012@@Z" PURGE="0" COMMENT="" />
    <EXPORT ORDINAL="1068" NAME="??4TwoPassStabilizer@videostab@cv@@QEAAAEAV012@AEBV012@@Z" PURGE="0" COMMENT="" />
    <EXPORT ORDINAL="1069" NAME="??4UMat@cv@@QEAAAEAV01@AEBV01@@Z" PURGE="0" COMMENT="" />
    <EXPORT ORDINAL="1070" NAME="??4UMatData@cv@@QEAAAEAU01@AEBU01@@Z" PURGE="0" COMMENT="" />
    <EXPORT ORDINAL="1071" NAME="??4UMatDataAutoLock@cv@@QEAAAEAU01@AEBU01@@Z" PURGE="0" COMMENT="" />
    <EXPORT ORDINAL="1072" NAME="??4Vertex@Subdiv2D@cv@@QEAAAEAU012@AEBU012@@Z" PURGE="0" COMMENT="" />
    <EXPORT ORDINAL="1073" NAME="??4VideoCapture@cv@@QEAAAEAV01@AEBV01@@Z" PURGE="0" COMMENT="" />
    <EXPORT ORDINAL="1074" NAME="??4VideoFileSource@videostab@cv@@QEAAAEAV012@AEBV012@@Z" PURGE="0" COMMENT="" />
    <EXPORT ORDINAL="1075" NAME="??4VideoWriter@cv@@QEAAAEAV01@AEBV01@@Z" PURGE="0" COMMENT="" />
    <EXPORT ORDINAL="1076" NAME="??4VoronoiSeamFinder@detail@cv@@QEAAAEAV012@AEBV012@@Z" PURGE="0" COMMENT="" />
    <EXPORT ORDINAL="1077" NAME="??4WeightingDeblurer@videostab@cv@@QEAAAEAV012@AEBV012@@Z" PURGE="0" COMMENT="" />
    <EXPORT ORDINAL="1078" NAME="??4WobbleSuppressorBase@videostab@cv@@QEAAAEAV012@AEBV012@@Z" PURGE="0" COMMENT="" />
    <EXPORT ORDINAL="1079" NAME="??4WriteStructContext@internal@cv@@QEAAAEAV012@AEBV012@@Z" PURGE="0" COMMENT="" />
    <EXPORT ORDINAL="1080" NAME="??4_InputArray@cv@@QEAAAEAV01@AEBV01@@Z" PURGE="0" COMMENT="" />
    <EXPORT ORDINAL="1081" NAME="??4_InputOutputArray@cv@@QEAAAEAV01@AEBV01@@Z" PURGE="0" COMMENT="" />
    <EXPORT ORDINAL="1082" NAME="??4_IplImage@@QEAAAEAU0@AEBU0@@Z" PURGE="0" COMMENT="" />
    <EXPORT ORDINAL="1083" NAME="??4_OutputArray@cv@@QEAAAEAV01@AEBV01@@Z" PURGE="0" COMMENT="" />
    <EXPORT ORDINAL="1084" NAME="??8MatSize@cv@@QEBA_NAEBU01@@Z" PURGE="0" COMMENT="" />
    <EXPORT ORDINAL="1085" NAME="??9MatSize@cv@@QEBA_NAEBU01@@Z" PURGE="0" COMMENT="" />
    <EXPORT ORDINAL="1086" NAME="??AMatConstIterator@cv@@QEBAPEBE_J@Z" PURGE="0" COMMENT="" />
    <EXPORT ORDINAL="1087" NAME="??AMatSize@cv@@QEAAAEAHH@Z" PURGE="0" COMMENT="" />
    <EXPORT ORDINAL="1088" NAME="??AMatSize@cv@@QEBAAEBHH@Z" PURGE="0" COMMENT="" />
    <EXPORT ORDINAL="1089" NAME="??AMatStep@cv@@QEAAAEA_KH@Z" PURGE="0" COMMENT="" />
    <EXPORT ORDINAL="1090" NAME="??AMatStep@cv@@QEBAAEB_KH@Z" PURGE="0" COMMENT="" />
    <EXPORT ORDINAL="1091" NAME="??AString@cv@@QEBADH@Z" PURGE="0" COMMENT="" />
    <EXPORT ORDINAL="1092" NAME="??AString@cv@@QEBAD_K@Z" PURGE="0" COMMENT="" />
    <EXPORT ORDINAL="1093" NAME="??BFileNode@cv@@QEBA?AV?$basic_string@DU?$char_traits@D@std@@V?$allocator@D@2@@std@@XZ" PURGE="0" COMMENT="" />
    <EXPORT ORDINAL="1094" NAME="??BFileNode@cv@@QEBA?AVString@1@XZ" PURGE="0" COMMENT="" />
    <EXPORT ORDINAL="1095" NAME="??BFileNode@cv@@QEBAHXZ" PURGE="0" COMMENT="" />
    <EXPORT ORDINAL="1096" NAME="??BFileNode@cv@@QEBAMXZ" PURGE="0" COMMENT="" />
    <EXPORT ORDINAL="1097" NAME="??BFileNode@cv@@QEBANXZ" PURGE="0" COMMENT="" />
    <EXPORT ORDINAL="1098" NAME="??BMatExpr@cv@@QEBA?AVMat@1@XZ" PURGE="0" COMMENT="" />
    <EXPORT ORDINAL="1099" NAME="??BMatSize@cv@@QEBAPEBHXZ" PURGE="0" COMMENT="" />
    <EXPORT ORDINAL="1100" NAME="??BMatStep@cv@@QEBA_KXZ" PURGE="0" COMMENT="" />
    <EXPORT ORDINAL="1101" NAME="??BRNG@cv@@QEAACXZ" PURGE="0" COMMENT="" />
    <EXPORT ORDINAL="1102" NAME="??BRNG@cv@@QEAAEXZ" PURGE="0" COMMENT="" />
    <EXPORT ORDINAL="1103" NAME="??BRNG@cv@@QEAAFXZ" PURGE="0" COMMENT="" />
    <EXPORT ORDINAL="1104" NAME="??BRNG@cv@@QEAAGXZ" PURGE="0" COMMENT="" />
    <EXPORT ORDINAL="1105" NAME="??BRNG@cv@@QEAAHXZ" PURGE="0" COMMENT="" />
    <EXPORT ORDINAL="1106" NAME="??BRNG@cv@@QEAAIXZ" PURGE="0" COMMENT="" />
    <EXPORT ORDINAL="1107" NAME="??BRNG@cv@@QEAAMXZ" PURGE="0" COMMENT="" />
    <EXPORT ORDINAL="1108" NAME="??BRNG@cv@@QEAANXZ" PURGE="0" COMMENT="" />
    <EXPORT ORDINAL="1109" NAME="??BString@cv@@QEBA?AV?$basic_string@DU?$char_traits@D@std@@V?$allocator@D@2@@std@@XZ" PURGE="0" COMMENT="" />
    <EXPORT ORDINAL="1110" NAME="??CFileNodeIterator@cv@@QEBA?AVFileNode@1@XZ" PURGE="0" COMMENT="" />
    <EXPORT ORDINAL="1111" NAME="??DFileNode@cv@@QEAAPEAUCvFileNode@@XZ" PURGE="0" COMMENT="" />
    <EXPORT ORDINAL="1112" NAME="??DFileNode@cv@@QEBAPEBUCvFileNode@@XZ" PURGE="0" COMMENT="" />
    <EXPORT ORDINAL="1113" NAME="??DFileNodeIterator@cv@@QEBA?AVFileNode@1@XZ" PURGE="0" COMMENT="" />
    <EXPORT ORDINAL="1114" NAME="??DFileStorage@cv@@QEAAPEAUCvFileStorage@@XZ" PURGE="0" COMMENT="" />
    <EXPORT ORDINAL="1115" NAME="??DFileStorage@cv@@QEBAPEBUCvFileStorage@@XZ" PURGE="0" COMMENT="" />
    <EXPORT ORDINAL="1116" NAME="??DLineIterator@cv@@QEAAPEAEXZ" PURGE="0" COMMENT="" />
    <EXPORT ORDINAL="1117" NAME="??DMatConstIterator@cv@@QEBAPEBEXZ" PURGE="0" COMMENT="" />
    <EXPORT ORDINAL="1118" NAME="??ELineIterator@cv@@QEAA?AV01@H@Z" PURGE="0" COMMENT="" />
    <EXPORT ORDINAL="1119" NAME="??ELineIterator@cv@@QEAAAEAV01@XZ" PURGE="0" COMMENT="" />
    <EXPORT ORDINAL="1120" NAME="??EMatConstIterator@cv@@QEAA?AV01@H@Z" PURGE="0" COMMENT="" />
    <EXPORT ORDINAL="1121" NAME="??EMatConstIterator@cv@@QEAAAEAV01@XZ" PURGE="0" COMMENT="" />
    <EXPORT ORDINAL="1122" NAME="??ESparseMatConstIterator@cv@@QEAA?AV01@H@Z" PURGE="0" COMMENT="" />
    <EXPORT ORDINAL="1123" NAME="??ESparseMatIterator@cv@@QEAA?AV01@H@Z" PURGE="0" COMMENT="" />
    <EXPORT ORDINAL="1124" NAME="??ESparseMatIterator@cv@@QEAAAEAV01@XZ" PURGE="0" COMMENT="" />
    <EXPORT ORDINAL="1125" NAME="??FMatConstIterator@cv@@QEAA?AV01@H@Z" PURGE="0" COMMENT="" />
    <EXPORT ORDINAL="1126" NAME="??FMatConstIterator@cv@@QEAAAEAV01@XZ" PURGE="0" COMMENT="" />
    <EXPORT ORDINAL="1127" NAME="??MDMatch@cv@@QEBA_NAEBV01@@Z" PURGE="0" COMMENT="" />
    <EXPORT ORDINAL="1128" NAME="??MGraphEdge@detail@cv@@QEBA_NAEBU012@@Z" PURGE="0" COMMENT="" />
    <EXPORT ORDINAL="1129" NAME="??OGraphEdge@detail@cv@@QEBA_NAEBU012@@Z" PURGE="0" COMMENT="" />
    <EXPORT ORDINAL="1130" NAME="??REstimator@detail@cv@@QEAA_NAEBV?$vector@UImageFeatures@detail@cv@@V?$allocator@UImageFeatures@detail@cv@@@std@@@std@@AEBV?$vector@UMatchesInfo@detail@cv@@V?$allocator@UMatchesInfo@detail@cv@@@std@@@4@AEAV?$vector@UCameraParams@detail@cv@@V?$allocator@UCameraParams@detail@cv@@@std@@@4@@Z" PURGE="-1" COMMENT="" />
    <EXPORT ORDINAL="1131" NAME="??RFeaturesMatcher@detail@cv@@QEAAXAEBUImageFeatures@12@0AEAUMatchesInfo@12@@Z" PURGE="-1" COMMENT="" />
    <EXPORT ORDINAL="1132" NAME="??RGpuMat@cuda@cv@@QEBA?AV012@V?$Rect_@H@2@@Z" PURGE="0" COMMENT="" />
    <EXPORT ORDINAL="1133" NAME="??RGpuMat@cuda@cv@@QEBA?AV012@VRange@2@0@Z" PURGE="0" COMMENT="" />
    <EXPORT ORDINAL="1134" NAME="??RMat@cv@@QEBA?AV01@AEBV?$Rect_@H@1@@Z" PURGE="0" COMMENT="" />
    <EXPORT ORDINAL="1135" NAME="??RMat@cv@@QEBA?AV01@PEBVRange@1@@Z" PURGE="0" COMMENT="" />
    <EXPORT ORDINAL="1136" NAME="??RMat@cv@@QEBA?AV01@VRange@1@0@Z" PURGE="0" COMMENT="" />
    <EXPORT ORDINAL="1137" NAME="??RMatSize@cv@@QEBA?AV?$Size_@H@1@XZ" PURGE="0" COMMENT="" />
    <EXPORT ORDINAL="1138" NAME="??RRNG@cv@@QEAAII@Z" PURGE="0" COMMENT="" />
    <EXPORT ORDINAL="1139" NAME="??RRNG@cv@@QEAAIXZ" PURGE="0" COMMENT="" />
    <EXPORT ORDINAL="1140" NAME="??RSimilarRects@cv@@QEBA_NAEBV?$Rect_@H@1@0@Z" PURGE="0" COMMENT="" />
    <EXPORT ORDINAL="1141" NAME="??RUMat@cv@@QEBA?AV01@AEBV?$Rect_@H@1@@Z" PURGE="0" COMMENT="" />
    <EXPORT ORDINAL="1142" NAME="??RUMat@cv@@QEBA?AV01@PEBVRange@1@@Z" PURGE="0" COMMENT="" />
    <EXPORT ORDINAL="1143" NAME="??RUMat@cv@@QEBA?AV01@VRange@1@0@Z" PURGE="0" COMMENT="" />
    <EXPORT ORDINAL="1144" NAME="??YMatConstIterator@cv@@QEAAAEAV01@_J@Z" PURGE="0" COMMENT="" />
    <EXPORT ORDINAL="1145" NAME="??YString@cv@@QEAAAEAV01@AEBV01@@Z" PURGE="0" COMMENT="" />
    <EXPORT ORDINAL="1146" NAME="??YString@cv@@QEAAAEAV01@AEBV?$basic_string@DU?$char_traits@D@std@@V?$allocator@D@2@@std@@@Z" PURGE="0" COMMENT="" />
    <EXPORT ORDINAL="1147" NAME="??YString@cv@@QEAAAEAV01@D@Z" PURGE="0" COMMENT="" />
    <EXPORT ORDINAL="1148" NAME="??YString@cv@@QEAAAEAV01@PEBD@Z" PURGE="0" COMMENT="" />
    <EXPORT ORDINAL="1149" NAME="??ZMatConstIterator@cv@@QEAAAEAV01@_J@Z" PURGE="0" COMMENT="" />
    <EXPORT ORDINAL="1150" NAME="??_7?$RotationWarperBase@UCompressedRectilinearPortraitProjector@detail@cv@@@detail@cv@@6B@" PURGE="-1" COMMENT="" />
    <EXPORT ORDINAL="1151" NAME="??_7?$RotationWarperBase@UCompressedRectilinearProjector@detail@cv@@@detail@cv@@6B@" PURGE="-1" COMMENT="" />
    <EXPORT ORDINAL="1152" NAME="??_7?$RotationWarperBase@UCylindricalPortraitProjector@detail@cv@@@detail@cv@@6B@" PURGE="-1" COMMENT="" />
    <EXPORT ORDINAL="1153" NAME="??_7?$RotationWarperBase@UCylindricalProjector@detail@cv@@@detail@cv@@6B@" PURGE="-1" COMMENT="" />
    <EXPORT ORDINAL="1154" NAME="??_7?$RotationWarperBase@UFisheyeProjector@detail@cv@@@detail@cv@@6B@" PURGE="-1" COMMENT="" />
    <EXPORT ORDINAL="1155" NAME="??_7?$RotationWarperBase@UMercatorProjector@detail@cv@@@detail@cv@@6B@" PURGE="-1" COMMENT="" />
    <EXPORT ORDINAL="1156" NAME="??_7?$RotationWarperBase@UPaniniPortraitProjector@detail@cv@@@detail@cv@@6B@" PURGE="-1" COMMENT="" />
    <EXPORT ORDINAL="1157" NAME="??_7?$RotationWarperBase@UPaniniProjector@detail@cv@@@detail@cv@@6B@" PURGE="-1" COMMENT="" />
    <EXPORT ORDINAL="1158" NAME="??_7?$RotationWarperBase@UPlanePortraitProjector@detail@cv@@@detail@cv@@6B@" PURGE="-1" COMMENT="" />
    <EXPORT ORDINAL="1159" NAME="??_7?$RotationWarperBase@UPlaneProjector@detail@cv@@@detail@cv@@6B@" PURGE="-1" COMMENT="" />
    <EXPORT ORDINAL="1160" NAME="??_7?$RotationWarperBase@USphericalPortraitProjector@detail@cv@@@detail@cv@@6B@" PURGE="-1" COMMENT="" />
    <EXPORT ORDINAL="1161" NAME="??_7?$RotationWarperBase@USphericalProjector@detail@cv@@@detail@cv@@6B@" PURGE="-1" COMMENT="" />
    <EXPORT ORDINAL="1162" NAME="??_7?$RotationWarperBase@UStereographicProjector@detail@cv@@@detail@cv@@6B@" PURGE="-1" COMMENT="" />
    <EXPORT ORDINAL="1163" NAME="??_7?$RotationWarperBase@UTransverseMercatorProjector@detail@cv@@@detail@cv@@6B@" PURGE="-1" COMMENT="" />
    <EXPORT ORDINAL="1164" NAME="??_7AKAZE@cv@@6BAlgorithm@1@@" PURGE="-1" COMMENT="" />
    <EXPORT ORDINAL="1165" NAME="??_7AKAZE@cv@@6BFeature2D@1@@" PURGE="-1" COMMENT="" />
    <EXPORT ORDINAL="1166" NAME="??_7ANN_MLP@ml@cv@@6B@" PURGE="-1" COMMENT="" />
    <EXPORT ORDINAL="1167" NAME="??_7AffineTransformer@cv@@6B@" PURGE="-1" COMMENT="" />
    <EXPORT ORDINAL="1168" NAME="??_7AgastFeatureDetector@cv@@6BAlgorithm@1@@" PURGE="-1" COMMENT="" />
    <EXPORT ORDINAL="1169" NAME="??_7AgastFeatureDetector@cv@@6BFeature2D@1@@" PURGE="-1" COMMENT="" />
    <EXPORT ORDINAL="1170" NAME="??_7Algorithm@cv@@6B@" PURGE="-1" COMMENT="" />
    <EXPORT ORDINAL="1171" NAME="??_7AlignExposures@cv@@6B@" PURGE="-1" COMMENT="" />
    <EXPORT ORDINAL="1172" NAME="??_7AlignMTB@cv@@6B@" PURGE="-1" COMMENT="" />
    <EXPORT ORDINAL="1173" NAME="??_7Allocator@GpuMat@cuda@cv@@6B@" PURGE="-1" COMMENT="" />
    <EXPORT ORDINAL="1174" NAME="??_7BFMatcher@cv@@6B@" PURGE="-1" COMMENT="" />
    <EXPORT ORDINAL="1175" NAME="??_7BOWImgDescriptorExtractor@cv@@6B@" PURGE="-1" COMMENT="" />
    <EXPORT ORDINAL="1176" NAME="??_7BOWKMeansTrainer@cv@@6B@" PURGE="-1" COMMENT="" />
    <EXPORT ORDINAL="1177" NAME="??_7BOWTrainer@cv@@6B@" PURGE="-1" COMMENT="" />
    <EXPORT ORDINAL="1178" NAME="??_7BRISK@cv@@6BAlgorithm@1@@" PURGE="-1" COMMENT="" />
    <EXPORT ORDINAL="1179" NAME="??_7BRISK@cv@@6BFeature2D@1@@" PURGE="-1" COMMENT="" />
    <EXPORT ORDINAL="1180" NAME="??_7BackgroundSubtractor@cv@@6B@" PURGE="-1" COMMENT="" />
    <EXPORT ORDINAL="1181" NAME="??_7BackgroundSubtractorGMG@bgsegm@cv@@6B@" PURGE="-1" COMMENT="" />
    <EXPORT ORDINAL="1182" NAME="??_7BackgroundSubtractorKNN@cv@@6B@" PURGE="-1" COMMENT="" />
    <EXPORT ORDINAL="1183" NAME="??_7BackgroundSubtractorMOG2@cv@@6B@" PURGE="-1" COMMENT="" />
    <EXPORT ORDINAL="1184" NAME="??_7BackgroundSubtractorMOG@bgsegm@cv@@6B@" PURGE="-1" COMMENT="" />
    <EXPORT ORDINAL="1185" NAME="??_7BaseCascadeClassifier@cv@@6B@" PURGE="-1" COMMENT="" />
    <EXPORT ORDINAL="1186" NAME="??_7BasicFaceRecognizer@face@cv@@6B@" PURGE="-1" COMMENT="" />
    <EXPORT ORDINAL="1187" NAME="??_7BestOf2NearestMatcher@detail@cv@@6B@" PURGE="-1" COMMENT="" />
    <EXPORT ORDINAL="1188" NAME="??_7BestOf2NearestRangeMatcher@detail@cv@@6B@" PURGE="-1" COMMENT="" />
    <EXPORT ORDINAL="1189" NAME="??_7Blender@detail@cv@@6B@" PURGE="-1" COMMENT="" />
    <EXPORT ORDINAL="1190" NAME="??_7BlocksGainCompensator@detail@cv@@6B@" PURGE="-1" COMMENT="" />
    <EXPORT ORDINAL="1191" NAME="??_7Boost@ml@cv@@6B@" PURGE="-1" COMMENT="" />
    <EXPORT ORDINAL="1192" NAME="??_7BriefDescriptorExtractor@xfeatures2d@cv@@6BAlgorithm@2@@" PURGE="-1" COMMENT="" />
    <EXPORT ORDINAL="1193" NAME="??_7BriefDescriptorExtractor@xfeatures2d@cv@@6BFeature2D@2@@" PURGE="-1" COMMENT="" />
    <EXPORT ORDINAL="1194" NAME="??_7BroxOpticalFlow@superres@cv@@6B012@@" PURGE="-1" COMMENT="" />
    <EXPORT ORDINAL="1195" NAME="??_7BroxOpticalFlow@superres@cv@@6BDenseOpticalFlowExt@12@@" PURGE="-1" COMMENT="" />
    <EXPORT ORDINAL="1196" NAME="??_7BundleAdjusterBase@detail@cv@@6B@" PURGE="-1" COMMENT="" />
    <EXPORT ORDINAL="1197" NAME="??_7BundleAdjusterRay@detail@cv@@6B@" PURGE="-1" COMMENT="" />
    <EXPORT ORDINAL="1198" NAME="??_7BundleAdjusterReproj@detail@cv@@6B@" PURGE="-1" COMMENT="" />
    <EXPORT ORDINAL="1199" NAME="??_7CLAHE@cv@@6B@" PURGE="-1" COMMENT="" />
    <EXPORT ORDINAL="1200" NAME="??_7CalibrateCRF@cv@@6B@" PURGE="-1" COMMENT="" />
    <EXPORT ORDINAL="1201" NAME="??_7CalibrateDebevec@cv@@6B@" PURGE="-1" COMMENT="" />
    <EXPORT ORDINAL="1202" NAME="??_7CalibrateRobertson@cv@@6B@" PURGE="-1" COMMENT="" />
    <EXPORT ORDINAL="1203" NAME="??_7Callback@ERFilter@text@cv@@6B@" PURGE="-1" COMMENT="" />
    <EXPORT ORDINAL="1204" NAME="??_7ChiHistogramCostExtractor@cv@@6B@" PURGE="-1" COMMENT="" />
    <EXPORT ORDINAL="1205" NAME="??_7ColorAverageInpainter@videostab@cv@@6B@" PURGE="-1" COMMENT="" />
    <EXPORT ORDINAL="1206" NAME="??_7ColorInpainter@videostab@cv@@6B@" PURGE="-1" COMMENT="" />
    <EXPORT ORDINAL="1207" NAME="??_7CompressedRectilinearPortraitWarper@detail@cv@@6B@" PURGE="-1" COMMENT="" />
    <EXPORT ORDINAL="1208" NAME="??_7CompressedRectilinearWarper@detail@cv@@6B@" PURGE="-1" COMMENT="" />
    <EXPORT ORDINAL="1209" NAME="??_7ConjGradSolver@cv@@6B@" PURGE="-1" COMMENT="" />
    <EXPORT ORDINAL="1210" NAME="??_7ConsistentMosaicInpainter@videostab@cv@@6B@" PURGE="-1" COMMENT="" />
    <EXPORT ORDINAL="1211" NAME="??_7CylindricalPortraitWarper@detail@cv@@6B@" PURGE="-1" COMMENT="" />
    <EXPORT ORDINAL="1212" NAME="??_7CylindricalWarper@detail@cv@@6B@" PURGE="-1" COMMENT="" />
    <EXPORT ORDINAL="1213" NAME="??_7CylindricalWarperGpu@detail@cv@@6B@" PURGE="-1" COMMENT="" />
    <EXPORT ORDINAL="1214" NAME="??_7DAISY@xfeatures2d@cv@@6BAlgorithm@2@@" PURGE="-1" COMMENT="" />
    <EXPORT ORDINAL="1215" NAME="??_7DAISY@xfeatures2d@cv@@6BFeature2D@2@@" PURGE="-1" COMMENT="" />
    <EXPORT ORDINAL="1216" NAME="??_7DTrees@ml@cv@@6B@" PURGE="-1" COMMENT="" />
    <EXPORT ORDINAL="1217" NAME="??_7DeblurerBase@videostab@cv@@6B@" PURGE="-1" COMMENT="" />
    <EXPORT ORDINAL="1218" NAME="??_7DenseOpticalFlow@cv@@6B@" PURGE="-1" COMMENT="" />
    <EXPORT ORDINAL="1219" NAME="??_7DenseOpticalFlowExt@superres@cv@@6B@" PURGE="-1" COMMENT="" />
    <EXPORT ORDINAL="1220" NAME="??_7DescriptorMatcher@cv@@6B@" PURGE="-1" COMMENT="" />
    <EXPORT ORDINAL="1221" NAME="??_7DetectionBasedTracker@cv@@6B@" PURGE="-1" COMMENT="" />
    <EXPORT ORDINAL="1222" NAME="??_7DownhillSolver@cv@@6B@" PURGE="-1" COMMENT="" />
    <EXPORT ORDINAL="1223" NAME="??_7DpSeamFinder@detail@cv@@6B@" PURGE="-1" COMMENT="" />
    <EXPORT ORDINAL="1224" NAME="??_7DualTVL1OpticalFlow@cv@@6B@" PURGE="-1" COMMENT="" />
    <EXPORT ORDINAL="1225" NAME="??_7DualTVL1OpticalFlow@superres@cv@@6B012@@" PURGE="-1" COMMENT="" />
    <EXPORT ORDINAL="1226" NAME="??_7DualTVL1OpticalFlow@superres@cv@@6BDenseOpticalFlowExt@12@@" PURGE="-1" COMMENT="" />
    <EXPORT ORDINAL="1227" NAME="??_7EM@ml@cv@@6B@" PURGE="-1" COMMENT="" />
    <EXPORT ORDINAL="1228" NAME="??_7EMDHistogramCostExtractor@cv@@6B@" PURGE="-1" COMMENT="" />
    <EXPORT ORDINAL="1229" NAME="??_7EMDL1HistogramCostExtractor@cv@@6B@" PURGE="-1" COMMENT="" />
    <EXPORT ORDINAL="1230" NAME="??_7ERFilter@text@cv@@6B@" PURGE="-1" COMMENT="" />
    <EXPORT ORDINAL="1231" NAME="??_7Estimator@detail@cv@@6B@" PURGE="-1" COMMENT="" />
    <EXPORT ORDINAL="1232" NAME="??_7Exception@cv@@6B@" PURGE="-1" COMMENT="" />
    <EXPORT ORDINAL="1233" NAME="??_7ExposureCompensator@detail@cv@@6B@" PURGE="-1" COMMENT="" />
    <EXPORT ORDINAL="1234" NAME="??_7FREAK@xfeatures2d@cv@@6BAlgorithm@2@@" PURGE="-1" COMMENT="" />
    <EXPORT ORDINAL="1235" NAME="??_7FREAK@xfeatures2d@cv@@6BFeature2D@2@@" PURGE="-1" COMMENT="" />
    <EXPORT ORDINAL="1236" NAME="??_7FaceRecognizer@face@cv@@6B@" PURGE="-1" COMMENT="" />
    <EXPORT ORDINAL="1237" NAME="??_7FarnebackOpticalFlow@superres@cv@@6B012@@" PURGE="-1" COMMENT="" />
    <EXPORT ORDINAL="1238" NAME="??_7FarnebackOpticalFlow@superres@cv@@6BDenseOpticalFlowExt@12@@" PURGE="-1" COMMENT="" />
    <EXPORT ORDINAL="1239" NAME="??_7FastFeatureDetector@cv@@6BAlgorithm@1@@" PURGE="-1" COMMENT="" />
    <EXPORT ORDINAL="1240" NAME="??_7FastFeatureDetector@cv@@6BFeature2D@1@@" PURGE="-1" COMMENT="" />
    <EXPORT ORDINAL="1241" NAME="??_7FeatherBlender@detail@cv@@6B@" PURGE="-1" COMMENT="" />
    <EXPORT ORDINAL="1242" NAME="??_7Feature2D@cv@@6B01@@" PURGE="-1" COMMENT="" />
    <EXPORT ORDINAL="1243" NAME="??_7Feature2D@cv@@6BAlgorithm@1@@" PURGE="-1" COMMENT="" />
    <EXPORT ORDINAL="1244" NAME="??_7FeaturesFinder@detail@cv@@6B@" PURGE="-1" COMMENT="" />
    <EXPORT ORDINAL="1245" NAME="??_7FeaturesMatcher@detail@cv@@6B@" PURGE="-1" COMMENT="" />
    <EXPORT ORDINAL="1246" NAME="??_7FileStorage@cv@@6B@" PURGE="-1" COMMENT="" />
    <EXPORT ORDINAL="1247" NAME="??_7FisheyeWarper@detail@cv@@6B@" PURGE="-1" COMMENT="" />
    <EXPORT ORDINAL="1248" NAME="??_7FlannBasedMatcher@cv@@6B@" PURGE="-1" COMMENT="" />
    <EXPORT ORDINAL="1249" NAME="??_7Formatted@cv@@6B@" PURGE="-1" COMMENT="" />
    <EXPORT ORDINAL="1250" NAME="??_7Formatter@cv@@6B@" PURGE="-1" COMMENT="" />
    <EXPORT ORDINAL="1251" NAME="??_7FrameSource@superres@cv@@6B@" PURGE="-1" COMMENT="" />
    <EXPORT ORDINAL="1252" NAME="??_7Function@MinProblemSolver@cv@@6B@" PURGE="-1" COMMENT="" />
    <EXPORT ORDINAL="1253" NAME="??_7GFTTDetector@cv@@6BAlgorithm@1@@" PURGE="-1" COMMENT="" />
    <EXPORT ORDINAL="1254" NAME="??_7GFTTDetector@cv@@6BFeature2D@1@@" PURGE="-1" COMMENT="" />
    <EXPORT ORDINAL="1255" NAME="??_7GainCompensator@detail@cv@@6B@" PURGE="-1" COMMENT="" />
    <EXPORT ORDINAL="1256" NAME="??_7GaussianMotionFilter@videostab@cv@@6B@" PURGE="-1" COMMENT="" />
    <EXPORT ORDINAL="1257" NAME="??_7GeneralizedHough@cv@@6B@" PURGE="-1" COMMENT="" />
    <EXPORT ORDINAL="1258" NAME="??_7GeneralizedHoughBallard@cv@@6B@" PURGE="-1" COMMENT="" />
    <EXPORT ORDINAL="1259" NAME="??_7GeneralizedHoughGuil@cv@@6B@" PURGE="-1" COMMENT="" />
    <EXPORT ORDINAL="1260" NAME="??_7GraphCutSeamFinder@detail@cv@@6B@" PURGE="-1" COMMENT="" />
    <EXPORT ORDINAL="1261" NAME="??_7HOGDescriptor@cv@@6B@" PURGE="-1" COMMENT="" />
    <EXPORT ORDINAL="1262" NAME="??_7HausdorffDistanceExtractor@cv@@6B@" PURGE="-1" COMMENT="" />
    <EXPORT ORDINAL="1263" NAME="??_7HistogramCostExtractor@cv@@6B@" PURGE="-1" COMMENT="" />
    <EXPORT ORDINAL="1264" NAME="??_7HomographyBasedEstimator@detail@cv@@6B@" PURGE="-1" COMMENT="" />
    <EXPORT ORDINAL="1265" NAME="??_7IDenseOptFlowEstimator@videostab@cv@@6B@" PURGE="-1" COMMENT="" />
    <EXPORT ORDINAL="1266" NAME="??_7IFrameSource@videostab@cv@@6B@" PURGE="-1" COMMENT="" />
    <EXPORT ORDINAL="1267" NAME="??_7ILog@videostab@cv@@6B@" PURGE="-1" COMMENT="" />
    <EXPORT ORDINAL="1268" NAME="??_7IMotionStabilizer@videostab@cv@@6B@" PURGE="-1" COMMENT="" />
    <EXPORT ORDINAL="1269" NAME="??_7IOutlierRejector@videostab@cv@@6B@" PURGE="-1" COMMENT="" />
    <EXPORT ORDINAL="1270" NAME="??_7ISparseOptFlowEstimator@videostab@cv@@6B@" PURGE="-1" COMMENT="" />
    <EXPORT ORDINAL="1271" NAME="??_7ImageMotionEstimatorBase@videostab@cv@@6B@" PURGE="-1" COMMENT="" />
    <EXPORT ORDINAL="1272" NAME="??_7Index@flann@cv@@6B@" PURGE="-1" COMMENT="" />
    <EXPORT ORDINAL="1273" NAME="??_7InpainterBase@videostab@cv@@6B@" PURGE="-1" COMMENT="" />
    <EXPORT ORDINAL="1274" NAME="??_7InpaintingPipeline@videostab@cv@@6B@" PURGE="-1" COMMENT="" />
    <EXPORT ORDINAL="1275" NAME="??_7KAZE@cv@@6BAlgorithm@1@@" PURGE="-1" COMMENT="" />
    <EXPORT ORDINAL="1276" NAME="??_7KAZE@cv@@6BFeature2D@1@@" PURGE="-1" COMMENT="" />
    <EXPORT ORDINAL="1277" NAME="??_7KNearest@ml@cv@@6B@" PURGE="-1" COMMENT="" />
    <EXPORT ORDINAL="1278" NAME="??_7Kernel@SVM@ml@cv@@6B@" PURGE="-1" COMMENT="" />
    <EXPORT ORDINAL="1279" NAME="??_7KeypointBasedMotionEstimator@videostab@cv@@6B@" PURGE="-1" COMMENT="" />
    <EXPORT ORDINAL="1280" NAME="??_7LATCH@xfeatures2d@cv@@6BAlgorithm@2@@" PURGE="-1" COMMENT="" />
    <EXPORT ORDINAL="1281" NAME="??_7LATCH@xfeatures2d@cv@@6BFeature2D@2@@" PURGE="-1" COMMENT="" />
    <EXPORT ORDINAL="1282" NAME="??_7LBPHFaceRecognizer@face@cv@@6B@" PURGE="-1" COMMENT="" />
    <EXPORT ORDINAL="1283" NAME="??_7LSVMDetector@lsvm@cv@@6B@" PURGE="-1" COMMENT="" />
    <EXPORT ORDINAL="1284" NAME="??_7LUCID@xfeatures2d@cv@@6BAlgorithm@2@@" PURGE="-1" COMMENT="" />
    <EXPORT ORDINAL="1285" NAME="??_7LUCID@xfeatures2d@cv@@6BFeature2D@2@@" PURGE="-1" COMMENT="" />
    <EXPORT ORDINAL="1286" NAME="??_7LineSegmentDetector@cv@@6B@" PURGE="-1" COMMENT="" />
    <EXPORT ORDINAL="1287" NAME="??_7LogToStdout@videostab@cv@@6B@" PURGE="-1" COMMENT="" />
    <EXPORT ORDINAL="1288" NAME="??_7LogisticRegression@ml@cv@@6B@" PURGE="-1" COMMENT="" />
    <EXPORT ORDINAL="1289" NAME="??_7LpMotionStabilizer@videostab@cv@@6B@" PURGE="-1" COMMENT="" />
    <EXPORT ORDINAL="1290" NAME="??_7MSER@cv@@6BAlgorithm@1@@" PURGE="-1" COMMENT="" />
    <EXPORT ORDINAL="1291" NAME="??_7MSER@cv@@6BFeature2D@1@@" PURGE="-1" COMMENT="" />
    <EXPORT ORDINAL="1292" NAME="??_7MaskGenerator@BaseCascadeClassifier@cv@@6B@" PURGE="-1" COMMENT="" />
    <EXPORT ORDINAL="1293" NAME="??_7MatAllocator@cv@@6B@" PURGE="-1" COMMENT="" />
    <EXPORT ORDINAL="1294" NAME="??_7MatOp@cv@@6B@" PURGE="-1" COMMENT="" />
    <EXPORT ORDINAL="1295" NAME="??_7MercatorWarper@detail@cv@@6B@" PURGE="-1" COMMENT="" />
    <EXPORT ORDINAL="1296" NAME="??_7MergeDebevec@cv@@6B@" PURGE="-1" COMMENT="" />
    <EXPORT ORDINAL="1297" NAME="??_7MergeExposures@cv@@6B@" PURGE="-1" COMMENT="" />
    <EXPORT ORDINAL="1298" NAME="??_7MergeMertens@cv@@6B@" PURGE="-1" COMMENT="" />
    <EXPORT ORDINAL="1299" NAME="??_7MergeRobertson@cv@@6B@" PURGE="-1" COMMENT="" />
    <EXPORT ORDINAL="1300" NAME="??_7MinProblemSolver@cv@@6B@" PURGE="-1" COMMENT="" />
    <EXPORT ORDINAL="1301" NAME="??_7MoreAccurateMotionWobbleSuppressor@videostab@cv@@6B@" PURGE="-1" COMMENT="" />
    <EXPORT ORDINAL="1302" NAME="??_7MoreAccurateMotionWobbleSuppressorBase@videostab@cv@@6B@" PURGE="-1" COMMENT="" />
    <EXPORT ORDINAL="1303" NAME="??_7MotionEstimatorBase@videostab@cv@@6B@" PURGE="-1" COMMENT="" />
    <EXPORT ORDINAL="1304" NAME="??_7MotionEstimatorL1@videostab@cv@@6B@" PURGE="-1" COMMENT="" />
    <EXPORT ORDINAL="1305" NAME="??_7MotionEstimatorRansacL2@videostab@cv@@6B@" PURGE="-1" COMMENT="" />
    <EXPORT ORDINAL="1306" NAME="??_7MotionFilterBase@videostab@cv@@6B@" PURGE="-1" COMMENT="" />
    <EXPORT ORDINAL="1307" NAME="??_7MotionInpainter@videostab@cv@@6B@" PURGE="-1" COMMENT="" />
    <EXPORT ORDINAL="1308" NAME="??_7MotionStabilizationPipeline@videostab@cv@@6B@" PURGE="-1" COMMENT="" />
    <EXPORT ORDINAL="1309" NAME="??_7MultiBandBlender@detail@cv@@6B@" PURGE="-1" COMMENT="" />
    <EXPORT ORDINAL="1310" NAME="??_7NoExposureCompensator@detail@cv@@6B@" PURGE="-1" COMMENT="" />
    <EXPORT ORDINAL="1311" NAME="??_7NoSeamFinder@detail@cv@@6B@" PURGE="-1" COMMENT="" />
    <EXPORT ORDINAL="1312" NAME="??_7NormHistogramCostExtractor@cv@@6B@" PURGE="-1" COMMENT="" />
    <EXPORT ORDINAL="1313" NAME="??_7NormalBayesClassifier@ml@cv@@6B@" PURGE="-1" COMMENT="" />
    <EXPORT ORDINAL="1314" NAME="??_7NullDeblurer@videostab@cv@@6B@" PURGE="-1" COMMENT="" />
    <EXPORT ORDINAL="1315" NAME="??_7NullFrameSource@videostab@cv@@6B@" PURGE="-1" COMMENT="" />
    <EXPORT ORDINAL="1316" NAME="??_7NullInpainter@videostab@cv@@6B@" PURGE="-1" COMMENT="" />
    <EXPORT ORDINAL="1317" NAME="??_7NullLog@videostab@cv@@6B@" PURGE="-1" COMMENT="" />
    <EXPORT ORDINAL="1318" NAME="??_7NullOutlierRejector@videostab@cv@@6B@" PURGE="-1" COMMENT="" />
    <EXPORT ORDINAL="1319" NAME="??_7NullWobbleSuppressor@videostab@cv@@6B@" PURGE="-1" COMMENT="" />
    <EXPORT ORDINAL="1320" NAME="??_7ORB@cv@@6BAlgorithm@1@@" PURGE="-1" COMMENT="" />
    <EXPORT ORDINAL="1321" NAME="??_7ORB@cv@@6BFeature2D@1@@" PURGE="-1" COMMENT="" />
    <EXPORT ORDINAL="1322" NAME="??_7OnePassStabilizer@videostab@cv@@6BIFrameSource@12@@" PURGE="-1" COMMENT="" />
    <EXPORT ORDINAL="1323" NAME="??_7OnePassStabilizer@videostab@cv@@6BStabilizerBase@12@@" PURGE="-1" COMMENT="" />
    <EXPORT ORDINAL="1324" NAME="??_7OrbFeaturesFinder@detail@cv@@6B@" PURGE="-1" COMMENT="" />
    <EXPORT ORDINAL="1325" NAME="??_7PairwiseSeamFinder@detail@cv@@6B@" PURGE="-1" COMMENT="" />
    <EXPORT ORDINAL="1326" NAME="??_7PaniniPortraitWarper@detail@cv@@6B@" PURGE="-1" COMMENT="" />
    <EXPORT ORDINAL="1327" NAME="??_7PaniniWarper@detail@cv@@6B@" PURGE="-1" COMMENT="" />
    <EXPORT ORDINAL="1328" NAME="??_7ParallelLoopBody@cv@@6B@" PURGE="-1" COMMENT="" />
    <EXPORT ORDINAL="1329" NAME="??_7PlanePortraitWarper@detail@cv@@6B@" PURGE="-1" COMMENT="" />
    <EXPORT ORDINAL="1330" NAME="??_7PlaneWarper@detail@cv@@6B@" PURGE="-1" COMMENT="" />
    <EXPORT ORDINAL="1331" NAME="??_7PlaneWarperGpu@detail@cv@@6B@" PURGE="-1" COMMENT="" />
    <EXPORT ORDINAL="1332" NAME="??_7PyrLkOptFlowEstimatorBase@videostab@cv@@6B@" PURGE="-1" COMMENT="" />
    <EXPORT ORDINAL="1333" NAME="??_7RTrees@ml@cv@@6B@" PURGE="-1" COMMENT="" />
    <EXPORT ORDINAL="1334" NAME="??_7RotationWarper@detail@cv@@6B@" PURGE="-1" COMMENT="" />
    <EXPORT ORDINAL="1335" NAME="??_7SIFT@xfeatures2d@cv@@6BAlgorithm@2@@" PURGE="-1" COMMENT="" />
    <EXPORT ORDINAL="1336" NAME="??_7SIFT@xfeatures2d@cv@@6BFeature2D@2@@" PURGE="-1" COMMENT="" />
    <EXPORT ORDINAL="1337" NAME="??_7SURF@xfeatures2d@cv@@6BAlgorithm@2@@" PURGE="-1" COMMENT="" />
    <EXPORT ORDINAL="1338" NAME="??_7SURF@xfeatures2d@cv@@6BFeature2D@2@@" PURGE="-1" COMMENT="" />
    <EXPORT ORDINAL="1339" NAME="??_7SVM@ml@cv@@6B@" PURGE="-1" COMMENT="" />
    <EXPORT ORDINAL="1340" NAME="??_7SeamFinder@detail@cv@@6B@" PURGE="-1" COMMENT="" />
    <EXPORT ORDINAL="1341" NAME="??_7ShapeContextDistanceExtractor@cv@@6B@" PURGE="-1" COMMENT="" />
    <EXPORT ORDINAL="1342" NAME="??_7ShapeDistanceExtractor@cv@@6B@" PURGE="-1" COMMENT="" />
    <EXPORT ORDINAL="1343" NAME="??_7ShapeTransformer@cv@@6B@" PURGE="-1" COMMENT="" />
    <EXPORT ORDINAL="1344" NAME="??_7SimpleBlobDetector@cv@@6BAlgorithm@1@@" PURGE="-1" COMMENT="" />
    <EXPORT ORDINAL="1345" NAME="??_7SimpleBlobDetector@cv@@6BFeature2D@1@@" PURGE="-1" COMMENT="" />
    <EXPORT ORDINAL="1346" NAME="??_7SparsePyrLkOptFlowEstimator@videostab@cv@@6BISparseOptFlowEstimator@12@@" PURGE="-1" COMMENT="" />
    <EXPORT ORDINAL="1347" NAME="??_7SparsePyrLkOptFlowEstimator@videostab@cv@@6BPyrLkOptFlowEstimatorBase@12@@" PURGE="-1" COMMENT="" />
    <EXPORT ORDINAL="1348" NAME="??_7SphericalPortraitWarper@detail@cv@@6B@" PURGE="-1" COMMENT="" />
    <EXPORT ORDINAL="1349" NAME="??_7SphericalWarper@detail@cv@@6B@" PURGE="-1" COMMENT="" />
    <EXPORT ORDINAL="1350" NAME="??_7SphericalWarperGpu@detail@cv@@6B@" PURGE="-1" COMMENT="" />
    <EXPORT ORDINAL="1351" NAME="??_7StabilizerBase@videostab@cv@@6B@" PURGE="-1" COMMENT="" />
    <EXPORT ORDINAL="1352" NAME="??_7StarDetector@xfeatures2d@cv@@6BAlgorithm@2@@" PURGE="-1" COMMENT="" />
    <EXPORT ORDINAL="1353" NAME="??_7StarDetector@xfeatures2d@cv@@6BFeature2D@2@@" PURGE="-1" COMMENT="" />
    <EXPORT ORDINAL="1354" NAME="??_7StatModel@ml@cv@@6B@" PURGE="-1" COMMENT="" />
    <EXPORT ORDINAL="1355" NAME="??_7StereoBM@cv@@6B@" PURGE="-1" COMMENT="" />
    <EXPORT ORDINAL="1356" NAME="??_7StereoMatcher@cv@@6B@" PURGE="-1" COMMENT="" />
    <EXPORT ORDINAL="1357" NAME="??_7StereoSGBM@cv@@6B@" PURGE="-1" COMMENT="" />
    <EXPORT ORDINAL="1358" NAME="??_7StereographicWarper@detail@cv@@6B@" PURGE="-1" COMMENT="" />
    <EXPORT ORDINAL="1359" NAME="??_7SuperResolution@superres@cv@@6BAlgorithm@2@@" PURGE="-1" COMMENT="" />
    <EXPORT ORDINAL="1360" NAME="??_7SuperResolution@superres@cv@@6BFrameSource@12@@" PURGE="-1" COMMENT="" />
    <EXPORT ORDINAL="1361" NAME="??_7SurfFeaturesFinder@detail@cv@@6B@" PURGE="-1" COMMENT="" />
    <EXPORT ORDINAL="1362" NAME="??_7SurfFeaturesFinderGpu@detail@cv@@6B@" PURGE="-1" COMMENT="" />
    <EXPORT ORDINAL="1363" NAME="??_7TLSDataContainer@cv@@6B@" PURGE="-1" COMMENT="" />
    <EXPORT ORDINAL="1364" NAME="??_7ThinPlateSplineShapeTransformer@cv@@6B@" PURGE="-1" COMMENT="" />
    <EXPORT ORDINAL="1365" NAME="??_7Tonemap@cv@@6B@" PURGE="-1" COMMENT="" />
    <EXPORT ORDINAL="1366" NAME="??_7TonemapDrago@cv@@6B@" PURGE="-1" COMMENT="" />
    <EXPORT ORDINAL="1367" NAME="??_7TonemapDurand@cv@@6B@" PURGE="-1" COMMENT="" />
    <EXPORT ORDINAL="1368" NAME="??_7TonemapMantiuk@cv@@6B@" PURGE="-1" COMMENT="" />
    <EXPORT ORDINAL="1369" NAME="??_7TonemapReinhard@cv@@6B@" PURGE="-1" COMMENT="" />
    <EXPORT ORDINAL="1370" NAME="??_7TrainData@ml@cv@@6B@" PURGE="-1" COMMENT="" />
    <EXPORT ORDINAL="1371" NAME="??_7TranslationBasedLocalOutlierRejector@videostab@cv@@6B@" PURGE="-1" COMMENT="" />
    <EXPORT ORDINAL="1372" NAME="??_7TransverseMercatorWarper@detail@cv@@6B@" PURGE="-1" COMMENT="" />
    <EXPORT ORDINAL="1373" NAME="??_7TwoPassStabilizer@videostab@cv@@6BIFrameSource@12@@" PURGE="-1" COMMENT="" />
    <EXPORT ORDINAL="1374" NAME="??_7TwoPassStabilizer@videostab@cv@@6BStabilizerBase@12@@" PURGE="-1" COMMENT="" />
    <EXPORT ORDINAL="1375" NAME="??_7VideoCapture@cv@@6B@" PURGE="-1" COMMENT="" />
    <EXPORT ORDINAL="1376" NAME="??_7VideoFileSource@videostab@cv@@6B@" PURGE="-1" COMMENT="" />
    <EXPORT ORDINAL="1377" NAME="??_7VideoWriter@cv@@6B@" PURGE="-1" COMMENT="" />
    <EXPORT ORDINAL="1378" NAME="??_7VoronoiSeamFinder@detail@cv@@6B@" PURGE="-1" COMMENT="" />
    <EXPORT ORDINAL="1379" NAME="??_7WeightingDeblurer@videostab@cv@@6B@" PURGE="-1" COMMENT="" />
    <EXPORT ORDINAL="1380" NAME="??_7WobbleSuppressorBase@videostab@cv@@6B@" PURGE="-1" COMMENT="" />
    <EXPORT ORDINAL="1381" NAME="??_8AKAZE@cv@@7B@" PURGE="-1" COMMENT="" />
    <EXPORT ORDINAL="1382" NAME="??_8AgastFeatureDetector@cv@@7B@" PURGE="-1" COMMENT="" />
    <EXPORT ORDINAL="1383" NAME="??_8BRISK@cv@@7B@" PURGE="-1" COMMENT="" />
    <EXPORT ORDINAL="1384" NAME="??_8BriefDescriptorExtractor@xfeatures2d@cv@@7B@" PURGE="-1" COMMENT="" />
    <EXPORT ORDINAL="1385" NAME="??_8BroxOpticalFlow@superres@cv@@7B@" PURGE="-1" COMMENT="" />
    <EXPORT ORDINAL="1386" NAME="??_8DAISY@xfeatures2d@cv@@7B@" PURGE="-1" COMMENT="" />
    <EXPORT ORDINAL="1387" NAME="??_8DualTVL1OpticalFlow@superres@cv@@7B@" PURGE="-1" COMMENT="" />
    <EXPORT ORDINAL="1388" NAME="??_8FREAK@xfeatures2d@cv@@7B@" PURGE="-1" COMMENT="" />
    <EXPORT ORDINAL="1389" NAME="??_8FarnebackOpticalFlow@superres@cv@@7B@" PURGE="-1" COMMENT="" />
    <EXPORT ORDINAL="1390" NAME="??_8FastFeatureDetector@cv@@7B@" PURGE="-1" COMMENT="" />
    <EXPORT ORDINAL="1391" NAME="??_8Feature2D@cv@@7B@" PURGE="-1" COMMENT="" />
    <EXPORT ORDINAL="1392" NAME="??_8GFTTDetector@cv@@7B@" PURGE="-1" COMMENT="" />
    <EXPORT ORDINAL="1393" NAME="??_8KAZE@cv@@7B@" PURGE="-1" COMMENT="" />
    <EXPORT ORDINAL="1394" NAME="??_8LATCH@xfeatures2d@cv@@7B@" PURGE="-1" COMMENT="" />
    <EXPORT ORDINAL="1395" NAME="??_8LUCID@xfeatures2d@cv@@7B@" PURGE="-1" COMMENT="" />
    <EXPORT ORDINAL="1396" NAME="??_8MSER@cv@@7B@" PURGE="-1" COMMENT="" />
    <EXPORT ORDINAL="1397" NAME="??_8ORB@cv@@7B@" PURGE="-1" COMMENT="" />
    <EXPORT ORDINAL="1398" NAME="??_8SIFT@xfeatures2d@cv@@7B@" PURGE="-1" COMMENT="" />
    <EXPORT ORDINAL="1399" NAME="??_8SURF@xfeatures2d@cv@@7B@" PURGE="-1" COMMENT="" />
    <EXPORT ORDINAL="1400" NAME="??_8SimpleBlobDetector@cv@@7B@" PURGE="-1" COMMENT="" />
    <EXPORT ORDINAL="1401" NAME="??_8StarDetector@xfeatures2d@cv@@7B@" PURGE="-1" COMMENT="" />
    <EXPORT ORDINAL="1402" NAME="??_DAKAZE@cv@@QEAAXXZ" PURGE="0" COMMENT="" />
    <EXPORT ORDINAL="1403" NAME="??_DAgastFeatureDetector@cv@@QEAAXXZ" PURGE="0" COMMENT="" />
    <EXPORT ORDINAL="1404" NAME="??_DBRISK@cv@@QEAAXXZ" PURGE="0" COMMENT="" />
    <EXPORT ORDINAL="1405" NAME="??_DBriefDescriptorExtractor@xfeatures2d@cv@@QEAAXXZ" PURGE="0" COMMENT="" />
    <EXPORT ORDINAL="1406" NAME="??_DBroxOpticalFlow@superres@cv@@QEAAXXZ" PURGE="0" COMMENT="" />
    <EXPORT ORDINAL="1407" NAME="??_DDAISY@xfeatures2d@cv@@QEAAXXZ" PURGE="0" COMMENT="" />
    <EXPORT ORDINAL="1408" NAME="??_DDualTVL1OpticalFlow@superres@cv@@QEAAXXZ" PURGE="0" COMMENT="" />
    <EXPORT ORDINAL="1409" NAME="??_DFREAK@xfeatures2d@cv@@QEAAXXZ" PURGE="0" COMMENT="" />
    <EXPORT ORDINAL="1410" NAME="??_DFarnebackOpticalFlow@superres@cv@@QEAAXXZ" PURGE="0" COMMENT="" />
    <EXPORT ORDINAL="1411" NAME="??_DFastFeatureDetector@cv@@QEAAXXZ" PURGE="0" COMMENT="" />
    <EXPORT ORDINAL="1412" NAME="??_DFeature2D@cv@@QEAAXXZ" PURGE="0" COMMENT="" />
    <EXPORT ORDINAL="1413" NAME="??_DGFTTDetector@cv@@QEAAXXZ" PURGE="0" COMMENT="" />
    <EXPORT ORDINAL="1414" NAME="??_DKAZE@cv@@QEAAXXZ" PURGE="0" COMMENT="" />
    <EXPORT ORDINAL="1415" NAME="??_DLATCH@xfeatures2d@cv@@QEAAXXZ" PURGE="0" COMMENT="" />
    <EXPORT ORDINAL="1416" NAME="??_DLUCID@xfeatures2d@cv@@QEAAXXZ" PURGE="0" COMMENT="" />
    <EXPORT ORDINAL="1417" NAME="??_DMSER@cv@@QEAAXXZ" PURGE="0" COMMENT="" />
    <EXPORT ORDINAL="1418" NAME="??_DORB@cv@@QEAAXXZ" PURGE="0" COMMENT="" />
    <EXPORT ORDINAL="1419" NAME="??_DSIFT@xfeatures2d@cv@@QEAAXXZ" PURGE="0" COMMENT="" />
    <EXPORT ORDINAL="1420" NAME="??_DSURF@xfeatures2d@cv@@QEAAXXZ" PURGE="0" COMMENT="" />
    <EXPORT ORDINAL="1421" NAME="??_DSimpleBlobDetector@cv@@QEAAXXZ" PURGE="0" COMMENT="" />
    <EXPORT ORDINAL="1422" NAME="??_DStarDetector@xfeatures2d@cv@@QEAAXXZ" PURGE="0" COMMENT="" />
    <EXPORT ORDINAL="1423" NAME="??_FAutotunedIndexParams@flann@cv@@QEAAXXZ" PURGE="0" COMMENT="" />
    <EXPORT ORDINAL="1424" NAME="??_FBFMatcher@cv@@QEAAXXZ" PURGE="0" COMMENT="" />
    <EXPORT ORDINAL="1425" NAME="??_FBestOf2NearestMatcher@detail@cv@@QEAAXXZ" PURGE="0" COMMENT="" />
    <EXPORT ORDINAL="1426" NAME="??_FBestOf2NearestRangeMatcher@detail@cv@@QEAAXXZ" PURGE="0" COMMENT="" />
    <EXPORT ORDINAL="1427" NAME="??_FBlocksGainCompensator@detail@cv@@QEAAXXZ" PURGE="0" COMMENT="" />
    <EXPORT ORDINAL="1428" NAME="??_FColorInpainter@videostab@cv@@QEAAXXZ" PURGE="0" COMMENT="" />
    <EXPORT ORDINAL="1429" NAME="??_FCompositeIndexParams@flann@cv@@QEAAXXZ" PURGE="0" COMMENT="" />
    <EXPORT ORDINAL="1430" NAME="??_FDisjointSets@detail@cv@@QEAAXXZ" PURGE="0" COMMENT="" />
    <EXPORT ORDINAL="1431" NAME="??_FDpSeamFinder@detail@cv@@QEAAXXZ" PURGE="0" COMMENT="" />
    <EXPORT ORDINAL="1432" NAME="??_FERStat@text@cv@@QEAAXXZ" PURGE="0" COMMENT="" />
    <EXPORT ORDINAL="1433" NAME="??_FEvent@cuda@cv@@QEAAXXZ" PURGE="0" COMMENT="" />
    <EXPORT ORDINAL="1434" NAME="??_FFeatherBlender@detail@cv@@QEAAXXZ" PURGE="0" COMMENT="" />
    <EXPORT ORDINAL="1435" NAME="??_FFeaturesMatcher@detail@cv@@QEAAXXZ" PURGE="0" COMMENT="" />
    <EXPORT ORDINAL="1436" NAME="??_FFlannBasedMatcher@cv@@QEAAXXZ" PURGE="0" COMMENT="" />
    <EXPORT ORDINAL="1437" NAME="??_FGaussianMotionFilter@videostab@cv@@QEAAXXZ" PURGE="0" COMMENT="" />
    <EXPORT ORDINAL="1438" NAME="??_FGpuMat@cuda@cv@@QEAAXXZ" PURGE="0" COMMENT="" />
    <EXPORT ORDINAL="1439" NAME="??_FGraph@detail@cv@@QEAAXXZ" PURGE="0" COMMENT="" />
    <EXPORT ORDINAL="1440" NAME="??_FGraphCutSeamFinder@detail@cv@@QEAAXXZ" PURGE="0" COMMENT="" />
    <EXPORT ORDINAL="1441" NAME="??_FHierarchicalClusteringIndexParams@flann@cv@@QEAAXXZ" PURGE="0" COMMENT="" />
    <EXPORT ORDINAL="1442" NAME="??_FHomographyBasedEstimator@detail@cv@@QEAAXXZ" PURGE="0" COMMENT="" />
    <EXPORT ORDINAL="1443" NAME="??_FHostMem@cuda@cv@@QEAAXXZ" PURGE="0" COMMENT="" />
    <EXPORT ORDINAL="1444" NAME="??_FKDTreeIndexParams@flann@cv@@QEAAXXZ" PURGE="0" COMMENT="" />
    <EXPORT ORDINAL="1445" NAME="??_FKMeansIndexParams@flann@cv@@QEAAXXZ" PURGE="0" COMMENT="" />
    <EXPORT ORDINAL="1446" NAME="??_FLDA@cv@@QEAAXXZ" PURGE="0" COMMENT="" />
    <EXPORT ORDINAL="1447" NAME="??_FLpMotionStabilizer@videostab@cv@@QEAAXXZ" PURGE="0" COMMENT="" />
    <EXPORT ORDINAL="1448" NAME="??_FMotionEstimatorL1@videostab@cv@@QEAAXXZ" PURGE="0" COMMENT="" />
    <EXPORT ORDINAL="1449" NAME="??_FMotionEstimatorRansacL2@videostab@cv@@QEAAXXZ" PURGE="0" COMMENT="" />
    <EXPORT ORDINAL="1450" NAME="??_FMultiBandBlender@detail@cv@@QEAAXXZ" PURGE="0" COMMENT="" />
    <EXPORT ORDINAL="1451" NAME="??_FOrbFeaturesFinder@detail@cv@@QEAAXXZ" PURGE="0" COMMENT="" />
    <EXPORT ORDINAL="1452" NAME="??_FPlaneWarper@detail@cv@@QEAAXXZ" PURGE="0" COMMENT="" />
    <EXPORT ORDINAL="1453" NAME="??_FPlaneWarperGpu@detail@cv@@QEAAXXZ" PURGE="0" COMMENT="" />
    <EXPORT ORDINAL="1454" NAME="??_FSearchParams@flann@cv@@QEAAXXZ" PURGE="0" COMMENT="" />
    <EXPORT ORDINAL="1455" NAME="??_FSurfFeaturesFinder@detail@cv@@QEAAXXZ" PURGE="0" COMMENT="" />
    <EXPORT ORDINAL="1456" NAME="??_FSurfFeaturesFinderGpu@detail@cv@@QEAAXXZ" PURGE="0" COMMENT="" />
    <EXPORT ORDINAL="1457" NAME="??_FUMat@cv@@QEAAXXZ" PURGE="0" COMMENT="" />
    <EXPORT ORDINAL="1458" NAME="?Local@KernelArg@ocl@cv@@SA?AV123@XZ" PURGE="0" COMMENT="" />
    <EXPORT ORDINAL="1459" NAME="?PtrReadOnly@KernelArg@ocl@cv@@SA?AV123@AEBVUMat@3@@Z" PURGE="0" COMMENT="" />
    <EXPORT ORDINAL="1460" NAME="?PtrReadWrite@KernelArg@ocl@cv@@SA?AV123@AEBVUMat@3@@Z" PURGE="0" COMMENT="" />
    <EXPORT ORDINAL="1461" NAME="?PtrWriteOnly@KernelArg@ocl@cv@@SA?AV123@AEBVUMat@3@@Z" PURGE="0" COMMENT="" />
    <EXPORT ORDINAL="1462" NAME="?ReadOnly@KernelArg@ocl@cv@@SA?AV123@AEBVUMat@3@HH@Z" PURGE="0" COMMENT="" />
    <EXPORT ORDINAL="1463" NAME="?ReadOnlyNoSize@KernelArg@ocl@cv@@SA?AV123@AEBVUMat@3@HH@Z" PURGE="0" COMMENT="" />
    <EXPORT ORDINAL="1464" NAME="?ReadWrite@KernelArg@ocl@cv@@SA?AV123@AEBVUMat@3@HH@Z" PURGE="0" COMMENT="" />
    <EXPORT ORDINAL="1465" NAME="?ReadWriteNoSize@KernelArg@ocl@cv@@SA?AV123@AEBVUMat@3@HH@Z" PURGE="0" COMMENT="" />
    <EXPORT ORDINAL="1466" NAME="?WriteOnly@KernelArg@ocl@cv@@SA?AV123@AEBVUMat@3@HH@Z" PURGE="0" COMMENT="" />
    <EXPORT ORDINAL="1467" NAME="?WriteOnlyNoSize@KernelArg@ocl@cv@@SA?AV123@AEBVUMat@3@HH@Z" PURGE="0" COMMENT="" />
    <EXPORT ORDINAL="1468" NAME="?addref@Mat@cv@@QEAAXXZ" PURGE="0" COMMENT="" />
    <EXPORT ORDINAL="1469" NAME="?addref@SparseMat@cv@@QEAAXXZ" PURGE="0" COMMENT="" />
    <EXPORT ORDINAL="1470" NAME="?addref@UMat@cv@@QEAAXXZ" PURGE="0" COMMENT="" />
    <EXPORT ORDINAL="1471" NAME="?all@Range@cv@@SA?AV12@XZ" PURGE="0" COMMENT="" />
    <EXPORT ORDINAL="1472" NAME="?apply@NoExposureCompensator@detail@cv@@UEAAXHV?$Point_@H@3@AEBV_InputOutputArray@3@AEBV_InputArray@3@@Z" PURGE="0" COMMENT="" />
    <EXPORT ORDINAL="1473" NAME="?assignTo@GpuMat@cuda@cv@@QEBAXAEAV123@H@Z" PURGE="0" COMMENT="" />
    <EXPORT ORDINAL="1474" NAME="?assignTo@Mat@cv@@QEBAXAEAV12@H@Z" PURGE="0" COMMENT="" />
    <EXPORT ORDINAL="1475" NAME="?assignTo@SparseMat@cv@@QEBAXAEAV12@H@Z" PURGE="0" COMMENT="" />
    <EXPORT ORDINAL="1476" NAME="?assignTo@UMat@cv@@QEBAXAEAV12@H@Z" PURGE="0" COMMENT="" />
    <EXPORT ORDINAL="1477" NAME="?begin@FileNode@cv@@QEBA?AVFileNodeIterator@2@XZ" PURGE="0" COMMENT="" />
    <EXPORT ORDINAL="1478" NAME="?begin@SparseMat@cv@@QEAA?AVSparseMatIterator@2@XZ" PURGE="0" COMMENT="" />
    <EXPORT ORDINAL="1479" NAME="?begin@SparseMat@cv@@QEBA?AVSparseMatConstIterator@2@XZ" PURGE="0" COMMENT="" />
    <EXPORT ORDINAL="1480" NAME="?begin@String@cv@@QEBAPEBDXZ" PURGE="0" COMMENT="" />
    <EXPORT ORDINAL="1481" NAME="?blender@Stitcher@cv@@QEAA?AU?$Ptr@VBlender@detail@cv@@@2@XZ" PURGE="0" COMMENT="" />
    <EXPORT ORDINAL="1482" NAME="?blender@Stitcher@cv@@QEBA?BU?$Ptr@VBlender@detail@cv@@@2@XZ" PURGE="0" COMMENT="" />
    <EXPORT ORDINAL="1483" NAME="?blurrinessRates@DeblurerBase@videostab@cv@@UEBAAEBV?$vector@MV?$allocator@M@std@@@std@@XZ" PURGE="0" COMMENT="" />
    <EXPORT ORDINAL="1484" NAME="?borderMode@MotionInpainter@videostab@cv@@QEBAHXZ" PURGE="0" COMMENT="" />
    <EXPORT ORDINAL="1485" NAME="?borderMode@StabilizerBase@videostab@cv@@QEBAHXZ" PURGE="0" COMMENT="" />
    <EXPORT ORDINAL="1486" NAME="?buildMaps@?$RotationWarperBase@UCompressedRectilinearPortraitProjector@detail@cv@@@detail@cv@@UEAA?AV?$Rect_@H@3@V?$Size_@H@3@AEBV_InputArray@3@1AEBV_OutputArray@3@2@Z" PURGE="0" COMMENT="" />
    <EXPORT ORDINAL="1487" NAME="?buildMaps@?$RotationWarperBase@UCompressedRectilinearProjector@detail@cv@@@detail@cv@@UEAA?AV?$Rect_@H@3@V?$Size_@H@3@AEBV_InputArray@3@1AEBV_OutputArray@3@2@Z" PURGE="0" COMMENT="" />
    <EXPORT ORDINAL="1488" NAME="?buildMaps@?$RotationWarperBase@UCylindricalPortraitProjector@detail@cv@@@detail@cv@@UEAA?AV?$Rect_@H@3@V?$Size_@H@3@AEBV_InputArray@3@1AEBV_OutputArray@3@2@Z" PURGE="0" COMMENT="" />
    <EXPORT ORDINAL="1489" NAME="?buildMaps@?$RotationWarperBase@UCylindricalProjector@detail@cv@@@detail@cv@@UEAA?AV?$Rect_@H@3@V?$Size_@H@3@AEBV_InputArray@3@1AEBV_OutputArray@3@2@Z" PURGE="0" COMMENT="" />
    <EXPORT ORDINAL="1490" NAME="?buildMaps@?$RotationWarperBase@UFisheyeProjector@detail@cv@@@detail@cv@@UEAA?AV?$Rect_@H@3@V?$Size_@H@3@AEBV_InputArray@3@1AEBV_OutputArray@3@2@Z" PURGE="0" COMMENT="" />
    <EXPORT ORDINAL="1491" NAME="?buildMaps@?$RotationWarperBase@UMercatorProjector@detail@cv@@@detail@cv@@UEAA?AV?$Rect_@H@3@V?$Size_@H@3@AEBV_InputArray@3@1AEBV_OutputArray@3@2@Z" PURGE="0" COMMENT="" />
    <EXPORT ORDINAL="1492" NAME="?buildMaps@?$RotationWarperBase@UPaniniPortraitProjector@detail@cv@@@detail@cv@@UEAA?AV?$Rect_@H@3@V?$Size_@H@3@AEBV_InputArray@3@1AEBV_OutputArray@3@2@Z" PURGE="0" COMMENT="" />
    <EXPORT ORDINAL="1493" NAME="?buildMaps@?$RotationWarperBase@UPaniniProjector@detail@cv@@@detail@cv@@UEAA?AV?$Rect_@H@3@V?$Size_@H@3@AEBV_InputArray@3@1AEBV_OutputArray@3@2@Z" PURGE="0" COMMENT="" />
    <EXPORT ORDINAL="1494" NAME="?buildMaps@?$RotationWarperBase@UPlanePortraitProjector@detail@cv@@@detail@cv@@UEAA?AV?$Rect_@H@3@V?$Size_@H@3@AEBV_InputArray@3@1AEBV_OutputArray@3@2@Z" PURGE="0" COMMENT="" />
    <EXPORT ORDINAL="1495" NAME="?buildMaps@?$RotationWarperBase@UPlaneProjector@detail@cv@@@detail@cv@@UEAA?AV?$Rect_@H@3@V?$Size_@H@3@AEBV_InputArray@3@1AEBV_OutputArray@3@2@Z" PURGE="0" COMMENT="" />
    <EXPORT ORDINAL="1496" NAME="?buildMaps@?$RotationWarperBase@USphericalPortraitProjector@detail@cv@@@detail@cv@@UEAA?AV?$Rect_@H@3@V?$Size_@H@3@AEBV_InputArray@3@1AEBV_OutputArray@3@2@Z" PURGE="0" COMMENT="" />
    <EXPORT ORDINAL="1497" NAME="?buildMaps@?$RotationWarperBase@USphericalProjector@detail@cv@@@detail@cv@@UEAA?AV?$Rect_@H@3@V?$Size_@H@3@AEBV_InputArray@3@1AEBV_OutputArray@3@2@Z" PURGE="0" COMMENT="" />
    <EXPORT ORDINAL="1498" NAME="?buildMaps@?$RotationWarperBase@UStereographicProjector@detail@cv@@@detail@cv@@UEAA?AV?$Rect_@H@3@V?$Size_@H@3@AEBV_InputArray@3@1AEBV_OutputArray@3@2@Z" PURGE="0" COMMENT="" />
    <EXPORT ORDINAL="1499" NAME="?buildMaps@?$RotationWarperBase@UTransverseMercatorProjector@detail@cv@@@detail@cv@@UEAA?AV?$Rect_@H@3@V?$Size_@H@3@AEBV_InputArray@3@1AEBV_OutputArray@3@2@Z" PURGE="0" COMMENT="" />
    <EXPORT ORDINAL="1500" NAME="?buildMaps@CylindricalWarperGpu@detail@cv@@UEAA?AV?$Rect_@H@3@V?$Size_@H@3@AEBV_InputArray@3@1AEBV_OutputArray@3@2@Z" PURGE="0" COMMENT="" />
    <EXPORT ORDINAL="1501" NAME="?buildMaps@PlaneWarperGpu@detail@cv@@UEAA?AV?$Rect_@H@3@V?$Size_@H@3@AEBV_InputArray@3@11AEBV_OutputArray@3@2@Z" PURGE="0" COMMENT="" />
    <EXPORT ORDINAL="1502" NAME="?buildMaps@PlaneWarperGpu@detail@cv@@UEAA?AV?$Rect_@H@3@V?$Size_@H@3@AEBV_InputArray@3@1AEBV_OutputArray@3@2@Z" PURGE="0" COMMENT="" />
    <EXPORT ORDINAL="1503" NAME="?buildMaps@SphericalWarperGpu@detail@cv@@UEAA?AV?$Rect_@H@3@V?$Size_@H@3@AEBV_InputArray@3@1AEBV_OutputArray@3@2@Z" PURGE="0" COMMENT="" />
    <EXPORT ORDINAL="1504" NAME="?bundleAdjuster@Stitcher@cv@@QEAA?AU?$Ptr@VBundleAdjusterBase@detail@cv@@@2@XZ" PURGE="0" COMMENT="" />
    <EXPORT ORDINAL="1505" NAME="?bundleAdjuster@Stitcher@cv@@QEBA?BU?$Ptr@VBundleAdjusterBase@detail@cv@@@2@XZ" PURGE="0" COMMENT="" />
    <EXPORT ORDINAL="1506" NAME="?c_str@String@cv@@QEBAPEBDXZ" PURGE="0" COMMENT="" />
    <EXPORT ORDINAL="1507" NAME="?cameras@Stitcher@cv@@QEBA?AV?$vector@UCameraParams@detail@cv@@V?$allocator@UCameraParams@detail@cv@@@std@@@std@@XZ" PURGE="0" COMMENT="" />
    <EXPORT ORDINAL="1508" NAME="?cellSize@TranslationBasedLocalOutlierRejector@videostab@cv@@QEBA?AV?$Size_@H@3@XZ" PURGE="0" COMMENT="" />
    <EXPORT ORDINAL="1509" NAME="?channels@GpuMat@cuda@cv@@QEBAHXZ" PURGE="0" COMMENT="" />
    <EXPORT ORDINAL="1510" NAME="?channels@HostMem@cuda@cv@@QEBAHXZ" PURGE="0" COMMENT="" />
    <EXPORT ORDINAL="1511" NAME="?channels@Mat@cv@@QEBAHXZ" PURGE="0" COMMENT="" />
    <EXPORT ORDINAL="1512" NAME="?channels@SparseMat@cv@@QEBAHXZ" PURGE="0" COMMENT="" />
    <EXPORT ORDINAL="1513" NAME="?channels@UMat@cv@@QEBAHXZ" PURGE="0" COMMENT="" />
    <EXPORT ORDINAL="1514" NAME="?clear@Algorithm@cv@@UEAAXXZ" PURGE="0" COMMENT="" />
    <EXPORT ORDINAL="1515" NAME="?clear@String@cv@@QEAAXXZ" PURGE="0" COMMENT="" />
    <EXPORT ORDINAL="1516" NAME="?clone@GpuMat@cuda@cv@@QEBA?AV123@XZ" PURGE="0" COMMENT="" />
    <EXPORT ORDINAL="1517" NAME="?clone@HostMem@cuda@cv@@QEBA?AV123@XZ" PURGE="0" COMMENT="" />
    <EXPORT ORDINAL="1518" NAME="?clone@Mat@cv@@QEBA?AV12@XZ" PURGE="0" COMMENT="" />
    <EXPORT ORDINAL="1519" NAME="?clone@SparseMat@cv@@QEBA?AV12@XZ" PURGE="0" COMMENT="" />
    <EXPORT ORDINAL="1520" NAME="?clone@UMat@cv@@QEBA?AV12@XZ" PURGE="0" COMMENT="" />
    <EXPORT ORDINAL="1521" NAME="?clone_op@DescriptorMatcher@cv@@KA?AVMat@2@V32@@Z" PURGE="0" COMMENT="" />
    <EXPORT ORDINAL="1522" NAME="?col@GpuMat@cuda@cv@@QEBA?AV123@H@Z" PURGE="0" COMMENT="" />
    <EXPORT ORDINAL="1523" NAME="?col@Mat@cv@@QEBA?AV12@H@Z" PURGE="0" COMMENT="" />
    <EXPORT ORDINAL="1524" NAME="?col@UMat@cv@@QEBA?AV12@H@Z" PURGE="0" COMMENT="" />
    <EXPORT ORDINAL="1525" NAME="?colRange@GpuMat@cuda@cv@@QEBA?AV123@HH@Z" PURGE="0" COMMENT="" />
    <EXPORT ORDINAL="1526" NAME="?colRange@GpuMat@cuda@cv@@QEBA?AV123@VRange@3@@Z" PURGE="0" COMMENT="" />
    <EXPORT ORDINAL="1527" NAME="?colRange@Mat@cv@@QEBA?AV12@AEBVRange@2@@Z" PURGE="0" COMMENT="" />
    <EXPORT ORDINAL="1528" NAME="?colRange@Mat@cv@@QEBA?AV12@HH@Z" PURGE="0" COMMENT="" />
    <EXPORT ORDINAL="1529" NAME="?colRange@UMat@cv@@QEBA?AV12@AEBVRange@2@@Z" PURGE="0" COMMENT="" />
    <EXPORT ORDINAL="1530" NAME="?colRange@UMat@cv@@QEBA?AV12@HH@Z" PURGE="0" COMMENT="" />
    <EXPORT ORDINAL="1531" NAME="?collectGarbage@FeaturesFinder@detail@cv@@UEAAXXZ" PURGE="0" COMMENT="" />
    <EXPORT ORDINAL="1532" NAME="?collectGarbage@FeaturesMatcher@detail@cv@@UEAAXXZ" PURGE="0" COMMENT="" />
    <EXPORT ORDINAL="1533" NAME="?compare@String@cv@@QEBAHAEBV12@@Z" PURGE="0" COMMENT="" />
    <EXPORT ORDINAL="1534" NAME="?compare@String@cv@@QEBAHPEBD@Z" PURGE="0" COMMENT="" />
    <EXPORT ORDINAL="1535" NAME="?component@Stitcher@cv@@QEBA?AV?$vector@HV?$allocator@H@std@@@std@@XZ" PURGE="0" COMMENT="" />
    <EXPORT ORDINAL="1536" NAME="?compositingResol@Stitcher@cv@@QEBANXZ" PURGE="0" COMMENT="" />
    <EXPORT ORDINAL="1537" NAME="?compute2@BOWImgDescriptorExtractor@cv@@QEAAXAEBVMat@2@AEAV?$vector@VKeyPoint@cv@@V?$allocator@VKeyPoint@cv@@@std@@@std@@AEAV32@@Z" PURGE="0" COMMENT="" />
    <EXPORT ORDINAL="1538" NAME="?confThresh@BundleAdjusterBase@detail@cv@@QEBANXZ" PURGE="0" COMMENT="" />
    <EXPORT ORDINAL="1539" NAME="?convertTo@GpuMat@cuda@cv@@QEBAXAEBV_OutputArray@3@H@Z" PURGE="0" COMMENT="" />
    <EXPORT ORDINAL="1540" NAME="?convertTo@GpuMat@cuda@cv@@QEBAXAEBV_OutputArray@3@HNAEAVStream@23@@Z" PURGE="0" COMMENT="" />
    <EXPORT ORDINAL="1541" NAME="?convertTo@GpuMat@cuda@cv@@QEBAXAEBV_OutputArray@3@HNN@Z" PURGE="0" COMMENT="" />
    <EXPORT ORDINAL="1542" NAME="?copyOnMap@UMatData@cv@@QEBA_NXZ" PURGE="0" COMMENT="" />
    <EXPORT ORDINAL="1543" NAME="?copyTo@GpuMat@cuda@cv@@QEBAXAEBV_OutputArray@3@AEBV_InputArray@3@@Z" PURGE="0" COMMENT="" />
    <EXPORT ORDINAL="1544" NAME="?costFunction@DpSeamFinder@detail@cv@@QEBA?AW4CostFunction@123@XZ" PURGE="0" COMMENT="" />
    <EXPORT ORDINAL="1545" NAME="?create@GpuMat@cuda@cv@@QEAAXV?$Size_@H@3@H@Z" PURGE="0" COMMENT="" />
    <EXPORT ORDINAL="1546" NAME="?create@Graph@detail@cv@@QEAAXH@Z" PURGE="-1" COMMENT="" />
    <EXPORT ORDINAL="1547" NAME="?create@HostMem@cuda@cv@@QEAAXV?$Size_@H@3@H@Z" PURGE="0" COMMENT="" />
    <EXPORT ORDINAL="1548" NAME="?create@Mat@cv@@QEAAXHHH@Z" PURGE="0" COMMENT="" />
    <EXPORT ORDINAL="1549" NAME="?create@Mat@cv@@QEAAXV?$Size_@H@2@H@Z" PURGE="0" COMMENT="" />
    <EXPORT ORDINAL="1550" NAME="?create@UMat@cv@@QEAAXHHHW4UMatUsageFlags@2@@Z" PURGE="0" COMMENT="" />
    <EXPORT ORDINAL="1551" NAME="?create@UMat@cv@@QEAAXV?$Size_@H@2@HW4UMatUsageFlags@2@@Z" PURGE="0" COMMENT="" />
    <EXPORT ORDINAL="1552" NAME="?createMatHeader@HostMem@cuda@cv@@QEBA?AVMat@3@XZ" PURGE="0" COMMENT="" />
    <EXPORT ORDINAL="1553" NAME="?deblur@NullDeblurer@videostab@cv@@UEAAXHAEAVMat@3@@Z" PURGE="0" COMMENT="" />
    <EXPORT ORDINAL="1554" NAME="?deblurrer@StabilizerBase@videostab@cv@@QEBA?AU?$Ptr@VDeblurerBase@videostab@cv@@@3@XZ" PURGE="0" COMMENT="" />
    <EXPORT ORDINAL="1555" NAME="?default2dMotion@RansacParams@videostab@cv@@SA?AU123@W4MotionModel@23@@Z" PURGE="0" COMMENT="" />
    <EXPORT ORDINAL="1556" NAME="?depth@GpuMat@cuda@cv@@QEBAHXZ" PURGE="0" COMMENT="" />
    <EXPORT ORDINAL="1557" NAME="?depth@HostMem@cuda@cv@@QEBAHXZ" PURGE="0" COMMENT="" />
    <EXPORT ORDINAL="1558" NAME="?depth@Mat@cv@@QEBAHXZ" PURGE="0" COMMENT="" />
    <EXPORT ORDINAL="1559" NAME="?depth@SparseMat@cv@@QEBAHXZ" PURGE="0" COMMENT="" />
    <EXPORT ORDINAL="1560" NAME="?depth@UMat@cv@@QEBAHXZ" PURGE="0" COMMENT="" />
    <EXPORT ORDINAL="1561" NAME="?detectResultRoi@?$RotationWarperBase@UCompressedRectilinearPortraitProjector@detail@cv@@@detail@cv@@MEAAXV?$Size_@H@3@AEAV?$Point_@H@3@1@Z" PURGE="0" COMMENT="" />
    <EXPORT ORDINAL="1562" NAME="?detectResultRoi@?$RotationWarperBase@UCompressedRectilinearProjector@detail@cv@@@detail@cv@@MEAAXV?$Size_@H@3@AEAV?$Point_@H@3@1@Z" PURGE="0" COMMENT="" />
    <EXPORT ORDINAL="1563" NAME="?detectResultRoi@?$RotationWarperBase@UCylindricalPortraitProjector@detail@cv@@@detail@cv@@MEAAXV?$Size_@H@3@AEAV?$Point_@H@3@1@Z" PURGE="0" COMMENT="" />
    <EXPORT ORDINAL="1564" NAME="?detectResultRoi@?$RotationWarperBase@UCylindricalProjector@detail@cv@@@detail@cv@@MEAAXV?$Size_@H@3@AEAV?$Point_@H@3@1@Z" PURGE="0" COMMENT="" />
    <EXPORT ORDINAL="1565" NAME="?detectResultRoi@?$RotationWarperBase@UFisheyeProjector@detail@cv@@@detail@cv@@MEAAXV?$Size_@H@3@AEAV?$Point_@H@3@1@Z" PURGE="0" COMMENT="" />
    <EXPORT ORDINAL="1566" NAME="?detectResultRoi@?$RotationWarperBase@UMercatorProjector@detail@cv@@@detail@cv@@MEAAXV?$Size_@H@3@AEAV?$Point_@H@3@1@Z" PURGE="0" COMMENT="" />
    <EXPORT ORDINAL="1567" NAME="?detectResultRoi@?$RotationWarperBase@UPaniniPortraitProjector@detail@cv@@@detail@cv@@MEAAXV?$Size_@H@3@AEAV?$Point_@H@3@1@Z" PURGE="0" COMMENT="" />
    <EXPORT ORDINAL="1568" NAME="?detectResultRoi@?$RotationWarperBase@UPaniniProjector@detail@cv@@@detail@cv@@MEAAXV?$Size_@H@3@AEAV?$Point_@H@3@1@Z" PURGE="0" COMMENT="" />
    <EXPORT ORDINAL="1569" NAME="?detectResultRoi@?$RotationWarperBase@UPlanePortraitProjector@detail@cv@@@detail@cv@@MEAAXV?$Size_@H@3@AEAV?$Point_@H@3@1@Z" PURGE="0" COMMENT="" />
    <EXPORT ORDINAL="1570" NAME="?detectResultRoi@?$RotationWarperBase@UPlaneProjector@detail@cv@@@detail@cv@@MEAAXV?$Size_@H@3@AEAV?$Point_@H@3@1@Z" PURGE="0" COMMENT="" />
    <EXPORT ORDINAL="1571" NAME="?detectResultRoi@?$RotationWarperBase@USphericalPortraitProjector@detail@cv@@@detail@cv@@MEAAXV?$Size_@H@3@AEAV?$Point_@H@3@1@Z" PURGE="0" COMMENT="" />
    <EXPORT ORDINAL="1572" NAME="?detectResultRoi@?$RotationWarperBase@USphericalProjector@detail@cv@@@detail@cv@@MEAAXV?$Size_@H@3@AEAV?$Point_@H@3@1@Z" PURGE="0" COMMENT="" />
    <EXPORT ORDINAL="1573" NAME="?detectResultRoi@?$RotationWarperBase@UStereographicProjector@detail@cv@@@detail@cv@@MEAAXV?$Size_@H@3@AEAV?$Point_@H@3@1@Z" PURGE="0" COMMENT="" />
    <EXPORT ORDINAL="1574" NAME="?detectResultRoi@?$RotationWarperBase@UTransverseMercatorProjector@detail@cv@@@detail@cv@@MEAAXV?$Size_@H@3@AEAV?$Point_@H@3@1@Z" PURGE="0" COMMENT="" />
    <EXPORT ORDINAL="1575" NAME="?detectResultRoi@CylindricalPortraitWarper@detail@cv@@MEAAXV?$Size_@H@3@AEAV?$Point_@H@3@1@Z" PURGE="0" COMMENT="" />
    <EXPORT ORDINAL="1576" NAME="?detectResultRoi@CylindricalWarper@detail@cv@@MEAAXV?$Size_@H@3@AEAV?$Point_@H@3@1@Z" PURGE="0" COMMENT="" />
    <EXPORT ORDINAL="1577" NAME="?detectResultRoi@PlanePortraitWarper@detail@cv@@MEAAXV?$Size_@H@3@AEAV?$Point_@H@3@1@Z" PURGE="0" COMMENT="" />
    <EXPORT ORDINAL="1578" NAME="?detectResultRoiByBorder@?$RotationWarperBase@UCylindricalPortraitProjector@detail@cv@@@detail@cv@@IEAAXV?$Size_@H@3@AEAV?$Point_@H@3@1@Z" PURGE="0" COMMENT="" />
    <EXPORT ORDINAL="1579" NAME="?detectResultRoiByBorder@?$RotationWarperBase@UCylindricalProjector@detail@cv@@@detail@cv@@IEAAXV?$Size_@H@3@AEAV?$Point_@H@3@1@Z" PURGE="0" COMMENT="" />
    <EXPORT ORDINAL="1580" NAME="?detectResultRoiByBorder@?$RotationWarperBase@UPlanePortraitProjector@detail@cv@@@detail@cv@@IEAAXV?$Size_@H@3@AEAV?$Point_@H@3@1@Z" PURGE="0" COMMENT="" />
    <EXPORT ORDINAL="1581" NAME="?detector@KeypointBasedMotionEstimator@videostab@cv@@QEBA?AU?$Ptr@VFeature2D@cv@@@3@XZ" PURGE="0" COMMENT="" />
    <EXPORT ORDINAL="1582" NAME="?deviceCopyObsolete@UMatData@cv@@QEBA_NXZ" PURGE="0" COMMENT="" />
    <EXPORT ORDINAL="1583" NAME="?deviceID@DeviceInfo@cuda@cv@@QEBAHXZ" PURGE="0" COMMENT="" />
    <EXPORT ORDINAL="1584" NAME="?deviceMemMapped@UMatData@cv@@QEBA_NXZ" PURGE="0" COMMENT="" />
    <EXPORT ORDINAL="1585" NAME="?dims@SparseMat@cv@@QEBAHXZ" PURGE="0" COMMENT="" />
    <EXPORT ORDINAL="1586" NAME="?distThresh@MotionInpainter@videostab@cv@@QEBAMXZ" PURGE="0" COMMENT="" />
    <EXPORT ORDINAL="1587" NAME="?distanceMap@FastMarchingMethod@videostab@cv@@QEBA?AVMat@3@XZ" PURGE="0" COMMENT="" />
    <EXPORT ORDINAL="1588" NAME="?doCorrectionForInclusion@StabilizerBase@videostab@cv@@QEBA_NXZ" PURGE="0" COMMENT="" />
    <EXPORT ORDINAL="1589" NAME="?eigenvalues@LDA@cv@@QEBA?AVMat@2@XZ" PURGE="0" COMMENT="" />
    <EXPORT ORDINAL="1590" NAME="?eigenvectors@LDA@cv@@QEBA?AVMat@2@XZ" PURGE="0" COMMENT="" />
    <EXPORT ORDINAL="1591" NAME="?elemSize1@GpuMat@cuda@cv@@QEBA_KXZ" PURGE="0" COMMENT="" />
    <EXPORT ORDINAL="1592" NAME="?elemSize1@HostMem@cuda@cv@@QEBA_KXZ" PURGE="0" COMMENT="" />
    <EXPORT ORDINAL="1593" NAME="?elemSize1@Mat@cv@@QEBA_KXZ" PURGE="0" COMMENT="" />
    <EXPORT ORDINAL="1594" NAME="?elemSize1@SparseMat@cv@@QEBA_KXZ" PURGE="0" COMMENT="" />
    <EXPORT ORDINAL="1595" NAME="?elemSize1@UMat@cv@@QEBA_KXZ" PURGE="0" COMMENT="" />
    <EXPORT ORDINAL="1596" NAME="?elemSize@GpuMat@cuda@cv@@QEBA_KXZ" PURGE="0" COMMENT="" />
    <EXPORT ORDINAL="1597" NAME="?elemSize@HostMem@cuda@cv@@QEBA_KXZ" PURGE="0" COMMENT="" />
    <EXPORT ORDINAL="1598" NAME="?elemSize@Mat@cv@@QEBA_KXZ" PURGE="0" COMMENT="" />
    <EXPORT ORDINAL="1599" NAME="?elemSize@SparseMat@cv@@QEBA_KXZ" PURGE="0" COMMENT="" />
    <EXPORT ORDINAL="1600" NAME="?elemSize@UMat@cv@@QEBA_KXZ" PURGE="0" COMMENT="" />
    <EXPORT ORDINAL="1601" NAME="?empty@Algorithm@cv@@UEBA_NXZ" PURGE="0" COMMENT="" />
    <EXPORT ORDINAL="1602" NAME="?empty@FileNode@cv@@QEBA_NXZ" PURGE="0" COMMENT="" />
    <EXPORT ORDINAL="1603" NAME="?empty@GpuMat@cuda@cv@@QEBA_NXZ" PURGE="0" COMMENT="" />
    <EXPORT ORDINAL="1604" NAME="?empty@HostMem@cuda@cv@@QEBA_NXZ" PURGE="0" COMMENT="" />
    <EXPORT ORDINAL="1605" NAME="?empty@InpaintingPipeline@videostab@cv@@QEBA_NXZ" PURGE="0" COMMENT="" />
    <EXPORT ORDINAL="1606" NAME="?empty@Mat@cv@@QEBA_NXZ" PURGE="0" COMMENT="" />
    <EXPORT ORDINAL="1607" NAME="?empty@MotionStabilizationPipeline@videostab@cv@@QEBA_NXZ" PURGE="0" COMMENT="" />
    <EXPORT ORDINAL="1608" NAME="?empty@Range@cv@@QEBA_NXZ" PURGE="0" COMMENT="" />
    <EXPORT ORDINAL="1609" NAME="?empty@String@cv@@QEBA_NXZ" PURGE="0" COMMENT="" />
    <EXPORT ORDINAL="1610" NAME="?empty@UMat@cv@@QEBA_NXZ" PURGE="0" COMMENT="" />
    <EXPORT ORDINAL="1611" NAME="?end@FileNode@cv@@QEBA?AVFileNodeIterator@2@XZ" PURGE="0" COMMENT="" />
    <EXPORT ORDINAL="1612" NAME="?end@SparseMat@cv@@QEAA?AVSparseMatIterator@2@XZ" PURGE="0" COMMENT="" />
    <EXPORT ORDINAL="1613" NAME="?end@SparseMat@cv@@QEBA?AVSparseMatConstIterator@2@XZ" PURGE="0" COMMENT="" />
    <EXPORT ORDINAL="1614" NAME="?end@String@cv@@QEBAPEBDXZ" PURGE="0" COMMENT="" />
    <EXPORT ORDINAL="1615" NAME="?exposureCompensator@Stitcher@cv@@QEAA?AU?$Ptr@VExposureCompensator@detail@cv@@@2@XZ" PURGE="0" COMMENT="" />
    <EXPORT ORDINAL="1616" NAME="?exposureCompensator@Stitcher@cv@@QEBA?BU?$Ptr@VExposureCompensator@detail@cv@@@2@XZ" PURGE="0" COMMENT="" />
    <EXPORT ORDINAL="1617" NAME="?featuresFinder@Stitcher@cv@@QEAA?AU?$Ptr@VFeaturesFinder@detail@cv@@@2@XZ" PURGE="0" COMMENT="" />
    <EXPORT ORDINAL="1618" NAME="?featuresFinder@Stitcher@cv@@QEBA?BU?$Ptr@VFeaturesFinder@detail@cv@@@2@XZ" PURGE="0" COMMENT="" />
    <EXPORT ORDINAL="1619" NAME="?featuresMatcher@Stitcher@cv@@QEAA?AU?$Ptr@VFeaturesMatcher@detail@cv@@@2@XZ" PURGE="0" COMMENT="" />
    <EXPORT ORDINAL="1620" NAME="?featuresMatcher@Stitcher@cv@@QEBA?BU?$Ptr@VFeaturesMatcher@detail@cv@@@2@XZ" PURGE="0" COMMENT="" />
    <EXPORT ORDINAL="1621" NAME="?feed@NoExposureCompensator@detail@cv@@UEAAXAEBV?$vector@V?$Point_@H@cv@@V?$allocator@V?$Point_@H@cv@@@std@@@std@@AEBV?$vector@VUMat@cv@@V?$allocator@VUMat@cv@@@std@@@5@AEBV?$vector@U?$pair@VUMat@cv@@E@std@@V?$allocator@U?$pair@VUMat@cv@@E@std@@@2@@5@@Z" PURGE="0" COMMENT="" />
    <EXPORT ORDINAL="1622" NAME="?find@NoSeamFinder@detail@cv@@UEAAXAEBV?$vector@VUMat@cv@@V?$allocator@VUMat@cv@@@std@@@std@@AEBV?$vector@V?$Point_@H@cv@@V?$allocator@V?$Point_@H@cv@@@std@@@5@AEAV45@@Z" PURGE="0" COMMENT="" />
    <EXPORT ORDINAL="1623" NAME="?find@String@cv@@QEBA_KAEBV12@_K@Z" PURGE="0" COMMENT="" />
    <EXPORT ORDINAL="1624" NAME="?find@String@cv@@QEBA_KD_K@Z" PURGE="0" COMMENT="" />
    <EXPORT ORDINAL="1625" NAME="?find@String@cv@@QEBA_KPEBD_K1@Z" PURGE="0" COMMENT="" />
    <EXPORT ORDINAL="1626" NAME="?find@String@cv@@QEBA_KPEBD_K@Z" PURGE="0" COMMENT="" />
    <EXPORT ORDINAL="1627" NAME="?find_first_of@String@cv@@QEBA_KAEBV12@_K@Z" PURGE="0" COMMENT="" />
    <EXPORT ORDINAL="1628" NAME="?find_first_of@String@cv@@QEBA_KD_K@Z" PURGE="0" COMMENT="" />
    <EXPORT ORDINAL="1629" NAME="?find_first_of@String@cv@@QEBA_KPEBD_K1@Z" PURGE="0" COMMENT="" />
    <EXPORT ORDINAL="1630" NAME="?find_first_of@String@cv@@QEBA_KPEBD_K@Z" PURGE="0" COMMENT="" />
    <EXPORT ORDINAL="1631" NAME="?find_last_of@String@cv@@QEBA_KAEBV12@_K@Z" PURGE="0" COMMENT="" />
    <EXPORT ORDINAL="1632" NAME="?find_last_of@String@cv@@QEBA_KD_K@Z" PURGE="0" COMMENT="" />
    <EXPORT ORDINAL="1633" NAME="?find_last_of@String@cv@@QEBA_KPEBD_K1@Z" PURGE="0" COMMENT="" />
    <EXPORT ORDINAL="1634" NAME="?find_last_of@String@cv@@QEBA_KPEBD_K@Z" PURGE="0" COMMENT="" />
    <EXPORT ORDINAL="1635" NAME="?flowErrorThreshold@MotionInpainter@videostab@cv@@QEBAMXZ" PURGE="0" COMMENT="" />
    <EXPORT ORDINAL="1636" NAME="?frameCount@WobbleSuppressorBase@videostab@cv@@UEBAHXZ" PURGE="0" COMMENT="" />
    <EXPORT ORDINAL="1637" NAME="?frameSize@LpMotionStabilizer@videostab@cv@@QEBA?AV?$Size_@H@3@XZ" PURGE="0" COMMENT="" />
    <EXPORT ORDINAL="1638" NAME="?frameSource@StabilizerBase@videostab@cv@@QEBA?AU?$Ptr@VIFrameSource@videostab@cv@@@3@XZ" PURGE="0" COMMENT="" />
    <EXPORT ORDINAL="1639" NAME="?frames@DeblurerBase@videostab@cv@@UEBAAEBV?$vector@VMat@cv@@V?$allocator@VMat@cv@@@std@@@std@@XZ" PURGE="0" COMMENT="" />
    <EXPORT ORDINAL="1640" NAME="?frames@InpainterBase@videostab@cv@@UEBAAEBV?$vector@VMat@cv@@V?$allocator@VMat@cv@@@std@@@std@@XZ" PURGE="0" COMMENT="" />
    <EXPORT ORDINAL="1641" NAME="?freeMemory@DeviceInfo@cuda@cv@@QEBA_KXZ" PURGE="0" COMMENT="" />
    <EXPORT ORDINAL="1642" NAME="?getFirstTopLevelNode@FileStorage@cv@@QEBA?AVFileNode@2@XZ" PURGE="0" COMMENT="" />
    <EXPORT ORDINAL="1643" NAME="?getFlags@_InputArray@cv@@QEBAHXZ" PURGE="0" COMMENT="" />
    <EXPORT ORDINAL="1644" NAME="?getMat@_InputArray@cv@@QEBA?AVMat@2@H@Z" PURGE="0" COMMENT="" />
    <EXPORT ORDINAL="1645" NAME="?getObj@_InputArray@cv@@QEBAPEAXXZ" PURGE="0" COMMENT="" />
    <EXPORT ORDINAL="1646" NAME="?getScale@?$RotationWarperBase@UCompressedRectilinearPortraitProjector@detail@cv@@@detail@cv@@UEBAMXZ" PURGE="0" COMMENT="" />
    <EXPORT ORDINAL="1647" NAME="?getScale@?$RotationWarperBase@UCompressedRectilinearProjector@detail@cv@@@detail@cv@@UEBAMXZ" PURGE="0" COMMENT="" />
    <EXPORT ORDINAL="1648" NAME="?getScale@?$RotationWarperBase@UCylindricalPortraitProjector@detail@cv@@@detail@cv@@UEBAMXZ" PURGE="0" COMMENT="" />
    <EXPORT ORDINAL="1649" NAME="?getScale@?$RotationWarperBase@UCylindricalProjector@detail@cv@@@detail@cv@@UEBAMXZ" PURGE="0" COMMENT="" />
    <EXPORT ORDINAL="1650" NAME="?getScale@?$RotationWarperBase@UFisheyeProjector@detail@cv@@@detail@cv@@UEBAMXZ" PURGE="0" COMMENT="" />
    <EXPORT ORDINAL="1651" NAME="?getScale@?$RotationWarperBase@UMercatorProjector@detail@cv@@@detail@cv@@UEBAMXZ" PURGE="0" COMMENT="" />
    <EXPORT ORDINAL="1652" NAME="?getScale@?$RotationWarperBase@UPaniniPortraitProjector@detail@cv@@@detail@cv@@UEBAMXZ" PURGE="0" COMMENT="" />
    <EXPORT ORDINAL="1653" NAME="?getScale@?$RotationWarperBase@UPaniniProjector@detail@cv@@@detail@cv@@UEBAMXZ" PURGE="0" COMMENT="" />
    <EXPORT ORDINAL="1654" NAME="?getScale@?$RotationWarperBase@UPlanePortraitProjector@detail@cv@@@detail@cv@@UEBAMXZ" PURGE="0" COMMENT="" />
    <EXPORT ORDINAL="1655" NAME="?getScale@?$RotationWarperBase@UPlaneProjector@detail@cv@@@detail@cv@@UEBAMXZ" PURGE="0" COMMENT="" />
    <EXPORT ORDINAL="1656" NAME="?getScale@?$RotationWarperBase@USphericalPortraitProjector@detail@cv@@@detail@cv@@UEBAMXZ" PURGE="0" COMMENT="" />
    <EXPORT ORDINAL="1657" NAME="?getScale@?$RotationWarperBase@USphericalProjector@detail@cv@@@detail@cv@@UEBAMXZ" PURGE="0" COMMENT="" />
    <EXPORT ORDINAL="1658" NAME="?getScale@?$RotationWarperBase@UStereographicProjector@detail@cv@@@detail@cv@@UEBAMXZ" PURGE="0" COMMENT="" />
    <EXPORT ORDINAL="1659" NAME="?getScale@?$RotationWarperBase@UTransverseMercatorProjector@detail@cv@@@detail@cv@@UEBAMXZ" PURGE="0" COMMENT="" />
    <EXPORT ORDINAL="1660" NAME="?getScale@RotationWarper@detail@cv@@UEBAMXZ" PURGE="0" COMMENT="" />
    <EXPORT ORDINAL="1661" NAME="?getSz@_InputArray@cv@@QEBA?AV?$Size_@H@2@XZ" PURGE="0" COMMENT="" />
    <EXPORT ORDINAL="1662" NAME="?has@TargetArchs@cuda@cv@@SA_NHH@Z" PURGE="0" COMMENT="" />
    <EXPORT ORDINAL="1663" NAME="?hasEqualOrGreater@TargetArchs@cuda@cv@@SA_NHH@Z" PURGE="0" COMMENT="" />
    <EXPORT ORDINAL="1664" NAME="?hash@SparseMat@cv@@QEBA_KH@Z" PURGE="0" COMMENT="" />
    <EXPORT ORDINAL="1665" NAME="?hash@SparseMat@cv@@QEBA_KHH@Z" PURGE="0" COMMENT="" />
    <EXPORT ORDINAL="1666" NAME="?hash@SparseMat@cv@@QEBA_KHHH@Z" PURGE="0" COMMENT="" />
    <EXPORT ORDINAL="1667" NAME="?hash@SparseMat@cv@@QEBA_KPEBH@Z" PURGE="0" COMMENT="" />
    <EXPORT ORDINAL="1668" NAME="?hostCopyObsolete@UMatData@cv@@QEBA_NXZ" PURGE="0" COMMENT="" />
    <EXPORT ORDINAL="1669" NAME="?indexOf@FastMarchingMethod@videostab@cv@@AEAAAEAHAEBUDXY@123@@Z" PURGE="0" COMMENT="" />
    <EXPORT ORDINAL="1670" NAME="?init@_InputArray@cv@@IEAAXHPEBX@Z" PURGE="0" COMMENT="" />
    <EXPORT ORDINAL="1671" NAME="?init@_InputArray@cv@@IEAAXHPEBXV?$Size_@H@2@@Z" PURGE="0" COMMENT="" />
    <EXPORT ORDINAL="1672" NAME="?initializeMask@MaskGenerator@BaseCascadeClassifier@cv@@UEAAXAEBVMat@3@@Z" PURGE="0" COMMENT="" />
    <EXPORT ORDINAL="1673" NAME="?inpaint@NullInpainter@videostab@cv@@UEAAXHAEAVMat@3@0@Z" PURGE="0" COMMENT="" />
    <EXPORT ORDINAL="1674" NAME="?inpainter@StabilizerBase@videostab@cv@@QEBA?AU?$Ptr@VInpainterBase@videostab@cv@@@3@XZ" PURGE="0" COMMENT="" />
    <EXPORT ORDINAL="1675" NAME="?isAMD@Device@ocl@cv@@QEBA_NXZ" PURGE="0" COMMENT="" />
    <EXPORT ORDINAL="1676" NAME="?isContinuous@GpuMat@cuda@cv@@QEBA_NXZ" PURGE="0" COMMENT="" />
    <EXPORT ORDINAL="1677" NAME="?isContinuous@HostMem@cuda@cv@@QEBA_NXZ" PURGE="0" COMMENT="" />
    <EXPORT ORDINAL="1678" NAME="?isContinuous@Mat@cv@@QEBA_NXZ" PURGE="0" COMMENT="" />
    <EXPORT ORDINAL="1679" NAME="?isContinuous@UMat@cv@@QEBA_NXZ" PURGE="0" COMMENT="" />
    <EXPORT ORDINAL="1680" NAME="?isInt@FileNode@cv@@QEBA_NXZ" PURGE="0" COMMENT="" />
    <EXPORT ORDINAL="1681" NAME="?isIntel@Device@ocl@cv@@QEBA_NXZ" PURGE="0" COMMENT="" />
    <EXPORT ORDINAL="1682" NAME="?isMap@FileNode@cv@@QEBA_NXZ" PURGE="0" COMMENT="" />
    <EXPORT ORDINAL="1683" NAME="?isMaskSupported@BFMatcher@cv@@UEBA_NXZ" PURGE="0" COMMENT="" />
    <EXPORT ORDINAL="1684" NAME="?isMat@_InputArray@cv@@QEBA_NXZ" PURGE="0" COMMENT="" />
    <EXPORT ORDINAL="1685" NAME="?isMatVector@_InputArray@cv@@QEBA_NXZ" PURGE="0" COMMENT="" />
    <EXPORT ORDINAL="1686" NAME="?isMatx@_InputArray@cv@@QEBA_NXZ" PURGE="0" COMMENT="" />
    <EXPORT ORDINAL="1687" NAME="?isNVidia@Device@ocl@cv@@QEBA_NXZ" PURGE="0" COMMENT="" />
    <EXPORT ORDINAL="1688" NAME="?isNone@FileNode@cv@@QEBA_NXZ" PURGE="0" COMMENT="" />
    <EXPORT ORDINAL="1689" NAME="?isReal@FileNode@cv@@QEBA_NXZ" PURGE="0" COMMENT="" />
    <EXPORT ORDINAL="1690" NAME="?isSeq@FileNode@cv@@QEBA_NXZ" PURGE="0" COMMENT="" />
    <EXPORT ORDINAL="1691" NAME="?isString@FileNode@cv@@QEBA_NXZ" PURGE="0" COMMENT="" />
    <EXPORT ORDINAL="1692" NAME="?isSubmatrix@Mat@cv@@QEBA_NXZ" PURGE="0" COMMENT="" />
    <EXPORT ORDINAL="1693" NAME="?isSubmatrix@UMat@cv@@QEBA_NXZ" PURGE="0" COMMENT="" />
    <EXPORT ORDINAL="1694" NAME="?isThreadSafe@FeaturesMatcher@detail@cv@@QEBA_NXZ" PURGE="0" COMMENT="" />
    <EXPORT ORDINAL="1695" NAME="?isUMat@_InputArray@cv@@QEBA_NXZ" PURGE="0" COMMENT="" />
    <EXPORT ORDINAL="1696" NAME="?isUMatVector@_InputArray@cv@@QEBA_NXZ" PURGE="0" COMMENT="" />
    <EXPORT ORDINAL="1697" NAME="?length@String@cv@@QEBA_KXZ" PURGE="0" COMMENT="" />
    <EXPORT ORDINAL="1698" NAME="?log@DataLogger@emgu@@QEAAXPEAX@Z" PURGE="0" COMMENT="" />
    <EXPORT ORDINAL="1699" NAME="?log@DataLogger@emgu@@QEAAXPEAXH@Z" PURGE="0" COMMENT="" />
    <EXPORT ORDINAL="1700" NAME="?log@StabilizerBase@videostab@cv@@QEBA?AU?$Ptr@VILog@videostab@cv@@@3@XZ" PURGE="0" COMMENT="" />
    <EXPORT ORDINAL="1701" NAME="?logMsg@DataLogger@emgu@@QEAAXPEBDHZZ" PURGE="0" COMMENT="" />
    <EXPORT ORDINAL="1702" NAME="?mapBackward@CompressedRectilinearPortraitProjector@detail@cv@@QEAAXMMAEAM0@Z" PURGE="0" COMMENT="" />
    <EXPORT ORDINAL="1703" NAME="?mapBackward@CompressedRectilinearProjector@detail@cv@@QEAAXMMAEAM0@Z" PURGE="0" COMMENT="" />
    <EXPORT ORDINAL="1704" NAME="?mapBackward@CylindricalProjector@detail@cv@@QEAAXMMAEAM0@Z" PURGE="0" COMMENT="" />
    <EXPORT ORDINAL="1705" NAME="?mapBackward@FisheyeProjector@detail@cv@@QEAAXMMAEAM0@Z" PURGE="0" COMMENT="" />
    <EXPORT ORDINAL="1706" NAME="?mapBackward@MercatorProjector@detail@cv@@QEAAXMMAEAM0@Z" PURGE="0" COMMENT="" />
    <EXPORT ORDINAL="1707" NAME="?mapBackward@PaniniPortraitProjector@detail@cv@@QEAAXMMAEAM0@Z" PURGE="0" COMMENT="" />
    <EXPORT ORDINAL="1708" NAME="?mapBackward@PaniniProjector@detail@cv@@QEAAXMMAEAM0@Z" PURGE="0" COMMENT="" />
    <EXPORT ORDINAL="1709" NAME="?mapBackward@PlaneProjector@detail@cv@@QEAAXMMAEAM0@Z" PURGE="0" COMMENT="" />
    <EXPORT ORDINAL="1710" NAME="?mapBackward@SphericalProjector@detail@cv@@QEAAXMMAEAM0@Z" PURGE="0" COMMENT="" />
    <EXPORT ORDINAL="1711" NAME="?mapBackward@StereographicProjector@detail@cv@@QEAAXMMAEAM0@Z" PURGE="0" COMMENT="" />
    <EXPORT ORDINAL="1712" NAME="?mapBackward@TransverseMercatorProjector@detail@cv@@QEAAXMMAEAM0@Z" PURGE="0" COMMENT="" />
    <EXPORT ORDINAL="1713" NAME="?mapForward@CompressedRectilinearPortraitProjector@detail@cv@@QEAAXMMAEAM0@Z" PURGE="0" COMMENT="" />
    <EXPORT ORDINAL="1714" NAME="?mapForward@CompressedRectilinearProjector@detail@cv@@QEAAXMMAEAM0@Z" PURGE="0" COMMENT="" />
    <EXPORT ORDINAL="1715" NAME="?mapForward@CylindricalProjector@detail@cv@@QEAAXMMAEAM0@Z" PURGE="0" COMMENT="" />
    <EXPORT ORDINAL="1716" NAME="?mapForward@FisheyeProjector@detail@cv@@QEAAXMMAEAM0@Z" PURGE="0" COMMENT="" />
    <EXPORT ORDINAL="1717" NAME="?mapForward@MercatorProjector@detail@cv@@QEAAXMMAEAM0@Z" PURGE="0" COMMENT="" />
    <EXPORT ORDINAL="1718" NAME="?mapForward@PaniniPortraitProjector@detail@cv@@QEAAXMMAEAM0@Z" PURGE="0" COMMENT="" />
    <EXPORT ORDINAL="1719" NAME="?mapForward@PaniniProjector@detail@cv@@QEAAXMMAEAM0@Z" PURGE="0" COMMENT="" />
    <EXPORT ORDINAL="1720" NAME="?mapForward@PlaneProjector@detail@cv@@QEAAXMMAEAM0@Z" PURGE="0" COMMENT="" />
    <EXPORT ORDINAL="1721" NAME="?mapForward@SphericalProjector@detail@cv@@QEAAXMMAEAM0@Z" PURGE="0" COMMENT="" />
    <EXPORT ORDINAL="1722" NAME="?mapForward@StereographicProjector@detail@cv@@QEAAXMMAEAM0@Z" PURGE="0" COMMENT="" />
    <EXPORT ORDINAL="1723" NAME="?mapForward@TransverseMercatorProjector@detail@cv@@QEAAXMMAEAM0@Z" PURGE="0" COMMENT="" />
    <EXPORT ORDINAL="1724" NAME="?markDeviceCopyObsolete@UMatData@cv@@QEAAX_N@Z" PURGE="0" COMMENT="" />
    <EXPORT ORDINAL="1725" NAME="?markDeviceMemMapped@UMatData@cv@@QEAAX_N@Z" PURGE="0" COMMENT="" />
    <EXPORT ORDINAL="1726" NAME="?markHostCopyObsolete@UMatData@cv@@QEAAX_N@Z" PURGE="0" COMMENT="" />
    <EXPORT ORDINAL="1727" NAME="?matchingMask@Stitcher@cv@@QEBAAEBVUMat@2@XZ" PURGE="0" COMMENT="" />
    <EXPORT ORDINAL="1728" NAME="?maxLevel@PyrLkOptFlowEstimatorBase@videostab@cv@@UEBAHXZ" PURGE="0" COMMENT="" />
    <EXPORT ORDINAL="1729" NAME="?minInlierRatio@MotionEstimatorRansacL2@videostab@cv@@QEBAMXZ" PURGE="0" COMMENT="" />
    <EXPORT ORDINAL="1730" NAME="?missingValue@TrainData@ml@cv@@SAMXZ" PURGE="0" COMMENT="" />
    <EXPORT ORDINAL="1731" NAME="?motionEstimator@StabilizerBase@videostab@cv@@QEBA?AU?$Ptr@VImageMotionEstimatorBase@videostab@cv@@@3@XZ" PURGE="0" COMMENT="" />
    <EXPORT ORDINAL="1732" NAME="?motionEstimator@WobbleSuppressorBase@videostab@cv@@QEBA?AU?$Ptr@VImageMotionEstimatorBase@videostab@cv@@@3@XZ" PURGE="0" COMMENT="" />
    <EXPORT ORDINAL="1733" NAME="?motionFilter@OnePassStabilizer@videostab@cv@@QEBA?AU?$Ptr@VMotionFilterBase@videostab@cv@@@3@XZ" PURGE="0" COMMENT="" />
    <EXPORT ORDINAL="1734" NAME="?motionModel@ImageMotionEstimatorBase@videostab@cv@@UEBA?AW4MotionModel@23@XZ" PURGE="0" COMMENT="" />
    <EXPORT ORDINAL="1735" NAME="?motionModel@InpainterBase@videostab@cv@@UEBA?AW4MotionModel@23@XZ" PURGE="0" COMMENT="" />
    <EXPORT ORDINAL="1736" NAME="?motionModel@KeypointBasedMotionEstimator@videostab@cv@@UEBA?AW4MotionModel@23@XZ" PURGE="-1" COMMENT="" />
    <EXPORT ORDINAL="1737" NAME="?motionModel@LpMotionStabilizer@videostab@cv@@QEBA?AW4MotionModel@23@XZ" PURGE="0" COMMENT="" />
    <EXPORT ORDINAL="1738" NAME="?motionModel@MotionEstimatorBase@videostab@cv@@UEBA?AW4MotionModel@23@XZ" PURGE="0" COMMENT="" />
    <EXPORT ORDINAL="1739" NAME="?motionModel@ToFileMotionWriter@videostab@cv@@UEBA?AW4MotionModel@23@XZ" PURGE="-1" COMMENT="" />
    <EXPORT ORDINAL="1740" NAME="?motionStabilizer@TwoPassStabilizer@videostab@cv@@QEBA?AU?$Ptr@VIMotionStabilizer@videostab@cv@@@3@XZ" PURGE="0" COMMENT="" />
    <EXPORT ORDINAL="1741" NAME="?motions2@WobbleSuppressorBase@videostab@cv@@UEBAAEBV?$vector@VMat@cv@@V?$allocator@VMat@cv@@@std@@@std@@XZ" PURGE="0" COMMENT="" />
    <EXPORT ORDINAL="1742" NAME="?motions@DeblurerBase@videostab@cv@@UEBAAEBV?$vector@VMat@cv@@V?$allocator@VMat@cv@@@std@@@std@@XZ" PURGE="0" COMMENT="" />
    <EXPORT ORDINAL="1743" NAME="?motions@InpainterBase@videostab@cv@@UEBAAEBV?$vector@VMat@cv@@V?$allocator@VMat@cv@@@std@@@std@@XZ" PURGE="0" COMMENT="" />
    <EXPORT ORDINAL="1744" NAME="?motions@WobbleSuppressorBase@videostab@cv@@UEBAAEBV?$vector@VMat@cv@@V?$allocator@VMat@cv@@@std@@@std@@XZ" PURGE="0" COMMENT="" />
    <EXPORT ORDINAL="1745" NAME="?mustEstimateTrimaRatio@TwoPassStabilizer@videostab@cv@@QEBA_NXZ" PURGE="0" COMMENT="" />
    <EXPORT ORDINAL="1746" NAME="?next@RNG@cv@@QEAAIXZ" PURGE="0" COMMENT="" />
    <EXPORT ORDINAL="1747" NAME="?nextFrame@NullFrameSource@videostab@cv@@UEAA?AVMat@3@XZ" PURGE="0" COMMENT="" />
    <EXPORT ORDINAL="1748" NAME="?nextFrame@OnePassStabilizer@videostab@cv@@UEAA?AVMat@3@XZ" PURGE="0" COMMENT="" />
    <EXPORT ORDINAL="1749" NAME="?niters@RansacParams@videostab@cv@@QEBAHXZ" PURGE="0" COMMENT="" />
    <EXPORT ORDINAL="1750" NAME="?node@SparseMat@cv@@QEAAPEAUNode@12@_K@Z" PURGE="0" COMMENT="" />
    <EXPORT ORDINAL="1751" NAME="?node@SparseMat@cv@@QEBAPEBUNode@12@_K@Z" PURGE="0" COMMENT="" />
    <EXPORT ORDINAL="1752" NAME="?node@SparseMatConstIterator@cv@@QEBAPEBUNode@SparseMat@2@XZ" PURGE="0" COMMENT="" />
    <EXPORT ORDINAL="1753" NAME="?node@SparseMatIterator@cv@@QEBAPEAUNode@SparseMat@2@XZ" PURGE="0" COMMENT="" />
    <EXPORT ORDINAL="1754" NAME="?npos@String@cv@@2_KB" PURGE="-1" COMMENT="" />
    <EXPORT ORDINAL="1755" NAME="?numBands@MultiBandBlender@detail@cv@@QEBAHXZ" PURGE="0" COMMENT="" />
    <EXPORT ORDINAL="1756" NAME="?numVertices@Graph@detail@cv@@QEBAHXZ" PURGE="0" COMMENT="" />
    <EXPORT ORDINAL="1757" NAME="?nzcount@SparseMat@cv@@QEBA_KXZ" PURGE="0" COMMENT="" />
    <EXPORT ORDINAL="1758" NAME="?optFlowEstimator@MotionInpainter@videostab@cv@@QEBA?AU?$Ptr@VIDenseOptFlowEstimator@videostab@cv@@@3@XZ" PURGE="0" COMMENT="" />
    <EXPORT ORDINAL="1759" NAME="?opticalFlowEstimator@KeypointBasedMotionEstimator@videostab@cv@@QEBA?AU?$Ptr@VISparseOptFlowEstimator@videostab@cv@@@3@XZ" PURGE="0" COMMENT="" />
    <EXPORT ORDINAL="1760" NAME="?outlierRejector@KeypointBasedMotionEstimator@videostab@cv@@QEBA?AU?$Ptr@VIOutlierRejector@videostab@cv@@@3@XZ" PURGE="0" COMMENT="" />
    <EXPORT ORDINAL="1761" NAME="?panoConfidenceThresh@Stitcher@cv@@QEBANXZ" PURGE="0" COMMENT="" />
    <EXPORT ORDINAL="1762" NAME="?period@MoreAccurateMotionWobbleSuppressorBase@videostab@cv@@UEBAHXZ" PURGE="0" COMMENT="" />
    <EXPORT ORDINAL="1763" NAME="?pos@LineIterator@cv@@QEBA?AV?$Point_@H@2@XZ" PURGE="0" COMMENT="" />
    <EXPORT ORDINAL="1764" NAME="?print@NullLog@videostab@cv@@UEAAXPEBDZZ" PURGE="0" COMMENT="" />
    <EXPORT ORDINAL="1765" NAME="?ptr@GpuMat@cuda@cv@@QEAAPEAEH@Z" PURGE="0" COMMENT="" />
    <EXPORT ORDINAL="1766" NAME="?ptr@GpuMat@cuda@cv@@QEBAPEBEH@Z" PURGE="0" COMMENT="" />
    <EXPORT ORDINAL="1767" NAME="?ptr@Mat@cv@@QEAAPEAEH@Z" PURGE="0" COMMENT="" />
    <EXPORT ORDINAL="1768" NAME="?ptr@Mat@cv@@QEAAPEAEHH@Z" PURGE="0" COMMENT="" />
    <EXPORT ORDINAL="1769" NAME="?ptr@Mat@cv@@QEAAPEAEHHH@Z" PURGE="0" COMMENT="" />
    <EXPORT ORDINAL="1770" NAME="?ptr@Mat@cv@@QEAAPEAEPEBH@Z" PURGE="0" COMMENT="" />
    <EXPORT ORDINAL="1771" NAME="?ptr@Mat@cv@@QEBAPEBEH@Z" PURGE="0" COMMENT="" />
    <EXPORT ORDINAL="1772" NAME="?ptr@Mat@cv@@QEBAPEBEHH@Z" PURGE="0" COMMENT="" />
    <EXPORT ORDINAL="1773" NAME="?ptr@Mat@cv@@QEBAPEBEHHH@Z" PURGE="0" COMMENT="" />
    <EXPORT ORDINAL="1774" NAME="?ptr@Mat@cv@@QEBAPEBEPEBH@Z" PURGE="0" COMMENT="" />
    <EXPORT ORDINAL="1775" NAME="?pushBack@InpaintingPipeline@videostab@cv@@QEAAXU?$Ptr@VInpainterBase@videostab@cv@@@3@@Z" PURGE="0" COMMENT="" />
    <EXPORT ORDINAL="1776" NAME="?pushBack@MotionStabilizationPipeline@videostab@cv@@QEAAXU?$Ptr@VIMotionStabilizer@videostab@cv@@@3@@Z" PURGE="0" COMMENT="" />
    <EXPORT ORDINAL="1777" NAME="?radius@DeblurerBase@videostab@cv@@UEBAHXZ" PURGE="0" COMMENT="" />
    <EXPORT ORDINAL="1778" NAME="?radius@GaussianMotionFilter@videostab@cv@@QEBAHXZ" PURGE="0" COMMENT="" />
    <EXPORT ORDINAL="1779" NAME="?radius@InpainterBase@videostab@cv@@UEBAHXZ" PURGE="0" COMMENT="" />
    <EXPORT ORDINAL="1780" NAME="?radius@StabilizerBase@videostab@cv@@QEBAHXZ" PURGE="0" COMMENT="" />
    <EXPORT ORDINAL="1781" NAME="?ransacParams@MotionEstimatorRansacL2@videostab@cv@@QEBA?AURansacParams@23@XZ" PURGE="0" COMMENT="" />
    <EXPORT ORDINAL="1782" NAME="?ransacParams@TranslationBasedLocalOutlierRejector@videostab@cv@@QEBA?AURansacParams@23@XZ" PURGE="0" COMMENT="" />
    <EXPORT ORDINAL="1783" NAME="?read@Algorithm@cv@@UEAAXAEBVFileNode@2@@Z" PURGE="0" COMMENT="" />
    <EXPORT ORDINAL="1784" NAME="?readRaw@FileNode@cv@@QEBAXAEBVString@2@PEAE_K@Z" PURGE="0" COMMENT="" />
    <EXPORT ORDINAL="1785" NAME="?refinementMask@BundleAdjusterBase@detail@cv@@QEBA?BVMat@3@XZ" PURGE="0" COMMENT="" />
    <EXPORT ORDINAL="1786" NAME="?registerCallback@DataLogger@emgu@@QEAAXP6AXPEAXH@Z@Z" PURGE="0" COMMENT="" />
    <EXPORT ORDINAL="1787" NAME="?registrationResol@Stitcher@cv@@QEBANXZ" PURGE="0" COMMENT="" />
    <EXPORT ORDINAL="1788" NAME="?release@Mat@cv@@QEAAXXZ" PURGE="0" COMMENT="" />
    <EXPORT ORDINAL="1789" NAME="?release@SparseMat@cv@@QEAAXXZ" PURGE="0" COMMENT="" />
    <EXPORT ORDINAL="1790" NAME="?release@UMat@cv@@QEAAXXZ" PURGE="0" COMMENT="" />
    <EXPORT ORDINAL="1791" NAME="?reset@NullFrameSource@videostab@cv@@UEAAXXZ" PURGE="0" COMMENT="" />
    <EXPORT ORDINAL="1792" NAME="?rfind@String@cv@@QEBA_KAEBV12@_K@Z" PURGE="0" COMMENT="" />
    <EXPORT ORDINAL="1793" NAME="?rfind@String@cv@@QEBA_KD_K@Z" PURGE="0" COMMENT="" />
    <EXPORT ORDINAL="1794" NAME="?rfind@String@cv@@QEBA_KPEBD_K1@Z" PURGE="0" COMMENT="" />
    <EXPORT ORDINAL="1795" NAME="?rfind@String@cv@@QEBA_KPEBD_K@Z" PURGE="0" COMMENT="" />
    <EXPORT ORDINAL="1796" NAME="?row@GpuMat@cuda@cv@@QEBA?AV123@H@Z" PURGE="0" COMMENT="" />
    <EXPORT ORDINAL="1797" NAME="?row@Mat@cv@@QEBA?AV12@H@Z" PURGE="0" COMMENT="" />
    <EXPORT ORDINAL="1798" NAME="?row@UMat@cv@@QEBA?AV12@H@Z" PURGE="0" COMMENT="" />
    <EXPORT ORDINAL="1799" NAME="?rowRange@GpuMat@cuda@cv@@QEBA?AV123@HH@Z" PURGE="0" COMMENT="" />
    <EXPORT ORDINAL="1800" NAME="?rowRange@GpuMat@cuda@cv@@QEBA?AV123@VRange@3@@Z" PURGE="0" COMMENT="" />
    <EXPORT ORDINAL="1801" NAME="?rowRange@Mat@cv@@QEBA?AV12@AEBVRange@2@@Z" PURGE="0" COMMENT="" />
    <EXPORT ORDINAL="1802" NAME="?rowRange@Mat@cv@@QEBA?AV12@HH@Z" PURGE="0" COMMENT="" />
    <EXPORT ORDINAL="1803" NAME="?rowRange@UMat@cv@@QEBA?AV12@AEBVRange@2@@Z" PURGE="0" COMMENT="" />
    <EXPORT ORDINAL="1804" NAME="?rowRange@UMat@cv@@QEBA?AV12@HH@Z" PURGE="0" COMMENT="" />
    <EXPORT ORDINAL="1805" NAME="?seamEstimationResol@Stitcher@cv@@QEBANXZ" PURGE="0" COMMENT="" />
    <EXPORT ORDINAL="1806" NAME="?seamFinder@Stitcher@cv@@QEAA?AU?$Ptr@VSeamFinder@detail@cv@@@2@XZ" PURGE="0" COMMENT="" />
    <EXPORT ORDINAL="1807" NAME="?seamFinder@Stitcher@cv@@QEBA?BU?$Ptr@VSeamFinder@detail@cv@@@2@XZ" PURGE="0" COMMENT="" />
    <EXPORT ORDINAL="1808" NAME="?seekEnd@SparseMatConstIterator@cv@@QEAAXXZ" PURGE="0" COMMENT="" />
    <EXPORT ORDINAL="1809" NAME="?sensitivity@WeightingDeblurer@videostab@cv@@QEBAMXZ" PURGE="0" COMMENT="" />
    <EXPORT ORDINAL="1810" NAME="?set@LpMotionStabilizer@videostab@cv@@AEAAXHHN@Z" PURGE="0" COMMENT="" />
    <EXPORT ORDINAL="1811" NAME="?set@MotionEstimatorL1@videostab@cv@@AEAAXHHN@Z" PURGE="0" COMMENT="" />
    <EXPORT ORDINAL="1812" NAME="?setBlender@Stitcher@cv@@QEAAXU?$Ptr@VBlender@detail@cv@@@2@@Z" PURGE="0" COMMENT="" />
    <EXPORT ORDINAL="1813" NAME="?setBlurrinessRates@DeblurerBase@videostab@cv@@UEAAXAEBV?$vector@MV?$allocator@M@std@@@std@@@Z" PURGE="0" COMMENT="" />
    <EXPORT ORDINAL="1814" NAME="?setBorderMode@MotionInpainter@videostab@cv@@QEAAXH@Z" PURGE="0" COMMENT="" />
    <EXPORT ORDINAL="1815" NAME="?setBorderMode@StabilizerBase@videostab@cv@@QEAAXH@Z" PURGE="0" COMMENT="" />
    <EXPORT ORDINAL="1816" NAME="?setBundleAdjuster@Stitcher@cv@@QEAAXU?$Ptr@VBundleAdjusterBase@detail@cv@@@2@@Z" PURGE="0" COMMENT="" />
    <EXPORT ORDINAL="1817" NAME="?setCellSize@TranslationBasedLocalOutlierRejector@videostab@cv@@QEAAXV?$Size_@H@3@@Z" PURGE="0" COMMENT="" />
    <EXPORT ORDINAL="1818" NAME="?setCompositingResol@Stitcher@cv@@QEAAXN@Z" PURGE="0" COMMENT="" />
    <EXPORT ORDINAL="1819" NAME="?setConfThresh@BundleAdjusterBase@detail@cv@@QEAAXN@Z" PURGE="0" COMMENT="" />
    <EXPORT ORDINAL="1820" NAME="?setCorrectionForInclusion@StabilizerBase@videostab@cv@@QEAAX_N@Z" PURGE="0" COMMENT="" />
    <EXPORT ORDINAL="1821" NAME="?setCostFunction@DpSeamFinder@detail@cv@@QEAAXW4CostFunction@123@@Z" PURGE="0" COMMENT="" />
    <EXPORT ORDINAL="1822" NAME="?setDeblurer@StabilizerBase@videostab@cv@@QEAAXU?$Ptr@VDeblurerBase@videostab@cv@@@3@@Z" PURGE="0" COMMENT="" />
    <EXPORT ORDINAL="1823" NAME="?setDetector@KeypointBasedMotionEstimator@videostab@cv@@QEAAXU?$Ptr@VFeature2D@cv@@@3@@Z" PURGE="0" COMMENT="" />
    <EXPORT ORDINAL="1824" NAME="?setDistThreshold@MotionInpainter@videostab@cv@@QEAAXM@Z" PURGE="0" COMMENT="" />
    <EXPORT ORDINAL="1825" NAME="?setEstimateTrimRatio@TwoPassStabilizer@videostab@cv@@QEAAX_N@Z" PURGE="0" COMMENT="" />
    <EXPORT ORDINAL="1826" NAME="?setExposureCompensator@Stitcher@cv@@QEAAXU?$Ptr@VExposureCompensator@detail@cv@@@2@@Z" PURGE="0" COMMENT="" />
    <EXPORT ORDINAL="1827" NAME="?setFeaturesFinder@Stitcher@cv@@QEAAXU?$Ptr@VFeaturesFinder@detail@cv@@@2@@Z" PURGE="0" COMMENT="" />
    <EXPORT ORDINAL="1828" NAME="?setFeaturesMatcher@Stitcher@cv@@QEAAXU?$Ptr@VFeaturesMatcher@detail@cv@@@2@@Z" PURGE="0" COMMENT="" />
    <EXPORT ORDINAL="1829" NAME="?setFlowErrorThreshold@MotionInpainter@videostab@cv@@QEAAXM@Z" PURGE="0" COMMENT="" />
    <EXPORT ORDINAL="1830" NAME="?setFrameCount@WobbleSuppressorBase@videostab@cv@@UEAAXH@Z" PURGE="0" COMMENT="" />
    <EXPORT ORDINAL="1831" NAME="?setFrameSize@LpMotionStabilizer@videostab@cv@@QEAAXV?$Size_@H@3@@Z" PURGE="0" COMMENT="" />
    <EXPORT ORDINAL="1832" NAME="?setFrameSource@StabilizerBase@videostab@cv@@QEAAXU?$Ptr@VIFrameSource@videostab@cv@@@3@@Z" PURGE="0" COMMENT="" />
    <EXPORT ORDINAL="1833" NAME="?setFrames@DeblurerBase@videostab@cv@@UEAAXAEBV?$vector@VMat@cv@@V?$allocator@VMat@cv@@@std@@@std@@@Z" PURGE="0" COMMENT="" />
    <EXPORT ORDINAL="1834" NAME="?setFrames@InpainterBase@videostab@cv@@UEAAXAEBV?$vector@VMat@cv@@V?$allocator@VMat@cv@@@std@@@std@@@Z" PURGE="0" COMMENT="" />
    <EXPORT ORDINAL="1835" NAME="?setInpainter@StabilizerBase@videostab@cv@@QEAAXU?$Ptr@VInpainterBase@videostab@cv@@@3@@Z" PURGE="0" COMMENT="" />
    <EXPORT ORDINAL="1836" NAME="?setLog@StabilizerBase@videostab@cv@@QEAAXU?$Ptr@VILog@videostab@cv@@@3@@Z" PURGE="0" COMMENT="" />
    <EXPORT ORDINAL="1837" NAME="?setMatchingMask@Stitcher@cv@@QEAAXAEBVUMat@2@@Z" PURGE="0" COMMENT="" />
    <EXPORT ORDINAL="1838" NAME="?setMaxLevel@PyrLkOptFlowEstimatorBase@videostab@cv@@UEAAXH@Z" PURGE="0" COMMENT="" />
    <EXPORT ORDINAL="1839" NAME="?setMinInlierRatio@MotionEstimatorRansacL2@videostab@cv@@QEAAXM@Z" PURGE="0" COMMENT="" />
    <EXPORT ORDINAL="1840" NAME="?setMotionEstimator@StabilizerBase@videostab@cv@@QEAAXU?$Ptr@VImageMotionEstimatorBase@videostab@cv@@@3@@Z" PURGE="0" COMMENT="" />
    <EXPORT ORDINAL="1841" NAME="?setMotionEstimator@WobbleSuppressorBase@videostab@cv@@QEAAXU?$Ptr@VImageMotionEstimatorBase@videostab@cv@@@3@@Z" PURGE="0" COMMENT="" />
    <EXPORT ORDINAL="1842" NAME="?setMotionFilter@OnePassStabilizer@videostab@cv@@QEAAXU?$Ptr@VMotionFilterBase@videostab@cv@@@3@@Z" PURGE="0" COMMENT="" />
    <EXPORT ORDINAL="1843" NAME="?setMotionModel@ImageMotionEstimatorBase@videostab@cv@@UEAAXW4MotionModel@23@@Z" PURGE="0" COMMENT="" />
    <EXPORT ORDINAL="1844" NAME="?setMotionModel@InpainterBase@videostab@cv@@UEAAXW4MotionModel@23@@Z" PURGE="0" COMMENT="" />
    <EXPORT ORDINAL="1845" NAME="?setMotionModel@KeypointBasedMotionEstimator@videostab@cv@@UEAAXW4MotionModel@23@@Z" PURGE="-1" COMMENT="" />
    <EXPORT ORDINAL="1846" NAME="?setMotionModel@LpMotionStabilizer@videostab@cv@@QEAAXW4MotionModel@23@@Z" PURGE="0" COMMENT="" />
    <EXPORT ORDINAL="1847" NAME="?setMotionModel@MotionEstimatorBase@videostab@cv@@UEAAXW4MotionModel@23@@Z" PURGE="0" COMMENT="" />
    <EXPORT ORDINAL="1848" NAME="?setMotionModel@ToFileMotionWriter@videostab@cv@@UEAAXW4MotionModel@23@@Z" PURGE="-1" COMMENT="" />
    <EXPORT ORDINAL="1849" NAME="?setMotionStabilizer@TwoPassStabilizer@videostab@cv@@QEAAXU?$Ptr@VIMotionStabilizer@videostab@cv@@@3@@Z" PURGE="0" COMMENT="" />
    <EXPORT ORDINAL="1850" NAME="?setMotions2@WobbleSuppressorBase@videostab@cv@@UEAAXAEBV?$vector@VMat@cv@@V?$allocator@VMat@cv@@@std@@@std@@@Z" PURGE="0" COMMENT="" />
    <EXPORT ORDINAL="1851" NAME="?setMotions@DeblurerBase@videostab@cv@@UEAAXAEBV?$vector@VMat@cv@@V?$allocator@VMat@cv@@@std@@@std@@@Z" PURGE="0" COMMENT="" />
    <EXPORT ORDINAL="1852" NAME="?setMotions@InpainterBase@videostab@cv@@UEAAXAEBV?$vector@VMat@cv@@V?$allocator@VMat@cv@@@std@@@std@@@Z" PURGE="0" COMMENT="" />
    <EXPORT ORDINAL="1853" NAME="?setMotions@WobbleSuppressorBase@videostab@cv@@UEAAXAEBV?$vector@VMat@cv@@V?$allocator@VMat@cv@@@std@@@std@@@Z" PURGE="0" COMMENT="" />
    <EXPORT ORDINAL="1854" NAME="?setNumBands@MultiBandBlender@detail@cv@@QEAAXH@Z" PURGE="0" COMMENT="" />
    <EXPORT ORDINAL="1855" NAME="?setOptFlowEstimator@MotionInpainter@videostab@cv@@QEAAXU?$Ptr@VIDenseOptFlowEstimator@videostab@cv@@@3@@Z" PURGE="0" COMMENT="" />
    <EXPORT ORDINAL="1856" NAME="?setOpticalFlowEstimator@KeypointBasedMotionEstimator@videostab@cv@@QEAAXU?$Ptr@VISparseOptFlowEstimator@videostab@cv@@@3@@Z" PURGE="0" COMMENT="" />
    <EXPORT ORDINAL="1857" NAME="?setOutlierRejector@KeypointBasedMotionEstimator@videostab@cv@@QEAAXU?$Ptr@VIOutlierRejector@videostab@cv@@@3@@Z" PURGE="0" COMMENT="" />
    <EXPORT ORDINAL="1858" NAME="?setPanoConfidenceThresh@Stitcher@cv@@QEAAXN@Z" PURGE="0" COMMENT="" />
    <EXPORT ORDINAL="1859" NAME="?setPeriod@MoreAccurateMotionWobbleSuppressorBase@videostab@cv@@UEAAXH@Z" PURGE="0" COMMENT="" />
    <EXPORT ORDINAL="1860" NAME="?setRadius@DeblurerBase@videostab@cv@@UEAAXH@Z" PURGE="0" COMMENT="" />
    <EXPORT ORDINAL="1861" NAME="?setRadius@InpainterBase@videostab@cv@@UEAAXH@Z" PURGE="0" COMMENT="" />
    <EXPORT ORDINAL="1862" NAME="?setRadius@StabilizerBase@videostab@cv@@QEAAXH@Z" PURGE="0" COMMENT="" />
    <EXPORT ORDINAL="1863" NAME="?setRansacParams@MotionEstimatorRansacL2@videostab@cv@@QEAAXAEBURansacParams@23@@Z" PURGE="0" COMMENT="" />
    <EXPORT ORDINAL="1864" NAME="?setRansacParams@TranslationBasedLocalOutlierRejector@videostab@cv@@QEAAXURansacParams@23@@Z" PURGE="0" COMMENT="" />
    <EXPORT ORDINAL="1865" NAME="?setRefinementMask@BundleAdjusterBase@detail@cv@@QEAAXAEBVMat@3@@Z" PURGE="0" COMMENT="" />
    <EXPORT ORDINAL="1866" NAME="?setRegistrationResol@Stitcher@cv@@QEAAXN@Z" PURGE="0" COMMENT="" />
    <EXPORT ORDINAL="1867" NAME="?setScale@?$RotationWarperBase@UCompressedRectilinearPortraitProjector@detail@cv@@@detail@cv@@UEAAXM@Z" PURGE="0" COMMENT="" />
    <EXPORT ORDINAL="1868" NAME="?setScale@?$RotationWarperBase@UCompressedRectilinearProjector@detail@cv@@@detail@cv@@UEAAXM@Z" PURGE="0" COMMENT="" />
    <EXPORT ORDINAL="1869" NAME="?setScale@?$RotationWarperBase@UCylindricalPortraitProjector@detail@cv@@@detail@cv@@UEAAXM@Z" PURGE="0" COMMENT="" />
    <EXPORT ORDINAL="1870" NAME="?setScale@?$RotationWarperBase@UCylindricalProjector@detail@cv@@@detail@cv@@UEAAXM@Z" PURGE="0" COMMENT="" />
    <EXPORT ORDINAL="1871" NAME="?setScale@?$RotationWarperBase@UFisheyeProjector@detail@cv@@@detail@cv@@UEAAXM@Z" PURGE="0" COMMENT="" />
    <EXPORT ORDINAL="1872" NAME="?setScale@?$RotationWarperBase@UMercatorProjector@detail@cv@@@detail@cv@@UEAAXM@Z" PURGE="0" COMMENT="" />
    <EXPORT ORDINAL="1873" NAME="?setScale@?$RotationWarperBase@UPaniniPortraitProjector@detail@cv@@@detail@cv@@UEAAXM@Z" PURGE="0" COMMENT="" />
    <EXPORT ORDINAL="1874" NAME="?setScale@?$RotationWarperBase@UPaniniProjector@detail@cv@@@detail@cv@@UEAAXM@Z" PURGE="0" COMMENT="" />
    <EXPORT ORDINAL="1875" NAME="?setScale@?$RotationWarperBase@UPlanePortraitProjector@detail@cv@@@detail@cv@@UEAAXM@Z" PURGE="0" COMMENT="" />
    <EXPORT ORDINAL="1876" NAME="?setScale@?$RotationWarperBase@UPlaneProjector@detail@cv@@@detail@cv@@UEAAXM@Z" PURGE="0" COMMENT="" />
    <EXPORT ORDINAL="1877" NAME="?setScale@?$RotationWarperBase@USphericalPortraitProjector@detail@cv@@@detail@cv@@UEAAXM@Z" PURGE="0" COMMENT="" />
    <EXPORT ORDINAL="1878" NAME="?setScale@?$RotationWarperBase@USphericalProjector@detail@cv@@@detail@cv@@UEAAXM@Z" PURGE="0" COMMENT="" />
    <EXPORT ORDINAL="1879" NAME="?setScale@?$RotationWarperBase@UStereographicProjector@detail@cv@@@detail@cv@@UEAAXM@Z" PURGE="0" COMMENT="" />
    <EXPORT ORDINAL="1880" NAME="?setScale@?$RotationWarperBase@UTransverseMercatorProjector@detail@cv@@@detail@cv@@UEAAXM@Z" PURGE="0" COMMENT="" />
    <EXPORT ORDINAL="1881" NAME="?setScale@RotationWarper@detail@cv@@UEAAXM@Z" PURGE="0" COMMENT="" />
    <EXPORT ORDINAL="1882" NAME="?setSeamEstimationResol@Stitcher@cv@@QEAAXN@Z" PURGE="0" COMMENT="" />
    <EXPORT ORDINAL="1883" NAME="?setSeamFinder@Stitcher@cv@@QEAAXU?$Ptr@VSeamFinder@detail@cv@@@2@@Z" PURGE="0" COMMENT="" />
    <EXPORT ORDINAL="1884" NAME="?setSensitivity@WeightingDeblurer@videostab@cv@@QEAAXM@Z" PURGE="0" COMMENT="" />
    <EXPORT ORDINAL="1885" NAME="?setSharpness@FeatherBlender@detail@cv@@QEAAXM@Z" PURGE="0" COMMENT="" />
    <EXPORT ORDINAL="1886" NAME="?setStabilizationMotions@InpainterBase@videostab@cv@@UEAAXAEBV?$vector@VMat@cv@@V?$allocator@VMat@cv@@@std@@@std@@@Z" PURGE="0" COMMENT="" />
    <EXPORT ORDINAL="1887" NAME="?setStabilizationMotions@WobbleSuppressorBase@videostab@cv@@UEAAXAEBV?$vector@VMat@cv@@V?$allocator@VMat@cv@@@std@@@std@@@Z" PURGE="0" COMMENT="" />
    <EXPORT ORDINAL="1888" NAME="?setStabilizedFrames@InpainterBase@videostab@cv@@UEAAXAEBV?$vector@VMat@cv@@V?$allocator@VMat@cv@@@std@@@std@@@Z" PURGE="0" COMMENT="" />
    <EXPORT ORDINAL="1889" NAME="?setStdevThresh@ConsistentMosaicInpainter@videostab@cv@@QEAAXM@Z" PURGE="0" COMMENT="" />
    <EXPORT ORDINAL="1890" NAME="?setTermCriteria@BundleAdjusterBase@detail@cv@@QEAAXAEBVTermCriteria@3@@Z" PURGE="0" COMMENT="" />
    <EXPORT ORDINAL="1891" NAME="?setTo@GpuMat@cuda@cv@@QEAAAEAV123@V?$Scalar_@N@3@@Z" PURGE="0" COMMENT="" />
    <EXPORT ORDINAL="1892" NAME="?setTo@GpuMat@cuda@cv@@QEAAAEAV123@V?$Scalar_@N@3@AEBV_InputArray@3@@Z" PURGE="0" COMMENT="" />
    <EXPORT ORDINAL="1893" NAME="?setTrimRatio@LpMotionStabilizer@videostab@cv@@QEAAXM@Z" PURGE="0" COMMENT="" />
    <EXPORT ORDINAL="1894" NAME="?setTrimRatio@StabilizerBase@videostab@cv@@QEAAXM@Z" PURGE="0" COMMENT="" />
    <EXPORT ORDINAL="1895" NAME="?setWarper@Stitcher@cv@@QEAAXU?$Ptr@VWarperCreator@cv@@@2@@Z" PURGE="0" COMMENT="" />
    <EXPORT ORDINAL="1896" NAME="?setWaveCorrectKind@Stitcher@cv@@QEAAXW4WaveCorrectKind@detail@2@@Z" PURGE="0" COMMENT="" />
    <EXPORT ORDINAL="1897" NAME="?setWaveCorrection@Stitcher@cv@@QEAAX_N@Z" PURGE="0" COMMENT="" />
    <EXPORT ORDINAL="1898" NAME="?setWeight1@LpMotionStabilizer@videostab@cv@@QEAAXM@Z" PURGE="0" COMMENT="" />
    <EXPORT ORDINAL="1899" NAME="?setWeight2@LpMotionStabilizer@videostab@cv@@QEAAXM@Z" PURGE="0" COMMENT="" />
    <EXPORT ORDINAL="1900" NAME="?setWeight3@LpMotionStabilizer@videostab@cv@@QEAAXM@Z" PURGE="0" COMMENT="" />
    <EXPORT ORDINAL="1901" NAME="?setWeight4@LpMotionStabilizer@videostab@cv@@QEAAXM@Z" PURGE="0" COMMENT="" />
    <EXPORT ORDINAL="1902" NAME="?setWinSize@PyrLkOptFlowEstimatorBase@videostab@cv@@UEAAXV?$Size_@H@3@@Z" PURGE="0" COMMENT="" />
    <EXPORT ORDINAL="1903" NAME="?setWobbleSuppressor@TwoPassStabilizer@videostab@cv@@QEAAXU?$Ptr@VWobbleSuppressorBase@videostab@cv@@@3@@Z" PURGE="0" COMMENT="" />
    <EXPORT ORDINAL="1904" NAME="?sharpness@FeatherBlender@detail@cv@@QEBAMXZ" PURGE="0" COMMENT="" />
    <EXPORT ORDINAL="1905" NAME="?size@GpuMat@cuda@cv@@QEBA?AV?$Size_@H@3@XZ" PURGE="0" COMMENT="" />
    <EXPORT ORDINAL="1906" NAME="?size@HostMem@cuda@cv@@QEBA?AV?$Size_@H@3@XZ" PURGE="0" COMMENT="" />
    <EXPORT ORDINAL="1907" NAME="?size@Range@cv@@QEBAHXZ" PURGE="0" COMMENT="" />
    <EXPORT ORDINAL="1908" NAME="?size@SparseMat@cv@@QEBAHH@Z" PURGE="0" COMMENT="" />
    <EXPORT ORDINAL="1909" NAME="?size@SparseMat@cv@@QEBAPEBHXZ" PURGE="0" COMMENT="" />
    <EXPORT ORDINAL="1910" NAME="?size@String@cv@@QEBA_KXZ" PURGE="0" COMMENT="" />
    <EXPORT ORDINAL="1911" NAME="?solveZ@SVD@cv@@SAXAEBV_InputArray@2@AEBV_OutputArray@2@@Z" PURGE="0" COMMENT="" />
    <EXPORT ORDINAL="1912" NAME="?stabilizationMotions@InpainterBase@videostab@cv@@UEBAAEBV?$vector@VMat@cv@@V?$allocator@VMat@cv@@@std@@@std@@XZ" PURGE="0" COMMENT="" />
    <EXPORT ORDINAL="1913" NAME="?stabilizationMotions@WobbleSuppressorBase@videostab@cv@@UEBAAEBV?$vector@VMat@cv@@V?$allocator@VMat@cv@@@std@@@std@@XZ" PURGE="0" COMMENT="" />
    <EXPORT ORDINAL="1914" NAME="?stabilizedFrames@InpainterBase@videostab@cv@@UEBAAEBV?$vector@VMat@cv@@V?$allocator@VMat@cv@@@std@@@std@@XZ" PURGE="0" COMMENT="" />
    <EXPORT ORDINAL="1915" NAME="?stdev@GaussianMotionFilter@videostab@cv@@QEBAMXZ" PURGE="0" COMMENT="" />
    <EXPORT ORDINAL="1916" NAME="?stdevThresh@ConsistentMosaicInpainter@videostab@cv@@QEBAMXZ" PURGE="0" COMMENT="" />
    <EXPORT ORDINAL="1917" NAME="?step1@GpuMat@cuda@cv@@QEBA_KXZ" PURGE="0" COMMENT="" />
    <EXPORT ORDINAL="1918" NAME="?step1@HostMem@cuda@cv@@QEBA_KXZ" PURGE="0" COMMENT="" />
    <EXPORT ORDINAL="1919" NAME="?step1@Mat@cv@@QEBA_KH@Z" PURGE="0" COMMENT="" />
    <EXPORT ORDINAL="1920" NAME="?step1@UMat@cv@@QEBA_KH@Z" PURGE="0" COMMENT="" />
    <EXPORT ORDINAL="1921" NAME="?substr@String@cv@@QEBA?AV12@_K0@Z" PURGE="0" COMMENT="" />
    <EXPORT ORDINAL="1922" NAME="?supports@DeviceInfo@cuda@cv@@QEBA_NW4FeatureSet@23@@Z" PURGE="0" COMMENT="" />
    <EXPORT ORDINAL="1923" NAME="?swap@GpuMat@cuda@cv@@QEAAXAEAV123@@Z" PURGE="0" COMMENT="" />
    <EXPORT ORDINAL="1924" NAME="?swap@HostMem@cuda@cv@@QEAAXAEAV123@@Z" PURGE="0" COMMENT="" />
    <EXPORT ORDINAL="1925" NAME="?swap@String@cv@@QEAAXAEAV12@@Z" PURGE="0" COMMENT="" />
    <EXPORT ORDINAL="1926" NAME="?tempCopiedUMat@UMatData@cv@@QEBA_NXZ" PURGE="0" COMMENT="" />
    <EXPORT ORDINAL="1927" NAME="?tempUMat@UMatData@cv@@QEBA_NXZ" PURGE="0" COMMENT="" />
    <EXPORT ORDINAL="1928" NAME="?termCriteria@BundleAdjusterBase@detail@cv@@QEAA?AVTermCriteria@3@XZ" PURGE="0" COMMENT="" />
    <EXPORT ORDINAL="1929" NAME="?this_type_does_not_support_comparisons@Stream@cuda@cv@@AEBAXXZ" PURGE="0" COMMENT="" />
    <EXPORT ORDINAL="1930" NAME="?toLowerCase@String@cv@@QEBA?AV12@XZ" PURGE="0" COMMENT="" />
    <EXPORT ORDINAL="1931" NAME="?total@Mat@cv@@QEBA_KXZ" PURGE="0" COMMENT="" />
    <EXPORT ORDINAL="1932" NAME="?total@UMat@cv@@QEBA_KXZ" PURGE="0" COMMENT="" />
    <EXPORT ORDINAL="1933" NAME="?totalMemory@DeviceInfo@cuda@cv@@QEBA_KXZ" PURGE="0" COMMENT="" />
    <EXPORT ORDINAL="1934" NAME="?trimRatio@LpMotionStabilizer@videostab@cv@@QEBAMXZ" PURGE="0" COMMENT="" />
    <EXPORT ORDINAL="1935" NAME="?trimRatio@StabilizerBase@videostab@cv@@QEBAMXZ" PURGE="0" COMMENT="" />
    <EXPORT ORDINAL="1936" NAME="?type@GpuMat@cuda@cv@@QEBAHXZ" PURGE="0" COMMENT="" />
    <EXPORT ORDINAL="1937" NAME="?type@HostMem@cuda@cv@@QEBAHXZ" PURGE="0" COMMENT="" />
    <EXPORT ORDINAL="1938" NAME="?type@Mat@cv@@QEBAHXZ" PURGE="0" COMMENT="" />
    <EXPORT ORDINAL="1939" NAME="?type@SparseMat@cv@@QEBAHXZ" PURGE="0" COMMENT="" />
    <EXPORT ORDINAL="1940" NAME="?type@UMat@cv@@QEBAHXZ" PURGE="0" COMMENT="" />
    <EXPORT ORDINAL="1941" NAME="?uniform@RNG@cv@@QEAAHHH@Z" PURGE="0" COMMENT="" />
    <EXPORT ORDINAL="1942" NAME="?uniform@RNG@cv@@QEAAMMM@Z" PURGE="0" COMMENT="" />
    <EXPORT ORDINAL="1943" NAME="?uniform@RNG@cv@@QEAANNN@Z" PURGE="0" COMMENT="" />
    <EXPORT ORDINAL="1944" NAME="?warp@?$RotationWarperBase@UCompressedRectilinearPortraitProjector@detail@cv@@@detail@cv@@UEAA?AV?$Point_@H@3@AEBV_InputArray@3@00HHAEBV_OutputArray@3@@Z" PURGE="0" COMMENT="" />
    <EXPORT ORDINAL="1945" NAME="?warp@?$RotationWarperBase@UCompressedRectilinearProjector@detail@cv@@@detail@cv@@UEAA?AV?$Point_@H@3@AEBV_InputArray@3@00HHAEBV_OutputArray@3@@Z" PURGE="0" COMMENT="" />
    <EXPORT ORDINAL="1946" NAME="?warp@?$RotationWarperBase@UCylindricalPortraitProjector@detail@cv@@@detail@cv@@UEAA?AV?$Point_@H@3@AEBV_InputArray@3@00HHAEBV_OutputArray@3@@Z" PURGE="0" COMMENT="" />
    <EXPORT ORDINAL="1947" NAME="?warp@?$RotationWarperBase@UCylindricalProjector@detail@cv@@@detail@cv@@UEAA?AV?$Point_@H@3@AEBV_InputArray@3@00HHAEBV_OutputArray@3@@Z" PURGE="0" COMMENT="" />
    <EXPORT ORDINAL="1948" NAME="?warp@?$RotationWarperBase@UFisheyeProjector@detail@cv@@@detail@cv@@UEAA?AV?$Point_@H@3@AEBV_InputArray@3@00HHAEBV_OutputArray@3@@Z" PURGE="0" COMMENT="" />
    <EXPORT ORDINAL="1949" NAME="?warp@?$RotationWarperBase@UMercatorProjector@detail@cv@@@detail@cv@@UEAA?AV?$Point_@H@3@AEBV_InputArray@3@00HHAEBV_OutputArray@3@@Z" PURGE="0" COMMENT="" />
    <EXPORT ORDINAL="1950" NAME="?warp@?$RotationWarperBase@UPaniniPortraitProjector@detail@cv@@@detail@cv@@UEAA?AV?$Point_@H@3@AEBV_InputArray@3@00HHAEBV_OutputArray@3@@Z" PURGE="0" COMMENT="" />
    <EXPORT ORDINAL="1951" NAME="?warp@?$RotationWarperBase@UPaniniProjector@detail@cv@@@detail@cv@@UEAA?AV?$Point_@H@3@AEBV_InputArray@3@00HHAEBV_OutputArray@3@@Z" PURGE="0" COMMENT="" />
    <EXPORT ORDINAL="1952" NAME="?warp@?$RotationWarperBase@UPlanePortraitProjector@detail@cv@@@detail@cv@@UEAA?AV?$Point_@H@3@AEBV_InputArray@3@00HHAEBV_OutputArray@3@@Z" PURGE="0" COMMENT="" />
    <EXPORT ORDINAL="1953" NAME="?warp@?$RotationWarperBase@UPlaneProjector@detail@cv@@@detail@cv@@UEAA?AV?$Point_@H@3@AEBV_InputArray@3@00HHAEBV_OutputArray@3@@Z" PURGE="0" COMMENT="" />
    <EXPORT ORDINAL="1954" NAME="?warp@?$RotationWarperBase@USphericalPortraitProjector@detail@cv@@@detail@cv@@UEAA?AV?$Point_@H@3@AEBV_InputArray@3@00HHAEBV_OutputArray@3@@Z" PURGE="0" COMMENT="" />
    <EXPORT ORDINAL="1955" NAME="?warp@?$RotationWarperBase@USphericalProjector@detail@cv@@@detail@cv@@UEAA?AV?$Point_@H@3@AEBV_InputArray@3@00HHAEBV_OutputArray@3@@Z" PURGE="0" COMMENT="" />
    <EXPORT ORDINAL="1956" NAME="?warp@?$RotationWarperBase@UStereographicProjector@detail@cv@@@detail@cv@@UEAA?AV?$Point_@H@3@AEBV_InputArray@3@00HHAEBV_OutputArray@3@@Z" PURGE="0" COMMENT="" />
    <EXPORT ORDINAL="1957" NAME="?warp@?$RotationWarperBase@UTransverseMercatorProjector@detail@cv@@@detail@cv@@UEAA?AV?$Point_@H@3@AEBV_InputArray@3@00HHAEBV_OutputArray@3@@Z" PURGE="0" COMMENT="" />
    <EXPORT ORDINAL="1958" NAME="?warp@CylindricalWarperGpu@detail@cv@@UEAA?AV?$Point_@H@3@AEBV_InputArray@3@00HHAEBV_OutputArray@3@@Z" PURGE="0" COMMENT="" />
    <EXPORT ORDINAL="1959" NAME="?warp@PlaneWarperGpu@detail@cv@@UEAA?AV?$Point_@H@3@AEBV_InputArray@3@000HHAEBV_OutputArray@3@@Z" PURGE="0" COMMENT="" />
    <EXPORT ORDINAL="1960" NAME="?warp@PlaneWarperGpu@detail@cv@@UEAA?AV?$Point_@H@3@AEBV_InputArray@3@00HHAEBV_OutputArray@3@@Z" PURGE="0" COMMENT="" />
    <EXPORT ORDINAL="1961" NAME="?warp@SphericalWarperGpu@detail@cv@@UEAA?AV?$Point_@H@3@AEBV_InputArray@3@00HHAEBV_OutputArray@3@@Z" PURGE="0" COMMENT="" />
    <EXPORT ORDINAL="1962" NAME="?warpBackward@?$RotationWarperBase@UCompressedRectilinearPortraitProjector@detail@cv@@@detail@cv@@UEAAXAEBV_InputArray@3@00HHV?$Size_@H@3@AEBV_OutputArray@3@@Z" PURGE="0" COMMENT="" />
    <EXPORT ORDINAL="1963" NAME="?warpBackward@?$RotationWarperBase@UCompressedRectilinearProjector@detail@cv@@@detail@cv@@UEAAXAEBV_InputArray@3@00HHV?$Size_@H@3@AEBV_OutputArray@3@@Z" PURGE="0" COMMENT="" />
    <EXPORT ORDINAL="1964" NAME="?warpBackward@?$RotationWarperBase@UCylindricalPortraitProjector@detail@cv@@@detail@cv@@UEAAXAEBV_InputArray@3@00HHV?$Size_@H@3@AEBV_OutputArray@3@@Z" PURGE="0" COMMENT="" />
    <EXPORT ORDINAL="1965" NAME="?warpBackward@?$RotationWarperBase@UCylindricalProjector@detail@cv@@@detail@cv@@UEAAXAEBV_InputArray@3@00HHV?$Size_@H@3@AEBV_OutputArray@3@@Z" PURGE="0" COMMENT="" />
    <EXPORT ORDINAL="1966" NAME="?warpBackward@?$RotationWarperBase@UFisheyeProjector@detail@cv@@@detail@cv@@UEAAXAEBV_InputArray@3@00HHV?$Size_@H@3@AEBV_OutputArray@3@@Z" PURGE="0" COMMENT="" />
    <EXPORT ORDINAL="1967" NAME="?warpBackward@?$RotationWarperBase@UMercatorProjector@detail@cv@@@detail@cv@@UEAAXAEBV_InputArray@3@00HHV?$Size_@H@3@AEBV_OutputArray@3@@Z" PURGE="0" COMMENT="" />
    <EXPORT ORDINAL="1968" NAME="?warpBackward@?$RotationWarperBase@UPaniniPortraitProjector@detail@cv@@@detail@cv@@UEAAXAEBV_InputArray@3@00HHV?$Size_@H@3@AEBV_OutputArray@3@@Z" PURGE="0" COMMENT="" />
    <EXPORT ORDINAL="1969" NAME="?warpBackward@?$RotationWarperBase@UPaniniProjector@detail@cv@@@detail@cv@@UEAAXAEBV_InputArray@3@00HHV?$Size_@H@3@AEBV_OutputArray@3@@Z" PURGE="0" COMMENT="" />
    <EXPORT ORDINAL="1970" NAME="?warpBackward@?$RotationWarperBase@UPlanePortraitProjector@detail@cv@@@detail@cv@@UEAAXAEBV_InputArray@3@00HHV?$Size_@H@3@AEBV_OutputArray@3@@Z" PURGE="0" COMMENT="" />
    <EXPORT ORDINAL="1971" NAME="?warpBackward@?$RotationWarperBase@UPlaneProjector@detail@cv@@@detail@cv@@UEAAXAEBV_InputArray@3@00HHV?$Size_@H@3@AEBV_OutputArray@3@@Z" PURGE="0" COMMENT="" />
    <EXPORT ORDINAL="1972" NAME="?warpBackward@?$RotationWarperBase@USphericalPortraitProjector@detail@cv@@@detail@cv@@UEAAXAEBV_InputArray@3@00HHV?$Size_@H@3@AEBV_OutputArray@3@@Z" PURGE="0" COMMENT="" />
    <EXPORT ORDINAL="1973" NAME="?warpBackward@?$RotationWarperBase@USphericalProjector@detail@cv@@@detail@cv@@UEAAXAEBV_InputArray@3@00HHV?$Size_@H@3@AEBV_OutputArray@3@@Z" PURGE="0" COMMENT="" />
    <EXPORT ORDINAL="1974" NAME="?warpBackward@?$RotationWarperBase@UStereographicProjector@detail@cv@@@detail@cv@@UEAAXAEBV_InputArray@3@00HHV?$Size_@H@3@AEBV_OutputArray@3@@Z" PURGE="0" COMMENT="" />
    <EXPORT ORDINAL="1975" NAME="?warpBackward@?$RotationWarperBase@UTransverseMercatorProjector@detail@cv@@@detail@cv@@UEAAXAEBV_InputArray@3@00HHV?$Size_@H@3@AEBV_OutputArray@3@@Z" PURGE="0" COMMENT="" />
    <EXPORT ORDINAL="1976" NAME="?warpPoint@?$RotationWarperBase@UCompressedRectilinearPortraitProjector@detail@cv@@@detail@cv@@UEAA?AV?$Point_@M@3@AEBV43@AEBV_InputArray@3@1@Z" PURGE="0" COMMENT="" />
    <EXPORT ORDINAL="1977" NAME="?warpPoint@?$RotationWarperBase@UCompressedRectilinearProjector@detail@cv@@@detail@cv@@UEAA?AV?$Point_@M@3@AEBV43@AEBV_InputArray@3@1@Z" PURGE="0" COMMENT="" />
    <EXPORT ORDINAL="1978" NAME="?warpPoint@?$RotationWarperBase@UCylindricalPortraitProjector@detail@cv@@@detail@cv@@UEAA?AV?$Point_@M@3@AEBV43@AEBV_InputArray@3@1@Z" PURGE="0" COMMENT="" />
    <EXPORT ORDINAL="1979" NAME="?warpPoint@?$RotationWarperBase@UCylindricalProjector@detail@cv@@@detail@cv@@UEAA?AV?$Point_@M@3@AEBV43@AEBV_InputArray@3@1@Z" PURGE="0" COMMENT="" />
    <EXPORT ORDINAL="1980" NAME="?warpPoint@?$RotationWarperBase@UFisheyeProjector@detail@cv@@@detail@cv@@UEAA?AV?$Point_@M@3@AEBV43@AEBV_InputArray@3@1@Z" PURGE="0" COMMENT="" />
    <EXPORT ORDINAL="1981" NAME="?warpPoint@?$RotationWarperBase@UMercatorProjector@detail@cv@@@detail@cv@@UEAA?AV?$Point_@M@3@AEBV43@AEBV_InputArray@3@1@Z" PURGE="0" COMMENT="" />
    <EXPORT ORDINAL="1982" NAME="?warpPoint@?$RotationWarperBase@UPaniniPortraitProjector@detail@cv@@@detail@cv@@UEAA?AV?$Point_@M@3@AEBV43@AEBV_InputArray@3@1@Z" PURGE="0" COMMENT="" />
    <EXPORT ORDINAL="1983" NAME="?warpPoint@?$RotationWarperBase@UPaniniProjector@detail@cv@@@detail@cv@@UEAA?AV?$Point_@M@3@AEBV43@AEBV_InputArray@3@1@Z" PURGE="0" COMMENT="" />
    <EXPORT ORDINAL="1984" NAME="?warpPoint@?$RotationWarperBase@UPlanePortraitProjector@detail@cv@@@detail@cv@@UEAA?AV?$Point_@M@3@AEBV43@AEBV_InputArray@3@1@Z" PURGE="0" COMMENT="" />
    <EXPORT ORDINAL="1985" NAME="?warpPoint@?$RotationWarperBase@UPlaneProjector@detail@cv@@@detail@cv@@UEAA?AV?$Point_@M@3@AEBV43@AEBV_InputArray@3@1@Z" PURGE="0" COMMENT="" />
    <EXPORT ORDINAL="1986" NAME="?warpPoint@?$RotationWarperBase@USphericalPortraitProjector@detail@cv@@@detail@cv@@UEAA?AV?$Point_@M@3@AEBV43@AEBV_InputArray@3@1@Z" PURGE="0" COMMENT="" />
    <EXPORT ORDINAL="1987" NAME="?warpPoint@?$RotationWarperBase@USphericalProjector@detail@cv@@@detail@cv@@UEAA?AV?$Point_@M@3@AEBV43@AEBV_InputArray@3@1@Z" PURGE="0" COMMENT="" />
    <EXPORT ORDINAL="1988" NAME="?warpPoint@?$RotationWarperBase@UStereographicProjector@detail@cv@@@detail@cv@@UEAA?AV?$Point_@M@3@AEBV43@AEBV_InputArray@3@1@Z" PURGE="0" COMMENT="" />
    <EXPORT ORDINAL="1989" NAME="?warpPoint@?$RotationWarperBase@UTransverseMercatorProjector@detail@cv@@@detail@cv@@UEAA?AV?$Point_@M@3@AEBV43@AEBV_InputArray@3@1@Z" PURGE="0" COMMENT="" />
    <EXPORT ORDINAL="1990" NAME="?warpRoi@?$RotationWarperBase@UCompressedRectilinearPortraitProjector@detail@cv@@@detail@cv@@UEAA?AV?$Rect_@H@3@V?$Size_@H@3@AEBV_InputArray@3@1@Z" PURGE="0" COMMENT="" />
    <EXPORT ORDINAL="1991" NAME="?warpRoi@?$RotationWarperBase@UCompressedRectilinearProjector@detail@cv@@@detail@cv@@UEAA?AV?$Rect_@H@3@V?$Size_@H@3@AEBV_InputArray@3@1@Z" PURGE="0" COMMENT="" />
    <EXPORT ORDINAL="1992" NAME="?warpRoi@?$RotationWarperBase@UCylindricalPortraitProjector@detail@cv@@@detail@cv@@UEAA?AV?$Rect_@H@3@V?$Size_@H@3@AEBV_InputArray@3@1@Z" PURGE="0" COMMENT="" />
    <EXPORT ORDINAL="1993" NAME="?warpRoi@?$RotationWarperBase@UCylindricalProjector@detail@cv@@@detail@cv@@UEAA?AV?$Rect_@H@3@V?$Size_@H@3@AEBV_InputArray@3@1@Z" PURGE="0" COMMENT="" />
    <EXPORT ORDINAL="1994" NAME="?warpRoi@?$RotationWarperBase@UFisheyeProjector@detail@cv@@@detail@cv@@UEAA?AV?$Rect_@H@3@V?$Size_@H@3@AEBV_InputArray@3@1@Z" PURGE="0" COMMENT="" />
    <EXPORT ORDINAL="1995" NAME="?warpRoi@?$RotationWarperBase@UMercatorProjector@detail@cv@@@detail@cv@@UEAA?AV?$Rect_@H@3@V?$Size_@H@3@AEBV_InputArray@3@1@Z" PURGE="0" COMMENT="" />
    <EXPORT ORDINAL="1996" NAME="?warpRoi@?$RotationWarperBase@UPaniniPortraitProjector@detail@cv@@@detail@cv@@UEAA?AV?$Rect_@H@3@V?$Size_@H@3@AEBV_InputArray@3@1@Z" PURGE="0" COMMENT="" />
    <EXPORT ORDINAL="1997" NAME="?warpRoi@?$RotationWarperBase@UPaniniProjector@detail@cv@@@detail@cv@@UEAA?AV?$Rect_@H@3@V?$Size_@H@3@AEBV_InputArray@3@1@Z" PURGE="0" COMMENT="" />
    <EXPORT ORDINAL="1998" NAME="?warpRoi@?$RotationWarperBase@UPlanePortraitProjector@detail@cv@@@detail@cv@@UEAA?AV?$Rect_@H@3@V?$Size_@H@3@AEBV_InputArray@3@1@Z" PURGE="0" COMMENT="" />
    <EXPORT ORDINAL="1999" NAME="?warpRoi@?$RotationWarperBase@UPlaneProjector@detail@cv@@@detail@cv@@UEAA?AV?$Rect_@H@3@V?$Size_@H@3@AEBV_InputArray@3@1@Z" PURGE="0" COMMENT="" />
    <EXPORT ORDINAL="2000" NAME="?warpRoi@?$RotationWarperBase@USphericalPortraitProjector@detail@cv@@@detail@cv@@UEAA?AV?$Rect_@H@3@V?$Size_@H@3@AEBV_InputArray@3@1@Z" PURGE="0" COMMENT="" />
    <EXPORT ORDINAL="2001" NAME="?warpRoi@?$RotationWarperBase@USphericalProjector@detail@cv@@@detail@cv@@UEAA?AV?$Rect_@H@3@V?$Size_@H@3@AEBV_InputArray@3@1@Z" PURGE="0" COMMENT="" />
    <EXPORT ORDINAL="2002" NAME="?warpRoi@?$RotationWarperBase@UStereographicProjector@detail@cv@@@detail@cv@@UEAA?AV?$Rect_@H@3@V?$Size_@H@3@AEBV_InputArray@3@1@Z" PURGE="0" COMMENT="" />
    <EXPORT ORDINAL="2003" NAME="?warpRoi@?$RotationWarperBase@UTransverseMercatorProjector@detail@cv@@@detail@cv@@UEAA?AV?$Rect_@H@3@V?$Size_@H@3@AEBV_InputArray@3@1@Z" PURGE="0" COMMENT="" />
    <EXPORT ORDINAL="2004" NAME="?warper@Stitcher@cv@@QEAA?AU?$Ptr@VWarperCreator@cv@@@2@XZ" PURGE="0" COMMENT="" />
    <EXPORT ORDINAL="2005" NAME="?warper@Stitcher@cv@@QEBA?BU?$Ptr@VWarperCreator@cv@@@2@XZ" PURGE="0" COMMENT="" />
    <EXPORT ORDINAL="2006" NAME="?waveCorrectKind@Stitcher@cv@@QEBA?AW4WaveCorrectKind@detail@2@XZ" PURGE="0" COMMENT="" />
    <EXPORT ORDINAL="2007" NAME="?waveCorrection@Stitcher@cv@@QEBA_NXZ" PURGE="0" COMMENT="" />
    <EXPORT ORDINAL="2008" NAME="?weight1@LpMotionStabilizer@videostab@cv@@QEBAMXZ" PURGE="0" COMMENT="" />
    <EXPORT ORDINAL="2009" NAME="?weight2@LpMotionStabilizer@videostab@cv@@QEBAMXZ" PURGE="0" COMMENT="" />
    <EXPORT ORDINAL="2010" NAME="?weight3@LpMotionStabilizer@videostab@cv@@QEBAMXZ" PURGE="0" COMMENT="" />
    <EXPORT ORDINAL="2011" NAME="?weight4@LpMotionStabilizer@videostab@cv@@QEBAMXZ" PURGE="0" COMMENT="" />
    <EXPORT ORDINAL="2012" NAME="?winSize@PyrLkOptFlowEstimatorBase@videostab@cv@@UEBA?AV?$Size_@H@3@XZ" PURGE="0" COMMENT="" />
    <EXPORT ORDINAL="2013" NAME="?wobbleSuppressor@TwoPassStabilizer@videostab@cv@@QEBA?AU?$Ptr@VWobbleSuppressorBase@videostab@cv@@@3@XZ" PURGE="0" COMMENT="" />
    <EXPORT ORDINAL="2014" NAME="?workScale@Stitcher@cv@@QEBANXZ" PURGE="0" COMMENT="" />
    <EXPORT ORDINAL="2015" NAME="?write@Algorithm@cv@@UEBAXAEAVFileStorage@2@@Z" PURGE="0" COMMENT="" />
    <EXPORT ORDINAL="2016" NAME="CvBOWImgDescriptorExtractorCompute" PURGE="0" COMMENT="" />
    <EXPORT ORDINAL="2017" NAME="CvBOWImgDescriptorExtractorCreate" PURGE="0" COMMENT="" />
    <EXPORT ORDINAL="2018" NAME="CvBOWImgDescriptorExtractorRelease" PURGE="0" COMMENT="" />
    <EXPORT ORDINAL="2019" NAME="CvBOWImgDescriptorExtractorSetVocabulary" PURGE="0" COMMENT="" />
    <EXPORT ORDINAL="2020" NAME="CvBOWKMeansTrainerAdd" PURGE="0" COMMENT="" />
    <EXPORT ORDINAL="2021" NAME="CvBOWKMeansTrainerCluster" PURGE="0" COMMENT="" />
    <EXPORT ORDINAL="2022" NAME="CvBOWKMeansTrainerCreate" PURGE="0" COMMENT="" />
    <EXPORT ORDINAL="2023" NAME="CvBOWKMeansTrainerGetDescriptorCount" PURGE="0" COMMENT="" />
    <EXPORT ORDINAL="2024" NAME="CvBOWKMeansTrainerRelease" PURGE="0" COMMENT="" />
    <EXPORT ORDINAL="2025" NAME="CvBackgroundSubtractorGMGCreate" PURGE="0" COMMENT="" />
    <EXPORT ORDINAL="2026" NAME="CvBackgroundSubtractorGMGRelease" PURGE="0" COMMENT="" />
    <EXPORT ORDINAL="2027" NAME="CvBackgroundSubtractorKNNCreate" PURGE="0" COMMENT="" />
    <EXPORT ORDINAL="2028" NAME="CvBackgroundSubtractorKNNRelease" PURGE="0" COMMENT="" />
    <EXPORT ORDINAL="2029" NAME="CvBackgroundSubtractorMOG2Create" PURGE="0" COMMENT="" />
    <EXPORT ORDINAL="2030" NAME="CvBackgroundSubtractorMOG2Release" PURGE="0" COMMENT="" />
    <EXPORT ORDINAL="2031" NAME="CvBackgroundSubtractorMOGCreate" PURGE="0" COMMENT="" />
    <EXPORT ORDINAL="2032" NAME="CvBackgroundSubtractorMOGRelease" PURGE="0" COMMENT="" />
    <EXPORT ORDINAL="2033" NAME="CvBackgroundSubtractorUpdate" PURGE="-1" COMMENT="" />
    <EXPORT ORDINAL="2034" NAME="CvCascadeClassifierCreate" PURGE="0" COMMENT="" />
    <EXPORT ORDINAL="2035" NAME="CvCascadeClassifierDetectMultiScale" PURGE="0" COMMENT="" />
    <EXPORT ORDINAL="2036" NAME="CvCascadeClassifierGetOriginalWindowSize" PURGE="0" COMMENT="" />
    <EXPORT ORDINAL="2037" NAME="CvCascadeClassifierIsOldFormatCascade" PURGE="-1" COMMENT="" />
    <EXPORT ORDINAL="2038" NAME="CvCascadeClassifierRelease" PURGE="0" COMMENT="" />
    <EXPORT ORDINAL="2039" NAME="CvDescriptorMatcherAdd" PURGE="-1" COMMENT="" />
    <EXPORT ORDINAL="2040" NAME="CvDescriptorMatcherGetAlgorithm" PURGE="0" COMMENT="" />
    <EXPORT ORDINAL="2041" NAME="CvDescriptorMatcherKnnMatch" PURGE="0" COMMENT="" />
    <EXPORT ORDINAL="2042" NAME="CvEMDefaultCreate" PURGE="0" COMMENT="" />
    <EXPORT ORDINAL="2043" NAME="CvEMPredict" PURGE="0" COMMENT="" />
    <EXPORT ORDINAL="2044" NAME="CvEMRelease" PURGE="0" COMMENT="" />
    <EXPORT ORDINAL="2045" NAME="CvEMTrainE" PURGE="-1" COMMENT="" />
    <EXPORT ORDINAL="2046" NAME="CvEMTrainM" PURGE="-1" COMMENT="" />
    <EXPORT ORDINAL="2047" NAME="CvERFilterNM1Create" PURGE="0" COMMENT="" />
    <EXPORT ORDINAL="2048" NAME="CvERFilterNM2Create" PURGE="0" COMMENT="" />
    <EXPORT ORDINAL="2049" NAME="CvERFilterRelease" PURGE="0" COMMENT="" />
    <EXPORT ORDINAL="2050" NAME="CvERFilterRun" PURGE="-1" COMMENT="" />
    <EXPORT ORDINAL="2051" NAME="CvERGrouping" PURGE="0" COMMENT="" />
    <EXPORT ORDINAL="2052" NAME="CvEigenFaceRecognizerCreate" PURGE="0" COMMENT="" />
    <EXPORT ORDINAL="2053" NAME="CvFaceRecognizerLoad" PURGE="-1" COMMENT="" />
    <EXPORT ORDINAL="2054" NAME="CvFaceRecognizerPredict" PURGE="0" COMMENT="" />
    <EXPORT ORDINAL="2055" NAME="CvFaceRecognizerRelease" PURGE="0" COMMENT="" />
    <EXPORT ORDINAL="2056" NAME="CvFaceRecognizerSave" PURGE="-1" COMMENT="" />
    <EXPORT ORDINAL="2057" NAME="CvFaceRecognizerTrain" PURGE="-1" COMMENT="" />
    <EXPORT ORDINAL="2058" NAME="CvFaceRecognizerUpdate" PURGE="-1" COMMENT="" />
    <EXPORT ORDINAL="2059" NAME="CvFeature2DCompute" PURGE="-1" COMMENT="" />
    <EXPORT ORDINAL="2060" NAME="CvFeature2DDetect" PURGE="-1" COMMENT="" />
    <EXPORT ORDINAL="2061" NAME="CvFeature2DDetectAndCompute" PURGE="-1" COMMENT="" />
    <EXPORT ORDINAL="2062" NAME="CvFeature2DGetAlgorithm" PURGE="0" COMMENT="" />
    <EXPORT ORDINAL="2063" NAME="CvFeature2DGetDescriptorSize" PURGE="-1" COMMENT="" />
    <EXPORT ORDINAL="2064" NAME="CvFisherFaceRecognizerCreate" PURGE="0" COMMENT="" />
    <EXPORT ORDINAL="2065" NAME="CvFlannIndexKnnSearch" PURGE="0" COMMENT="" />
    <EXPORT ORDINAL="2066" NAME="CvFlannIndexRadiusSearch" PURGE="0" COMMENT="" />
    <EXPORT ORDINAL="2067" NAME="CvFlannIndexRelease" PURGE="0" COMMENT="" />
    <EXPORT ORDINAL="2068" NAME="CvHOGDescriptorCompute" PURGE="0" COMMENT="" />
    <EXPORT ORDINAL="2069" NAME="CvHOGDescriptorCreate" PURGE="0" COMMENT="" />
    <EXPORT ORDINAL="2070" NAME="CvHOGDescriptorCreateDefault" PURGE="0" COMMENT="" />
    <EXPORT ORDINAL="2071" NAME="CvHOGDescriptorDetectMultiScale" PURGE="0" COMMENT="" />
    <EXPORT ORDINAL="2072" NAME="CvHOGDescriptorGetDescriptorSize" PURGE="0" COMMENT="" />
    <EXPORT ORDINAL="2073" NAME="CvHOGDescriptorPeopleDetectorCreate" PURGE="0" COMMENT="" />
    <EXPORT ORDINAL="2074" NAME="CvHOGDescriptorRelease" PURGE="0" COMMENT="" />
    <EXPORT ORDINAL="2075" NAME="CvHOGSetSVMDetector" PURGE="0" COMMENT="" />
    <EXPORT ORDINAL="2076" NAME="CvKNearestCreate" PURGE="0" COMMENT="" />
    <EXPORT ORDINAL="2077" NAME="CvKNearestRelease" PURGE="0" COMMENT="" />
    <EXPORT ORDINAL="2078" NAME="CvLBPHFaceRecognizerCreate" PURGE="0" COMMENT="" />
    <EXPORT ORDINAL="2079" NAME="CvNormalBayesClassifierDefaultCreate" PURGE="0" COMMENT="" />
    <EXPORT ORDINAL="2080" NAME="CvNormalBayesClassifierRelease" PURGE="0" COMMENT="" />
    <EXPORT ORDINAL="2081" NAME="CvSVMDefaultCreate" PURGE="0" COMMENT="" />
    <EXPORT ORDINAL="2082" NAME="CvSVMGetDefaultGrid" PURGE="0" COMMENT="" />
    <EXPORT ORDINAL="2083" NAME="CvSVMGetSupportVectors" PURGE="0" COMMENT="" />
    <EXPORT ORDINAL="2084" NAME="CvSVMRelease" PURGE="0" COMMENT="" />
    <EXPORT ORDINAL="2085" NAME="CvSVMTrainAuto" PURGE="0" COMMENT="" />
    <EXPORT ORDINAL="2086" NAME="CvStereoBMCreate" PURGE="0" COMMENT="" />
    <EXPORT ORDINAL="2087" NAME="CvStereoMatcherCompute" PURGE="-1" COMMENT="" />
    <EXPORT ORDINAL="2088" NAME="CvStereoMatcherRelease" PURGE="0" COMMENT="" />
    <EXPORT ORDINAL="2089" NAME="CvStereoSGBMCreate" PURGE="0" COMMENT="" />
    <EXPORT ORDINAL="2090" NAME="CvStereoSGBMRelease" PURGE="0" COMMENT="" />
    <EXPORT ORDINAL="2091" NAME="CvStitcherCreateDefault" PURGE="0" COMMENT="" />
    <EXPORT ORDINAL="2092" NAME="CvStitcherRelease" PURGE="0" COMMENT="" />
    <EXPORT ORDINAL="2093" NAME="CvStitcherSetFeaturesFinder" PURGE="0" COMMENT="" />
    <EXPORT ORDINAL="2094" NAME="CvStitcherStitch" PURGE="0" COMMENT="" />
    <EXPORT ORDINAL="2095" NAME="DataLoggerCreate" PURGE="0" COMMENT="" />
    <EXPORT ORDINAL="2096" NAME="DataLoggerLog" PURGE="0" COMMENT="" />
    <EXPORT ORDINAL="2097" NAME="DataLoggerRegisterCallback" PURGE="0" COMMENT="" />
    <EXPORT ORDINAL="2098" NAME="DataLoggerRelease" PURGE="0" COMMENT="" />
    <EXPORT ORDINAL="2099" NAME="GTIFFree" PURGE="0" COMMENT="" />
    <EXPORT ORDINAL="2100" NAME="GTIFKeySet" PURGE="0" COMMENT="" />
    <EXPORT ORDINAL="2101" NAME="GTIFNew" PURGE="0" COMMENT="" />
    <EXPORT ORDINAL="2102" NAME="GTIFNewSimpleTags" PURGE="0" COMMENT="" />
    <EXPORT ORDINAL="2103" NAME="GTIFNewWithMethods" PURGE="0" COMMENT="" />
    <EXPORT ORDINAL="2104" NAME="GTIFSetSimpleTagsMethods" PURGE="0" COMMENT="" />
    <EXPORT ORDINAL="2105" NAME="GTIFWriteKeys" PURGE="0" COMMENT="" />
    <EXPORT ORDINAL="2106" NAME="GaussianMotionFilterCreate" PURGE="0" COMMENT="" />
    <EXPORT ORDINAL="2107" NAME="GaussianMotionFilterRelease" PURGE="0" COMMENT="" />
    <EXPORT ORDINAL="2108" NAME="OnePassStabilizerCreate" PURGE="0" COMMENT="" />
    <EXPORT ORDINAL="2109" NAME="OnePassStabilizerRelease" PURGE="0" COMMENT="" />
    <EXPORT ORDINAL="2110" NAME="OnePassStabilizerSetMotionFilter" PURGE="0" COMMENT="" />
    <EXPORT ORDINAL="2111" NAME="OpenniGetColorPoints" PURGE="0" COMMENT="" />
    <EXPORT ORDINAL="2112" NAME="ST_Create" PURGE="-1" COMMENT="" />
    <EXPORT ORDINAL="2113" NAME="ST_Destroy" PURGE="-1" COMMENT="" />
    <EXPORT ORDINAL="2114" NAME="ST_GetKey" PURGE="0" COMMENT="" />
    <EXPORT ORDINAL="2115" NAME="ST_SetKey" PURGE="0" COMMENT="" />
    <EXPORT ORDINAL="2116" NAME="ST_TagType" PURGE="0" COMMENT="" />
    <EXPORT ORDINAL="2117" NAME="StatModelClear" PURGE="-1" COMMENT="" />
    <EXPORT ORDINAL="2118" NAME="StatModelPredict" PURGE="-1" COMMENT="" />
    <EXPORT ORDINAL="2119" NAME="StatModelSave" PURGE="-1" COMMENT="" />
    <EXPORT ORDINAL="2120" NAME="StatModelTrain" PURGE="-1" COMMENT="" />
    <EXPORT ORDINAL="2121" NAME="StatModelTrainWithData" PURGE="0" COMMENT="" />
    <EXPORT ORDINAL="2122" NAME="TessBaseAPIAnalyseLayout" PURGE="0" COMMENT="" />
    <EXPORT ORDINAL="2123" NAME="TessBaseAPICreate" PURGE="0" COMMENT="" />
    <EXPORT ORDINAL="2124" NAME="TessBaseAPIExtractResult" PURGE="0" COMMENT="" />
    <EXPORT ORDINAL="2125" NAME="TessBaseAPIGetOpenCLDevice" PURGE="0" COMMENT="" />
    <EXPORT ORDINAL="2126" NAME="TessBaseAPIGetPageSegMode" PURGE="0" COMMENT="" />
    <EXPORT ORDINAL="2127" NAME="TessBaseAPIGetUTF8Text" PURGE="-1" COMMENT="" />
    <EXPORT ORDINAL="2128" NAME="TessBaseAPIInit" PURGE="0" COMMENT="" />
    <EXPORT ORDINAL="2129" NAME="TessBaseAPIRecognizeArray" PURGE="0" COMMENT="" />
    <EXPORT ORDINAL="2130" NAME="TessBaseAPIRelease" PURGE="0" COMMENT="" />
    <EXPORT ORDINAL="2131" NAME="TessBaseAPISetPageSegMode" PURGE="0" COMMENT="" />
    <EXPORT ORDINAL="2132" NAME="TessBaseAPISetVariable" PURGE="0" COMMENT="" />
    <EXPORT ORDINAL="2133" NAME="TessPageIteratorGetBaseLine" PURGE="0" COMMENT="" />
    <EXPORT ORDINAL="2134" NAME="TessPageIteratorGetOrientation" PURGE="0" COMMENT="" />
    <EXPORT ORDINAL="2135" NAME="TessPageIteratorRelease" PURGE="0" COMMENT="" />
    <EXPORT ORDINAL="2136" NAME="TesseractGetVersion" PURGE="0" COMMENT="" />
    <EXPORT ORDINAL="2137" NAME="TwoPassStabilizerCreate" PURGE="0" COMMENT="" />
    <EXPORT ORDINAL="2138" NAME="TwoPassStabilizerRelease" PURGE="0" COMMENT="" />
    <EXPORT ORDINAL="2139" NAME="VectorOfByteClear" PURGE="0" COMMENT="" />
    <EXPORT ORDINAL="2140" NAME="VectorOfByteCopyData" PURGE="0" COMMENT="" />
    <EXPORT ORDINAL="2141" NAME="VectorOfByteCreate" PURGE="0" COMMENT="" />
    <EXPORT ORDINAL="2142" NAME="VectorOfByteCreateSize" PURGE="0" COMMENT="" />
    <EXPORT ORDINAL="2143" NAME="VectorOfByteGetItem" PURGE="0" COMMENT="" />
    <EXPORT ORDINAL="2144" NAME="VectorOfByteGetItemPtr" PURGE="0" COMMENT="" />
    <EXPORT ORDINAL="2145" NAME="VectorOfByteGetSize" PURGE="0" COMMENT="" />
    <EXPORT ORDINAL="2146" NAME="VectorOfByteGetStartAddress" PURGE="0" COMMENT="" />
    <EXPORT ORDINAL="2147" NAME="VectorOfBytePush" PURGE="0" COMMENT="" />
    <EXPORT ORDINAL="2148" NAME="VectorOfBytePushMulti" PURGE="0" COMMENT="" />
    <EXPORT ORDINAL="2149" NAME="VectorOfByteRelease" PURGE="0" COMMENT="" />
    <EXPORT ORDINAL="2150" NAME="VectorOfColorPointClear" PURGE="0" COMMENT="" />
    <EXPORT ORDINAL="2151" NAME="VectorOfColorPointCopyData" PURGE="0" COMMENT="" />
    <EXPORT ORDINAL="2152" NAME="VectorOfColorPointCreate" PURGE="0" COMMENT="" />
    <EXPORT ORDINAL="2153" NAME="VectorOfColorPointCreateSize" PURGE="0" COMMENT="" />
    <EXPORT ORDINAL="2154" NAME="VectorOfColorPointGetItem" PURGE="0" COMMENT="" />
    <EXPORT ORDINAL="2155" NAME="VectorOfColorPointGetItemPtr" PURGE="0" COMMENT="" />
    <EXPORT ORDINAL="2156" NAME="VectorOfColorPointGetSize" PURGE="0" COMMENT="" />
    <EXPORT ORDINAL="2157" NAME="VectorOfColorPointGetStartAddress" PURGE="0" COMMENT="" />
    <EXPORT ORDINAL="2158" NAME="VectorOfColorPointPush" PURGE="0" COMMENT="" />
    <EXPORT ORDINAL="2159" NAME="VectorOfColorPointPushMulti" PURGE="0" COMMENT="" />
    <EXPORT ORDINAL="2160" NAME="VectorOfColorPointRelease" PURGE="0" COMMENT="" />
    <EXPORT ORDINAL="2161" NAME="VectorOfCvStringClear" PURGE="0" COMMENT="" />
    <EXPORT ORDINAL="2162" NAME="VectorOfCvStringCopyData" PURGE="0" COMMENT="" />
    <EXPORT ORDINAL="2163" NAME="VectorOfCvStringCreate" PURGE="0" COMMENT="" />
    <EXPORT ORDINAL="2164" NAME="VectorOfCvStringCreateSize" PURGE="0" COMMENT="" />
    <EXPORT ORDINAL="2165" NAME="VectorOfCvStringGetItemPtr" PURGE="0" COMMENT="" />
    <EXPORT ORDINAL="2166" NAME="VectorOfCvStringGetSize" PURGE="0" COMMENT="" />
    <EXPORT ORDINAL="2167" NAME="VectorOfCvStringGetStartAddress" PURGE="0" COMMENT="" />
    <EXPORT ORDINAL="2168" NAME="VectorOfCvStringPush" PURGE="0" COMMENT="" />
    <EXPORT ORDINAL="2169" NAME="VectorOfCvStringPushMulti" PURGE="0" COMMENT="" />
    <EXPORT ORDINAL="2170" NAME="VectorOfCvStringRelease" PURGE="0" COMMENT="" />
    <EXPORT ORDINAL="2171" NAME="VectorOfDMatchClear" PURGE="0" COMMENT="" />
    <EXPORT ORDINAL="2172" NAME="VectorOfDMatchCopyData" PURGE="0" COMMENT="" />
    <EXPORT ORDINAL="2173" NAME="VectorOfDMatchCreate" PURGE="0" COMMENT="" />
    <EXPORT ORDINAL="2174" NAME="VectorOfDMatchCreateSize" PURGE="0" COMMENT="" />
    <EXPORT ORDINAL="2175" NAME="VectorOfDMatchGetItem" PURGE="0" COMMENT="" />
    <EXPORT ORDINAL="2176" NAME="VectorOfDMatchGetItemPtr" PURGE="0" COMMENT="" />
    <EXPORT ORDINAL="2177" NAME="VectorOfDMatchGetSize" PURGE="0" COMMENT="" />
    <EXPORT ORDINAL="2178" NAME="VectorOfDMatchGetStartAddress" PURGE="0" COMMENT="" />
    <EXPORT ORDINAL="2179" NAME="VectorOfDMatchPush" PURGE="0" COMMENT="" />
    <EXPORT ORDINAL="2180" NAME="VectorOfDMatchPushMatrix" PURGE="0" COMMENT="" />
    <EXPORT ORDINAL="2181" NAME="VectorOfDMatchPushMulti" PURGE="0" COMMENT="" />
    <EXPORT ORDINAL="2182" NAME="VectorOfDMatchRelease" PURGE="0" COMMENT="" />
    <EXPORT ORDINAL="2183" NAME="VectorOfDMatchToMat" PURGE="0" COMMENT="" />
    <EXPORT ORDINAL="2184" NAME="VectorOfDoubleClear" PURGE="0" COMMENT="" />
    <EXPORT ORDINAL="2185" NAME="VectorOfDoubleCopyData" PURGE="0" COMMENT="" />
    <EXPORT ORDINAL="2186" NAME="VectorOfDoubleCreate" PURGE="0" COMMENT="" />
    <EXPORT ORDINAL="2187" NAME="VectorOfDoubleCreateSize" PURGE="0" COMMENT="" />
    <EXPORT ORDINAL="2188" NAME="VectorOfDoubleGetItem" PURGE="0" COMMENT="" />
    <EXPORT ORDINAL="2189" NAME="VectorOfDoubleGetItemPtr" PURGE="0" COMMENT="" />
    <EXPORT ORDINAL="2190" NAME="VectorOfDoubleGetSize" PURGE="0" COMMENT="" />
    <EXPORT ORDINAL="2191" NAME="VectorOfDoubleGetStartAddress" PURGE="0" COMMENT="" />
    <EXPORT ORDINAL="2192" NAME="VectorOfDoublePush" PURGE="0" COMMENT="" />
    <EXPORT ORDINAL="2193" NAME="VectorOfDoublePushMulti" PURGE="0" COMMENT="" />
    <EXPORT ORDINAL="2194" NAME="VectorOfDoubleRelease" PURGE="0" COMMENT="" />
    <EXPORT ORDINAL="2195" NAME="VectorOfERStatClear" PURGE="0" COMMENT="" />
    <EXPORT ORDINAL="2196" NAME="VectorOfERStatCopyData" PURGE="0" COMMENT="" />
    <EXPORT ORDINAL="2197" NAME="VectorOfERStatCreate" PURGE="0" COMMENT="" />
    <EXPORT ORDINAL="2198" NAME="VectorOfERStatCreateSize" PURGE="0" COMMENT="" />
    <EXPORT ORDINAL="2199" NAME="VectorOfERStatGetItem" PURGE="0" COMMENT="" />
    <EXPORT ORDINAL="2200" NAME="VectorOfERStatGetItemPtr" PURGE="0" COMMENT="" />
    <EXPORT ORDINAL="2201" NAME="VectorOfERStatGetSize" PURGE="0" COMMENT="" />
    <EXPORT ORDINAL="2202" NAME="VectorOfERStatGetStartAddress" PURGE="0" COMMENT="" />
    <EXPORT ORDINAL="2203" NAME="VectorOfERStatPush" PURGE="0" COMMENT="" />
    <EXPORT ORDINAL="2204" NAME="VectorOfERStatPushMulti" PURGE="0" COMMENT="" />
    <EXPORT ORDINAL="2205" NAME="VectorOfERStatRelease" PURGE="0" COMMENT="" />
    <EXPORT ORDINAL="2206" NAME="VectorOfFloatClear" PURGE="0" COMMENT="" />
    <EXPORT ORDINAL="2207" NAME="VectorOfFloatCopyData" PURGE="0" COMMENT="" />
    <EXPORT ORDINAL="2208" NAME="VectorOfFloatCreate" PURGE="0" COMMENT="" />
    <EXPORT ORDINAL="2209" NAME="VectorOfFloatCreateSize" PURGE="0" COMMENT="" />
    <EXPORT ORDINAL="2210" NAME="VectorOfFloatGetItem" PURGE="0" COMMENT="" />
    <EXPORT ORDINAL="2211" NAME="VectorOfFloatGetItemPtr" PURGE="0" COMMENT="" />
    <EXPORT ORDINAL="2212" NAME="VectorOfFloatGetSize" PURGE="0" COMMENT="" />
    <EXPORT ORDINAL="2213" NAME="VectorOfFloatGetStartAddress" PURGE="0" COMMENT="" />
    <EXPORT ORDINAL="2214" NAME="VectorOfFloatPush" PURGE="0" COMMENT="" />
    <EXPORT ORDINAL="2215" NAME="VectorOfFloatPushMulti" PURGE="0" COMMENT="" />
    <EXPORT ORDINAL="2216" NAME="VectorOfFloatRelease" PURGE="0" COMMENT="" />
    <EXPORT ORDINAL="2217" NAME="VectorOfGpuMatClear" PURGE="0" COMMENT="" />
    <EXPORT ORDINAL="2218" NAME="VectorOfGpuMatCopyData" PURGE="0" COMMENT="" />
    <EXPORT ORDINAL="2219" NAME="VectorOfGpuMatCreate" PURGE="0" COMMENT="" />
    <EXPORT ORDINAL="2220" NAME="VectorOfGpuMatCreateSize" PURGE="0" COMMENT="" />
    <EXPORT ORDINAL="2221" NAME="VectorOfGpuMatGetItemPtr" PURGE="0" COMMENT="" />
    <EXPORT ORDINAL="2222" NAME="VectorOfGpuMatGetSize" PURGE="0" COMMENT="" />
    <EXPORT ORDINAL="2223" NAME="VectorOfGpuMatGetStartAddress" PURGE="0" COMMENT="" />
    <EXPORT ORDINAL="2224" NAME="VectorOfGpuMatPush" PURGE="0" COMMENT="" />
    <EXPORT ORDINAL="2225" NAME="VectorOfGpuMatPushMulti" PURGE="0" COMMENT="" />
    <EXPORT ORDINAL="2226" NAME="VectorOfGpuMatRelease" PURGE="0" COMMENT="" />
    <EXPORT ORDINAL="2227" NAME="VectorOfIntClear" PURGE="0" COMMENT="" />
    <EXPORT ORDINAL="2228" NAME="VectorOfIntCopyData" PURGE="0" COMMENT="" />
    <EXPORT ORDINAL="2229" NAME="VectorOfIntCreate" PURGE="0" COMMENT="" />
    <EXPORT ORDINAL="2230" NAME="VectorOfIntCreateSize" PURGE="0" COMMENT="" />
    <EXPORT ORDINAL="2231" NAME="VectorOfIntGetItem" PURGE="0" COMMENT="" />
    <EXPORT ORDINAL="2232" NAME="VectorOfIntGetItemPtr" PURGE="0" COMMENT="" />
    <EXPORT ORDINAL="2233" NAME="VectorOfIntGetSize" PURGE="0" COMMENT="" />
    <EXPORT ORDINAL="2234" NAME="VectorOfIntGetStartAddress" PURGE="0" COMMENT="" />
    <EXPORT ORDINAL="2235" NAME="VectorOfIntPush" PURGE="0" COMMENT="" />
    <EXPORT ORDINAL="2236" NAME="VectorOfIntPushMulti" PURGE="0" COMMENT="" />
    <EXPORT ORDINAL="2237" NAME="VectorOfIntRelease" PURGE="0" COMMENT="" />
    <EXPORT ORDINAL="2238" NAME="VectorOfKeyPointClear" PURGE="0" COMMENT="" />
    <EXPORT ORDINAL="2239" NAME="VectorOfKeyPointCopyData" PURGE="0" COMMENT="" />
    <EXPORT ORDINAL="2240" NAME="VectorOfKeyPointCreate" PURGE="0" COMMENT="" />
    <EXPORT ORDINAL="2241" NAME="VectorOfKeyPointCreateSize" PURGE="0" COMMENT="" />
    <EXPORT ORDINAL="2242" NAME="VectorOfKeyPointFilterByImageBorder" PURGE="0" COMMENT="" />
    <EXPORT ORDINAL="2243" NAME="VectorOfKeyPointFilterByKeypointSize" PURGE="0" COMMENT="" />
    <EXPORT ORDINAL="2244" NAME="VectorOfKeyPointFilterByPixelsMask" PURGE="0" COMMENT="" />
    <EXPORT ORDINAL="2245" NAME="VectorOfKeyPointGetItem" PURGE="0" COMMENT="" />
    <EXPORT ORDINAL="2246" NAME="VectorOfKeyPointGetItemPtr" PURGE="0" COMMENT="" />
    <EXPORT ORDINAL="2247" NAME="VectorOfKeyPointGetSize" PURGE="0" COMMENT="" />
    <EXPORT ORDINAL="2248" NAME="VectorOfKeyPointGetStartAddress" PURGE="0" COMMENT="" />
    <EXPORT ORDINAL="2249" NAME="VectorOfKeyPointPush" PURGE="0" COMMENT="" />
    <EXPORT ORDINAL="2250" NAME="VectorOfKeyPointPushMulti" PURGE="0" COMMENT="" />
    <EXPORT ORDINAL="2251" NAME="VectorOfKeyPointRelease" PURGE="0" COMMENT="" />
    <EXPORT ORDINAL="2252" NAME="VectorOfMatClear" PURGE="0" COMMENT="" />
    <EXPORT ORDINAL="2253" NAME="VectorOfMatCopyData" PURGE="0" COMMENT="" />
    <EXPORT ORDINAL="2254" NAME="VectorOfMatCreate" PURGE="0" COMMENT="" />
    <EXPORT ORDINAL="2255" NAME="VectorOfMatCreateSize" PURGE="0" COMMENT="" />
    <EXPORT ORDINAL="2256" NAME="VectorOfMatGetItemPtr" PURGE="0" COMMENT="" />
    <EXPORT ORDINAL="2257" NAME="VectorOfMatGetSize" PURGE="0" COMMENT="" />
    <EXPORT ORDINAL="2258" NAME="VectorOfMatGetStartAddress" PURGE="0" COMMENT="" />
    <EXPORT ORDINAL="2259" NAME="VectorOfMatPush" PURGE="0" COMMENT="" />
    <EXPORT ORDINAL="2260" NAME="VectorOfMatPushMulti" PURGE="0" COMMENT="" />
    <EXPORT ORDINAL="2261" NAME="VectorOfMatRelease" PURGE="0" COMMENT="" />
    <EXPORT ORDINAL="2262" NAME="VectorOfObjectDetectionClear" PURGE="0" COMMENT="" />
    <EXPORT ORDINAL="2263" NAME="VectorOfObjectDetectionCopyData" PURGE="0" COMMENT="" />
    <EXPORT ORDINAL="2264" NAME="VectorOfObjectDetectionCreate" PURGE="0" COMMENT="" />
    <EXPORT ORDINAL="2265" NAME="VectorOfObjectDetectionCreateSize" PURGE="0" COMMENT="" />
    <EXPORT ORDINAL="2266" NAME="VectorOfObjectDetectionGetItem" PURGE="0" COMMENT="" />
    <EXPORT ORDINAL="2267" NAME="VectorOfObjectDetectionGetItemPtr" PURGE="0" COMMENT="" />
    <EXPORT ORDINAL="2268" NAME="VectorOfObjectDetectionGetSize" PURGE="0" COMMENT="" />
    <EXPORT ORDINAL="2269" NAME="VectorOfObjectDetectionGetStartAddress" PURGE="0" COMMENT="" />
    <EXPORT ORDINAL="2270" NAME="VectorOfObjectDetectionPush" PURGE="0" COMMENT="" />
    <EXPORT ORDINAL="2271" NAME="VectorOfObjectDetectionPushMulti" PURGE="0" COMMENT="" />
    <EXPORT ORDINAL="2272" NAME="VectorOfObjectDetectionRelease" PURGE="0" COMMENT="" />
    <EXPORT ORDINAL="2273" NAME="VectorOfOclPlatformInfoClear" PURGE="0" COMMENT="" />
    <EXPORT ORDINAL="2274" NAME="VectorOfOclPlatformInfoCopyData" PURGE="0" COMMENT="" />
    <EXPORT ORDINAL="2275" NAME="VectorOfOclPlatformInfoCreate" PURGE="0" COMMENT="" />
    <EXPORT ORDINAL="2276" NAME="VectorOfOclPlatformInfoCreateSize" PURGE="0" COMMENT="" />
    <EXPORT ORDINAL="2277" NAME="VectorOfOclPlatformInfoGetItemPtr" PURGE="0" COMMENT="" />
    <EXPORT ORDINAL="2278" NAME="VectorOfOclPlatformInfoGetSize" PURGE="0" COMMENT="" />
    <EXPORT ORDINAL="2279" NAME="VectorOfOclPlatformInfoGetStartAddress" PURGE="0" COMMENT="" />
    <EXPORT ORDINAL="2280" NAME="VectorOfOclPlatformInfoPush" PURGE="0" COMMENT="" />
    <EXPORT ORDINAL="2281" NAME="VectorOfOclPlatformInfoPushMulti" PURGE="0" COMMENT="" />
    <EXPORT ORDINAL="2282" NAME="VectorOfOclPlatformInfoRelease" PURGE="0" COMMENT="" />
    <EXPORT ORDINAL="2283" NAME="VectorOfPoint3D32FClear" PURGE="0" COMMENT="" />
    <EXPORT ORDINAL="2284" NAME="VectorOfPoint3D32FCopyData" PURGE="0" COMMENT="" />
    <EXPORT ORDINAL="2285" NAME="VectorOfPoint3D32FCreate" PURGE="0" COMMENT="" />
    <EXPORT ORDINAL="2286" NAME="VectorOfPoint3D32FCreateSize" PURGE="0" COMMENT="" />
    <EXPORT ORDINAL="2287" NAME="VectorOfPoint3D32FGetItem" PURGE="0" COMMENT="" />
    <EXPORT ORDINAL="2288" NAME="VectorOfPoint3D32FGetItemPtr" PURGE="0" COMMENT="" />
    <EXPORT ORDINAL="2289" NAME="VectorOfPoint3D32FGetSize" PURGE="0" COMMENT="" />
    <EXPORT ORDINAL="2290" NAME="VectorOfPoint3D32FGetStartAddress" PURGE="0" COMMENT="" />
    <EXPORT ORDINAL="2291" NAME="VectorOfPoint3D32FPush" PURGE="0" COMMENT="" />
    <EXPORT ORDINAL="2292" NAME="VectorOfPoint3D32FPushMulti" PURGE="0" COMMENT="" />
    <EXPORT ORDINAL="2293" NAME="VectorOfPoint3D32FRelease" PURGE="0" COMMENT="" />
    <EXPORT ORDINAL="2294" NAME="VectorOfPointClear" PURGE="0" COMMENT="" />
    <EXPORT ORDINAL="2295" NAME="VectorOfPointCopyData" PURGE="0" COMMENT="" />
    <EXPORT ORDINAL="2296" NAME="VectorOfPointCreate" PURGE="0" COMMENT="" />
    <EXPORT ORDINAL="2297" NAME="VectorOfPointCreateSize" PURGE="0" COMMENT="" />
    <EXPORT ORDINAL="2298" NAME="VectorOfPointFClear" PURGE="0" COMMENT="" />
    <EXPORT ORDINAL="2299" NAME="VectorOfPointFCopyData" PURGE="0" COMMENT="" />
    <EXPORT ORDINAL="2300" NAME="VectorOfPointFCreate" PURGE="0" COMMENT="" />
    <EXPORT ORDINAL="2301" NAME="VectorOfPointFCreateSize" PURGE="0" COMMENT="" />
    <EXPORT ORDINAL="2302" NAME="VectorOfPointFGetItem" PURGE="0" COMMENT="" />
    <EXPORT ORDINAL="2303" NAME="VectorOfPointFGetItemPtr" PURGE="0" COMMENT="" />
    <EXPORT ORDINAL="2304" NAME="VectorOfPointFGetSize" PURGE="0" COMMENT="" />
    <EXPORT ORDINAL="2305" NAME="VectorOfPointFGetStartAddress" PURGE="0" COMMENT="" />
    <EXPORT ORDINAL="2306" NAME="VectorOfPointFPush" PURGE="0" COMMENT="" />
    <EXPORT ORDINAL="2307" NAME="VectorOfPointFPushMulti" PURGE="0" COMMENT="" />
    <EXPORT ORDINAL="2308" NAME="VectorOfPointFRelease" PURGE="0" COMMENT="" />
    <EXPORT ORDINAL="2309" NAME="VectorOfPointGetItem" PURGE="0" COMMENT="" />
    <EXPORT ORDINAL="2310" NAME="VectorOfPointGetItemPtr" PURGE="0" COMMENT="" />
    <EXPORT ORDINAL="2311" NAME="VectorOfPointGetSize" PURGE="0" COMMENT="" />
    <EXPORT ORDINAL="2312" NAME="VectorOfPointGetStartAddress" PURGE="0" COMMENT="" />
    <EXPORT ORDINAL="2313" NAME="VectorOfPointPush" PURGE="0" COMMENT="" />
    <EXPORT ORDINAL="2314" NAME="VectorOfPointPushMulti" PURGE="0" COMMENT="" />
    <EXPORT ORDINAL="2315" NAME="VectorOfPointRelease" PURGE="0" COMMENT="" />
    <EXPORT ORDINAL="2316" NAME="VectorOfRectClear" PURGE="0" COMMENT="" />
    <EXPORT ORDINAL="2317" NAME="VectorOfRectCopyData" PURGE="0" COMMENT="" />
    <EXPORT ORDINAL="2318" NAME="VectorOfRectCreate" PURGE="0" COMMENT="" />
    <EXPORT ORDINAL="2319" NAME="VectorOfRectCreateSize" PURGE="0" COMMENT="" />
    <EXPORT ORDINAL="2320" NAME="VectorOfRectGetItem" PURGE="0" COMMENT="" />
    <EXPORT ORDINAL="2321" NAME="VectorOfRectGetItemPtr" PURGE="0" COMMENT="" />
    <EXPORT ORDINAL="2322" NAME="VectorOfRectGetSize" PURGE="0" COMMENT="" />
    <EXPORT ORDINAL="2323" NAME="VectorOfRectGetStartAddress" PURGE="0" COMMENT="" />
    <EXPORT ORDINAL="2324" NAME="VectorOfRectPush" PURGE="0" COMMENT="" />
    <EXPORT ORDINAL="2325" NAME="VectorOfRectPushMulti" PURGE="0" COMMENT="" />
    <EXPORT ORDINAL="2326" NAME="VectorOfRectRelease" PURGE="0" COMMENT="" />
    <EXPORT ORDINAL="2327" NAME="VectorOfTesseractResultClear" PURGE="0" COMMENT="" />
    <EXPORT ORDINAL="2328" NAME="VectorOfTesseractResultCopyData" PURGE="0" COMMENT="" />
    <EXPORT ORDINAL="2329" NAME="VectorOfTesseractResultCreate" PURGE="0" COMMENT="" />
    <EXPORT ORDINAL="2330" NAME="VectorOfTesseractResultCreateSize" PURGE="0" COMMENT="" />
    <EXPORT ORDINAL="2331" NAME="VectorOfTesseractResultGetItem" PURGE="0" COMMENT="" />
    <EXPORT ORDINAL="2332" NAME="VectorOfTesseractResultGetItemPtr" PURGE="0" COMMENT="" />
    <EXPORT ORDINAL="2333" NAME="VectorOfTesseractResultGetSize" PURGE="0" COMMENT="" />
    <EXPORT ORDINAL="2334" NAME="VectorOfTesseractResultGetStartAddress" PURGE="0" COMMENT="" />
    <EXPORT ORDINAL="2335" NAME="VectorOfTesseractResultPush" PURGE="0" COMMENT="" />
    <EXPORT ORDINAL="2336" NAME="VectorOfTesseractResultPushMulti" PURGE="0" COMMENT="" />
    <EXPORT ORDINAL="2337" NAME="VectorOfTesseractResultRelease" PURGE="0" COMMENT="" />
    <EXPORT ORDINAL="2338" NAME="VectorOfTriangle2DFClear" PURGE="0" COMMENT="" />
    <EXPORT ORDINAL="2339" NAME="VectorOfTriangle2DFCopyData" PURGE="0" COMMENT="" />
    <EXPORT ORDINAL="2340" NAME="VectorOfTriangle2DFCreate" PURGE="0" COMMENT="" />
    <EXPORT ORDINAL="2341" NAME="VectorOfTriangle2DFCreateSize" PURGE="0" COMMENT="" />
    <EXPORT ORDINAL="2342" NAME="VectorOfTriangle2DFGetItem" PURGE="0" COMMENT="" />
    <EXPORT ORDINAL="2343" NAME="VectorOfTriangle2DFGetItemPtr" PURGE="0" COMMENT="" />
    <EXPORT ORDINAL="2344" NAME="VectorOfTriangle2DFGetSize" PURGE="0" COMMENT="" />
    <EXPORT ORDINAL="2345" NAME="VectorOfTriangle2DFGetStartAddress" PURGE="0" COMMENT="" />
    <EXPORT ORDINAL="2346" NAME="VectorOfTriangle2DFPush" PURGE="0" COMMENT="" />
    <EXPORT ORDINAL="2347" NAME="VectorOfTriangle2DFPushMulti" PURGE="0" COMMENT="" />
    <EXPORT ORDINAL="2348" NAME="VectorOfTriangle2DFRelease" PURGE="0" COMMENT="" />
    <EXPORT ORDINAL="2349" NAME="VectorOfUMatClear" PURGE="0" COMMENT="" />
    <EXPORT ORDINAL="2350" NAME="VectorOfUMatCopyData" PURGE="0" COMMENT="" />
    <EXPORT ORDINAL="2351" NAME="VectorOfUMatCreate" PURGE="0" COMMENT="" />
    <EXPORT ORDINAL="2352" NAME="VectorOfUMatCreateSize" PURGE="0" COMMENT="" />
    <EXPORT ORDINAL="2353" NAME="VectorOfUMatGetItemPtr" PURGE="0" COMMENT="" />
    <EXPORT ORDINAL="2354" NAME="VectorOfUMatGetSize" PURGE="0" COMMENT="" />
    <EXPORT ORDINAL="2355" NAME="VectorOfUMatGetStartAddress" PURGE="0" COMMENT="" />
    <EXPORT ORDINAL="2356" NAME="VectorOfUMatPush" PURGE="0" COMMENT="" />
    <EXPORT ORDINAL="2357" NAME="VectorOfUMatPushMulti" PURGE="0" COMMENT="" />
    <EXPORT ORDINAL="2358" NAME="VectorOfUMatRelease" PURGE="0" COMMENT="" />
    <EXPORT ORDINAL="2359" NAME="VectorOfVectorOfDMatchClear" PURGE="0" COMMENT="" />
    <EXPORT ORDINAL="2360" NAME="VectorOfVectorOfDMatchCopyData" PURGE="0" COMMENT="" />
    <EXPORT ORDINAL="2361" NAME="VectorOfVectorOfDMatchCreate" PURGE="0" COMMENT="" />
    <EXPORT ORDINAL="2362" NAME="VectorOfVectorOfDMatchCreateSize" PURGE="0" COMMENT="" />
    <EXPORT ORDINAL="2363" NAME="VectorOfVectorOfDMatchGetItemPtr" PURGE="0" COMMENT="" />
    <EXPORT ORDINAL="2364" NAME="VectorOfVectorOfDMatchGetSize" PURGE="0" COMMENT="" />
    <EXPORT ORDINAL="2365" NAME="VectorOfVectorOfDMatchGetStartAddress" PURGE="0" COMMENT="" />
    <EXPORT ORDINAL="2366" NAME="VectorOfVectorOfDMatchPush" PURGE="0" COMMENT="" />
    <EXPORT ORDINAL="2367" NAME="VectorOfVectorOfDMatchPushMulti" PURGE="0" COMMENT="" />
    <EXPORT ORDINAL="2368" NAME="VectorOfVectorOfDMatchRelease" PURGE="0" COMMENT="" />
    <EXPORT ORDINAL="2369" NAME="VectorOfVectorOfIntClear" PURGE="0" COMMENT="" />
    <EXPORT ORDINAL="2370" NAME="VectorOfVectorOfIntCopyData" PURGE="0" COMMENT="" />
    <EXPORT ORDINAL="2371" NAME="VectorOfVectorOfIntCreate" PURGE="0" COMMENT="" />
    <EXPORT ORDINAL="2372" NAME="VectorOfVectorOfIntCreateSize" PURGE="0" COMMENT="" />
    <EXPORT ORDINAL="2373" NAME="VectorOfVectorOfIntGetItemPtr" PURGE="0" COMMENT="" />
    <EXPORT ORDINAL="2374" NAME="VectorOfVectorOfIntGetSize" PURGE="0" COMMENT="" />
    <EXPORT ORDINAL="2375" NAME="VectorOfVectorOfIntGetStartAddress" PURGE="0" COMMENT="" />
    <EXPORT ORDINAL="2376" NAME="VectorOfVectorOfIntPush" PURGE="0" COMMENT="" />
    <EXPORT ORDINAL="2377" NAME="VectorOfVectorOfIntPushMulti" PURGE="0" COMMENT="" />
    <EXPORT ORDINAL="2378" NAME="VectorOfVectorOfIntRelease" PURGE="0" COMMENT="" />
    <EXPORT ORDINAL="2379" NAME="VectorOfVectorOfPoint3D32FClear" PURGE="0" COMMENT="" />
    <EXPORT ORDINAL="2380" NAME="VectorOfVectorOfPoint3D32FCopyData" PURGE="0" COMMENT="" />
    <EXPORT ORDINAL="2381" NAME="VectorOfVectorOfPoint3D32FCreate" PURGE="0" COMMENT="" />
    <EXPORT ORDINAL="2382" NAME="VectorOfVectorOfPoint3D32FCreateSize" PURGE="0" COMMENT="" />
    <EXPORT ORDINAL="2383" NAME="VectorOfVectorOfPoint3D32FGetItemPtr" PURGE="0" COMMENT="" />
    <EXPORT ORDINAL="2384" NAME="VectorOfVectorOfPoint3D32FGetSize" PURGE="0" COMMENT="" />
    <EXPORT ORDINAL="2385" NAME="VectorOfVectorOfPoint3D32FGetStartAddress" PURGE="0" COMMENT="" />
    <EXPORT ORDINAL="2386" NAME="VectorOfVectorOfPoint3D32FPush" PURGE="0" COMMENT="" />
    <EXPORT ORDINAL="2387" NAME="VectorOfVectorOfPoint3D32FPushMulti" PURGE="0" COMMENT="" />
    <EXPORT ORDINAL="2388" NAME="VectorOfVectorOfPoint3D32FRelease" PURGE="0" COMMENT="" />
    <EXPORT ORDINAL="2389" NAME="VectorOfVectorOfPointClear" PURGE="0" COMMENT="" />
    <EXPORT ORDINAL="2390" NAME="VectorOfVectorOfPointCopyData" PURGE="0" COMMENT="" />
    <EXPORT ORDINAL="2391" NAME="VectorOfVectorOfPointCreate" PURGE="0" COMMENT="" />
    <EXPORT ORDINAL="2392" NAME="VectorOfVectorOfPointCreateSize" PURGE="0" COMMENT="" />
    <EXPORT ORDINAL="2393" NAME="VectorOfVectorOfPointFClear" PURGE="0" COMMENT="" />
    <EXPORT ORDINAL="2394" NAME="VectorOfVectorOfPointFCopyData" PURGE="0" COMMENT="" />
    <EXPORT ORDINAL="2395" NAME="VectorOfVectorOfPointFCreate" PURGE="0" COMMENT="" />
    <EXPORT ORDINAL="2396" NAME="VectorOfVectorOfPointFCreateSize" PURGE="0" COMMENT="" />
    <EXPORT ORDINAL="2397" NAME="VectorOfVectorOfPointFGetItemPtr" PURGE="0" COMMENT="" />
    <EXPORT ORDINAL="2398" NAME="VectorOfVectorOfPointFGetSize" PURGE="0" COMMENT="" />
    <EXPORT ORDINAL="2399" NAME="VectorOfVectorOfPointFGetStartAddress" PURGE="0" COMMENT="" />
    <EXPORT ORDINAL="2400" NAME="VectorOfVectorOfPointFPush" PURGE="0" COMMENT="" />
    <EXPORT ORDINAL="2401" NAME="VectorOfVectorOfPointFPushMulti" PURGE="0" COMMENT="" />
    <EXPORT ORDINAL="2402" NAME="VectorOfVectorOfPointFRelease" PURGE="0" COMMENT="" />
    <EXPORT ORDINAL="2403" NAME="VectorOfVectorOfPointGetItemPtr" PURGE="0" COMMENT="" />
    <EXPORT ORDINAL="2404" NAME="VectorOfVectorOfPointGetSize" PURGE="0" COMMENT="" />
    <EXPORT ORDINAL="2405" NAME="VectorOfVectorOfPointGetStartAddress" PURGE="0" COMMENT="" />
    <EXPORT ORDINAL="2406" NAME="VectorOfVectorOfPointPush" PURGE="0" COMMENT="" />
    <EXPORT ORDINAL="2407" NAME="VectorOfVectorOfPointPushMulti" PURGE="0" COMMENT="" />
    <EXPORT ORDINAL="2408" NAME="VectorOfVectorOfPointRelease" PURGE="0" COMMENT="" />
    <EXPORT ORDINAL="2409" NAME="VideostabCaptureFrameSourceCreate" PURGE="0" COMMENT="" />
    <EXPORT ORDINAL="2410" NAME="VideostabCaptureFrameSourceRelease" PURGE="0" COMMENT="" />
    <EXPORT ORDINAL="2411" NAME="VideostabFrameSourceGetNextFrame" PURGE="0" COMMENT="" />
    <EXPORT ORDINAL="2412" NAME="XTIFFClientOpen" PURGE="0" COMMENT="" />
    <EXPORT ORDINAL="2413" NAME="XTIFFClose" PURGE="-1" COMMENT="" />
    <EXPORT ORDINAL="2414" NAME="XTIFFFdOpen" PURGE="0" COMMENT="" />
    <EXPORT ORDINAL="2415" NAME="XTIFFInitialize" PURGE="0" COMMENT="" />
    <EXPORT ORDINAL="2416" NAME="XTIFFOpen" PURGE="0" COMMENT="" />
    <EXPORT ORDINAL="2417" NAME="_GTIFFree" PURGE="0" COMMENT="" />
    <EXPORT ORDINAL="2418" NAME="_GTIFSetDefaultTIFF" PURGE="0" COMMENT="" />
    <EXPORT ORDINAL="2419" NAME="_GTIFcalloc" PURGE="0" COMMENT="" />
    <EXPORT ORDINAL="2420" NAME="_GTIFmemcpy" PURGE="-1" COMMENT="" />
    <EXPORT ORDINAL="2421" NAME="_GTIFrealloc" PURGE="-1" COMMENT="" />
    <EXPORT ORDINAL="2422" NAME="axisAngleToQuaternions" PURGE="0" COMMENT="" />
    <EXPORT ORDINAL="2423" NAME="computeEdge3DPlane3DIntersection" PURGE="0" COMMENT="" />
    <EXPORT ORDINAL="2424" NAME="computePlane3DIntersection" PURGE="0" COMMENT="" />
    <EXPORT ORDINAL="2425" NAME="cudaDeviceInfoComputeCapability" PURGE="0" COMMENT="" />
    <EXPORT ORDINAL="2426" NAME="cudaDeviceInfoCreate" PURGE="0" COMMENT="" />
    <EXPORT ORDINAL="2427" NAME="cudaDeviceInfoDeviceName" PURGE="0" COMMENT="" />
    <EXPORT ORDINAL="2428" NAME="cudaDeviceInfoFreeMemInfo" PURGE="0" COMMENT="" />
    <EXPORT ORDINAL="2429" NAME="cudaDeviceInfoIsCompatible" PURGE="0" COMMENT="" />
    <EXPORT ORDINAL="2430" NAME="cudaDeviceInfoMultiProcessorCount" PURGE="0" COMMENT="" />
    <EXPORT ORDINAL="2431" NAME="cudaDeviceInfoRelease" PURGE="0" COMMENT="" />
    <EXPORT ORDINAL="2432" NAME="cudaDeviceInfoSupports" PURGE="0" COMMENT="" />
    <EXPORT ORDINAL="2433" NAME="cudaDeviceInfoTotalMemInfo" PURGE="0" COMMENT="" />
    <EXPORT ORDINAL="2434" NAME="cudaGetCudaEnabledDeviceCount" PURGE="0" COMMENT="" />
    <EXPORT ORDINAL="2435" NAME="cudaGetDevice" PURGE="0" COMMENT="" />
    <EXPORT ORDINAL="2436" NAME="cudaNonLocalMeans" PURGE="0" COMMENT="" />
    <EXPORT ORDINAL="2437" NAME="cudaSetDevice" PURGE="0" COMMENT="" />
    <EXPORT ORDINAL="2438" NAME="cvAffineTransformerCreate" PURGE="0" COMMENT="" />
    <EXPORT ORDINAL="2439" NAME="cvBlendBgrOverBgrWithAlpha" PURGE="0" COMMENT="" />
    <EXPORT ORDINAL="2440" NAME="cvBlendBgraOverBgr" PURGE="0" COMMENT="" />
    <EXPORT ORDINAL="2441" NAME="cvChiHistogramCostExtractorCreate" PURGE="0" COMMENT="" />
    <EXPORT ORDINAL="2442" NAME="cvCovertBgr2Bgr_Gray" PURGE="0" COMMENT="" />
    <EXPORT ORDINAL="2443" NAME="cvEMDHistogramCostExtractorCreate" PURGE="0" COMMENT="" />
    <EXPORT ORDINAL="2444" NAME="cvEMDL1HistogramCostExtractorCreate" PURGE="0" COMMENT="" />
    <EXPORT ORDINAL="2445" NAME="cvGetImageSubRect" PURGE="0" COMMENT="" />
    <EXPORT ORDINAL="2446" NAME="cvHausdorffDistanceExtractorCreate" PURGE="0" COMMENT="" />
    <EXPORT ORDINAL="2447" NAME="cvHausdorffDistanceExtractorRelease" PURGE="0" COMMENT="" />
    <EXPORT ORDINAL="2448" NAME="cvHistogramCostExtractorRelease" PURGE="0" COMMENT="" />
    <EXPORT ORDINAL="2449" NAME="cvInputArrayFromVectorOfByte" PURGE="0" COMMENT="" />
    <EXPORT ORDINAL="2450" NAME="cvInputArrayFromVectorOfColorPoint" PURGE="0" COMMENT="" />
    <EXPORT ORDINAL="2451" NAME="cvInputArrayFromVectorOfCvString" PURGE="0" COMMENT="" />
    <EXPORT ORDINAL="2452" NAME="cvInputArrayFromVectorOfDMatch" PURGE="0" COMMENT="" />
    <EXPORT ORDINAL="2453" NAME="cvInputArrayFromVectorOfDouble" PURGE="0" COMMENT="" />
    <EXPORT ORDINAL="2454" NAME="cvInputArrayFromVectorOfERStat" PURGE="0" COMMENT="" />
    <EXPORT ORDINAL="2455" NAME="cvInputArrayFromVectorOfFloat" PURGE="0" COMMENT="" />
    <EXPORT ORDINAL="2456" NAME="cvInputArrayFromVectorOfGpuMat" PURGE="0" COMMENT="" />
    <EXPORT ORDINAL="2457" NAME="cvInputArrayFromVectorOfInt" PURGE="0" COMMENT="" />
    <EXPORT ORDINAL="2458" NAME="cvInputArrayFromVectorOfKeyPoint" PURGE="0" COMMENT="" />
    <EXPORT ORDINAL="2459" NAME="cvInputArrayFromVectorOfMat" PURGE="0" COMMENT="" />
    <EXPORT ORDINAL="2460" NAME="cvInputArrayFromVectorOfObjectDetection" PURGE="0" COMMENT="" />
    <EXPORT ORDINAL="2461" NAME="cvInputArrayFromVectorOfOclPlatformInfo" PURGE="0" COMMENT="" />
    <EXPORT ORDINAL="2462" NAME="cvInputArrayFromVectorOfPoint" PURGE="0" COMMENT="" />
    <EXPORT ORDINAL="2463" NAME="cvInputArrayFromVectorOfPoint3D32F" PURGE="0" COMMENT="" />
    <EXPORT ORDINAL="2464" NAME="cvInputArrayFromVectorOfPointF" PURGE="0" COMMENT="" />
    <EXPORT ORDINAL="2465" NAME="cvInputArrayFromVectorOfRect" PURGE="0" COMMENT="" />
    <EXPORT ORDINAL="2466" NAME="cvInputArrayFromVectorOfTesseractResult" PURGE="0" COMMENT="" />
    <EXPORT ORDINAL="2467" NAME="cvInputArrayFromVectorOfTriangle2DF" PURGE="0" COMMENT="" />
    <EXPORT ORDINAL="2468" NAME="cvInputArrayFromVectorOfUMat" PURGE="0" COMMENT="" />
    <EXPORT ORDINAL="2469" NAME="cvInputArrayFromVectorOfVectorOfDMatch" PURGE="0" COMMENT="" />
    <EXPORT ORDINAL="2470" NAME="cvInputArrayFromVectorOfVectorOfInt" PURGE="0" COMMENT="" />
    <EXPORT ORDINAL="2471" NAME="cvInputArrayFromVectorOfVectorOfPoint" PURGE="0" COMMENT="" />
    <EXPORT ORDINAL="2472" NAME="cvInputArrayFromVectorOfVectorOfPoint3D32F" PURGE="0" COMMENT="" />
    <EXPORT ORDINAL="2473" NAME="cvInputArrayFromVectorOfVectorOfPointF" PURGE="0" COMMENT="" />
    <EXPORT ORDINAL="2474" NAME="cvInputOutputArrayFromVectorOfByte" PURGE="0" COMMENT="" />
    <EXPORT ORDINAL="2475" NAME="cvInputOutputArrayFromVectorOfColorPoint" PURGE="0" COMMENT="" />
    <EXPORT ORDINAL="2476" NAME="cvInputOutputArrayFromVectorOfCvString" PURGE="0" COMMENT="" />
    <EXPORT ORDINAL="2477" NAME="cvInputOutputArrayFromVectorOfDMatch" PURGE="0" COMMENT="" />
    <EXPORT ORDINAL="2478" NAME="cvInputOutputArrayFromVectorOfDouble" PURGE="0" COMMENT="" />
    <EXPORT ORDINAL="2479" NAME="cvInputOutputArrayFromVectorOfERStat" PURGE="0" COMMENT="" />
    <EXPORT ORDINAL="2480" NAME="cvInputOutputArrayFromVectorOfFloat" PURGE="0" COMMENT="" />
    <EXPORT ORDINAL="2481" NAME="cvInputOutputArrayFromVectorOfGpuMat" PURGE="0" COMMENT="" />
    <EXPORT ORDINAL="2482" NAME="cvInputOutputArrayFromVectorOfInt" PURGE="0" COMMENT="" />
    <EXPORT ORDINAL="2483" NAME="cvInputOutputArrayFromVectorOfKeyPoint" PURGE="0" COMMENT="" />
    <EXPORT ORDINAL="2484" NAME="cvInputOutputArrayFromVectorOfMat" PURGE="0" COMMENT="" />
    <EXPORT ORDINAL="2485" NAME="cvInputOutputArrayFromVectorOfObjectDetection" PURGE="0" COMMENT="" />
    <EXPORT ORDINAL="2486" NAME="cvInputOutputArrayFromVectorOfOclPlatformInfo" PURGE="0" COMMENT="" />
    <EXPORT ORDINAL="2487" NAME="cvInputOutputArrayFromVectorOfPoint" PURGE="0" COMMENT="" />
    <EXPORT ORDINAL="2488" NAME="cvInputOutputArrayFromVectorOfPoint3D32F" PURGE="0" COMMENT="" />
    <EXPORT ORDINAL="2489" NAME="cvInputOutputArrayFromVectorOfPointF" PURGE="0" COMMENT="" />
    <EXPORT ORDINAL="2490" NAME="cvInputOutputArrayFromVectorOfRect" PURGE="0" COMMENT="" />
    <EXPORT ORDINAL="2491" NAME="cvInputOutputArrayFromVectorOfTesseractResult" PURGE="0" COMMENT="" />
    <EXPORT ORDINAL="2492" NAME="cvInputOutputArrayFromVectorOfTriangle2DF" PURGE="0" COMMENT="" />
    <EXPORT ORDINAL="2493" NAME="cvInputOutputArrayFromVectorOfUMat" PURGE="0" COMMENT="" />
    <EXPORT ORDINAL="2494" NAME="cvInputOutputArrayFromVectorOfVectorOfDMatch" PURGE="0" COMMENT="" />
    <EXPORT ORDINAL="2495" NAME="cvInputOutputArrayFromVectorOfVectorOfInt" PURGE="0" COMMENT="" />
    <EXPORT ORDINAL="2496" NAME="cvInputOutputArrayFromVectorOfVectorOfPoint" PURGE="0" COMMENT="" />
    <EXPORT ORDINAL="2497" NAME="cvInputOutputArrayFromVectorOfVectorOfPoint3D32F" PURGE="0" COMMENT="" />
    <EXPORT ORDINAL="2498" NAME="cvInputOutputArrayFromVectorOfVectorOfPointF" PURGE="0" COMMENT="" />
    <EXPORT ORDINAL="2499" NAME="cvMatGetUMat" PURGE="0" COMMENT="" />
    <EXPORT ORDINAL="2500" NAME="cvMatSetTo" PURGE="0" COMMENT="" />
    <EXPORT ORDINAL="2501" NAME="cvNormHistogramCostExtractorCreate" PURGE="0" COMMENT="" />
    <EXPORT ORDINAL="2502" NAME="cvOutputArrayFromVectorOfByte" PURGE="0" COMMENT="" />
    <EXPORT ORDINAL="2503" NAME="cvOutputArrayFromVectorOfColorPoint" PURGE="0" COMMENT="" />
    <EXPORT ORDINAL="2504" NAME="cvOutputArrayFromVectorOfCvString" PURGE="0" COMMENT="" />
    <EXPORT ORDINAL="2505" NAME="cvOutputArrayFromVectorOfDMatch" PURGE="0" COMMENT="" />
    <EXPORT ORDINAL="2506" NAME="cvOutputArrayFromVectorOfDouble" PURGE="0" COMMENT="" />
    <EXPORT ORDINAL="2507" NAME="cvOutputArrayFromVectorOfERStat" PURGE="0" COMMENT="" />
    <EXPORT ORDINAL="2508" NAME="cvOutputArrayFromVectorOfFloat" PURGE="0" COMMENT="" />
    <EXPORT ORDINAL="2509" NAME="cvOutputArrayFromVectorOfGpuMat" PURGE="0" COMMENT="" />
    <EXPORT ORDINAL="2510" NAME="cvOutputArrayFromVectorOfInt" PURGE="0" COMMENT="" />
    <EXPORT ORDINAL="2511" NAME="cvOutputArrayFromVectorOfKeyPoint" PURGE="0" COMMENT="" />
    <EXPORT ORDINAL="2512" NAME="cvOutputArrayFromVectorOfMat" PURGE="0" COMMENT="" />
    <EXPORT ORDINAL="2513" NAME="cvOutputArrayFromVectorOfObjectDetection" PURGE="0" COMMENT="" />
    <EXPORT ORDINAL="2514" NAME="cvOutputArrayFromVectorOfOclPlatformInfo" PURGE="0" COMMENT="" />
    <EXPORT ORDINAL="2515" NAME="cvOutputArrayFromVectorOfPoint" PURGE="0" COMMENT="" />
    <EXPORT ORDINAL="2516" NAME="cvOutputArrayFromVectorOfPoint3D32F" PURGE="0" COMMENT="" />
    <EXPORT ORDINAL="2517" NAME="cvOutputArrayFromVectorOfPointF" PURGE="0" COMMENT="" />
    <EXPORT ORDINAL="2518" NAME="cvOutputArrayFromVectorOfRect" PURGE="0" COMMENT="" />
    <EXPORT ORDINAL="2519" NAME="cvOutputArrayFromVectorOfTesseractResult" PURGE="0" COMMENT="" />
    <EXPORT ORDINAL="2520" NAME="cvOutputArrayFromVectorOfTriangle2DF" PURGE="0" COMMENT="" />
    <EXPORT ORDINAL="2521" NAME="cvOutputArrayFromVectorOfUMat" PURGE="0" COMMENT="" />
    <EXPORT ORDINAL="2522" NAME="cvOutputArrayFromVectorOfVectorOfDMatch" PURGE="0" COMMENT="" />
    <EXPORT ORDINAL="2523" NAME="cvOutputArrayFromVectorOfVectorOfInt" PURGE="0" COMMENT="" />
    <EXPORT ORDINAL="2524" NAME="cvOutputArrayFromVectorOfVectorOfPoint" PURGE="0" COMMENT="" />
    <EXPORT ORDINAL="2525" NAME="cvOutputArrayFromVectorOfVectorOfPoint3D32F" PURGE="0" COMMENT="" />
    <EXPORT ORDINAL="2526" NAME="cvOutputArrayFromVectorOfVectorOfPointF" PURGE="0" COMMENT="" />
    <EXPORT ORDINAL="2527" NAME="cvSelectiveColor" PURGE="0" COMMENT="" />
    <EXPORT ORDINAL="2528" NAME="cvShapeContextDistanceExtractorCreate" PURGE="0" COMMENT="" />
    <EXPORT ORDINAL="2529" NAME="cvShapeContextDistanceExtractorRelease" PURGE="0" COMMENT="" />
    <EXPORT ORDINAL="2530" NAME="cvShapeDistanceExtractorComputeDistance" PURGE="0" COMMENT="" />
    <EXPORT ORDINAL="2531" NAME="cvShapeTransformerRelease" PURGE="0" COMMENT="" />
    <EXPORT ORDINAL="2532" NAME="cvSuperResolutionCreate" PURGE="0" COMMENT="" />
    <EXPORT ORDINAL="2533" NAME="cvSuperResolutionRelease" PURGE="0" COMMENT="" />
    <EXPORT ORDINAL="2534" NAME="cvSuperresCreateFrameSourceCamera" PURGE="0" COMMENT="" />
    <EXPORT ORDINAL="2535" NAME="cvSuperresCreateFrameSourceVideo" PURGE="0" COMMENT="" />
    <EXPORT ORDINAL="2536" NAME="cvSuperresFrameSourceNextFrame" PURGE="-1" COMMENT="" />
    <EXPORT ORDINAL="2537" NAME="cvSuperresFrameSourceRelease" PURGE="0" COMMENT="" />
    <EXPORT ORDINAL="2538" NAME="cvThinPlateSplineShapeTransformerCreate" PURGE="0" COMMENT="" />
    <EXPORT ORDINAL="2539" NAME="cvVignetteMaskCreate" PURGE="0" COMMENT="" />
    <EXPORT ORDINAL="2540" NAME="cvbCvBlobGetContour" PURGE="-1" COMMENT="" />
    <EXPORT ORDINAL="2541" NAME="cvbCvBlobGetLabel" PURGE="0" COMMENT="" />
    <EXPORT ORDINAL="2542" NAME="cvbCvBlobGetMoment" PURGE="0" COMMENT="" />
    <EXPORT ORDINAL="2543" NAME="cvbCvBlobGetRect" PURGE="0" COMMENT="" />
    <EXPORT ORDINAL="2544" NAME="cvbCvBlobMeanColor" PURGE="0" COMMENT="" />
    <EXPORT ORDINAL="2545" NAME="cvbCvBlobsAdd" PURGE="0" COMMENT="" />
    <EXPORT ORDINAL="2546" NAME="cvbCvBlobsClear" PURGE="0" COMMENT="" />
    <EXPORT ORDINAL="2547" NAME="cvbCvBlobsCreate" PURGE="0" COMMENT="" />
    <EXPORT ORDINAL="2548" NAME="cvbCvBlobsFind" PURGE="0" COMMENT="" />
    <EXPORT ORDINAL="2549" NAME="cvbCvBlobsGetBlobs" PURGE="0" COMMENT="" />
    <EXPORT ORDINAL="2550" NAME="cvbCvBlobsGetSize" PURGE="0" COMMENT="" />
    <EXPORT ORDINAL="2551" NAME="cvbCvBlobsRelease" PURGE="0" COMMENT="" />
    <EXPORT ORDINAL="2552" NAME="cvbCvBlobsRemove" PURGE="0" COMMENT="" />
    <EXPORT ORDINAL="2553" NAME="cvbCvFilterByArea" PURGE="0" COMMENT="" />
    <EXPORT ORDINAL="2554" NAME="cvbCvFilterLabels" PURGE="0" COMMENT="" />
    <EXPORT ORDINAL="2555" NAME="cvbCvLabel" PURGE="0" COMMENT="" />
    <EXPORT ORDINAL="2556" NAME="cvbCvRenderBlobs" PURGE="0" COMMENT="" />
    <EXPORT ORDINAL="2557" NAME="cvbCvTrackEquals" PURGE="0" COMMENT="" />
    <EXPORT ORDINAL="2558" NAME="cvbCvTracksAdd" PURGE="0" COMMENT="" />
    <EXPORT ORDINAL="2559" NAME="cvbCvTracksClear" PURGE="0" COMMENT="" />
    <EXPORT ORDINAL="2560" NAME="cvbCvTracksCreate" PURGE="0" COMMENT="" />
    <EXPORT ORDINAL="2561" NAME="cvbCvTracksFind" PURGE="0" COMMENT="" />
    <EXPORT ORDINAL="2562" NAME="cvbCvTracksGetSize" PURGE="0" COMMENT="" />
    <EXPORT ORDINAL="2563" NAME="cvbCvTracksGetTracks" PURGE="0" COMMENT="" />
    <EXPORT ORDINAL="2564" NAME="cvbCvTracksRelease" PURGE="0" COMMENT="" />
    <EXPORT ORDINAL="2565" NAME="cvbCvTracksRemove" PURGE="0" COMMENT="" />
    <EXPORT ORDINAL="2566" NAME="cvbCvTracksSetTrack" PURGE="0" COMMENT="" />
    <EXPORT ORDINAL="2567" NAME="cvbCvUpdateTracks" PURGE="0" COMMENT="" />
    <EXPORT ORDINAL="2568" NAME="cveAKAZEDetectorCreate" PURGE="0" COMMENT="" />
    <EXPORT ORDINAL="2569" NAME="cveAKAZEDetectorRelease" PURGE="0" COMMENT="" />
    <EXPORT ORDINAL="2570" NAME="cveANN_MLPCreate" PURGE="0" COMMENT="" />
    <EXPORT ORDINAL="2571" NAME="cveANN_MLPGetBackpropMomentumScale" PURGE="-1" COMMENT="" />
    <EXPORT ORDINAL="2572" NAME="cveANN_MLPGetBackpropWeightScale" PURGE="-1" COMMENT="" />
    <EXPORT ORDINAL="2573" NAME="cveANN_MLPGetRpropDW0" PURGE="-1" COMMENT="" />
    <EXPORT ORDINAL="2574" NAME="cveANN_MLPGetRpropDWMax" PURGE="-1" COMMENT="" />
    <EXPORT ORDINAL="2575" NAME="cveANN_MLPGetRpropDWMin" PURGE="-1" COMMENT="" />
    <EXPORT ORDINAL="2576" NAME="cveANN_MLPGetRpropDWMinus" PURGE="-1" COMMENT="" />
    <EXPORT ORDINAL="2577" NAME="cveANN_MLPGetRpropDWPlus" PURGE="-1" COMMENT="" />
    <EXPORT ORDINAL="2578" NAME="cveANN_MLPGetTermCriteria" PURGE="0" COMMENT="" />
    <EXPORT ORDINAL="2579" NAME="cveANN_MLPRelease" PURGE="0" COMMENT="" />
    <EXPORT ORDINAL="2580" NAME="cveANN_MLPSetActivationFunction" PURGE="0" COMMENT="" />
    <EXPORT ORDINAL="2581" NAME="cveANN_MLPSetBackpropMomentumScale" PURGE="-1" COMMENT="" />
    <EXPORT ORDINAL="2582" NAME="cveANN_MLPSetBackpropWeightScale" PURGE="-1" COMMENT="" />
    <EXPORT ORDINAL="2583" NAME="cveANN_MLPSetLayerSizes" PURGE="-1" COMMENT="" />
    <EXPORT ORDINAL="2584" NAME="cveANN_MLPSetRpropDW0" PURGE="-1" COMMENT="" />
    <EXPORT ORDINAL="2585" NAME="cveANN_MLPSetRpropDWMax" PURGE="-1" COMMENT="" />
    <EXPORT ORDINAL="2586" NAME="cveANN_MLPSetRpropDWMin" PURGE="-1" COMMENT="" />
    <EXPORT ORDINAL="2587" NAME="cveANN_MLPSetRpropDWMinus" PURGE="-1" COMMENT="" />
    <EXPORT ORDINAL="2588" NAME="cveANN_MLPSetRpropDWPlus" PURGE="-1" COMMENT="" />
    <EXPORT ORDINAL="2589" NAME="cveANN_MLPSetTermCriteria" PURGE="0" COMMENT="" />
    <EXPORT ORDINAL="2590" NAME="cveANN_MLPSetTrainMethod" PURGE="-1" COMMENT="" />
    <EXPORT ORDINAL="2591" NAME="cveAbsDiff" PURGE="0" COMMENT="" />
    <EXPORT ORDINAL="2592" NAME="cveAccumulate" PURGE="0" COMMENT="" />
    <EXPORT ORDINAL="2593" NAME="cveAccumulateProduct" PURGE="0" COMMENT="" />
    <EXPORT ORDINAL="2594" NAME="cveAccumulateSquare" PURGE="0" COMMENT="" />
    <EXPORT ORDINAL="2595" NAME="cveAccumulateWeighted" PURGE="0" COMMENT="" />
    <EXPORT ORDINAL="2596" NAME="cveAdaptiveThreshold" PURGE="0" COMMENT="" />
    <EXPORT ORDINAL="2597" NAME="cveAdd" PURGE="0" COMMENT="" />
    <EXPORT ORDINAL="2598" NAME="cveAddWeighted" PURGE="0" COMMENT="" />
    <EXPORT ORDINAL="2599" NAME="cveAlgorithmRead" PURGE="-1" COMMENT="" />
    <EXPORT ORDINAL="2600" NAME="cveAlgorithmWrite" PURGE="-1" COMMENT="" />
    <EXPORT ORDINAL="2601" NAME="cveApplyColorMap" PURGE="0" COMMENT="" />
    <EXPORT ORDINAL="2602" NAME="cveApproxPolyDP" PURGE="0" COMMENT="" />
    <EXPORT ORDINAL="2603" NAME="cveArcLength" PURGE="0" COMMENT="" />
    <EXPORT ORDINAL="2604" NAME="cveArrToMat" PURGE="0" COMMENT="" />
    <EXPORT ORDINAL="2605" NAME="cveArrowedLine" PURGE="0" COMMENT="" />
    <EXPORT ORDINAL="2606" NAME="cveAutotunedIndexParamsCreate" PURGE="0" COMMENT="" />
    <EXPORT ORDINAL="2607" NAME="cveAutotunedIndexParamsRelease" PURGE="0" COMMENT="" />
    <EXPORT ORDINAL="2608" NAME="cveBFMatcherCreate" PURGE="0" COMMENT="" />
    <EXPORT ORDINAL="2609" NAME="cveBFMatcherRelease" PURGE="0" COMMENT="" />
    <EXPORT ORDINAL="2610" NAME="cveBalanceWhite" PURGE="0" COMMENT="" />
    <EXPORT ORDINAL="2611" NAME="cveBilateralFilter" PURGE="0" COMMENT="" />
    <EXPORT ORDINAL="2612" NAME="cveBitwiseAnd" PURGE="0" COMMENT="" />
    <EXPORT ORDINAL="2613" NAME="cveBitwiseNot" PURGE="0" COMMENT="" />
    <EXPORT ORDINAL="2614" NAME="cveBitwiseOr" PURGE="0" COMMENT="" />
    <EXPORT ORDINAL="2615" NAME="cveBitwiseXor" PURGE="0" COMMENT="" />
    <EXPORT ORDINAL="2616" NAME="cveBlur" PURGE="0" COMMENT="" />
    <EXPORT ORDINAL="2617" NAME="cveBoostCreate" PURGE="0" COMMENT="" />
    <EXPORT ORDINAL="2618" NAME="cveBoostRelease" PURGE="0" COMMENT="" />
    <EXPORT ORDINAL="2619" NAME="cveBoundingRectangle" PURGE="0" COMMENT="" />
    <EXPORT ORDINAL="2620" NAME="cveBoxFilter" PURGE="0" COMMENT="" />
    <EXPORT ORDINAL="2621" NAME="cveBoxPoints" PURGE="0" COMMENT="" />
    <EXPORT ORDINAL="2622" NAME="cveBriefDescriptorExtractorCreate" PURGE="0" COMMENT="" />
    <EXPORT ORDINAL="2623" NAME="cveBriefDescriptorExtractorRelease" PURGE="0" COMMENT="" />
    <EXPORT ORDINAL="2624" NAME="cveBriskCreate" PURGE="0" COMMENT="" />
    <EXPORT ORDINAL="2625" NAME="cveBriskRelease" PURGE="0" COMMENT="" />
    <EXPORT ORDINAL="2626" NAME="cveCLAHE" PURGE="0" COMMENT="" />
    <EXPORT ORDINAL="2627" NAME="cveCalcBackProject" PURGE="0" COMMENT="" />
    <EXPORT ORDINAL="2628" NAME="cveCalcCovarMatrix" PURGE="0" COMMENT="" />
    <EXPORT ORDINAL="2629" NAME="cveCalcGlobalOrientation" PURGE="0" COMMENT="" />
    <EXPORT ORDINAL="2630" NAME="cveCalcHist" PURGE="0" COMMENT="" />
    <EXPORT ORDINAL="2631" NAME="cveCalcMotionGradient" PURGE="0" COMMENT="" />
    <EXPORT ORDINAL="2632" NAME="cveCalcOpticalFlowFarneback" PURGE="0" COMMENT="" />
    <EXPORT ORDINAL="2633" NAME="cveCalcOpticalFlowPyrLK" PURGE="0" COMMENT="" />
    <EXPORT ORDINAL="2634" NAME="cveCalibrateCRFProcess" PURGE="-1" COMMENT="" />
    <EXPORT ORDINAL="2635" NAME="cveCalibrateCamera" PURGE="0" COMMENT="" />
    <EXPORT ORDINAL="2636" NAME="cveCalibrationMatrixValues" PURGE="0" COMMENT="" />
    <EXPORT ORDINAL="2637" NAME="cveCamShift" PURGE="0" COMMENT="" />
    <EXPORT ORDINAL="2638" NAME="cveCanny" PURGE="0" COMMENT="" />
    <EXPORT ORDINAL="2639" NAME="cveCartToPolar" PURGE="0" COMMENT="" />
    <EXPORT ORDINAL="2640" NAME="cveCheckArr" PURGE="0" COMMENT="" />
    <EXPORT ORDINAL="2641" NAME="cveCheckRange" PURGE="0" COMMENT="" />
    <EXPORT ORDINAL="2642" NAME="cveCircle" PURGE="0" COMMENT="" />
    <EXPORT ORDINAL="2643" NAME="cveClearND" PURGE="0" COMMENT="" />
    <EXPORT ORDINAL="2644" NAME="cveClipLine" PURGE="0" COMMENT="" />
    <EXPORT ORDINAL="2645" NAME="cveColorChange" PURGE="0" COMMENT="" />
    <EXPORT ORDINAL="2646" NAME="cveCompare" PURGE="0" COMMENT="" />
    <EXPORT ORDINAL="2647" NAME="cveCompareHist" PURGE="0" COMMENT="" />
    <EXPORT ORDINAL="2648" NAME="cveCompositeIndexParamsCreate" PURGE="0" COMMENT="" />
    <EXPORT ORDINAL="2649" NAME="cveCompositeIndexParamsRelease" PURGE="0" COMMENT="" />
    <EXPORT ORDINAL="2650" NAME="cveComputeCorrespondEpilines" PURGE="0" COMMENT="" />
    <EXPORT ORDINAL="2651" NAME="cveContourArea" PURGE="0" COMMENT="" />
    <EXPORT ORDINAL="2652" NAME="cveConvertMaps" PURGE="0" COMMENT="" />
    <EXPORT ORDINAL="2653" NAME="cveConvertPointsFromHomogeneous" PURGE="0" COMMENT="" />
    <EXPORT ORDINAL="2654" NAME="cveConvertPointsToHomogeneous" PURGE="0" COMMENT="" />
    <EXPORT ORDINAL="2655" NAME="cveConvertScale" PURGE="0" COMMENT="" />
    <EXPORT ORDINAL="2656" NAME="cveConvertScaleAbs" PURGE="0" COMMENT="" />
    <EXPORT ORDINAL="2657" NAME="cveConvexHull" PURGE="0" COMMENT="" />
    <EXPORT ORDINAL="2658" NAME="cveConvexityDefects" PURGE="0" COMMENT="" />
    <EXPORT ORDINAL="2659" NAME="cveCopy" PURGE="0" COMMENT="" />
    <EXPORT ORDINAL="2660" NAME="cveCopyMakeBorder" PURGE="0" COMMENT="" />
    <EXPORT ORDINAL="2661" NAME="cveCornerHarris" PURGE="0" COMMENT="" />
    <EXPORT ORDINAL="2662" NAME="cveCornerSubPix" PURGE="0" COMMENT="" />
    <EXPORT ORDINAL="2663" NAME="cveCorrectMatches" PURGE="0" COMMENT="" />
    <EXPORT ORDINAL="2664" NAME="cveCountNonZero" PURGE="0" COMMENT="" />
    <EXPORT ORDINAL="2665" NAME="cveCreateCalibrateDebevec" PURGE="0" COMMENT="" />
    <EXPORT ORDINAL="2666" NAME="cveCreateCalibrateRobertson" PURGE="0" COMMENT="" />
    <EXPORT ORDINAL="2667" NAME="cveCreateHanningWindow" PURGE="0" COMMENT="" />
    <EXPORT ORDINAL="2668" NAME="cveCreateImage" PURGE="0" COMMENT="" />
    <EXPORT ORDINAL="2669" NAME="cveCreateImageHeader" PURGE="0" COMMENT="" />
    <EXPORT ORDINAL="2670" NAME="cveCreateMat" PURGE="0" COMMENT="" />
    <EXPORT ORDINAL="2671" NAME="cveCreateMergeDebevec" PURGE="0" COMMENT="" />
    <EXPORT ORDINAL="2672" NAME="cveCreateMergeMertens" PURGE="0" COMMENT="" />
    <EXPORT ORDINAL="2673" NAME="cveCreateSparseMat" PURGE="0" COMMENT="" />
    <EXPORT ORDINAL="2674" NAME="cveCvtColor" PURGE="0" COMMENT="" />
    <EXPORT ORDINAL="2675" NAME="cveDAISYCreate" PURGE="0" COMMENT="" />
    <EXPORT ORDINAL="2676" NAME="cveDAISYRelease" PURGE="0" COMMENT="" />
    <EXPORT ORDINAL="2677" NAME="cveDTreesCreate" PURGE="0" COMMENT="" />
    <EXPORT ORDINAL="2678" NAME="cveDTreesGetCVFolds" PURGE="-1" COMMENT="" />
    <EXPORT ORDINAL="2679" NAME="cveDTreesGetMaxCategories" PURGE="-1" COMMENT="" />
    <EXPORT ORDINAL="2680" NAME="cveDTreesGetMaxDepth" PURGE="-1" COMMENT="" />
    <EXPORT ORDINAL="2681" NAME="cveDTreesGetMinSampleCount" PURGE="-1" COMMENT="" />
    <EXPORT ORDINAL="2682" NAME="cveDTreesGetRegressionAccuracy" PURGE="-1" COMMENT="" />
    <EXPORT ORDINAL="2683" NAME="cveDTreesGetTruncatePrunedTree" PURGE="-1" COMMENT="" />
    <EXPORT ORDINAL="2684" NAME="cveDTreesGetUse1SERule" PURGE="-1" COMMENT="" />
    <EXPORT ORDINAL="2685" NAME="cveDTreesGetUseSurrogates" PURGE="-1" COMMENT="" />
    <EXPORT ORDINAL="2686" NAME="cveDTreesRelease" PURGE="0" COMMENT="" />
    <EXPORT ORDINAL="2687" NAME="cveDTreesSetCVFolds" PURGE="-1" COMMENT="" />
    <EXPORT ORDINAL="2688" NAME="cveDTreesSetMaxCategories" PURGE="-1" COMMENT="" />
    <EXPORT ORDINAL="2689" NAME="cveDTreesSetMaxDepth" PURGE="-1" COMMENT="" />
    <EXPORT ORDINAL="2690" NAME="cveDTreesSetMinSampleCount" PURGE="-1" COMMENT="" />
    <EXPORT ORDINAL="2691" NAME="cveDTreesSetRegressionAccuracy" PURGE="-1" COMMENT="" />
    <EXPORT ORDINAL="2692" NAME="cveDTreesSetTruncatePrunedTree" PURGE="-1" COMMENT="" />
    <EXPORT ORDINAL="2693" NAME="cveDTreesSetUse1SERule" PURGE="-1" COMMENT="" />
    <EXPORT ORDINAL="2694" NAME="cveDTreesSetUseSurrogates" PURGE="-1" COMMENT="" />
    <EXPORT ORDINAL="2695" NAME="cveDct" PURGE="0" COMMENT="" />
    <EXPORT ORDINAL="2696" NAME="cveDctDenoising" PURGE="0" COMMENT="" />
    <EXPORT ORDINAL="2697" NAME="cveDenoiseTVL1" PURGE="0" COMMENT="" />
    <EXPORT ORDINAL="2698" NAME="cveDenseOpticalFlowCalc" PURGE="-1" COMMENT="" />
    <EXPORT ORDINAL="2699" NAME="cveDenseOpticalFlowCreateDualTVL1" PURGE="0" COMMENT="" />
    <EXPORT ORDINAL="2700" NAME="cveDestroyAllWindows" PURGE="0" COMMENT="" />
    <EXPORT ORDINAL="2701" NAME="cveDestroyWindow" PURGE="0" COMMENT="" />
    <EXPORT ORDINAL="2702" NAME="cveDetailEnhance" PURGE="0" COMMENT="" />
    <EXPORT ORDINAL="2703" NAME="cveDeterminant" PURGE="0" COMMENT="" />
    <EXPORT ORDINAL="2704" NAME="cveDft" PURGE="0" COMMENT="" />
    <EXPORT ORDINAL="2705" NAME="cveDilate" PURGE="0" COMMENT="" />
    <EXPORT ORDINAL="2706" NAME="cveDistanceTransform" PURGE="0" COMMENT="" />
    <EXPORT ORDINAL="2707" NAME="cveDivide" PURGE="0" COMMENT="" />
    <EXPORT ORDINAL="2708" NAME="cveDrawChessboardCorners" PURGE="0" COMMENT="" />
    <EXPORT ORDINAL="2709" NAME="cveDrawContours" PURGE="0" COMMENT="" />
    <EXPORT ORDINAL="2710" NAME="cveDualTVL1OpticalFlowGetEpsilon" PURGE="-1" COMMENT="" />
    <EXPORT ORDINAL="2711" NAME="cveDualTVL1OpticalFlowGetGamma" PURGE="-1" COMMENT="" />
    <EXPORT ORDINAL="2712" NAME="cveDualTVL1OpticalFlowGetInnerIterations" PURGE="-1" COMMENT="" />
    <EXPORT ORDINAL="2713" NAME="cveDualTVL1OpticalFlowGetLambda" PURGE="-1" COMMENT="" />
    <EXPORT ORDINAL="2714" NAME="cveDualTVL1OpticalFlowGetMedianFiltering" PURGE="-1" COMMENT="" />
    <EXPORT ORDINAL="2715" NAME="cveDualTVL1OpticalFlowGetOuterIterations" PURGE="-1" COMMENT="" />
    <EXPORT ORDINAL="2716" NAME="cveDualTVL1OpticalFlowGetScaleStep" PURGE="-1" COMMENT="" />
    <EXPORT ORDINAL="2717" NAME="cveDualTVL1OpticalFlowGetScalesNumber" PURGE="-1" COMMENT="" />
    <EXPORT ORDINAL="2718" NAME="cveDualTVL1OpticalFlowGetTau" PURGE="-1" COMMENT="" />
    <EXPORT ORDINAL="2719" NAME="cveDualTVL1OpticalFlowGetTheta" PURGE="-1" COMMENT="" />
    <EXPORT ORDINAL="2720" NAME="cveDualTVL1OpticalFlowGetUseInitialFlow" PURGE="-1" COMMENT="" />
    <EXPORT ORDINAL="2721" NAME="cveDualTVL1OpticalFlowGetWarpingsNumber" PURGE="-1" COMMENT="" />
    <EXPORT ORDINAL="2722" NAME="cveDualTVL1OpticalFlowRelease" PURGE="0" COMMENT="" />
    <EXPORT ORDINAL="2723" NAME="cveDualTVL1OpticalFlowSetEpsilon" PURGE="-1" COMMENT="" />
    <EXPORT ORDINAL="2724" NAME="cveDualTVL1OpticalFlowSetGamma" PURGE="-1" COMMENT="" />
    <EXPORT ORDINAL="2725" NAME="cveDualTVL1OpticalFlowSetInnerIterations" PURGE="-1" COMMENT="" />
    <EXPORT ORDINAL="2726" NAME="cveDualTVL1OpticalFlowSetLambda" PURGE="-1" COMMENT="" />
    <EXPORT ORDINAL="2727" NAME="cveDualTVL1OpticalFlowSetMedianFiltering" PURGE="-1" COMMENT="" />
    <EXPORT ORDINAL="2728" NAME="cveDualTVL1OpticalFlowSetOuterIterations" PURGE="-1" COMMENT="" />
    <EXPORT ORDINAL="2729" NAME="cveDualTVL1OpticalFlowSetScaleStep" PURGE="-1" COMMENT="" />
    <EXPORT ORDINAL="2730" NAME="cveDualTVL1OpticalFlowSetScalesNumber" PURGE="-1" COMMENT="" />
    <EXPORT ORDINAL="2731" NAME="cveDualTVL1OpticalFlowSetTau" PURGE="-1" COMMENT="" />
    <EXPORT ORDINAL="2732" NAME="cveDualTVL1OpticalFlowSetTheta" PURGE="-1" COMMENT="" />
    <EXPORT ORDINAL="2733" NAME="cveDualTVL1OpticalFlowSetUseInitialFlow" PURGE="-1" COMMENT="" />
    <EXPORT ORDINAL="2734" NAME="cveDualTVL1OpticalFlowSetWarpingsNumber" PURGE="-1" COMMENT="" />
    <EXPORT ORDINAL="2735" NAME="cveEMD" PURGE="0" COMMENT="" />
    <EXPORT ORDINAL="2736" NAME="cveEMGetClustersNumber" PURGE="-1" COMMENT="" />
    <EXPORT ORDINAL="2737" NAME="cveEMGetCovarianceMatrixType" PURGE="-1" COMMENT="" />
    <EXPORT ORDINAL="2738" NAME="cveEMGetTermCriteria" PURGE="0" COMMENT="" />
    <EXPORT ORDINAL="2739" NAME="cveEMSetClustersNumber" PURGE="-1" COMMENT="" />
    <EXPORT ORDINAL="2740" NAME="cveEMSetCovarianceMatrixType" PURGE="-1" COMMENT="" />
    <EXPORT ORDINAL="2741" NAME="cveEMSetTermCriteria" PURGE="0" COMMENT="" />
    <EXPORT ORDINAL="2742" NAME="cveEdgePreservingFilter" PURGE="0" COMMENT="" />
    <EXPORT ORDINAL="2743" NAME="cveEigen" PURGE="0" COMMENT="" />
    <EXPORT ORDINAL="2744" NAME="cveEllipse" PURGE="0" COMMENT="" />
    <EXPORT ORDINAL="2745" NAME="cveEqualizeHist" PURGE="0" COMMENT="" />
    <EXPORT ORDINAL="2746" NAME="cveErode" PURGE="0" COMMENT="" />
    <EXPORT ORDINAL="2747" NAME="cveErrorStr" PURGE="0" COMMENT="" />
    <EXPORT ORDINAL="2748" NAME="cveEstimateAffine3D" PURGE="0" COMMENT="" />
    <EXPORT ORDINAL="2749" NAME="cveEstimateRigidTransform" PURGE="0" COMMENT="" />
    <EXPORT ORDINAL="2750" NAME="cveExp" PURGE="0" COMMENT="" />
    <EXPORT ORDINAL="2751" NAME="cveExtractChannel" PURGE="0" COMMENT="" />
    <EXPORT ORDINAL="2752" NAME="cveFASTFeatureDetectorRelease" PURGE="0" COMMENT="" />
    <EXPORT ORDINAL="2753" NAME="cveFASTGetFeatureDetector" PURGE="0" COMMENT="" />
    <EXPORT ORDINAL="2754" NAME="cveFastNlMeansDenoising" PURGE="0" COMMENT="" />
    <EXPORT ORDINAL="2755" NAME="cveFastNlMeansDenoisingColored" PURGE="0" COMMENT="" />
    <EXPORT ORDINAL="2756" NAME="cveFileNodeGetType" PURGE="0" COMMENT="" />
    <EXPORT ORDINAL="2757" NAME="cveFileNodeIsEmpty" PURGE="0" COMMENT="" />
    <EXPORT ORDINAL="2758" NAME="cveFileNodeReadDouble" PURGE="0" COMMENT="" />
    <EXPORT ORDINAL="2759" NAME="cveFileNodeReadFloat" PURGE="0" COMMENT="" />
    <EXPORT ORDINAL="2760" NAME="cveFileNodeReadInt" PURGE="0" COMMENT="" />
    <EXPORT ORDINAL="2761" NAME="cveFileNodeReadMat" PURGE="0" COMMENT="" />
    <EXPORT ORDINAL="2762" NAME="cveFileNodeReadString" PURGE="0" COMMENT="" />
    <EXPORT ORDINAL="2763" NAME="cveFileNodeRelease" PURGE="0" COMMENT="" />
    <EXPORT ORDINAL="2764" NAME="cveFileStorageCreate" PURGE="0" COMMENT="" />
    <EXPORT ORDINAL="2765" NAME="cveFileStorageGetFirstTopLevelNode" PURGE="0" COMMENT="" />
    <EXPORT ORDINAL="2766" NAME="cveFileStorageGetNode" PURGE="0" COMMENT="" />
    <EXPORT ORDINAL="2767" NAME="cveFileStorageIsOpened" PURGE="-1" COMMENT="" />
    <EXPORT ORDINAL="2768" NAME="cveFileStorageRelease" PURGE="0" COMMENT="" />
    <EXPORT ORDINAL="2769" NAME="cveFileStorageReleaseAndGetString" PURGE="0" COMMENT="" />
    <EXPORT ORDINAL="2770" NAME="cveFileStorageRoot" PURGE="0" COMMENT="" />
    <EXPORT ORDINAL="2771" NAME="cveFileStorageWriteDouble" PURGE="-1" COMMENT="" />
    <EXPORT ORDINAL="2772" NAME="cveFileStorageWriteFloat" PURGE="-1" COMMENT="" />
    <EXPORT ORDINAL="2773" NAME="cveFileStorageWriteInt" PURGE="-1" COMMENT="" />
    <EXPORT ORDINAL="2774" NAME="cveFileStorageWriteMat" PURGE="0" COMMENT="" />
    <EXPORT ORDINAL="2775" NAME="cveFileStorageWriteString" PURGE="-1" COMMENT="" />
    <EXPORT ORDINAL="2776" NAME="cveFillConvexPoly" PURGE="0" COMMENT="" />
    <EXPORT ORDINAL="2777" NAME="cveFillPoly" PURGE="0" COMMENT="" />
    <EXPORT ORDINAL="2778" NAME="cveFilter2D" PURGE="0" COMMENT="" />
    <EXPORT ORDINAL="2779" NAME="cveFindChessboardCorners" PURGE="0" COMMENT="" />
    <EXPORT ORDINAL="2780" NAME="cveFindCirclesGrid" PURGE="0" COMMENT="" />
    <EXPORT ORDINAL="2781" NAME="cveFindContours" PURGE="0" COMMENT="" />
    <EXPORT ORDINAL="2782" NAME="cveFindFundamentalMat" PURGE="0" COMMENT="" />
    <EXPORT ORDINAL="2783" NAME="cveFindHomography" PURGE="0" COMMENT="" />
    <EXPORT ORDINAL="2784" NAME="cveFindNonZero" PURGE="0" COMMENT="" />
    <EXPORT ORDINAL="2785" NAME="cveFitEllipse" PURGE="0" COMMENT="" />
    <EXPORT ORDINAL="2786" NAME="cveFitLine" PURGE="0" COMMENT="" />
    <EXPORT ORDINAL="2787" NAME="cveFlannIndexCreate" PURGE="0" COMMENT="" />
    <EXPORT ORDINAL="2788" NAME="cveFlip" PURGE="0" COMMENT="" />
    <EXPORT ORDINAL="2789" NAME="cveFloodFill" PURGE="0" COMMENT="" />
    <EXPORT ORDINAL="2790" NAME="cveFreakCreate" PURGE="0" COMMENT="" />
    <EXPORT ORDINAL="2791" NAME="cveFreakRelease" PURGE="0" COMMENT="" />
    <EXPORT ORDINAL="2792" NAME="cveGFTTDetectorCreate" PURGE="0" COMMENT="" />
    <EXPORT ORDINAL="2793" NAME="cveGFTTDetectorRelease" PURGE="0" COMMENT="" />
    <EXPORT ORDINAL="2794" NAME="cveGaussianBlur" PURGE="0" COMMENT="" />
    <EXPORT ORDINAL="2795" NAME="cveGemm" PURGE="0" COMMENT="" />
    <EXPORT ORDINAL="2796" NAME="cveGet1D" PURGE="0" COMMENT="" />
    <EXPORT ORDINAL="2797" NAME="cveGet2D" PURGE="0" COMMENT="" />
    <EXPORT ORDINAL="2798" NAME="cveGet3D" PURGE="0" COMMENT="" />
    <EXPORT ORDINAL="2799" NAME="cveGetAffineTransform" PURGE="0" COMMENT="" />
    <EXPORT ORDINAL="2800" NAME="cveGetCentralMoment" PURGE="0" COMMENT="" />
    <EXPORT ORDINAL="2801" NAME="cveGetCols" PURGE="0" COMMENT="" />
    <EXPORT ORDINAL="2802" NAME="cveGetCvStructSizes" PURGE="0" COMMENT="" />
    <EXPORT ORDINAL="2803" NAME="cveGetDefaultNewCameraMatrix" PURGE="0" COMMENT="" />
    <EXPORT ORDINAL="2804" NAME="cveGetDiag" PURGE="0" COMMENT="" />
    <EXPORT ORDINAL="2805" NAME="cveGetErrMode" PURGE="0" COMMENT="" />
    <EXPORT ORDINAL="2806" NAME="cveGetErrStatus" PURGE="0" COMMENT="" />
    <EXPORT ORDINAL="2807" NAME="cveGetImage" PURGE="0" COMMENT="" />
    <EXPORT ORDINAL="2808" NAME="cveGetImageCOI" PURGE="0" COMMENT="" />
    <EXPORT ORDINAL="2809" NAME="cveGetImageROI" PURGE="0" COMMENT="" />
    <EXPORT ORDINAL="2810" NAME="cveGetMat" PURGE="0" COMMENT="" />
    <EXPORT ORDINAL="2811" NAME="cveGetNormalizedCentralMoment" PURGE="0" COMMENT="" />
    <EXPORT ORDINAL="2812" NAME="cveGetNumThreads" PURGE="0" COMMENT="" />
    <EXPORT ORDINAL="2813" NAME="cveGetOptimalDFTSize" PURGE="0" COMMENT="" />
    <EXPORT ORDINAL="2814" NAME="cveGetPerspectiveTransform" PURGE="0" COMMENT="" />
    <EXPORT ORDINAL="2815" NAME="cveGetRawData" PURGE="0" COMMENT="" />
    <EXPORT ORDINAL="2816" NAME="cveGetReal1D" PURGE="0" COMMENT="" />
    <EXPORT ORDINAL="2817" NAME="cveGetReal2D" PURGE="0" COMMENT="" />
    <EXPORT ORDINAL="2818" NAME="cveGetReal3D" PURGE="0" COMMENT="" />
    <EXPORT ORDINAL="2819" NAME="cveGetRectSubPix" PURGE="0" COMMENT="" />
    <EXPORT ORDINAL="2820" NAME="cveGetRotationMatrix2D" PURGE="0" COMMENT="" />
    <EXPORT ORDINAL="2821" NAME="cveGetRows" PURGE="0" COMMENT="" />
    <EXPORT ORDINAL="2822" NAME="cveGetSize" PURGE="0" COMMENT="" />
    <EXPORT ORDINAL="2823" NAME="cveGetSpatialMoment" PURGE="0" COMMENT="" />
    <EXPORT ORDINAL="2824" NAME="cveGetStructuringElement" PURGE="0" COMMENT="" />
    <EXPORT ORDINAL="2825" NAME="cveGetSubRect" PURGE="0" COMMENT="" />
    <EXPORT ORDINAL="2826" NAME="cveGetThreadNum" PURGE="0" COMMENT="" />
    <EXPORT ORDINAL="2827" NAME="cveGpuMatDepth" PURGE="0" COMMENT="" />
    <EXPORT ORDINAL="2828" NAME="cveGpuMatIsContinuous" PURGE="0" COMMENT="" />
    <EXPORT ORDINAL="2829" NAME="cveGpuMatIsEmpty" PURGE="0" COMMENT="" />
    <EXPORT ORDINAL="2830" NAME="cveGpuMatNumberOfChannels" PURGE="0" COMMENT="" />
    <EXPORT ORDINAL="2831" NAME="cveGrabCut" PURGE="0" COMMENT="" />
    <EXPORT ORDINAL="2832" NAME="cveHConcat" PURGE="0" COMMENT="" />
    <EXPORT ORDINAL="2833" NAME="cveHaveOpenCL" PURGE="0" COMMENT="" />
    <EXPORT ORDINAL="2834" NAME="cveHierarchicalClusteringIndexParamsCreate" PURGE="0" COMMENT="" />
    <EXPORT ORDINAL="2835" NAME="cveHierarchicalClusteringIndexParamsRelease" PURGE="0" COMMENT="" />
    <EXPORT ORDINAL="2836" NAME="cveHoughCircles" PURGE="0" COMMENT="" />
    <EXPORT ORDINAL="2837" NAME="cveHoughLines" PURGE="0" COMMENT="" />
    <EXPORT ORDINAL="2838" NAME="cveHoughLinesP" PURGE="0" COMMENT="" />
    <EXPORT ORDINAL="2839" NAME="cveHuMoments" PURGE="0" COMMENT="" />
    <EXPORT ORDINAL="2840" NAME="cveIlluminationChange" PURGE="0" COMMENT="" />
    <EXPORT ORDINAL="2841" NAME="cveImdecode" PURGE="0" COMMENT="" />
    <EXPORT ORDINAL="2842" NAME="cveImencode" PURGE="0" COMMENT="" />
    <EXPORT ORDINAL="2843" NAME="cveImread" PURGE="0" COMMENT="" />
    <EXPORT ORDINAL="2844" NAME="cveImshow" PURGE="0" COMMENT="" />
    <EXPORT ORDINAL="2845" NAME="cveImwrite" PURGE="0" COMMENT="" />
    <EXPORT ORDINAL="2846" NAME="cveInRange" PURGE="0" COMMENT="" />
    <EXPORT ORDINAL="2847" NAME="cveInitImageHeader" PURGE="0" COMMENT="" />
    <EXPORT ORDINAL="2848" NAME="cveInitMatHeader" PURGE="0" COMMENT="" />
    <EXPORT ORDINAL="2849" NAME="cveInitMatNDHeader" PURGE="0" COMMENT="" />
    <EXPORT ORDINAL="2850" NAME="cveInitUndistortRectifyMap" PURGE="0" COMMENT="" />
    <EXPORT ORDINAL="2851" NAME="cveInpaint" PURGE="0" COMMENT="" />
    <EXPORT ORDINAL="2852" NAME="cveInputArrayFromDouble" PURGE="0" COMMENT="" />
    <EXPORT ORDINAL="2853" NAME="cveInputArrayFromGpuMat" PURGE="0" COMMENT="" />
    <EXPORT ORDINAL="2854" NAME="cveInputArrayFromMat" PURGE="0" COMMENT="" />
    <EXPORT ORDINAL="2855" NAME="cveInputArrayFromScalar" PURGE="0" COMMENT="" />
    <EXPORT ORDINAL="2856" NAME="cveInputArrayFromUMat" PURGE="0" COMMENT="" />
    <EXPORT ORDINAL="2857" NAME="cveInputArrayGetChannels" PURGE="0" COMMENT="" />
    <EXPORT ORDINAL="2858" NAME="cveInputArrayGetDepth" PURGE="0" COMMENT="" />
    <EXPORT ORDINAL="2859" NAME="cveInputArrayGetMat" PURGE="0" COMMENT="" />
    <EXPORT ORDINAL="2860" NAME="cveInputArrayGetSize" PURGE="0" COMMENT="" />
    <EXPORT ORDINAL="2861" NAME="cveInputArrayGetUMat" PURGE="0" COMMENT="" />
    <EXPORT ORDINAL="2862" NAME="cveInputArrayIsEmpty" PURGE="0" COMMENT="" />
    <EXPORT ORDINAL="2863" NAME="cveInputArrayIsMat" PURGE="0" COMMENT="" />
    <EXPORT ORDINAL="2864" NAME="cveInputArrayIsMatVector" PURGE="0" COMMENT="" />
    <EXPORT ORDINAL="2865" NAME="cveInputArrayIsMatx" PURGE="0" COMMENT="" />
    <EXPORT ORDINAL="2866" NAME="cveInputArrayIsUMat" PURGE="0" COMMENT="" />
    <EXPORT ORDINAL="2867" NAME="cveInputArrayIsUMatVector" PURGE="0" COMMENT="" />
    <EXPORT ORDINAL="2868" NAME="cveInputArrayRelease" PURGE="0" COMMENT="" />
    <EXPORT ORDINAL="2869" NAME="cveInputOutputArrayFromGpuMat" PURGE="0" COMMENT="" />
    <EXPORT ORDINAL="2870" NAME="cveInputOutputArrayFromMat" PURGE="0" COMMENT="" />
    <EXPORT ORDINAL="2871" NAME="cveInputOutputArrayFromUMat" PURGE="0" COMMENT="" />
    <EXPORT ORDINAL="2872" NAME="cveInputOutputArrayRelease" PURGE="0" COMMENT="" />
    <EXPORT ORDINAL="2873" NAME="cveInsertChannel" PURGE="0" COMMENT="" />
    <EXPORT ORDINAL="2874" NAME="cveIntegral" PURGE="0" COMMENT="" />
    <EXPORT ORDINAL="2875" NAME="cveInvert" PURGE="0" COMMENT="" />
    <EXPORT ORDINAL="2876" NAME="cveInvertAffineTransform" PURGE="0" COMMENT="" />
    <EXPORT ORDINAL="2877" NAME="cveIsContourConvex" PURGE="0" COMMENT="" />
    <EXPORT ORDINAL="2878" NAME="cveKAZEDetectorCreate" PURGE="0" COMMENT="" />
    <EXPORT ORDINAL="2879" NAME="cveKAZEDetectorRelease" PURGE="0" COMMENT="" />
    <EXPORT ORDINAL="2880" NAME="cveKDTreeIndexParamsCreate" PURGE="0" COMMENT="" />
    <EXPORT ORDINAL="2881" NAME="cveKDTreeIndexParamsRelease" PURGE="0" COMMENT="" />
    <EXPORT ORDINAL="2882" NAME="cveKMeansIndexParamsCreate" PURGE="0" COMMENT="" />
    <EXPORT ORDINAL="2883" NAME="cveKMeansIndexParamsRelease" PURGE="0" COMMENT="" />
    <EXPORT ORDINAL="2884" NAME="cveKNearestGetAlgorithmType" PURGE="-1" COMMENT="" />
    <EXPORT ORDINAL="2885" NAME="cveKNearestGetDefaultK" PURGE="-1" COMMENT="" />
    <EXPORT ORDINAL="2886" NAME="cveKNearestGetEmax" PURGE="-1" COMMENT="" />
    <EXPORT ORDINAL="2887" NAME="cveKNearestGetIsClassifier" PURGE="-1" COMMENT="" />
    <EXPORT ORDINAL="2888" NAME="cveKNearestSetAlgorithmType" PURGE="-1" COMMENT="" />
    <EXPORT ORDINAL="2889" NAME="cveKNearestSetDefaultK" PURGE="-1" COMMENT="" />
    <EXPORT ORDINAL="2890" NAME="cveKNearestSetEmax" PURGE="-1" COMMENT="" />
    <EXPORT ORDINAL="2891" NAME="cveKNearestSetIsClassifier" PURGE="-1" COMMENT="" />
    <EXPORT ORDINAL="2892" NAME="cveKalmanFilterCorrect" PURGE="0" COMMENT="" />
    <EXPORT ORDINAL="2893" NAME="cveKalmanFilterCreate" PURGE="0" COMMENT="" />
    <EXPORT ORDINAL="2894" NAME="cveKalmanFilterGetControlMatrix" PURGE="0" COMMENT="" />
    <EXPORT ORDINAL="2895" NAME="cveKalmanFilterGetErrorCovPost" PURGE="0" COMMENT="" />
    <EXPORT ORDINAL="2896" NAME="cveKalmanFilterGetErrorCovPre" PURGE="0" COMMENT="" />
    <EXPORT ORDINAL="2897" NAME="cveKalmanFilterGetGain" PURGE="0" COMMENT="" />
    <EXPORT ORDINAL="2898" NAME="cveKalmanFilterGetMeasurementMatrix" PURGE="0" COMMENT="" />
    <EXPORT ORDINAL="2899" NAME="cveKalmanFilterGetMeasurementNoiseCov" PURGE="0" COMMENT="" />
    <EXPORT ORDINAL="2900" NAME="cveKalmanFilterGetProcessNoiseCov" PURGE="0" COMMENT="" />
    <EXPORT ORDINAL="2901" NAME="cveKalmanFilterGetStatePost" PURGE="0" COMMENT="" />
    <EXPORT ORDINAL="2902" NAME="cveKalmanFilterGetStatePre" PURGE="0" COMMENT="" />
    <EXPORT ORDINAL="2903" NAME="cveKalmanFilterGetTransitionMatrix" PURGE="0" COMMENT="" />
    <EXPORT ORDINAL="2904" NAME="cveKalmanFilterPredict" PURGE="0" COMMENT="" />
    <EXPORT ORDINAL="2905" NAME="cveKalmanFilterRelease" PURGE="0" COMMENT="" />
    <EXPORT ORDINAL="2906" NAME="cveKmeans" PURGE="0" COMMENT="" />
    <EXPORT ORDINAL="2907" NAME="cveLATCHCreate" PURGE="0" COMMENT="" />
    <EXPORT ORDINAL="2908" NAME="cveLATCHRelease" PURGE="0" COMMENT="" />
    <EXPORT ORDINAL="2909" NAME="cveLSVMDetectorCreate" PURGE="0" COMMENT="" />
    <EXPORT ORDINAL="2910" NAME="cveLSVMDetectorDetect" PURGE="-1" COMMENT="" />
    <EXPORT ORDINAL="2911" NAME="cveLSVMDetectorRelease" PURGE="0" COMMENT="" />
    <EXPORT ORDINAL="2912" NAME="cveLSVMGetClassCount" PURGE="-1" COMMENT="" />
    <EXPORT ORDINAL="2913" NAME="cveLSVMGetClassNames" PURGE="0" COMMENT="" />
    <EXPORT ORDINAL="2914" NAME="cveLUCIDCreate" PURGE="0" COMMENT="" />
    <EXPORT ORDINAL="2915" NAME="cveLUCIDRelease" PURGE="0" COMMENT="" />
    <EXPORT ORDINAL="2916" NAME="cveLUT" PURGE="0" COMMENT="" />
    <EXPORT ORDINAL="2917" NAME="cveLaplacian" PURGE="0" COMMENT="" />
    <EXPORT ORDINAL="2918" NAME="cveLine" PURGE="0" COMMENT="" />
    <EXPORT ORDINAL="2919" NAME="cveLinearIndexParamsCreate" PURGE="0" COMMENT="" />
    <EXPORT ORDINAL="2920" NAME="cveLinearIndexParamsRelease" PURGE="0" COMMENT="" />
    <EXPORT ORDINAL="2921" NAME="cveLinearPolar" PURGE="0" COMMENT="" />
    <EXPORT ORDINAL="2922" NAME="cveLog" PURGE="0" COMMENT="" />
    <EXPORT ORDINAL="2923" NAME="cveLogPolar" PURGE="0" COMMENT="" />
    <EXPORT ORDINAL="2924" NAME="cveLogisticRegressionCreate" PURGE="0" COMMENT="" />
    <EXPORT ORDINAL="2925" NAME="cveLogisticRegressionGetIterations" PURGE="-1" COMMENT="" />
    <EXPORT ORDINAL="2926" NAME="cveLogisticRegressionGetLearningRate" PURGE="-1" COMMENT="" />
    <EXPORT ORDINAL="2927" NAME="cveLogisticRegressionGetMiniBatchSize" PURGE="-1" COMMENT="" />
    <EXPORT ORDINAL="2928" NAME="cveLogisticRegressionGetTermCriteria" PURGE="0" COMMENT="" />
    <EXPORT ORDINAL="2929" NAME="cveLogisticRegressionGetTrainMethod" PURGE="-1" COMMENT="" />
    <EXPORT ORDINAL="2930" NAME="cveLogisticRegressionRelease" PURGE="0" COMMENT="" />
    <EXPORT ORDINAL="2931" NAME="cveLogisticRegressionSetIterations" PURGE="-1" COMMENT="" />
    <EXPORT ORDINAL="2932" NAME="cveLogisticRegressionSetLearningRate" PURGE="-1" COMMENT="" />
    <EXPORT ORDINAL="2933" NAME="cveLogisticRegressionSetMiniBatchSize" PURGE="-1" COMMENT="" />
    <EXPORT ORDINAL="2934" NAME="cveLogisticRegressionSetTermCriteria" PURGE="0" COMMENT="" />
    <EXPORT ORDINAL="2935" NAME="cveLogisticRegressionSetTrainMethod" PURGE="-1" COMMENT="" />
    <EXPORT ORDINAL="2936" NAME="cveLshIndexParamsCreate" PURGE="0" COMMENT="" />
    <EXPORT ORDINAL="2937" NAME="cveLshIndexParamsRelease" PURGE="0" COMMENT="" />
    <EXPORT ORDINAL="2938" NAME="cveMahalanobis" PURGE="0" COMMENT="" />
    <EXPORT ORDINAL="2939" NAME="cveMatAllocatorRelease" PURGE="0" COMMENT="" />
    <EXPORT ORDINAL="2940" NAME="cveMatConvertTo" PURGE="0" COMMENT="" />
    <EXPORT ORDINAL="2941" NAME="cveMatCopyTo" PURGE="0" COMMENT="" />
    <EXPORT ORDINAL="2942" NAME="cveMatCreate" PURGE="0" COMMENT="" />
    <EXPORT ORDINAL="2943" NAME="cveMatCreateData" PURGE="0" COMMENT="" />
    <EXPORT ORDINAL="2944" NAME="cveMatCreateFromRect" PURGE="0" COMMENT="" />
    <EXPORT ORDINAL="2945" NAME="cveMatCreateWithData" PURGE="0" COMMENT="" />
    <EXPORT ORDINAL="2946" NAME="cveMatCross" PURGE="0" COMMENT="" />
    <EXPORT ORDINAL="2947" NAME="cveMatDepth" PURGE="0" COMMENT="" />
    <EXPORT ORDINAL="2948" NAME="cveMatDot" PURGE="0" COMMENT="" />
    <EXPORT ORDINAL="2949" NAME="cveMatGetDataPointer" PURGE="0" COMMENT="" />
    <EXPORT ORDINAL="2950" NAME="cveMatGetElementSize" PURGE="0" COMMENT="" />
    <EXPORT ORDINAL="2951" NAME="cveMatGetSize" PURGE="0" COMMENT="" />
    <EXPORT ORDINAL="2952" NAME="cveMatGetStep" PURGE="0" COMMENT="" />
    <EXPORT ORDINAL="2953" NAME="cveMatIsContinuous" PURGE="0" COMMENT="" />
    <EXPORT ORDINAL="2954" NAME="cveMatIsEmpty" PURGE="0" COMMENT="" />
    <EXPORT ORDINAL="2955" NAME="cveMatIsSubmatrix" PURGE="0" COMMENT="" />
    <EXPORT ORDINAL="2956" NAME="cveMatNumberOfChannels" PURGE="0" COMMENT="" />
    <EXPORT ORDINAL="2957" NAME="cveMatPopBack" PURGE="0" COMMENT="" />
    <EXPORT ORDINAL="2958" NAME="cveMatPushBack" PURGE="0" COMMENT="" />
    <EXPORT ORDINAL="2959" NAME="cveMatRelease" PURGE="0" COMMENT="" />
    <EXPORT ORDINAL="2960" NAME="cveMatReshape" PURGE="0" COMMENT="" />
    <EXPORT ORDINAL="2961" NAME="cveMatToIplImage" PURGE="0" COMMENT="" />
    <EXPORT ORDINAL="2962" NAME="cveMatUseCustomAllocator" PURGE="0" COMMENT="" />
    <EXPORT ORDINAL="2963" NAME="cveMatchShapes" PURGE="0" COMMENT="" />
    <EXPORT ORDINAL="2964" NAME="cveMatchTemplate" PURGE="0" COMMENT="" />
    <EXPORT ORDINAL="2965" NAME="cveMax" PURGE="0" COMMENT="" />
    <EXPORT ORDINAL="2966" NAME="cveMaxRect" PURGE="0" COMMENT="" />
    <EXPORT ORDINAL="2967" NAME="cveMean" PURGE="0" COMMENT="" />
    <EXPORT ORDINAL="2968" NAME="cveMeanShift" PURGE="0" COMMENT="" />
    <EXPORT ORDINAL="2969" NAME="cveMeanStdDev" PURGE="0" COMMENT="" />
    <EXPORT ORDINAL="2970" NAME="cveMedianBlur" PURGE="0" COMMENT="" />
    <EXPORT ORDINAL="2971" NAME="cveMemcpy" PURGE="-1" COMMENT="" />
    <EXPORT ORDINAL="2972" NAME="cveMerge" PURGE="0" COMMENT="" />
    <EXPORT ORDINAL="2973" NAME="cveMergeDebevecRelease" PURGE="0" COMMENT="" />
    <EXPORT ORDINAL="2974" NAME="cveMergeExposuresProcess" PURGE="-1" COMMENT="" />
    <EXPORT ORDINAL="2975" NAME="cveMergeMertensRelease" PURGE="0" COMMENT="" />
    <EXPORT ORDINAL="2976" NAME="cveMergeRobertsonRelease" PURGE="0" COMMENT="" />
    <EXPORT ORDINAL="2977" NAME="cveMin" PURGE="0" COMMENT="" />
    <EXPORT ORDINAL="2978" NAME="cveMinAreaRect" PURGE="0" COMMENT="" />
    <EXPORT ORDINAL="2979" NAME="cveMinEnclosingCircle" PURGE="0" COMMENT="" />
    <EXPORT ORDINAL="2980" NAME="cveMinEnclosingTriangle" PURGE="0" COMMENT="" />
    <EXPORT ORDINAL="2981" NAME="cveMinMaxIdx" PURGE="0" COMMENT="" />
    <EXPORT ORDINAL="2982" NAME="cveMinMaxLoc" PURGE="0" COMMENT="" />
    <EXPORT ORDINAL="2983" NAME="cveMixChannels" PURGE="0" COMMENT="" />
    <EXPORT ORDINAL="2984" NAME="cveMoments" PURGE="0" COMMENT="" />
    <EXPORT ORDINAL="2985" NAME="cveMorphologyEx" PURGE="0" COMMENT="" />
    <EXPORT ORDINAL="2986" NAME="cveMserFeatureDetectorRelease" PURGE="0" COMMENT="" />
    <EXPORT ORDINAL="2987" NAME="cveMserGetFeatureDetector" PURGE="0" COMMENT="" />
    <EXPORT ORDINAL="2988" NAME="cveMulSpectrums" PURGE="0" COMMENT="" />
    <EXPORT ORDINAL="2989" NAME="cveMulTransposed" PURGE="0" COMMENT="" />
    <EXPORT ORDINAL="2990" NAME="cveMultiply" PURGE="0" COMMENT="" />
    <EXPORT ORDINAL="2991" NAME="cveNamedWindow" PURGE="0" COMMENT="" />
    <EXPORT ORDINAL="2992" NAME="cveNorm" PURGE="0" COMMENT="" />
    <EXPORT ORDINAL="2993" NAME="cveNormalize" PURGE="0" COMMENT="" />
    <EXPORT ORDINAL="2994" NAME="cveOclDeviceDeviceVersionMajor" PURGE="0" COMMENT="" />
    <EXPORT ORDINAL="2995" NAME="cveOclDeviceDeviceVersionMinor" PURGE="0" COMMENT="" />
    <EXPORT ORDINAL="2996" NAME="cveOclDeviceDoubleFPConfig" PURGE="0" COMMENT="" />
    <EXPORT ORDINAL="2997" NAME="cveOclDeviceDriverVersion" PURGE="0" COMMENT="" />
    <EXPORT ORDINAL="2998" NAME="cveOclDeviceExtensions" PURGE="0" COMMENT="" />
    <EXPORT ORDINAL="2999" NAME="cveOclDeviceGlobalMemSize" PURGE="0" COMMENT="" />
    <EXPORT ORDINAL="3000" NAME="cveOclDeviceHostUnifiedMemory" PURGE="0" COMMENT="" />
    <EXPORT ORDINAL="3001" NAME="cveOclDeviceImage2DMaxHeight" PURGE="0" COMMENT="" />
    <EXPORT ORDINAL="3002" NAME="cveOclDeviceImage2DMaxWidth" PURGE="0" COMMENT="" />
    <EXPORT ORDINAL="3003" NAME="cveOclDeviceLocalMemSize" PURGE="0" COMMENT="" />
    <EXPORT ORDINAL="3004" NAME="cveOclDeviceMaxComputeUnits" PURGE="0" COMMENT="" />
    <EXPORT ORDINAL="3005" NAME="cveOclDeviceMaxMemAllocSize" PURGE="0" COMMENT="" />
    <EXPORT ORDINAL="3006" NAME="cveOclDeviceMaxWorkGroupSize" PURGE="0" COMMENT="" />
    <EXPORT ORDINAL="3007" NAME="cveOclDeviceName" PURGE="0" COMMENT="" />
    <EXPORT ORDINAL="3008" NAME="cveOclDeviceOpenCLVersion" PURGE="0" COMMENT="" />
    <EXPORT ORDINAL="3009" NAME="cveOclDeviceType" PURGE="0" COMMENT="" />
    <EXPORT ORDINAL="3010" NAME="cveOclDeviceVendorName" PURGE="0" COMMENT="" />
    <EXPORT ORDINAL="3011" NAME="cveOclDeviceVersion" PURGE="0" COMMENT="" />
    <EXPORT ORDINAL="3012" NAME="cveOclFinish" PURGE="0" COMMENT="" />
    <EXPORT ORDINAL="3013" NAME="cveOclPlatformInfoDeviceNumber" PURGE="0" COMMENT="" />
    <EXPORT ORDINAL="3014" NAME="cveOclPlatformInfoName" PURGE="0" COMMENT="" />
    <EXPORT ORDINAL="3015" NAME="cveOclPlatformInfoVendor" PURGE="0" COMMENT="" />
    <EXPORT ORDINAL="3016" NAME="cveOclPlatformInfoVersion" PURGE="0" COMMENT="" />
    <EXPORT ORDINAL="3017" NAME="cveOrbDetectorCreate" PURGE="0" COMMENT="" />
    <EXPORT ORDINAL="3018" NAME="cveOrbDetectorRelease" PURGE="0" COMMENT="" />
    <EXPORT ORDINAL="3019" NAME="cveOrbFeaturesFinderCreate" PURGE="0" COMMENT="" />
    <EXPORT ORDINAL="3020" NAME="cveOrbFeaturesFinderRelease" PURGE="0" COMMENT="" />
    <EXPORT ORDINAL="3021" NAME="cveOutputArrayFixedSize" PURGE="0" COMMENT="" />
    <EXPORT ORDINAL="3022" NAME="cveOutputArrayFixedType" PURGE="0" COMMENT="" />
    <EXPORT ORDINAL="3023" NAME="cveOutputArrayFromGpuMat" PURGE="0" COMMENT="" />
    <EXPORT ORDINAL="3024" NAME="cveOutputArrayFromMat" PURGE="0" COMMENT="" />
    <EXPORT ORDINAL="3025" NAME="cveOutputArrayFromUMat" PURGE="0" COMMENT="" />
    <EXPORT ORDINAL="3026" NAME="cveOutputArrayNeeded" PURGE="0" COMMENT="" />
    <EXPORT ORDINAL="3027" NAME="cveOutputArrayRelease" PURGE="0" COMMENT="" />
    <EXPORT ORDINAL="3028" NAME="cvePCABackProject" PURGE="0" COMMENT="" />
    <EXPORT ORDINAL="3029" NAME="cvePCACompute1" PURGE="0" COMMENT="" />
    <EXPORT ORDINAL="3030" NAME="cvePCACompute2" PURGE="0" COMMENT="" />
    <EXPORT ORDINAL="3031" NAME="cvePCAProject" PURGE="0" COMMENT="" />
    <EXPORT ORDINAL="3032" NAME="cvePSNR" PURGE="0" COMMENT="" />
    <EXPORT ORDINAL="3033" NAME="cvePencilSketch" PURGE="0" COMMENT="" />
    <EXPORT ORDINAL="3034" NAME="cvePerspectiveTransform" PURGE="0" COMMENT="" />
    <EXPORT ORDINAL="3035" NAME="cvePhaseCorrelate" PURGE="0" COMMENT="" />
    <EXPORT ORDINAL="3036" NAME="cvePointPolygonTest" PURGE="0" COMMENT="" />
    <EXPORT ORDINAL="3037" NAME="cvePolarToCart" PURGE="0" COMMENT="" />
    <EXPORT ORDINAL="3038" NAME="cvePolylines" PURGE="0" COMMENT="" />
    <EXPORT ORDINAL="3039" NAME="cvePow" PURGE="0" COMMENT="" />
    <EXPORT ORDINAL="3040" NAME="cveProjectPoints" PURGE="0" COMMENT="" />
    <EXPORT ORDINAL="3041" NAME="cvePutText" PURGE="0" COMMENT="" />
    <EXPORT ORDINAL="3042" NAME="cvePyrDown" PURGE="0" COMMENT="" />
    <EXPORT ORDINAL="3043" NAME="cvePyrMeanShiftFiltering" PURGE="0" COMMENT="" />
    <EXPORT ORDINAL="3044" NAME="cvePyrUp" PURGE="0" COMMENT="" />
    <EXPORT ORDINAL="3045" NAME="cveRTreesCreate" PURGE="0" COMMENT="" />
    <EXPORT ORDINAL="3046" NAME="cveRTreesGetActiveVarCount" PURGE="-1" COMMENT="" />
    <EXPORT ORDINAL="3047" NAME="cveRTreesGetCVFolds" PURGE="-1" COMMENT="" />
    <EXPORT ORDINAL="3048" NAME="cveRTreesGetCalculateVarImportance" PURGE="-1" COMMENT="" />
    <EXPORT ORDINAL="3049" NAME="cveRTreesGetMaxCategories" PURGE="-1" COMMENT="" />
    <EXPORT ORDINAL="3050" NAME="cveRTreesGetMaxDepth" PURGE="-1" COMMENT="" />
    <EXPORT ORDINAL="3051" NAME="cveRTreesGetMinSampleCount" PURGE="-1" COMMENT="" />
    <EXPORT ORDINAL="3052" NAME="cveRTreesGetRegressionAccuracy" PURGE="-1" COMMENT="" />
    <EXPORT ORDINAL="3053" NAME="cveRTreesGetTermCriteria" PURGE="0" COMMENT="" />
    <EXPORT ORDINAL="3054" NAME="cveRTreesGetTruncatePrunedTree" PURGE="-1" COMMENT="" />
    <EXPORT ORDINAL="3055" NAME="cveRTreesGetUse1SERule" PURGE="-1" COMMENT="" />
    <EXPORT ORDINAL="3056" NAME="cveRTreesGetUseSurrogates" PURGE="-1" COMMENT="" />
    <EXPORT ORDINAL="3057" NAME="cveRTreesRelease" PURGE="0" COMMENT="" />
    <EXPORT ORDINAL="3058" NAME="cveRTreesSetActiveVarCount" PURGE="-1" COMMENT="" />
    <EXPORT ORDINAL="3059" NAME="cveRTreesSetCVFolds" PURGE="-1" COMMENT="" />
    <EXPORT ORDINAL="3060" NAME="cveRTreesSetCalculateVarImportance" PURGE="-1" COMMENT="" />
    <EXPORT ORDINAL="3061" NAME="cveRTreesSetMaxCategories" PURGE="-1" COMMENT="" />
    <EXPORT ORDINAL="3062" NAME="cveRTreesSetMaxDepth" PURGE="-1" COMMENT="" />
    <EXPORT ORDINAL="3063" NAME="cveRTreesSetMinSampleCount" PURGE="-1" COMMENT="" />
    <EXPORT ORDINAL="3064" NAME="cveRTreesSetRegressionAccuracy" PURGE="-1" COMMENT="" />
    <EXPORT ORDINAL="3065" NAME="cveRTreesSetTermCriteria" PURGE="0" COMMENT="" />
    <EXPORT ORDINAL="3066" NAME="cveRTreesSetTruncatePrunedTree" PURGE="-1" COMMENT="" />
    <EXPORT ORDINAL="3067" NAME="cveRTreesSetUse1SERule" PURGE="-1" COMMENT="" />
    <EXPORT ORDINAL="3068" NAME="cveRTreesSetUseSurrogates" PURGE="-1" COMMENT="" />
    <EXPORT ORDINAL="3069" NAME="cveRandShuffle" PURGE="0" COMMENT="" />
    <EXPORT ORDINAL="3070" NAME="cveRandn" PURGE="0" COMMENT="" />
    <EXPORT ORDINAL="3071" NAME="cveRandu" PURGE="0" COMMENT="" />
    <EXPORT ORDINAL="3072" NAME="cveRange" PURGE="0" COMMENT="" />
    <EXPORT ORDINAL="3073" NAME="cveRectangle" PURGE="0" COMMENT="" />
    <EXPORT ORDINAL="3074" NAME="cveRedirectError" PURGE="0" COMMENT="" />
    <EXPORT ORDINAL="3075" NAME="cveReduce" PURGE="0" COMMENT="" />
    <EXPORT ORDINAL="3076" NAME="cveReleaseImage" PURGE="0" COMMENT="" />
    <EXPORT ORDINAL="3077" NAME="cveReleaseImageHeader" PURGE="0" COMMENT="" />
    <EXPORT ORDINAL="3078" NAME="cveReleaseMat" PURGE="0" COMMENT="" />
    <EXPORT ORDINAL="3079" NAME="cveReleaseSparseMat" PURGE="0" COMMENT="" />
    <EXPORT ORDINAL="3080" NAME="cveRemap" PURGE="0" COMMENT="" />
    <EXPORT ORDINAL="3081" NAME="cveRepeat" PURGE="0" COMMENT="" />
    <EXPORT ORDINAL="3082" NAME="cveReprojectImageTo3D" PURGE="0" COMMENT="" />
    <EXPORT ORDINAL="3083" NAME="cveResetImageROI" PURGE="0" COMMENT="" />
    <EXPORT ORDINAL="3084" NAME="cveReshape" PURGE="0" COMMENT="" />
    <EXPORT ORDINAL="3085" NAME="cveResize" PURGE="0" COMMENT="" />
    <EXPORT ORDINAL="3086" NAME="cveRodrigues" PURGE="0" COMMENT="" />
    <EXPORT ORDINAL="3087" NAME="cveRotatedRectangleIntersection" PURGE="0" COMMENT="" />
    <EXPORT ORDINAL="3088" NAME="cveSIFTCreate" PURGE="0" COMMENT="" />
    <EXPORT ORDINAL="3089" NAME="cveSIFTRelease" PURGE="0" COMMENT="" />
    <EXPORT ORDINAL="3090" NAME="cveSURFCreate" PURGE="0" COMMENT="" />
    <EXPORT ORDINAL="3091" NAME="cveSURFRelease" PURGE="0" COMMENT="" />
    <EXPORT ORDINAL="3092" NAME="cveSVBackSubst" PURGE="0" COMMENT="" />
    <EXPORT ORDINAL="3093" NAME="cveSVDecomp" PURGE="0" COMMENT="" />
    <EXPORT ORDINAL="3094" NAME="cveSVMGetC" PURGE="-1" COMMENT="" />
    <EXPORT ORDINAL="3095" NAME="cveSVMGetCoef0" PURGE="-1" COMMENT="" />
    <EXPORT ORDINAL="3096" NAME="cveSVMGetDegree" PURGE="-1" COMMENT="" />
    <EXPORT ORDINAL="3097" NAME="cveSVMGetGamma" PURGE="-1" COMMENT="" />
    <EXPORT ORDINAL="3098" NAME="cveSVMGetKernelType" PURGE="-1" COMMENT="" />
    <EXPORT ORDINAL="3099" NAME="cveSVMGetNu" PURGE="-1" COMMENT="" />
    <EXPORT ORDINAL="3100" NAME="cveSVMGetP" PURGE="-1" COMMENT="" />
    <EXPORT ORDINAL="3101" NAME="cveSVMGetTermCriteria" PURGE="0" COMMENT="" />
    <EXPORT ORDINAL="3102" NAME="cveSVMGetType" PURGE="-1" COMMENT="" />
    <EXPORT ORDINAL="3103" NAME="cveSVMSetC" PURGE="-1" COMMENT="" />
    <EXPORT ORDINAL="3104" NAME="cveSVMSetCoef0" PURGE="-1" COMMENT="" />
    <EXPORT ORDINAL="3105" NAME="cveSVMSetDegree" PURGE="-1" COMMENT="" />
    <EXPORT ORDINAL="3106" NAME="cveSVMSetGamma" PURGE="-1" COMMENT="" />
    <EXPORT ORDINAL="3107" NAME="cveSVMSetKernel" PURGE="-1" COMMENT="" />
    <EXPORT ORDINAL="3108" NAME="cveSVMSetNu" PURGE="-1" COMMENT="" />
    <EXPORT ORDINAL="3109" NAME="cveSVMSetP" PURGE="-1" COMMENT="" />
    <EXPORT ORDINAL="3110" NAME="cveSVMSetTermCriteria" PURGE="0" COMMENT="" />
    <EXPORT ORDINAL="3111" NAME="cveSVMSetType" PURGE="-1" COMMENT="" />
    <EXPORT ORDINAL="3112" NAME="cveSampleLine" PURGE="0" COMMENT="" />
    <EXPORT ORDINAL="3113" NAME="cveScalarCreate" PURGE="0" COMMENT="" />
    <EXPORT ORDINAL="3114" NAME="cveScalarRelease" PURGE="0" COMMENT="" />
    <EXPORT ORDINAL="3115" NAME="cveSearchParamsCreate" PURGE="0" COMMENT="" />
    <EXPORT ORDINAL="3116" NAME="cveSearchParamsRelease" PURGE="0" COMMENT="" />
    <EXPORT ORDINAL="3117" NAME="cveSegmentMotion" PURGE="0" COMMENT="" />
    <EXPORT ORDINAL="3118" NAME="cveSet2D" PURGE="0" COMMENT="" />
    <EXPORT ORDINAL="3119" NAME="cveSetData" PURGE="0" COMMENT="" />
    <EXPORT ORDINAL="3120" NAME="cveSetErrMode" PURGE="0" COMMENT="" />
    <EXPORT ORDINAL="3121" NAME="cveSetErrStatus" PURGE="0" COMMENT="" />
    <EXPORT ORDINAL="3122" NAME="cveSetIdentity" PURGE="0" COMMENT="" />
    <EXPORT ORDINAL="3123" NAME="cveSetImageCOI" PURGE="0" COMMENT="" />
    <EXPORT ORDINAL="3124" NAME="cveSetImageROI" PURGE="0" COMMENT="" />
    <EXPORT ORDINAL="3125" NAME="cveSetNumThreads" PURGE="0" COMMENT="" />
    <EXPORT ORDINAL="3126" NAME="cveSetReal1D" PURGE="0" COMMENT="" />
    <EXPORT ORDINAL="3127" NAME="cveSetReal2D" PURGE="0" COMMENT="" />
    <EXPORT ORDINAL="3128" NAME="cveSetReal3D" PURGE="0" COMMENT="" />
    <EXPORT ORDINAL="3129" NAME="cveSetRealND" PURGE="0" COMMENT="" />
    <EXPORT ORDINAL="3130" NAME="cveSetUseOpenCL" PURGE="0" COMMENT="" />
    <EXPORT ORDINAL="3131" NAME="cveSetUseOptimized" PURGE="0" COMMENT="" />
    <EXPORT ORDINAL="3132" NAME="cveSimpleBlobDetectorCreate" PURGE="0" COMMENT="" />
    <EXPORT ORDINAL="3133" NAME="cveSimpleBlobDetectorRelease" PURGE="0" COMMENT="" />
    <EXPORT ORDINAL="3134" NAME="cveSobel" PURGE="0" COMMENT="" />
    <EXPORT ORDINAL="3135" NAME="cveSolve" PURGE="0" COMMENT="" />
    <EXPORT ORDINAL="3136" NAME="cveSolveCubic" PURGE="0" COMMENT="" />
    <EXPORT ORDINAL="3137" NAME="cveSolveLP" PURGE="0" COMMENT="" />
    <EXPORT ORDINAL="3138" NAME="cveSolvePnP" PURGE="0" COMMENT="" />
    <EXPORT ORDINAL="3139" NAME="cveSolvePnPRansac" PURGE="0" COMMENT="" />
    <EXPORT ORDINAL="3140" NAME="cveSolvePoly" PURGE="0" COMMENT="" />
    <EXPORT ORDINAL="3141" NAME="cveSplit" PURGE="0" COMMENT="" />
    <EXPORT ORDINAL="3142" NAME="cveSqrt" PURGE="0" COMMENT="" />
    <EXPORT ORDINAL="3143" NAME="cveStarDetectorCreate" PURGE="0" COMMENT="" />
    <EXPORT ORDINAL="3144" NAME="cveStarDetectorRelease" PURGE="0" COMMENT="" />
    <EXPORT ORDINAL="3145" NAME="cveStereoCalibrate" PURGE="0" COMMENT="" />
    <EXPORT ORDINAL="3146" NAME="cveStereoRectify" PURGE="0" COMMENT="" />
    <EXPORT ORDINAL="3147" NAME="cveStereoRectifyUncalibrated" PURGE="0" COMMENT="" />
    <EXPORT ORDINAL="3148" NAME="cveStringCreate" PURGE="0" COMMENT="" />
    <EXPORT ORDINAL="3149" NAME="cveStringCreateFromStr" PURGE="0" COMMENT="" />
    <EXPORT ORDINAL="3150" NAME="cveStringGetCStr" PURGE="0" COMMENT="" />
    <EXPORT ORDINAL="3151" NAME="cveStringGetLength" PURGE="0" COMMENT="" />
    <EXPORT ORDINAL="3152" NAME="cveStringRelease" PURGE="0" COMMENT="" />
    <EXPORT ORDINAL="3153" NAME="cveStylization" PURGE="0" COMMENT="" />
    <EXPORT ORDINAL="3154" NAME="cveSubdiv2DCreate" PURGE="0" COMMENT="" />
    <EXPORT ORDINAL="3155" NAME="cveSubdiv2DFindNearest" PURGE="0" COMMENT="" />
    <EXPORT ORDINAL="3156" NAME="cveSubdiv2DGetTriangleList" PURGE="0" COMMENT="" />
    <EXPORT ORDINAL="3157" NAME="cveSubdiv2DGetVoronoiFacetList" PURGE="0" COMMENT="" />
    <EXPORT ORDINAL="3158" NAME="cveSubdiv2DInsertMulti" PURGE="0" COMMENT="" />
    <EXPORT ORDINAL="3159" NAME="cveSubdiv2DInsertSingle" PURGE="0" COMMENT="" />
    <EXPORT ORDINAL="3160" NAME="cveSubdiv2DLocate" PURGE="0" COMMENT="" />
    <EXPORT ORDINAL="3161" NAME="cveSubdiv2DRelease" PURGE="0" COMMENT="" />
    <EXPORT ORDINAL="3162" NAME="cveSubtract" PURGE="0" COMMENT="" />
    <EXPORT ORDINAL="3163" NAME="cveSum" PURGE="0" COMMENT="" />
    <EXPORT ORDINAL="3164" NAME="cveTextureFlattening" PURGE="0" COMMENT="" />
    <EXPORT ORDINAL="3165" NAME="cveThreshold" PURGE="0" COMMENT="" />
    <EXPORT ORDINAL="3166" NAME="cveTrace" PURGE="0" COMMENT="" />
    <EXPORT ORDINAL="3167" NAME="cveTrainDataCreate" PURGE="0" COMMENT="" />
    <EXPORT ORDINAL="3168" NAME="cveTrainDataRelease" PURGE="0" COMMENT="" />
    <EXPORT ORDINAL="3169" NAME="cveTransform" PURGE="0" COMMENT="" />
    <EXPORT ORDINAL="3170" NAME="cveTranspose" PURGE="0" COMMENT="" />
    <EXPORT ORDINAL="3171" NAME="cveTriangulatePoints" PURGE="0" COMMENT="" />
    <EXPORT ORDINAL="3172" NAME="cveUMatConvertTo" PURGE="0" COMMENT="" />
    <EXPORT ORDINAL="3173" NAME="cveUMatCopyTo" PURGE="0" COMMENT="" />
    <EXPORT ORDINAL="3174" NAME="cveUMatCreate" PURGE="0" COMMENT="" />
    <EXPORT ORDINAL="3175" NAME="cveUMatCreateData" PURGE="0" COMMENT="" />
    <EXPORT ORDINAL="3176" NAME="cveUMatCreateFromROI" PURGE="0" COMMENT="" />
    <EXPORT ORDINAL="3177" NAME="cveUMatDepth" PURGE="0" COMMENT="" />
    <EXPORT ORDINAL="3178" NAME="cveUMatGetElementSize" PURGE="0" COMMENT="" />
    <EXPORT ORDINAL="3179" NAME="cveUMatGetMat" PURGE="0" COMMENT="" />
    <EXPORT ORDINAL="3180" NAME="cveUMatGetSize" PURGE="0" COMMENT="" />
    <EXPORT ORDINAL="3181" NAME="cveUMatIsContinuous" PURGE="0" COMMENT="" />
    <EXPORT ORDINAL="3182" NAME="cveUMatIsEmpty" PURGE="0" COMMENT="" />
    <EXPORT ORDINAL="3183" NAME="cveUMatIsSubmatrix" PURGE="0" COMMENT="" />
    <EXPORT ORDINAL="3184" NAME="cveUMatNumberOfChannels" PURGE="0" COMMENT="" />
    <EXPORT ORDINAL="3185" NAME="cveUMatRelease" PURGE="0" COMMENT="" />
    <EXPORT ORDINAL="3186" NAME="cveUMatReshape" PURGE="0" COMMENT="" />
    <EXPORT ORDINAL="3187" NAME="cveUMatSetTo" PURGE="0" COMMENT="" />
    <EXPORT ORDINAL="3188" NAME="cveUMatUseCustomAllocator" PURGE="0" COMMENT="" />
    <EXPORT ORDINAL="3189" NAME="cveUndistort" PURGE="0" COMMENT="" />
    <EXPORT ORDINAL="3190" NAME="cveUndistortPoints" PURGE="0" COMMENT="" />
    <EXPORT ORDINAL="3191" NAME="cveUpdateMotionHistory" PURGE="0" COMMENT="" />
    <EXPORT ORDINAL="3192" NAME="cveUseOpenCL" PURGE="0" COMMENT="" />
    <EXPORT ORDINAL="3193" NAME="cveUseOptimized" PURGE="0" COMMENT="" />
    <EXPORT ORDINAL="3194" NAME="cveVConcat" PURGE="0" COMMENT="" />
    <EXPORT ORDINAL="3195" NAME="cveVideoCaptureCreateFromDevice" PURGE="0" COMMENT="" />
    <EXPORT ORDINAL="3196" NAME="cveVideoCaptureCreateFromFile" PURGE="0" COMMENT="" />
    <EXPORT ORDINAL="3197" NAME="cveVideoCaptureGet" PURGE="-1" COMMENT="" />
    <EXPORT ORDINAL="3198" NAME="cveVideoCaptureGrab" PURGE="-1" COMMENT="" />
    <EXPORT ORDINAL="3199" NAME="cveVideoCaptureRead" PURGE="-1" COMMENT="" />
    <EXPORT ORDINAL="3200" NAME="cveVideoCaptureRelease" PURGE="0" COMMENT="" />
    <EXPORT ORDINAL="3201" NAME="cveVideoCaptureRetrieve" PURGE="-1" COMMENT="" />
    <EXPORT ORDINAL="3202" NAME="cveVideoCaptureSet" PURGE="-1" COMMENT="" />
    <EXPORT ORDINAL="3203" NAME="cveVideoWriterCreate" PURGE="0" COMMENT="" />
    <EXPORT ORDINAL="3204" NAME="cveVideoWriterFourcc" PURGE="0" COMMENT="" />
    <EXPORT ORDINAL="3205" NAME="cveVideoWriterRelease" PURGE="0" COMMENT="" />
    <EXPORT ORDINAL="3206" NAME="cveVideoWriterWrite" PURGE="-1" COMMENT="" />
    <EXPORT ORDINAL="3207" NAME="cveWaitKey" PURGE="0" COMMENT="" />
    <EXPORT ORDINAL="3208" NAME="cveWarpAffine" PURGE="0" COMMENT="" />
    <EXPORT ORDINAL="3209" NAME="cveWarpPerspective" PURGE="0" COMMENT="" />
    <EXPORT ORDINAL="3210" NAME="cveWatershed" PURGE="0" COMMENT="" />
    <EXPORT ORDINAL="3211" NAME="drawKeypoints" PURGE="0" COMMENT="" />
    <EXPORT ORDINAL="3212" NAME="drawMatchedFeatures" PURGE="0" COMMENT="" />
    <EXPORT ORDINAL="3213" NAME="emguMatAllocatorCreate" PURGE="0" COMMENT="" />
    <EXPORT ORDINAL="3214" NAME="eulerToQuaternions" PURGE="0" COMMENT="" />
    <EXPORT ORDINAL="3215" NAME="getHomographyMatrixFromMatchedFeatures" PURGE="0" COMMENT="" />
    <EXPORT ORDINAL="3216" NAME="gpuMatConvertTo" PURGE="0" COMMENT="" />
    <EXPORT ORDINAL="3217" NAME="gpuMatCopyTo" PURGE="0" COMMENT="" />
    <EXPORT ORDINAL="3218" NAME="gpuMatCreate" PURGE="0" COMMENT="" />
    <EXPORT ORDINAL="3219" NAME="gpuMatCreateContinuous" PURGE="0" COMMENT="" />
    <EXPORT ORDINAL="3220" NAME="gpuMatCreateDefault" PURGE="0" COMMENT="" />
    <EXPORT ORDINAL="3221" NAME="gpuMatCreateFromInputArray" PURGE="0" COMMENT="" />
    <EXPORT ORDINAL="3222" NAME="gpuMatDownload" PURGE="0" COMMENT="" />
    <EXPORT ORDINAL="3223" NAME="gpuMatGetChannels" PURGE="0" COMMENT="" />
    <EXPORT ORDINAL="3224" NAME="gpuMatGetDepth" PURGE="0" COMMENT="" />
    <EXPORT ORDINAL="3225" NAME="gpuMatGetRegion" PURGE="0" COMMENT="" />
    <EXPORT ORDINAL="3226" NAME="gpuMatGetSize" PURGE="0" COMMENT="" />
    <EXPORT ORDINAL="3227" NAME="gpuMatGetSubRect" PURGE="0" COMMENT="" />
    <EXPORT ORDINAL="3228" NAME="gpuMatGetType" PURGE="0" COMMENT="" />
    <EXPORT ORDINAL="3229" NAME="gpuMatIsContinuous" PURGE="0" COMMENT="" />
    <EXPORT ORDINAL="3230" NAME="gpuMatIsEmpty" PURGE="0" COMMENT="" />
    <EXPORT ORDINAL="3231" NAME="gpuMatRelease" PURGE="0" COMMENT="" />
    <EXPORT ORDINAL="3232" NAME="gpuMatReshape" PURGE="0" COMMENT="" />
    <EXPORT ORDINAL="3233" NAME="gpuMatSetTo" PURGE="0" COMMENT="" />
    <EXPORT ORDINAL="3234" NAME="gpuMatUpload" PURGE="0" COMMENT="" />
    <EXPORT ORDINAL="3235" NAME="leptCreatePixFromMat" PURGE="0" COMMENT="" />
    <EXPORT ORDINAL="3236" NAME="log2" PURGE="0" COMMENT="" />
    <EXPORT ORDINAL="3237" NAME="oclDeviceCreate" PURGE="0" COMMENT="" />
    <EXPORT ORDINAL="3238" NAME="oclDeviceRelease" PURGE="0" COMMENT="" />
    <EXPORT ORDINAL="3239" NAME="oclGetPlatformsInfo" PURGE="0" COMMENT="" />
    <EXPORT ORDINAL="3240" NAME="oclPlatformInfoDeviceNumber" PURGE="0" COMMENT="" />
    <EXPORT ORDINAL="3241" NAME="oclPlatformInfoGetDevice" PURGE="0" COMMENT="" />
    <EXPORT ORDINAL="3242" NAME="oclPlatformInfoGetName" PURGE="0" COMMENT="" />
    <EXPORT ORDINAL="3243" NAME="oclPlatformInfoGetVender" PURGE="0" COMMENT="" />
    <EXPORT ORDINAL="3244" NAME="oclPlatformInfoGetVersion" PURGE="0" COMMENT="" />
    <EXPORT ORDINAL="3245" NAME="oclPlatformInfoRelease" PURGE="0" COMMENT="" />
    <EXPORT ORDINAL="3246" NAME="pointToPlane3DSignedDistance" PURGE="0" COMMENT="" />
    <EXPORT ORDINAL="3247" NAME="quaternionsMultiply" PURGE="0" COMMENT="" />
    <EXPORT ORDINAL="3248" NAME="quaternionsRenorm" PURGE="0" COMMENT="" />
    <EXPORT ORDINAL="3249" NAME="quaternionsRotatePoint" PURGE="0" COMMENT="" />
    <EXPORT ORDINAL="3250" NAME="quaternionsRotatePoints" PURGE="0" COMMENT="" />
    <EXPORT ORDINAL="3251" NAME="quaternionsSlerp" PURGE="0" COMMENT="" />
    <EXPORT ORDINAL="3252" NAME="quaternionsToAxisAngle" PURGE="0" COMMENT="" />
    <EXPORT ORDINAL="3253" NAME="quaternionsToEuler" PURGE="0" COMMENT="" />
    <EXPORT ORDINAL="3254" NAME="quaternionsToRotationMatrix" PURGE="0" COMMENT="" />
    <EXPORT ORDINAL="3255" NAME="setEdge3D" PURGE="0" COMMENT="" />
    <EXPORT ORDINAL="3256" NAME="setPlane3D" PURGE="0" COMMENT="" />
    <EXPORT ORDINAL="3257" NAME="streamCreate" PURGE="0" COMMENT="" />
    <EXPORT ORDINAL="3258" NAME="streamQueryIfComplete" PURGE="0" COMMENT="" />
    <EXPORT ORDINAL="3259" NAME="streamRelease" PURGE="0" COMMENT="" />
    <EXPORT ORDINAL="3260" NAME="streamWaitForCompletion" PURGE="0" COMMENT="" />
    <EXPORT ORDINAL="3261" NAME="targetArchsBuildWith" PURGE="0" COMMENT="" />
    <EXPORT ORDINAL="3262" NAME="targetArchsHas" PURGE="0" COMMENT="" />
    <EXPORT ORDINAL="3263" NAME="targetArchsHasBin" PURGE="0" COMMENT="" />
    <EXPORT ORDINAL="3264" NAME="targetArchsHasEqualOrGreater" PURGE="0" COMMENT="" />
    <EXPORT ORDINAL="3265" NAME="targetArchsHasEqualOrGreaterBin" PURGE="0" COMMENT="" />
    <EXPORT ORDINAL="3266" NAME="targetArchsHasEqualOrGreaterPtx" PURGE="0" COMMENT="" />
    <EXPORT ORDINAL="3267" NAME="targetArchsHasEqualOrLessPtx" PURGE="0" COMMENT="" />
    <EXPORT ORDINAL="3268" NAME="targetArchsHasPtx" PURGE="0" COMMENT="" />
    <EXPORT ORDINAL="3269" NAME="tbbTaskSchedulerInit" PURGE="0" COMMENT="" />
    <EXPORT ORDINAL="3270" NAME="tbbTaskSchedulerRelease" PURGE="0" COMMENT="" />
    <EXPORT ORDINAL="3271" NAME="testDrawLine" PURGE="0" COMMENT="" />
    <EXPORT ORDINAL="3272" NAME="tiffTileRowSize" PURGE="0" COMMENT="" />
    <EXPORT ORDINAL="3273" NAME="tiffTileSize" PURGE="0" COMMENT="" />
    <EXPORT ORDINAL="3274" NAME="tiffWriteGeoTag" PURGE="0" COMMENT="" />
    <EXPORT ORDINAL="3275" NAME="tiffWriteImage" PURGE="0" COMMENT="" />
    <EXPORT ORDINAL="3276" NAME="tiffWriteImageInfo" PURGE="0" COMMENT="" />
    <EXPORT ORDINAL="3277" NAME="tiffWriteImageSize" PURGE="0" COMMENT="" />
    <EXPORT ORDINAL="3278" NAME="tiffWriteTile" PURGE="0" COMMENT="" />
    <EXPORT ORDINAL="3279" NAME="tiffWriteTileInfo" PURGE="0" COMMENT="" />
    <EXPORT ORDINAL="3280" NAME="tiffWriterClose" PURGE="0" COMMENT="" />
    <EXPORT ORDINAL="3281" NAME="tiffWriterOpen" PURGE="0" COMMENT="" />
    <EXPORT ORDINAL="3282" NAME="voteForSizeAndOrientation" PURGE="0" COMMENT="" />
    <EXPORT ORDINAL="3283" NAME="zlib_compress2" PURGE="0" COMMENT="" />
    <EXPORT ORDINAL="3284" NAME="zlib_compress_bound" PURGE="0" COMMENT="" />
    <EXPORT ORDINAL="3285" NAME="zlib_uncompress" PURGE="0" COMMENT="" />
</LIBRARY>

