<?xml version="1.0" encoding="UTF-8"?>
<LIBRARY NAME="icuin53.dll" PATH="/DLLArchive/etc/icuin53.dll" DATE="Sun Mar 01 07:51:38 CET 2015" VERSION="53, 1, 0, 0">
    <EXPORT ORDINAL="1" NAME="??0?$EnumSet@W4UDateFormatBooleanAttribute@@$0A@$03@icu_53@@QEAA@AEBV01@@Z" PURGE="0" COMMENT="" />
    <EXPORT ORDINAL="2" NAME="??0?$EnumSet@W4UDateFormatBooleanAttribute@@$0A@$03@icu_53@@QEAA@XZ" PURGE="0" COMMENT="" />
    <EXPORT ORDINAL="3" NAME="??0?$EnumSet@W4UNumberFormatAttribute@@$0BAAA@$0BAAC@@icu_53@@QEAA@AEBV01@@Z" PURGE="0" COMMENT="" />
    <EXPORT ORDINAL="4" NAME="??0?$EnumSet@W4UNumberFormatAttribute@@$0BAAA@$0BAAC@@icu_53@@QEAA@XZ" PURGE="0" COMMENT="" />
    <EXPORT ORDINAL="5" NAME="??0?$MaybeStackHeaderAndArray@UdecNumber@@D$0CI@@icu_53@@AEAA@AEBV01@@Z" PURGE="0" COMMENT="" />
    <EXPORT ORDINAL="6" NAME="??0?$MaybeStackHeaderAndArray@UdecNumber@@D$0CI@@icu_53@@QEAA@XZ" PURGE="0" COMMENT="" />
    <EXPORT ORDINAL="7" NAME="??0AlphabeticIndex@icu_53@@QEAA@AEBVLocale@1@AEAW4UErrorCode@@@Z" PURGE="0" COMMENT="" />
    <EXPORT ORDINAL="8" NAME="??0AlphabeticIndex@icu_53@@QEAA@PEAVRuleBasedCollator@1@AEAW4UErrorCode@@@Z" PURGE="0" COMMENT="" />
    <EXPORT ORDINAL="9" NAME="??0AnnualTimeZoneRule@icu_53@@QEAA@AEBV01@@Z" PURGE="0" COMMENT="" />
    <EXPORT ORDINAL="10" NAME="??0AnnualTimeZoneRule@icu_53@@QEAA@AEBVUnicodeString@1@HHAEBVDateTimeRule@1@HH@Z" PURGE="0" COMMENT="" />
    <EXPORT ORDINAL="11" NAME="??0AnnualTimeZoneRule@icu_53@@QEAA@AEBVUnicodeString@1@HHPEAVDateTimeRule@1@HH@Z" PURGE="0" COMMENT="" />
    <EXPORT ORDINAL="12" NAME="??0BasicTimeZone@icu_53@@IEAA@AEBV01@@Z" PURGE="0" COMMENT="" />
    <EXPORT ORDINAL="13" NAME="??0BasicTimeZone@icu_53@@IEAA@AEBVUnicodeString@1@@Z" PURGE="0" COMMENT="" />
    <EXPORT ORDINAL="14" NAME="??0BasicTimeZone@icu_53@@IEAA@XZ" PURGE="0" COMMENT="" />
    <EXPORT ORDINAL="15" NAME="??0Bucket@AlphabeticIndex@icu_53@@AEAA@AEBVUnicodeString@2@0W4UAlphabeticIndexLabelType@@@Z" PURGE="0" COMMENT="" />
    <EXPORT ORDINAL="16" NAME="??0Bucket@AlphabeticIndex@icu_53@@QEAA@AEBV012@@Z" PURGE="0" COMMENT="" />
    <EXPORT ORDINAL="17" NAME="??0CECalendar@icu_53@@IEAA@AEBV01@@Z" PURGE="0" COMMENT="" />
    <EXPORT ORDINAL="18" NAME="??0CECalendar@icu_53@@IEAA@AEBVLocale@1@AEAW4UErrorCode@@@Z" PURGE="0" COMMENT="" />
    <EXPORT ORDINAL="19" NAME="??0Calendar@icu_53@@IEAA@AEAW4UErrorCode@@@Z" PURGE="0" COMMENT="" />
    <EXPORT ORDINAL="20" NAME="??0Calendar@icu_53@@IEAA@AEBV01@@Z" PURGE="0" COMMENT="" />
    <EXPORT ORDINAL="21" NAME="??0Calendar@icu_53@@IEAA@AEBVTimeZone@1@AEBVLocale@1@AEAW4UErrorCode@@@Z" PURGE="0" COMMENT="" />
    <EXPORT ORDINAL="22" NAME="??0Calendar@icu_53@@IEAA@PEAVTimeZone@1@AEBVLocale@1@AEAW4UErrorCode@@@Z" PURGE="0" COMMENT="" />
    <EXPORT ORDINAL="23" NAME="??0CalendarAstronomer@icu_53@@QEAA@N@Z" PURGE="0" COMMENT="" />
    <EXPORT ORDINAL="24" NAME="??0CalendarAstronomer@icu_53@@QEAA@NN@Z" PURGE="0" COMMENT="" />
    <EXPORT ORDINAL="25" NAME="??0CalendarAstronomer@icu_53@@QEAA@XZ" PURGE="0" COMMENT="" />
    <EXPORT ORDINAL="26" NAME="??0ChineseCalendar@icu_53@@IEAA@AEBVLocale@1@HPEBVTimeZone@1@AEAW4UErrorCode@@@Z" PURGE="0" COMMENT="" />
    <EXPORT ORDINAL="27" NAME="??0ChineseCalendar@icu_53@@QEAA@AEBV01@@Z" PURGE="0" COMMENT="" />
    <EXPORT ORDINAL="28" NAME="??0ChineseCalendar@icu_53@@QEAA@AEBVLocale@1@AEAW4UErrorCode@@@Z" PURGE="0" COMMENT="" />
    <EXPORT ORDINAL="29" NAME="??0ChoiceFormat@icu_53@@AEAA@AEBVUnicodeString@1@AEAUUParseError@@AEAW4UErrorCode@@@Z" PURGE="0" COMMENT="" />
    <EXPORT ORDINAL="30" NAME="??0ChoiceFormat@icu_53@@QEAA@AEBV01@@Z" PURGE="0" COMMENT="" />
    <EXPORT ORDINAL="31" NAME="??0ChoiceFormat@icu_53@@QEAA@AEBVUnicodeString@1@AEAW4UErrorCode@@@Z" PURGE="0" COMMENT="" />
    <EXPORT ORDINAL="32" NAME="??0ChoiceFormat@icu_53@@QEAA@PEBNPEBCPEBVUnicodeString@1@H@Z" PURGE="0" COMMENT="" />
    <EXPORT ORDINAL="33" NAME="??0ChoiceFormat@icu_53@@QEAA@PEBNPEBVUnicodeString@1@H@Z" PURGE="0" COMMENT="" />
    <EXPORT ORDINAL="34" NAME="??0CollationBaseDataBuilder@icu_53@@QEAA@AEAW4UErrorCode@@@Z" PURGE="0" COMMENT="" />
    <EXPORT ORDINAL="35" NAME="??0CollationBuilder@icu_53@@QEAA@PEBUCollationTailoring@1@AEAW4UErrorCode@@@Z" PURGE="0" COMMENT="" />
    <EXPORT ORDINAL="36" NAME="??0CollationData@icu_53@@QEAA@AEBVNormalizer2Impl@1@@Z" PURGE="0" COMMENT="" />
    <EXPORT ORDINAL="37" NAME="??0CollationDataBuilder@icu_53@@QEAA@AEAW4UErrorCode@@@Z" PURGE="0" COMMENT="" />
    <EXPORT ORDINAL="38" NAME="??0CollationElementIterator@icu_53@@AEAA@AEBVCharacterIterator@1@PEBVRuleBasedCollator@1@AEAW4UErrorCode@@@Z" PURGE="0" COMMENT="" />
    <EXPORT ORDINAL="39" NAME="??0CollationElementIterator@icu_53@@AEAA@AEBVUnicodeString@1@PEBVRuleBasedCollator@1@AEAW4UErrorCode@@@Z" PURGE="0" COMMENT="" />
    <EXPORT ORDINAL="40" NAME="??0CollationElementIterator@icu_53@@QEAA@AEBV01@@Z" PURGE="0" COMMENT="" />
    <EXPORT ORDINAL="41" NAME="??0CollationFastLatinBuilder@icu_53@@QEAA@AEAW4UErrorCode@@@Z" PURGE="0" COMMENT="" />
    <EXPORT ORDINAL="42" NAME="??0CollationIterator@icu_53@@IEAA@AEBV01@@Z" PURGE="0" COMMENT="" />
    <EXPORT ORDINAL="43" NAME="??0CollationIterator@icu_53@@QEAA@PEBUCollationData@1@C@Z" PURGE="0" COMMENT="" />
    <EXPORT ORDINAL="44" NAME="??0CollationKey@icu_53@@QEAA@AEBV01@@Z" PURGE="0" COMMENT="" />
    <EXPORT ORDINAL="45" NAME="??0CollationKey@icu_53@@QEAA@PEBEH@Z" PURGE="0" COMMENT="" />
    <EXPORT ORDINAL="46" NAME="??0CollationKey@icu_53@@QEAA@XZ" PURGE="0" COMMENT="" />
    <EXPORT ORDINAL="47" NAME="??0CollationRootElements@icu_53@@QEAA@PEBIH@Z" PURGE="0" COMMENT="" />
    <EXPORT ORDINAL="48" NAME="??0CollationRuleParser@icu_53@@QEAA@PEBUCollationData@1@AEAW4UErrorCode@@@Z" PURGE="0" COMMENT="" />
    <EXPORT ORDINAL="49" NAME="??0CollationSettings@icu_53@@QEAA@AEBU01@@Z" PURGE="0" COMMENT="" />
    <EXPORT ORDINAL="50" NAME="??0CollationSettings@icu_53@@QEAA@XZ" PURGE="0" COMMENT="" />
    <EXPORT ORDINAL="51" NAME="??0CollationTailoring@icu_53@@QEAA@PEBUCollationSettings@1@@Z" PURGE="0" COMMENT="" />
    <EXPORT ORDINAL="52" NAME="??0CollationWeights@icu_53@@QEAA@XZ" PURGE="0" COMMENT="" />
    <EXPORT ORDINAL="53" NAME="??0Collator@icu_53@@IEAA@AEBV01@@Z" PURGE="0" COMMENT="" />
    <EXPORT ORDINAL="54" NAME="??0Collator@icu_53@@IEAA@W4UColAttributeValue@@W4UNormalizationMode@@@Z" PURGE="0" COMMENT="" />
    <EXPORT ORDINAL="55" NAME="??0Collator@icu_53@@IEAA@XZ" PURGE="0" COMMENT="" />
    <EXPORT ORDINAL="56" NAME="??0CollatorFactory@icu_53@@QEAA@AEBV01@@Z" PURGE="0" COMMENT="" />
    <EXPORT ORDINAL="57" NAME="??0CollatorFactory@icu_53@@QEAA@XZ" PURGE="0" COMMENT="" />
    <EXPORT ORDINAL="58" NAME="??0CompactDecimalFormat@icu_53@@AEAA@AEBVDecimalFormat@1@PEBUUHashtable@@PEBNPEAVPluralRules@1@@Z" PURGE="0" COMMENT="" />
    <EXPORT ORDINAL="59" NAME="??0CompactDecimalFormat@icu_53@@QEAA@AEBV01@@Z" PURGE="0" COMMENT="" />
    <EXPORT ORDINAL="60" NAME="??0CompoundTransliterator@icu_53@@AEAA@AEAVUVector@1@AEAUUParseError@@AEAW4UErrorCode@@@Z" PURGE="0" COMMENT="" />
    <EXPORT ORDINAL="61" NAME="??0CompoundTransliterator@icu_53@@AEAA@AEAVUVector@1@HAEAUUParseError@@AEAW4UErrorCode@@@Z" PURGE="0" COMMENT="" />
    <EXPORT ORDINAL="62" NAME="??0CompoundTransliterator@icu_53@@AEAA@AEBVUnicodeString@1@AEAVUVector@1@PEAVUnicodeFilter@1@HAEAUUParseError@@AEAW4UErrorCode@@@Z" PURGE="0" COMMENT="" />
    <EXPORT ORDINAL="63" NAME="??0CompoundTransliterator@icu_53@@QEAA@AEBV01@@Z" PURGE="0" COMMENT="" />
    <EXPORT ORDINAL="64" NAME="??0CompoundTransliterator@icu_53@@QEAA@AEBVUnicodeString@1@AEAUUParseError@@AEAW4UErrorCode@@@Z" PURGE="0" COMMENT="" />
    <EXPORT ORDINAL="65" NAME="??0CompoundTransliterator@icu_53@@QEAA@AEBVUnicodeString@1@W4UTransDirection@@PEAVUnicodeFilter@1@AEAUUParseError@@AEAW4UErrorCode@@@Z" PURGE="0" COMMENT="" />
    <EXPORT ORDINAL="66" NAME="??0CompoundTransliterator@icu_53@@QEAA@QEBQEAVTransliterator@1@HPEAVUnicodeFilter@1@@Z" PURGE="0" COMMENT="" />
    <EXPORT ORDINAL="67" NAME="??0CurrencyAmount@icu_53@@QEAA@AEBV01@@Z" PURGE="0" COMMENT="" />
    <EXPORT ORDINAL="68" NAME="??0CurrencyAmount@icu_53@@QEAA@AEBVFormattable@1@PEB_WAEAW4UErrorCode@@@Z" PURGE="0" COMMENT="" />
    <EXPORT ORDINAL="69" NAME="??0CurrencyAmount@icu_53@@QEAA@NPEB_WAEAW4UErrorCode@@@Z" PURGE="0" COMMENT="" />
    <EXPORT ORDINAL="70" NAME="??0CurrencyPluralInfo@icu_53@@QEAA@AEAW4UErrorCode@@@Z" PURGE="0" COMMENT="" />
    <EXPORT ORDINAL="71" NAME="??0CurrencyPluralInfo@icu_53@@QEAA@AEBV01@@Z" PURGE="0" COMMENT="" />
    <EXPORT ORDINAL="72" NAME="??0CurrencyPluralInfo@icu_53@@QEAA@AEBVLocale@1@AEAW4UErrorCode@@@Z" PURGE="0" COMMENT="" />
    <EXPORT ORDINAL="73" NAME="??0CurrencyUnit@icu_53@@QEAA@AEBV01@@Z" PURGE="0" COMMENT="" />
    <EXPORT ORDINAL="74" NAME="??0CurrencyUnit@icu_53@@QEAA@PEB_WAEAW4UErrorCode@@@Z" PURGE="0" COMMENT="" />
    <EXPORT ORDINAL="75" NAME="??0DateFormat@icu_53@@IEAA@AEBV01@@Z" PURGE="0" COMMENT="" />
    <EXPORT ORDINAL="76" NAME="??0DateFormat@icu_53@@IEAA@XZ" PURGE="0" COMMENT="" />
    <EXPORT ORDINAL="77" NAME="??0DateFormatSymbols@icu_53@@QEAA@AEAW4UErrorCode@@@Z" PURGE="0" COMMENT="" />
    <EXPORT ORDINAL="78" NAME="??0DateFormatSymbols@icu_53@@QEAA@AEBV01@@Z" PURGE="0" COMMENT="" />
    <EXPORT ORDINAL="79" NAME="??0DateFormatSymbols@icu_53@@QEAA@AEBVLocale@1@AEAW4UErrorCode@@@Z" PURGE="0" COMMENT="" />
    <EXPORT ORDINAL="80" NAME="??0DateFormatSymbols@icu_53@@QEAA@AEBVLocale@1@PEBDAEAW4UErrorCode@@@Z" PURGE="0" COMMENT="" />
    <EXPORT ORDINAL="81" NAME="??0DateFormatSymbols@icu_53@@QEAA@PEBDAEAW4UErrorCode@@@Z" PURGE="0" COMMENT="" />
    <EXPORT ORDINAL="82" NAME="??0DateIntervalFormat@icu_53@@AEAA@AEBVLocale@1@PEAVDateIntervalInfo@1@PEBVUnicodeString@1@AEAW4UErrorCode@@@Z" PURGE="0" COMMENT="" />
    <EXPORT ORDINAL="83" NAME="??0DateIntervalFormat@icu_53@@AEAA@XZ" PURGE="0" COMMENT="" />
    <EXPORT ORDINAL="84" NAME="??0DateIntervalFormat@icu_53@@IEAA@AEBV01@@Z" PURGE="0" COMMENT="" />
    <EXPORT ORDINAL="85" NAME="??0DateIntervalInfo@icu_53@@QEAA@AEAW4UErrorCode@@@Z" PURGE="0" COMMENT="" />
    <EXPORT ORDINAL="86" NAME="??0DateIntervalInfo@icu_53@@QEAA@AEBV01@@Z" PURGE="0" COMMENT="" />
    <EXPORT ORDINAL="87" NAME="??0DateIntervalInfo@icu_53@@QEAA@AEBVLocale@1@AEAW4UErrorCode@@@Z" PURGE="0" COMMENT="" />
    <EXPORT ORDINAL="88" NAME="??0DateTimePatternGenerator@icu_53@@AEAA@AEAW4UErrorCode@@@Z" PURGE="0" COMMENT="" />
    <EXPORT ORDINAL="89" NAME="??0DateTimePatternGenerator@icu_53@@AEAA@AEBV01@@Z" PURGE="0" COMMENT="" />
    <EXPORT ORDINAL="90" NAME="??0DateTimePatternGenerator@icu_53@@AEAA@AEBVLocale@1@AEAW4UErrorCode@@@Z" PURGE="0" COMMENT="" />
    <EXPORT ORDINAL="91" NAME="??0DateTimeRule@icu_53@@QEAA@AEBV01@@Z" PURGE="0" COMMENT="" />
    <EXPORT ORDINAL="92" NAME="??0DateTimeRule@icu_53@@QEAA@HHHCHW4TimeRuleType@01@@Z" PURGE="0" COMMENT="" />
    <EXPORT ORDINAL="93" NAME="??0DateTimeRule@icu_53@@QEAA@HHHHW4TimeRuleType@01@@Z" PURGE="0" COMMENT="" />
    <EXPORT ORDINAL="94" NAME="??0DateTimeRule@icu_53@@QEAA@HHHW4TimeRuleType@01@@Z" PURGE="0" COMMENT="" />
    <EXPORT ORDINAL="95" NAME="??0DecimalFormat@icu_53@@QEAA@AEAW4UErrorCode@@@Z" PURGE="0" COMMENT="" />
    <EXPORT ORDINAL="96" NAME="??0DecimalFormat@icu_53@@QEAA@AEBV01@@Z" PURGE="0" COMMENT="" />
    <EXPORT ORDINAL="97" NAME="??0DecimalFormat@icu_53@@QEAA@AEBVUnicodeString@1@AEAW4UErrorCode@@@Z" PURGE="0" COMMENT="" />
    <EXPORT ORDINAL="98" NAME="??0DecimalFormat@icu_53@@QEAA@AEBVUnicodeString@1@AEBVDecimalFormatSymbols@1@AEAW4UErrorCode@@@Z" PURGE="0" COMMENT="" />
    <EXPORT ORDINAL="99" NAME="??0DecimalFormat@icu_53@@QEAA@AEBVUnicodeString@1@PEAVDecimalFormatSymbols@1@AEAUUParseError@@AEAW4UErrorCode@@@Z" PURGE="0" COMMENT="" />
    <EXPORT ORDINAL="100" NAME="??0DecimalFormat@icu_53@@QEAA@AEBVUnicodeString@1@PEAVDecimalFormatSymbols@1@AEAW4UErrorCode@@@Z" PURGE="0" COMMENT="" />
    <EXPORT ORDINAL="101" NAME="??0DecimalFormat@icu_53@@QEAA@AEBVUnicodeString@1@PEAVDecimalFormatSymbols@1@W4UNumberFormatStyle@@AEAW4UErrorCode@@@Z" PURGE="0" COMMENT="" />
    <EXPORT ORDINAL="102" NAME="??0DecimalFormatSymbols@icu_53@@AEAA@XZ" PURGE="0" COMMENT="" />
    <EXPORT ORDINAL="103" NAME="??0DecimalFormatSymbols@icu_53@@QEAA@AEAW4UErrorCode@@@Z" PURGE="0" COMMENT="" />
    <EXPORT ORDINAL="104" NAME="??0DecimalFormatSymbols@icu_53@@QEAA@AEBV01@@Z" PURGE="0" COMMENT="" />
    <EXPORT ORDINAL="105" NAME="??0DecimalFormatSymbols@icu_53@@QEAA@AEBVLocale@1@AEAW4UErrorCode@@@Z" PURGE="0" COMMENT="" />
    <EXPORT ORDINAL="106" NAME="??0DigitList@icu_53@@QEAA@AEBV01@@Z" PURGE="0" COMMENT="" />
    <EXPORT ORDINAL="107" NAME="??0DigitList@icu_53@@QEAA@XZ" PURGE="0" COMMENT="" />
    <EXPORT ORDINAL="108" NAME="??0DummyFormat@MessageFormat@icu_53@@QEAA@AEBV012@@Z" PURGE="0" COMMENT="" />
    <EXPORT ORDINAL="109" NAME="??0DummyFormat@MessageFormat@icu_53@@QEAA@XZ" PURGE="0" COMMENT="" />
    <EXPORT ORDINAL="110" NAME="??0Ecliptic@CalendarAstronomer@icu_53@@QEAA@NN@Z" PURGE="0" COMMENT="" />
    <EXPORT ORDINAL="111" NAME="??0Equatorial@CalendarAstronomer@icu_53@@QEAA@NN@Z" PURGE="0" COMMENT="" />
    <EXPORT ORDINAL="112" NAME="??0FCDUIterCollationIterator@icu_53@@QEAA@AEBV01@@Z" PURGE="0" COMMENT="" />
    <EXPORT ORDINAL="113" NAME="??0FCDUIterCollationIterator@icu_53@@QEAA@PEBUCollationData@1@CAEAUUCharIterator@@H@Z" PURGE="0" COMMENT="" />
    <EXPORT ORDINAL="114" NAME="??0FCDUTF16CollationIterator@icu_53@@QEAA@AEBV01@@Z" PURGE="0" COMMENT="" />
    <EXPORT ORDINAL="115" NAME="??0FCDUTF16CollationIterator@icu_53@@QEAA@AEBV01@PEB_W@Z" PURGE="0" COMMENT="" />
    <EXPORT ORDINAL="116" NAME="??0FCDUTF16CollationIterator@icu_53@@QEAA@PEBUCollationData@1@CPEB_W11@Z" PURGE="0" COMMENT="" />
    <EXPORT ORDINAL="117" NAME="??0FCDUTF8CollationIterator@icu_53@@QEAA@AEBV01@@Z" PURGE="0" COMMENT="" />
    <EXPORT ORDINAL="118" NAME="??0FCDUTF8CollationIterator@icu_53@@QEAA@PEBUCollationData@1@CPEBEHH@Z" PURGE="0" COMMENT="" />
    <EXPORT ORDINAL="119" NAME="??0FieldPosition@icu_53@@QEAA@AEBV01@@Z" PURGE="0" COMMENT="" />
    <EXPORT ORDINAL="120" NAME="??0FieldPosition@icu_53@@QEAA@H@Z" PURGE="0" COMMENT="" />
    <EXPORT ORDINAL="121" NAME="??0FieldPosition@icu_53@@QEAA@XZ" PURGE="0" COMMENT="" />
    <EXPORT ORDINAL="122" NAME="??0FieldPositionIterator@icu_53@@QEAA@AEBV01@@Z" PURGE="0" COMMENT="" />
    <EXPORT ORDINAL="123" NAME="??0FieldPositionIterator@icu_53@@QEAA@XZ" PURGE="0" COMMENT="" />
    <EXPORT ORDINAL="124" NAME="??0FixedDecimal@icu_53@@QEAA@AEBV01@@Z" PURGE="0" COMMENT="" />
    <EXPORT ORDINAL="125" NAME="??0FixedDecimal@icu_53@@QEAA@AEBVUnicodeString@1@AEAW4UErrorCode@@@Z" PURGE="0" COMMENT="" />
    <EXPORT ORDINAL="126" NAME="??0FixedDecimal@icu_53@@QEAA@N@Z" PURGE="0" COMMENT="" />
    <EXPORT ORDINAL="127" NAME="??0FixedDecimal@icu_53@@QEAA@NH@Z" PURGE="0" COMMENT="" />
    <EXPORT ORDINAL="128" NAME="??0FixedDecimal@icu_53@@QEAA@NH_J@Z" PURGE="0" COMMENT="" />
    <EXPORT ORDINAL="129" NAME="??0FixedDecimal@icu_53@@QEAA@XZ" PURGE="0" COMMENT="" />
    <EXPORT ORDINAL="130" NAME="??0Format@icu_53@@IEAA@AEBV01@@Z" PURGE="0" COMMENT="" />
    <EXPORT ORDINAL="131" NAME="??0Format@icu_53@@IEAA@XZ" PURGE="0" COMMENT="" />
    <EXPORT ORDINAL="132" NAME="??0Formattable@icu_53@@QEAA@AEBV01@@Z" PURGE="0" COMMENT="" />
    <EXPORT ORDINAL="133" NAME="??0Formattable@icu_53@@QEAA@AEBVStringPiece@1@AEAW4UErrorCode@@@Z" PURGE="0" COMMENT="" />
    <EXPORT ORDINAL="134" NAME="??0Formattable@icu_53@@QEAA@AEBVUnicodeString@1@@Z" PURGE="0" COMMENT="" />
    <EXPORT ORDINAL="135" NAME="??0Formattable@icu_53@@QEAA@H@Z" PURGE="0" COMMENT="" />
    <EXPORT ORDINAL="136" NAME="??0Formattable@icu_53@@QEAA@N@Z" PURGE="0" COMMENT="" />
    <EXPORT ORDINAL="137" NAME="??0Formattable@icu_53@@QEAA@NW4ISDATE@01@@Z" PURGE="0" COMMENT="" />
    <EXPORT ORDINAL="138" NAME="??0Formattable@icu_53@@QEAA@PEAVUObject@1@@Z" PURGE="0" COMMENT="" />
    <EXPORT ORDINAL="139" NAME="??0Formattable@icu_53@@QEAA@PEAVUnicodeString@1@@Z" PURGE="0" COMMENT="" />
    <EXPORT ORDINAL="140" NAME="??0Formattable@icu_53@@QEAA@PEBD@Z" PURGE="0" COMMENT="" />
    <EXPORT ORDINAL="141" NAME="??0Formattable@icu_53@@QEAA@PEBV01@H@Z" PURGE="0" COMMENT="" />
    <EXPORT ORDINAL="142" NAME="??0Formattable@icu_53@@QEAA@XZ" PURGE="0" COMMENT="" />
    <EXPORT ORDINAL="143" NAME="??0Formattable@icu_53@@QEAA@_J@Z" PURGE="0" COMMENT="" />
    <EXPORT ORDINAL="144" NAME="??0GenderInfo@icu_53@@AEAA@XZ" PURGE="0" COMMENT="" />
    <EXPORT ORDINAL="145" NAME="??0GregorianCalendar@icu_53@@QEAA@AEAW4UErrorCode@@@Z" PURGE="0" COMMENT="" />
    <EXPORT ORDINAL="146" NAME="??0GregorianCalendar@icu_53@@QEAA@AEBV01@@Z" PURGE="0" COMMENT="" />
    <EXPORT ORDINAL="147" NAME="??0GregorianCalendar@icu_53@@QEAA@AEBVLocale@1@AEAW4UErrorCode@@@Z" PURGE="0" COMMENT="" />
    <EXPORT ORDINAL="148" NAME="??0GregorianCalendar@icu_53@@QEAA@AEBVTimeZone@1@AEAW4UErrorCode@@@Z" PURGE="0" COMMENT="" />
    <EXPORT ORDINAL="149" NAME="??0GregorianCalendar@icu_53@@QEAA@AEBVTimeZone@1@AEBVLocale@1@AEAW4UErrorCode@@@Z" PURGE="0" COMMENT="" />
    <EXPORT ORDINAL="150" NAME="??0GregorianCalendar@icu_53@@QEAA@HHHAEAW4UErrorCode@@@Z" PURGE="0" COMMENT="" />
    <EXPORT ORDINAL="151" NAME="??0GregorianCalendar@icu_53@@QEAA@HHHHHAEAW4UErrorCode@@@Z" PURGE="0" COMMENT="" />
    <EXPORT ORDINAL="152" NAME="??0GregorianCalendar@icu_53@@QEAA@HHHHHHAEAW4UErrorCode@@@Z" PURGE="0" COMMENT="" />
    <EXPORT ORDINAL="153" NAME="??0GregorianCalendar@icu_53@@QEAA@PEAVTimeZone@1@AEAW4UErrorCode@@@Z" PURGE="0" COMMENT="" />
    <EXPORT ORDINAL="154" NAME="??0GregorianCalendar@icu_53@@QEAA@PEAVTimeZone@1@AEBVLocale@1@AEAW4UErrorCode@@@Z" PURGE="0" COMMENT="" />
    <EXPORT ORDINAL="155" NAME="??0HebrewCalendar@icu_53@@QEAA@AEBV01@@Z" PURGE="0" COMMENT="" />
    <EXPORT ORDINAL="156" NAME="??0HebrewCalendar@icu_53@@QEAA@AEBVLocale@1@AEAW4UErrorCode@@@Z" PURGE="0" COMMENT="" />
    <EXPORT ORDINAL="157" NAME="??0Horizon@CalendarAstronomer@icu_53@@QEAA@NN@Z" PURGE="0" COMMENT="" />
    <EXPORT ORDINAL="158" NAME="??0IdentifierInfo@icu_53@@QEAA@AEAW4UErrorCode@@@Z" PURGE="0" COMMENT="" />
    <EXPORT ORDINAL="159" NAME="??0ImmutableIndex@AlphabeticIndex@icu_53@@AEAA@PEAVBucketList@2@PEAVCollator@2@@Z" PURGE="0" COMMENT="" />
    <EXPORT ORDINAL="160" NAME="??0ImmutableIndex@AlphabeticIndex@icu_53@@QEAA@AEBV012@@Z" PURGE="0" COMMENT="" />
    <EXPORT ORDINAL="161" NAME="??0Importer@CollationRuleParser@icu_53@@QEAA@AEBV012@@Z" PURGE="0" COMMENT="" />
    <EXPORT ORDINAL="162" NAME="??0Importer@CollationRuleParser@icu_53@@QEAA@XZ" PURGE="0" COMMENT="" />
    <EXPORT ORDINAL="163" NAME="??0InitialTimeZoneRule@icu_53@@QEAA@AEBV01@@Z" PURGE="0" COMMENT="" />
    <EXPORT ORDINAL="164" NAME="??0InitialTimeZoneRule@icu_53@@QEAA@AEBVUnicodeString@1@HH@Z" PURGE="0" COMMENT="" />
    <EXPORT ORDINAL="165" NAME="??0IslamicCalendar@icu_53@@QEAA@AEBV01@@Z" PURGE="0" COMMENT="" />
    <EXPORT ORDINAL="166" NAME="??0IslamicCalendar@icu_53@@QEAA@AEBVLocale@1@AEAW4UErrorCode@@W4ECalculationType@01@@Z" PURGE="0" COMMENT="" />
    <EXPORT ORDINAL="167" NAME="??0LocaleDisplayNames@icu_53@@QEAA@AEBV01@@Z" PURGE="0" COMMENT="" />
    <EXPORT ORDINAL="168" NAME="??0LocaleDisplayNames@icu_53@@QEAA@XZ" PURGE="0" COMMENT="" />
    <EXPORT ORDINAL="169" NAME="??0MatchInfoCollection@TimeZoneNames@icu_53@@QEAA@AEBV012@@Z" PURGE="0" COMMENT="" />
    <EXPORT ORDINAL="170" NAME="??0MatchInfoCollection@TimeZoneNames@icu_53@@QEAA@XZ" PURGE="0" COMMENT="" />
    <EXPORT ORDINAL="171" NAME="??0Measure@icu_53@@IEAA@XZ" PURGE="0" COMMENT="" />
    <EXPORT ORDINAL="172" NAME="??0Measure@icu_53@@QEAA@AEBV01@@Z" PURGE="0" COMMENT="" />
    <EXPORT ORDINAL="173" NAME="??0Measure@icu_53@@QEAA@AEBVFormattable@1@PEAVMeasureUnit@1@AEAW4UErrorCode@@@Z" PURGE="0" COMMENT="" />
    <EXPORT ORDINAL="174" NAME="??0MeasureFormat@icu_53@@IEAA@XZ" PURGE="0" COMMENT="" />
    <EXPORT ORDINAL="175" NAME="??0MeasureFormat@icu_53@@QEAA@AEBV01@@Z" PURGE="0" COMMENT="" />
    <EXPORT ORDINAL="176" NAME="??0MeasureFormat@icu_53@@QEAA@AEBVLocale@1@W4UMeasureFormatWidth@@AEAW4UErrorCode@@@Z" PURGE="0" COMMENT="" />
    <EXPORT ORDINAL="177" NAME="??0MeasureFormat@icu_53@@QEAA@AEBVLocale@1@W4UMeasureFormatWidth@@PEAVNumberFormat@1@AEAW4UErrorCode@@@Z" PURGE="0" COMMENT="" />
    <EXPORT ORDINAL="178" NAME="??0MeasureUnit@icu_53@@AEAA@HH@Z" PURGE="0" COMMENT="" />
    <EXPORT ORDINAL="179" NAME="??0MeasureUnit@icu_53@@QEAA@AEBV01@@Z" PURGE="0" COMMENT="" />
    <EXPORT ORDINAL="180" NAME="??0MeasureUnit@icu_53@@QEAA@XZ" PURGE="0" COMMENT="" />
    <EXPORT ORDINAL="181" NAME="??0MessageFormat@icu_53@@QEAA@AEBV01@@Z" PURGE="0" COMMENT="" />
    <EXPORT ORDINAL="182" NAME="??0MessageFormat@icu_53@@QEAA@AEBVUnicodeString@1@AEAW4UErrorCode@@@Z" PURGE="0" COMMENT="" />
    <EXPORT ORDINAL="183" NAME="??0MessageFormat@icu_53@@QEAA@AEBVUnicodeString@1@AEBVLocale@1@AEAUUParseError@@AEAW4UErrorCode@@@Z" PURGE="0" COMMENT="" />
    <EXPORT ORDINAL="184" NAME="??0MessageFormat@icu_53@@QEAA@AEBVUnicodeString@1@AEBVLocale@1@AEAW4UErrorCode@@@Z" PURGE="0" COMMENT="" />
    <EXPORT ORDINAL="185" NAME="??0MoonAge@CalendarAstronomer@icu_53@@QEAA@N@Z" PURGE="0" COMMENT="" />
    <EXPORT ORDINAL="186" NAME="??0NumberFormat@icu_53@@IEAA@AEBV01@@Z" PURGE="0" COMMENT="" />
    <EXPORT ORDINAL="187" NAME="??0NumberFormat@icu_53@@IEAA@XZ" PURGE="0" COMMENT="" />
    <EXPORT ORDINAL="188" NAME="??0NumberFormatFactory@icu_53@@QEAA@AEBV01@@Z" PURGE="0" COMMENT="" />
    <EXPORT ORDINAL="189" NAME="??0NumberFormatFactory@icu_53@@QEAA@XZ" PURGE="0" COMMENT="" />
    <EXPORT ORDINAL="190" NAME="??0NumberingSystem@icu_53@@QEAA@AEBV01@@Z" PURGE="0" COMMENT="" />
    <EXPORT ORDINAL="191" NAME="??0NumberingSystem@icu_53@@QEAA@XZ" PURGE="0" COMMENT="" />
    <EXPORT ORDINAL="192" NAME="??0OlsonTimeZone@icu_53@@QEAA@AEBV01@@Z" PURGE="0" COMMENT="" />
    <EXPORT ORDINAL="193" NAME="??0OlsonTimeZone@icu_53@@QEAA@PEBUUResourceBundle@@0AEBVUnicodeString@1@AEAW4UErrorCode@@@Z" PURGE="0" COMMENT="" />
    <EXPORT ORDINAL="194" NAME="??0PluralAvailableLocalesEnumeration@icu_53@@QEAA@AEAW4UErrorCode@@@Z" PURGE="0" COMMENT="" />
    <EXPORT ORDINAL="195" NAME="??0PluralAvailableLocalesEnumeration@icu_53@@QEAA@AEBV01@@Z" PURGE="0" COMMENT="" />
    <EXPORT ORDINAL="196" NAME="??0PluralFormat@icu_53@@QEAA@AEAW4UErrorCode@@@Z" PURGE="0" COMMENT="" />
    <EXPORT ORDINAL="197" NAME="??0PluralFormat@icu_53@@QEAA@AEBV01@@Z" PURGE="0" COMMENT="" />
    <EXPORT ORDINAL="198" NAME="??0PluralFormat@icu_53@@QEAA@AEBVLocale@1@AEAW4UErrorCode@@@Z" PURGE="0" COMMENT="" />
    <EXPORT ORDINAL="199" NAME="??0PluralFormat@icu_53@@QEAA@AEBVLocale@1@AEBVPluralRules@1@AEAW4UErrorCode@@@Z" PURGE="0" COMMENT="" />
    <EXPORT ORDINAL="200" NAME="??0PluralFormat@icu_53@@QEAA@AEBVLocale@1@AEBVPluralRules@1@AEBVUnicodeString@1@AEAW4UErrorCode@@@Z" PURGE="0" COMMENT="" />
    <EXPORT ORDINAL="201" NAME="??0PluralFormat@icu_53@@QEAA@AEBVLocale@1@AEBVUnicodeString@1@AEAW4UErrorCode@@@Z" PURGE="0" COMMENT="" />
    <EXPORT ORDINAL="202" NAME="??0PluralFormat@icu_53@@QEAA@AEBVLocale@1@W4UPluralType@@AEAW4UErrorCode@@@Z" PURGE="0" COMMENT="" />
    <EXPORT ORDINAL="203" NAME="??0PluralFormat@icu_53@@QEAA@AEBVLocale@1@W4UPluralType@@AEBVUnicodeString@1@AEAW4UErrorCode@@@Z" PURGE="0" COMMENT="" />
    <EXPORT ORDINAL="204" NAME="??0PluralFormat@icu_53@@QEAA@AEBVPluralRules@1@AEAW4UErrorCode@@@Z" PURGE="0" COMMENT="" />
    <EXPORT ORDINAL="205" NAME="??0PluralFormat@icu_53@@QEAA@AEBVPluralRules@1@AEBVUnicodeString@1@AEAW4UErrorCode@@@Z" PURGE="0" COMMENT="" />
    <EXPORT ORDINAL="206" NAME="??0PluralFormat@icu_53@@QEAA@AEBVUnicodeString@1@AEAW4UErrorCode@@@Z" PURGE="0" COMMENT="" />
    <EXPORT ORDINAL="207" NAME="??0PluralRules@icu_53@@QEAA@AEAW4UErrorCode@@@Z" PURGE="0" COMMENT="" />
    <EXPORT ORDINAL="208" NAME="??0PluralRules@icu_53@@QEAA@AEBV01@@Z" PURGE="0" COMMENT="" />
    <EXPORT ORDINAL="209" NAME="??0PluralSelector@PluralFormat@icu_53@@QEAA@AEBV012@@Z" PURGE="0" COMMENT="" />
    <EXPORT ORDINAL="210" NAME="??0PluralSelector@PluralFormat@icu_53@@QEAA@XZ" PURGE="0" COMMENT="" />
    <EXPORT ORDINAL="211" NAME="??0PluralSelectorAdapter@PluralFormat@icu_53@@QEAA@AEBV012@@Z" PURGE="0" COMMENT="" />
    <EXPORT ORDINAL="212" NAME="??0PluralSelectorAdapter@PluralFormat@icu_53@@QEAA@XZ" PURGE="0" COMMENT="" />
    <EXPORT ORDINAL="213" NAME="??0PluralSelectorProvider@MessageFormat@icu_53@@QEAA@AEBV012@@Z" PURGE="0" COMMENT="" />
    <EXPORT ORDINAL="214" NAME="??0PluralSelectorProvider@MessageFormat@icu_53@@QEAA@AEBV12@W4UPluralType@@@Z" PURGE="0" COMMENT="" />
    <EXPORT ORDINAL="215" NAME="??0QuantityFormatter@icu_53@@QEAA@AEBV01@@Z" PURGE="0" COMMENT="" />
    <EXPORT ORDINAL="216" NAME="??0QuantityFormatter@icu_53@@QEAA@XZ" PURGE="0" COMMENT="" />
    <EXPORT ORDINAL="217" NAME="??0RegexMatcher@icu_53@@AEAA@PEBVRegexPattern@1@@Z" PURGE="0" COMMENT="" />
    <EXPORT ORDINAL="218" NAME="??0RegexMatcher@icu_53@@QEAA@AEBVUnicodeString@1@0IAEAW4UErrorCode@@@Z" PURGE="0" COMMENT="" />
    <EXPORT ORDINAL="219" NAME="??0RegexMatcher@icu_53@@QEAA@AEBVUnicodeString@1@IAEAW4UErrorCode@@@Z" PURGE="0" COMMENT="" />
    <EXPORT ORDINAL="220" NAME="??0RegexMatcher@icu_53@@QEAA@PEAUUText@@0IAEAW4UErrorCode@@@Z" PURGE="0" COMMENT="" />
    <EXPORT ORDINAL="221" NAME="??0RegexMatcher@icu_53@@QEAA@PEAUUText@@IAEAW4UErrorCode@@@Z" PURGE="0" COMMENT="" />
    <EXPORT ORDINAL="222" NAME="??0RegexPattern@icu_53@@QEAA@AEBV01@@Z" PURGE="0" COMMENT="" />
    <EXPORT ORDINAL="223" NAME="??0RegexPattern@icu_53@@QEAA@XZ" PURGE="0" COMMENT="" />
    <EXPORT ORDINAL="224" NAME="??0Region@icu_53@@AEAA@XZ" PURGE="0" COMMENT="" />
    <EXPORT ORDINAL="225" NAME="??0Region@icu_53@@QEAA@AEBV01@@Z" PURGE="0" COMMENT="" />
    <EXPORT ORDINAL="226" NAME="??0RelativeDateTimeFormatter@icu_53@@QEAA@AEAW4UErrorCode@@@Z" PURGE="0" COMMENT="" />
    <EXPORT ORDINAL="227" NAME="??0RelativeDateTimeFormatter@icu_53@@QEAA@AEBV01@@Z" PURGE="0" COMMENT="" />
    <EXPORT ORDINAL="228" NAME="??0RelativeDateTimeFormatter@icu_53@@QEAA@AEBVLocale@1@AEAW4UErrorCode@@@Z" PURGE="0" COMMENT="" />
    <EXPORT ORDINAL="229" NAME="??0RelativeDateTimeFormatter@icu_53@@QEAA@AEBVLocale@1@PEAVNumberFormat@1@AEAW4UErrorCode@@@Z" PURGE="0" COMMENT="" />
    <EXPORT ORDINAL="230" NAME="??0RuleBasedCollator@icu_53@@AEAA@PEBUCollationTailoring@1@AEBVLocale@1@@Z" PURGE="0" COMMENT="" />
    <EXPORT ORDINAL="231" NAME="??0RuleBasedCollator@icu_53@@QEAA@AEBV01@@Z" PURGE="0" COMMENT="" />
    <EXPORT ORDINAL="232" NAME="??0RuleBasedCollator@icu_53@@QEAA@AEBVUnicodeString@1@AEAUUParseError@@AEAV21@AEAW4UErrorCode@@@Z" PURGE="0" COMMENT="" />
    <EXPORT ORDINAL="233" NAME="??0RuleBasedCollator@icu_53@@QEAA@AEBVUnicodeString@1@AEAW4UErrorCode@@@Z" PURGE="0" COMMENT="" />
    <EXPORT ORDINAL="234" NAME="??0RuleBasedCollator@icu_53@@QEAA@AEBVUnicodeString@1@W4ECollationStrength@Collator@1@AEAW4UErrorCode@@@Z" PURGE="0" COMMENT="" />
    <EXPORT ORDINAL="235" NAME="??0RuleBasedCollator@icu_53@@QEAA@AEBVUnicodeString@1@W4ECollationStrength@Collator@1@W4UColAttributeValue@@AEAW4UErrorCode@@@Z" PURGE="0" COMMENT="" />
    <EXPORT ORDINAL="236" NAME="??0RuleBasedCollator@icu_53@@QEAA@AEBVUnicodeString@1@W4UColAttributeValue@@AEAW4UErrorCode@@@Z" PURGE="0" COMMENT="" />
    <EXPORT ORDINAL="237" NAME="??0RuleBasedCollator@icu_53@@QEAA@PEBEHPEBV01@AEAW4UErrorCode@@@Z" PURGE="0" COMMENT="" />
    <EXPORT ORDINAL="238" NAME="??0RuleBasedCollator@icu_53@@QEAA@XZ" PURGE="0" COMMENT="" />
    <EXPORT ORDINAL="239" NAME="??0RuleBasedNumberFormat@icu_53@@AEAA@AEBVUnicodeString@1@PEAVLocalizationInfo@1@AEBVLocale@1@AEAUUParseError@@AEAW4UErrorCode@@@Z" PURGE="0" COMMENT="" />
    <EXPORT ORDINAL="240" NAME="??0RuleBasedNumberFormat@icu_53@@QEAA@AEBV01@@Z" PURGE="0" COMMENT="" />
    <EXPORT ORDINAL="241" NAME="??0RuleBasedNumberFormat@icu_53@@QEAA@AEBVUnicodeString@1@0AEAUUParseError@@AEAW4UErrorCode@@@Z" PURGE="0" COMMENT="" />
    <EXPORT ORDINAL="242" NAME="??0RuleBasedNumberFormat@icu_53@@QEAA@AEBVUnicodeString@1@0AEBVLocale@1@AEAUUParseError@@AEAW4UErrorCode@@@Z" PURGE="0" COMMENT="" />
    <EXPORT ORDINAL="243" NAME="??0RuleBasedNumberFormat@icu_53@@QEAA@AEBVUnicodeString@1@AEAUUParseError@@AEAW4UErrorCode@@@Z" PURGE="0" COMMENT="" />
    <EXPORT ORDINAL="244" NAME="??0RuleBasedNumberFormat@icu_53@@QEAA@AEBVUnicodeString@1@AEBVLocale@1@AEAUUParseError@@AEAW4UErrorCode@@@Z" PURGE="0" COMMENT="" />
    <EXPORT ORDINAL="245" NAME="??0RuleBasedNumberFormat@icu_53@@QEAA@W4URBNFRuleSetTag@1@AEBVLocale@1@AEAW4UErrorCode@@@Z" PURGE="0" COMMENT="" />
    <EXPORT ORDINAL="246" NAME="??0RuleBasedTimeZone@icu_53@@QEAA@AEBV01@@Z" PURGE="0" COMMENT="" />
    <EXPORT ORDINAL="247" NAME="??0RuleBasedTimeZone@icu_53@@QEAA@AEBVUnicodeString@1@PEAVInitialTimeZoneRule@1@@Z" PURGE="0" COMMENT="" />
    <EXPORT ORDINAL="248" NAME="??0ScriptSet@icu_53@@QEAA@AEBV01@@Z" PURGE="0" COMMENT="" />
    <EXPORT ORDINAL="249" NAME="??0ScriptSet@icu_53@@QEAA@XZ" PURGE="0" COMMENT="" />
    <EXPORT ORDINAL="250" NAME="??0SearchIterator@icu_53@@IEAA@AEAVCharacterIterator@1@PEAVBreakIterator@1@@Z" PURGE="0" COMMENT="" />
    <EXPORT ORDINAL="251" NAME="??0SearchIterator@icu_53@@IEAA@AEBVUnicodeString@1@PEAVBreakIterator@1@@Z" PURGE="0" COMMENT="" />
    <EXPORT ORDINAL="252" NAME="??0SearchIterator@icu_53@@IEAA@XZ" PURGE="0" COMMENT="" />
    <EXPORT ORDINAL="253" NAME="??0SearchIterator@icu_53@@QEAA@AEBV01@@Z" PURGE="0" COMMENT="" />
    <EXPORT ORDINAL="254" NAME="??0SelectFormat@icu_53@@QEAA@AEBV01@@Z" PURGE="0" COMMENT="" />
    <EXPORT ORDINAL="255" NAME="??0SelectFormat@icu_53@@QEAA@AEBVUnicodeString@1@AEAW4UErrorCode@@@Z" PURGE="0" COMMENT="" />
    <EXPORT ORDINAL="256" NAME="??0SharedNumberFormat@icu_53@@QEAA@PEAVNumberFormat@1@@Z" PURGE="0" COMMENT="" />
    <EXPORT ORDINAL="257" NAME="??0SharedPluralRules@icu_53@@QEAA@PEAVPluralRules@1@@Z" PURGE="0" COMMENT="" />
    <EXPORT ORDINAL="258" NAME="??0SimpleDateFormat@icu_53@@AEAA@AEBVLocale@1@AEAW4UErrorCode@@@Z" PURGE="0" COMMENT="" />
    <EXPORT ORDINAL="259" NAME="??0SimpleDateFormat@icu_53@@AEAA@W4EStyle@DateFormat@1@0AEBVLocale@1@AEAW4UErrorCode@@@Z" PURGE="0" COMMENT="" />
    <EXPORT ORDINAL="260" NAME="??0SimpleDateFormat@icu_53@@QEAA@AEAW4UErrorCode@@@Z" PURGE="0" COMMENT="" />
    <EXPORT ORDINAL="261" NAME="??0SimpleDateFormat@icu_53@@QEAA@AEBV01@@Z" PURGE="0" COMMENT="" />
    <EXPORT ORDINAL="262" NAME="??0SimpleDateFormat@icu_53@@QEAA@AEBVUnicodeString@1@0AEAW4UErrorCode@@@Z" PURGE="0" COMMENT="" />
    <EXPORT ORDINAL="263" NAME="??0SimpleDateFormat@icu_53@@QEAA@AEBVUnicodeString@1@0AEBVLocale@1@AEAW4UErrorCode@@@Z" PURGE="0" COMMENT="" />
    <EXPORT ORDINAL="264" NAME="??0SimpleDateFormat@icu_53@@QEAA@AEBVUnicodeString@1@AEAW4UErrorCode@@@Z" PURGE="0" COMMENT="" />
    <EXPORT ORDINAL="265" NAME="??0SimpleDateFormat@icu_53@@QEAA@AEBVUnicodeString@1@AEBVDateFormatSymbols@1@AEAW4UErrorCode@@@Z" PURGE="0" COMMENT="" />
    <EXPORT ORDINAL="266" NAME="??0SimpleDateFormat@icu_53@@QEAA@AEBVUnicodeString@1@AEBVLocale@1@AEAW4UErrorCode@@@Z" PURGE="0" COMMENT="" />
    <EXPORT ORDINAL="267" NAME="??0SimpleDateFormat@icu_53@@QEAA@AEBVUnicodeString@1@PEAVDateFormatSymbols@1@AEAW4UErrorCode@@@Z" PURGE="0" COMMENT="" />
    <EXPORT ORDINAL="268" NAME="??0SimpleNumberFormatFactory@icu_53@@QEAA@AEBV01@@Z" PURGE="0" COMMENT="" />
    <EXPORT ORDINAL="269" NAME="??0SimpleNumberFormatFactory@icu_53@@QEAA@AEBVLocale@1@C@Z" PURGE="0" COMMENT="" />
    <EXPORT ORDINAL="270" NAME="??0SimpleTimeZone@icu_53@@QEAA@AEBV01@@Z" PURGE="0" COMMENT="" />
    <EXPORT ORDINAL="271" NAME="??0SimpleTimeZone@icu_53@@QEAA@HAEBVUnicodeString@1@@Z" PURGE="0" COMMENT="" />
    <EXPORT ORDINAL="272" NAME="??0SimpleTimeZone@icu_53@@QEAA@HAEBVUnicodeString@1@CCCHCCCHAEAW4UErrorCode@@@Z" PURGE="0" COMMENT="" />
    <EXPORT ORDINAL="273" NAME="??0SimpleTimeZone@icu_53@@QEAA@HAEBVUnicodeString@1@CCCHCCCHHAEAW4UErrorCode@@@Z" PURGE="0" COMMENT="" />
    <EXPORT ORDINAL="274" NAME="??0SimpleTimeZone@icu_53@@QEAA@HAEBVUnicodeString@1@CCCHW4TimeMode@01@CCCH1HAEAW4UErrorCode@@@Z" PURGE="0" COMMENT="" />
    <EXPORT ORDINAL="275" NAME="??0Sink@CollationRuleParser@icu_53@@QEAA@AEBV012@@Z" PURGE="0" COMMENT="" />
    <EXPORT ORDINAL="276" NAME="??0Sink@CollationRuleParser@icu_53@@QEAA@XZ" PURGE="0" COMMENT="" />
    <EXPORT ORDINAL="277" NAME="??0StringSearch@icu_53@@QEAA@AEBV01@@Z" PURGE="0" COMMENT="" />
    <EXPORT ORDINAL="278" NAME="??0StringSearch@icu_53@@QEAA@AEBVUnicodeString@1@0AEBVLocale@1@PEAVBreakIterator@1@AEAW4UErrorCode@@@Z" PURGE="0" COMMENT="" />
    <EXPORT ORDINAL="279" NAME="??0StringSearch@icu_53@@QEAA@AEBVUnicodeString@1@0PEAVRuleBasedCollator@1@PEAVBreakIterator@1@AEAW4UErrorCode@@@Z" PURGE="0" COMMENT="" />
    <EXPORT ORDINAL="280" NAME="??0StringSearch@icu_53@@QEAA@AEBVUnicodeString@1@AEAVCharacterIterator@1@AEBVLocale@1@PEAVBreakIterator@1@AEAW4UErrorCode@@@Z" PURGE="0" COMMENT="" />
    <EXPORT ORDINAL="281" NAME="??0StringSearch@icu_53@@QEAA@AEBVUnicodeString@1@AEAVCharacterIterator@1@PEAVRuleBasedCollator@1@PEAVBreakIterator@1@AEAW4UErrorCode@@@Z" PURGE="0" COMMENT="" />
    <EXPORT ORDINAL="282" NAME="??0TextTrieMap@icu_53@@QEAA@AEBV01@@Z" PURGE="0" COMMENT="" />
    <EXPORT ORDINAL="283" NAME="??0TextTrieMap@icu_53@@QEAA@CP6AXPEAX@Z@Z" PURGE="0" COMMENT="" />
    <EXPORT ORDINAL="284" NAME="??0TimeArrayTimeZoneRule@icu_53@@QEAA@AEBV01@@Z" PURGE="0" COMMENT="" />
    <EXPORT ORDINAL="285" NAME="??0TimeArrayTimeZoneRule@icu_53@@QEAA@AEBVUnicodeString@1@HHPEBNHW4TimeRuleType@DateTimeRule@1@@Z" PURGE="0" COMMENT="" />
    <EXPORT ORDINAL="286" NAME="??0TimeUnit@icu_53@@AEAA@W4UTimeUnitFields@01@@Z" PURGE="0" COMMENT="" />
    <EXPORT ORDINAL="287" NAME="??0TimeUnit@icu_53@@QEAA@AEBV01@@Z" PURGE="0" COMMENT="" />
    <EXPORT ORDINAL="288" NAME="??0TimeUnitAmount@icu_53@@QEAA@AEBV01@@Z" PURGE="0" COMMENT="" />
    <EXPORT ORDINAL="289" NAME="??0TimeUnitAmount@icu_53@@QEAA@AEBVFormattable@1@W4UTimeUnitFields@TimeUnit@1@AEAW4UErrorCode@@@Z" PURGE="0" COMMENT="" />
    <EXPORT ORDINAL="290" NAME="??0TimeUnitAmount@icu_53@@QEAA@NW4UTimeUnitFields@TimeUnit@1@AEAW4UErrorCode@@@Z" PURGE="0" COMMENT="" />
    <EXPORT ORDINAL="291" NAME="??0TimeUnitFormat@icu_53@@QEAA@AEAW4UErrorCode@@@Z" PURGE="0" COMMENT="" />
    <EXPORT ORDINAL="292" NAME="??0TimeUnitFormat@icu_53@@QEAA@AEBV01@@Z" PURGE="0" COMMENT="" />
    <EXPORT ORDINAL="293" NAME="??0TimeUnitFormat@icu_53@@QEAA@AEBVLocale@1@AEAW4UErrorCode@@@Z" PURGE="0" COMMENT="" />
    <EXPORT ORDINAL="294" NAME="??0TimeUnitFormat@icu_53@@QEAA@AEBVLocale@1@W4UTimeUnitFormatStyle@@AEAW4UErrorCode@@@Z" PURGE="0" COMMENT="" />
    <EXPORT ORDINAL="295" NAME="??0TimeZone@icu_53@@IEAA@AEBV01@@Z" PURGE="0" COMMENT="" />
    <EXPORT ORDINAL="296" NAME="??0TimeZone@icu_53@@IEAA@AEBVUnicodeString@1@@Z" PURGE="0" COMMENT="" />
    <EXPORT ORDINAL="297" NAME="??0TimeZone@icu_53@@IEAA@XZ" PURGE="0" COMMENT="" />
    <EXPORT ORDINAL="298" NAME="??0TimeZoneFormat@icu_53@@IEAA@AEBVLocale@1@AEAW4UErrorCode@@@Z" PURGE="0" COMMENT="" />
    <EXPORT ORDINAL="299" NAME="??0TimeZoneFormat@icu_53@@QEAA@AEBV01@@Z" PURGE="0" COMMENT="" />
    <EXPORT ORDINAL="300" NAME="??0TimeZoneGenericNames@icu_53@@AEAA@XZ" PURGE="0" COMMENT="" />
    <EXPORT ORDINAL="301" NAME="??0TimeZoneGenericNames@icu_53@@QEAA@AEBV01@@Z" PURGE="0" COMMENT="" />
    <EXPORT ORDINAL="302" NAME="??0TimeZoneNames@icu_53@@QEAA@AEBV01@@Z" PURGE="0" COMMENT="" />
    <EXPORT ORDINAL="303" NAME="??0TimeZoneNames@icu_53@@QEAA@XZ" PURGE="0" COMMENT="" />
    <EXPORT ORDINAL="304" NAME="??0TimeZoneRule@icu_53@@IEAA@AEBV01@@Z" PURGE="0" COMMENT="" />
    <EXPORT ORDINAL="305" NAME="??0TimeZoneRule@icu_53@@IEAA@AEBVUnicodeString@1@HH@Z" PURGE="0" COMMENT="" />
    <EXPORT ORDINAL="306" NAME="??0TimeZoneTransition@icu_53@@QEAA@AEBV01@@Z" PURGE="0" COMMENT="" />
    <EXPORT ORDINAL="307" NAME="??0TimeZoneTransition@icu_53@@QEAA@NAEBVTimeZoneRule@1@0@Z" PURGE="0" COMMENT="" />
    <EXPORT ORDINAL="308" NAME="??0TimeZoneTransition@icu_53@@QEAA@XZ" PURGE="0" COMMENT="" />
    <EXPORT ORDINAL="309" NAME="??0Transliterator@icu_53@@IEAA@AEBV01@@Z" PURGE="0" COMMENT="" />
    <EXPORT ORDINAL="310" NAME="??0Transliterator@icu_53@@IEAA@AEBVUnicodeString@1@PEAVUnicodeFilter@1@@Z" PURGE="0" COMMENT="" />
    <EXPORT ORDINAL="311" NAME="??0UIterCollationIterator@icu_53@@QEAA@AEBV01@@Z" PURGE="0" COMMENT="" />
    <EXPORT ORDINAL="312" NAME="??0UIterCollationIterator@icu_53@@QEAA@PEBUCollationData@1@CAEAUUCharIterator@@@Z" PURGE="0" COMMENT="" />
    <EXPORT ORDINAL="313" NAME="??0UTF16CollationIterator@icu_53@@IEAA@AEBV01@@Z" PURGE="0" COMMENT="" />
    <EXPORT ORDINAL="314" NAME="??0UTF16CollationIterator@icu_53@@QEAA@AEBV01@PEB_W@Z" PURGE="0" COMMENT="" />
    <EXPORT ORDINAL="315" NAME="??0UTF16CollationIterator@icu_53@@QEAA@PEBUCollationData@1@CPEB_W11@Z" PURGE="0" COMMENT="" />
    <EXPORT ORDINAL="316" NAME="??0UTF8CollationIterator@icu_53@@QEAA@AEBV01@@Z" PURGE="0" COMMENT="" />
    <EXPORT ORDINAL="317" NAME="??0UTF8CollationIterator@icu_53@@QEAA@PEBUCollationData@1@CPEBEHH@Z" PURGE="0" COMMENT="" />
    <EXPORT ORDINAL="318" NAME="??0UnicodeReplacer@icu_53@@QEAA@AEBV01@@Z" PURGE="0" COMMENT="" />
    <EXPORT ORDINAL="319" NAME="??0UnicodeReplacer@icu_53@@QEAA@XZ" PURGE="0" COMMENT="" />
    <EXPORT ORDINAL="320" NAME="??0VTimeZone@icu_53@@AEAA@XZ" PURGE="0" COMMENT="" />
    <EXPORT ORDINAL="321" NAME="??0VTimeZone@icu_53@@QEAA@AEBV01@@Z" PURGE="0" COMMENT="" />
    <EXPORT ORDINAL="322" NAME="??0ZNStringPool@icu_53@@QEAA@AEAW4UErrorCode@@@Z" PURGE="0" COMMENT="" />
    <EXPORT ORDINAL="323" NAME="??1?$EnumSet@W4UDateFormatBooleanAttribute@@$0A@$03@icu_53@@QEAA@XZ" PURGE="0" COMMENT="" />
    <EXPORT ORDINAL="324" NAME="??1?$EnumSet@W4UNumberFormatAttribute@@$0BAAA@$0BAAC@@icu_53@@QEAA@XZ" PURGE="0" COMMENT="" />
    <EXPORT ORDINAL="325" NAME="??1?$MaybeStackHeaderAndArray@UdecNumber@@D$0CI@@icu_53@@QEAA@XZ" PURGE="0" COMMENT="" />
    <EXPORT ORDINAL="326" NAME="??1AlphabeticIndex@icu_53@@UEAA@XZ" PURGE="0" COMMENT="" />
    <EXPORT ORDINAL="327" NAME="??1AnnualTimeZoneRule@icu_53@@UEAA@XZ" PURGE="0" COMMENT="" />
    <EXPORT ORDINAL="328" NAME="??1BasicTimeZone@icu_53@@UEAA@XZ" PURGE="0" COMMENT="" />
    <EXPORT ORDINAL="329" NAME="??1Bucket@AlphabeticIndex@icu_53@@UEAA@XZ" PURGE="0" COMMENT="" />
    <EXPORT ORDINAL="330" NAME="??1CECalendar@icu_53@@MEAA@XZ" PURGE="0" COMMENT="" />
    <EXPORT ORDINAL="331" NAME="??1Calendar@icu_53@@UEAA@XZ" PURGE="0" COMMENT="" />
    <EXPORT ORDINAL="332" NAME="??1CalendarAstronomer@icu_53@@QEAA@XZ" PURGE="0" COMMENT="" />
    <EXPORT ORDINAL="333" NAME="??1ChineseCalendar@icu_53@@UEAA@XZ" PURGE="0" COMMENT="" />
    <EXPORT ORDINAL="334" NAME="??1ChoiceFormat@icu_53@@UEAA@XZ" PURGE="0" COMMENT="" />
    <EXPORT ORDINAL="335" NAME="??1CollationBaseDataBuilder@icu_53@@UEAA@XZ" PURGE="0" COMMENT="" />
    <EXPORT ORDINAL="336" NAME="??1CollationBuilder@icu_53@@UEAA@XZ" PURGE="0" COMMENT="" />
    <EXPORT ORDINAL="337" NAME="??1CollationDataBuilder@icu_53@@UEAA@XZ" PURGE="0" COMMENT="" />
    <EXPORT ORDINAL="338" NAME="??1CollationElementIterator@icu_53@@UEAA@XZ" PURGE="0" COMMENT="" />
    <EXPORT ORDINAL="339" NAME="??1CollationFastLatinBuilder@icu_53@@UEAA@XZ" PURGE="0" COMMENT="" />
    <EXPORT ORDINAL="340" NAME="??1CollationIterator@icu_53@@UEAA@XZ" PURGE="0" COMMENT="" />
    <EXPORT ORDINAL="341" NAME="??1CollationKey@icu_53@@UEAA@XZ" PURGE="0" COMMENT="" />
    <EXPORT ORDINAL="342" NAME="??1CollationRuleParser@icu_53@@QEAA@XZ" PURGE="0" COMMENT="" />
    <EXPORT ORDINAL="343" NAME="??1CollationSettings@icu_53@@UEAA@XZ" PURGE="0" COMMENT="" />
    <EXPORT ORDINAL="344" NAME="??1CollationTailoring@icu_53@@UEAA@XZ" PURGE="0" COMMENT="" />
    <EXPORT ORDINAL="345" NAME="??1Collator@icu_53@@UEAA@XZ" PURGE="0" COMMENT="" />
    <EXPORT ORDINAL="346" NAME="??1CollatorFactory@icu_53@@UEAA@XZ" PURGE="0" COMMENT="" />
    <EXPORT ORDINAL="347" NAME="??1CompactDecimalFormat@icu_53@@UEAA@XZ" PURGE="0" COMMENT="" />
    <EXPORT ORDINAL="348" NAME="??1CompoundTransliterator@icu_53@@UEAA@XZ" PURGE="0" COMMENT="" />
    <EXPORT ORDINAL="349" NAME="??1CurrencyAmount@icu_53@@UEAA@XZ" PURGE="0" COMMENT="" />
    <EXPORT ORDINAL="350" NAME="??1CurrencyPluralInfo@icu_53@@UEAA@XZ" PURGE="0" COMMENT="" />
    <EXPORT ORDINAL="351" NAME="??1CurrencyUnit@icu_53@@UEAA@XZ" PURGE="0" COMMENT="" />
    <EXPORT ORDINAL="352" NAME="??1DateFormat@icu_53@@UEAA@XZ" PURGE="0" COMMENT="" />
    <EXPORT ORDINAL="353" NAME="??1DateFormatSymbols@icu_53@@UEAA@XZ" PURGE="0" COMMENT="" />
    <EXPORT ORDINAL="354" NAME="??1DateIntervalFormat@icu_53@@UEAA@XZ" PURGE="0" COMMENT="" />
    <EXPORT ORDINAL="355" NAME="??1DateIntervalInfo@icu_53@@UEAA@XZ" PURGE="0" COMMENT="" />
    <EXPORT ORDINAL="356" NAME="??1DateTimePatternGenerator@icu_53@@UEAA@XZ" PURGE="0" COMMENT="" />
    <EXPORT ORDINAL="357" NAME="??1DateTimeRule@icu_53@@UEAA@XZ" PURGE="0" COMMENT="" />
    <EXPORT ORDINAL="358" NAME="??1DecimalFormat@icu_53@@UEAA@XZ" PURGE="0" COMMENT="" />
    <EXPORT ORDINAL="359" NAME="??1DecimalFormatSymbols@icu_53@@UEAA@XZ" PURGE="0" COMMENT="" />
    <EXPORT ORDINAL="360" NAME="??1DigitList@icu_53@@QEAA@XZ" PURGE="0" COMMENT="" />
    <EXPORT ORDINAL="361" NAME="??1DummyFormat@MessageFormat@icu_53@@UEAA@XZ" PURGE="0" COMMENT="" />
    <EXPORT ORDINAL="362" NAME="??1FCDUIterCollationIterator@icu_53@@UEAA@XZ" PURGE="0" COMMENT="" />
    <EXPORT ORDINAL="363" NAME="??1FCDUTF16CollationIterator@icu_53@@UEAA@XZ" PURGE="0" COMMENT="" />
    <EXPORT ORDINAL="364" NAME="??1FCDUTF8CollationIterator@icu_53@@UEAA@XZ" PURGE="0" COMMENT="" />
    <EXPORT ORDINAL="365" NAME="??1FieldPosition@icu_53@@UEAA@XZ" PURGE="0" COMMENT="" />
    <EXPORT ORDINAL="366" NAME="??1FieldPositionIterator@icu_53@@UEAA@XZ" PURGE="0" COMMENT="" />
    <EXPORT ORDINAL="367" NAME="??1Format@icu_53@@UEAA@XZ" PURGE="0" COMMENT="" />
    <EXPORT ORDINAL="368" NAME="??1Formattable@icu_53@@UEAA@XZ" PURGE="0" COMMENT="" />
    <EXPORT ORDINAL="369" NAME="??1GenderInfo@icu_53@@UEAA@XZ" PURGE="0" COMMENT="" />
    <EXPORT ORDINAL="370" NAME="??1GregorianCalendar@icu_53@@UEAA@XZ" PURGE="0" COMMENT="" />
    <EXPORT ORDINAL="371" NAME="??1HebrewCalendar@icu_53@@UEAA@XZ" PURGE="0" COMMENT="" />
    <EXPORT ORDINAL="372" NAME="??1IdentifierInfo@icu_53@@UEAA@XZ" PURGE="0" COMMENT="" />
    <EXPORT ORDINAL="373" NAME="??1ImmutableIndex@AlphabeticIndex@icu_53@@UEAA@XZ" PURGE="0" COMMENT="" />
    <EXPORT ORDINAL="374" NAME="??1Importer@CollationRuleParser@icu_53@@UEAA@XZ" PURGE="0" COMMENT="" />
    <EXPORT ORDINAL="375" NAME="??1InitialTimeZoneRule@icu_53@@UEAA@XZ" PURGE="0" COMMENT="" />
    <EXPORT ORDINAL="376" NAME="??1IslamicCalendar@icu_53@@UEAA@XZ" PURGE="0" COMMENT="" />
    <EXPORT ORDINAL="377" NAME="??1LocaleDisplayNames@icu_53@@UEAA@XZ" PURGE="0" COMMENT="" />
    <EXPORT ORDINAL="378" NAME="??1MatchInfoCollection@TimeZoneNames@icu_53@@UEAA@XZ" PURGE="0" COMMENT="" />
    <EXPORT ORDINAL="379" NAME="??1Measure@icu_53@@UEAA@XZ" PURGE="0" COMMENT="" />
    <EXPORT ORDINAL="380" NAME="??1MeasureFormat@icu_53@@UEAA@XZ" PURGE="0" COMMENT="" />
    <EXPORT ORDINAL="381" NAME="??1MeasureUnit@icu_53@@UEAA@XZ" PURGE="0" COMMENT="" />
    <EXPORT ORDINAL="382" NAME="??1MessageFormat@icu_53@@UEAA@XZ" PURGE="0" COMMENT="" />
    <EXPORT ORDINAL="383" NAME="??1NumberFormat@icu_53@@UEAA@XZ" PURGE="0" COMMENT="" />
    <EXPORT ORDINAL="384" NAME="??1NumberFormatFactory@icu_53@@UEAA@XZ" PURGE="0" COMMENT="" />
    <EXPORT ORDINAL="385" NAME="??1NumberingSystem@icu_53@@UEAA@XZ" PURGE="0" COMMENT="" />
    <EXPORT ORDINAL="386" NAME="??1OlsonTimeZone@icu_53@@UEAA@XZ" PURGE="0" COMMENT="" />
    <EXPORT ORDINAL="387" NAME="??1PluralAvailableLocalesEnumeration@icu_53@@UEAA@XZ" PURGE="0" COMMENT="" />
    <EXPORT ORDINAL="388" NAME="??1PluralFormat@icu_53@@UEAA@XZ" PURGE="0" COMMENT="" />
    <EXPORT ORDINAL="389" NAME="??1PluralRules@icu_53@@UEAA@XZ" PURGE="0" COMMENT="" />
    <EXPORT ORDINAL="390" NAME="??1PluralSelector@PluralFormat@icu_53@@UEAA@XZ" PURGE="0" COMMENT="" />
    <EXPORT ORDINAL="391" NAME="??1PluralSelectorAdapter@PluralFormat@icu_53@@UEAA@XZ" PURGE="0" COMMENT="" />
    <EXPORT ORDINAL="392" NAME="??1PluralSelectorProvider@MessageFormat@icu_53@@UEAA@XZ" PURGE="0" COMMENT="" />
    <EXPORT ORDINAL="393" NAME="??1QuantityFormatter@icu_53@@QEAA@XZ" PURGE="0" COMMENT="" />
    <EXPORT ORDINAL="394" NAME="??1RegexMatcher@icu_53@@UEAA@XZ" PURGE="0" COMMENT="" />
    <EXPORT ORDINAL="395" NAME="??1RegexPattern@icu_53@@UEAA@XZ" PURGE="0" COMMENT="" />
    <EXPORT ORDINAL="396" NAME="??1Region@icu_53@@UEAA@XZ" PURGE="0" COMMENT="" />
    <EXPORT ORDINAL="397" NAME="??1RelativeDateTimeFormatter@icu_53@@UEAA@XZ" PURGE="0" COMMENT="" />
    <EXPORT ORDINAL="398" NAME="??1RuleBasedCollator@icu_53@@UEAA@XZ" PURGE="0" COMMENT="" />
    <EXPORT ORDINAL="399" NAME="??1RuleBasedNumberFormat@icu_53@@UEAA@XZ" PURGE="0" COMMENT="" />
    <EXPORT ORDINAL="400" NAME="??1RuleBasedTimeZone@icu_53@@UEAA@XZ" PURGE="0" COMMENT="" />
    <EXPORT ORDINAL="401" NAME="??1ScriptSet@icu_53@@QEAA@XZ" PURGE="0" COMMENT="" />
    <EXPORT ORDINAL="402" NAME="??1SearchIterator@icu_53@@UEAA@XZ" PURGE="0" COMMENT="" />
    <EXPORT ORDINAL="403" NAME="??1SelectFormat@icu_53@@UEAA@XZ" PURGE="0" COMMENT="" />
    <EXPORT ORDINAL="404" NAME="??1SharedNumberFormat@icu_53@@UEAA@XZ" PURGE="0" COMMENT="" />
    <EXPORT ORDINAL="405" NAME="??1SharedPluralRules@icu_53@@UEAA@XZ" PURGE="0" COMMENT="" />
    <EXPORT ORDINAL="406" NAME="??1SimpleDateFormat@icu_53@@UEAA@XZ" PURGE="0" COMMENT="" />
    <EXPORT ORDINAL="407" NAME="??1SimpleNumberFormatFactory@icu_53@@UEAA@XZ" PURGE="0" COMMENT="" />
    <EXPORT ORDINAL="408" NAME="??1SimpleTimeZone@icu_53@@UEAA@XZ" PURGE="0" COMMENT="" />
    <EXPORT ORDINAL="409" NAME="??1Sink@CollationRuleParser@icu_53@@UEAA@XZ" PURGE="0" COMMENT="" />
    <EXPORT ORDINAL="410" NAME="??1StringSearch@icu_53@@UEAA@XZ" PURGE="0" COMMENT="" />
    <EXPORT ORDINAL="411" NAME="??1TextTrieMap@icu_53@@UEAA@XZ" PURGE="0" COMMENT="" />
    <EXPORT ORDINAL="412" NAME="??1TimeArrayTimeZoneRule@icu_53@@UEAA@XZ" PURGE="0" COMMENT="" />
    <EXPORT ORDINAL="413" NAME="??1TimeUnit@icu_53@@UEAA@XZ" PURGE="0" COMMENT="" />
    <EXPORT ORDINAL="414" NAME="??1TimeUnitAmount@icu_53@@UEAA@XZ" PURGE="0" COMMENT="" />
    <EXPORT ORDINAL="415" NAME="??1TimeUnitFormat@icu_53@@UEAA@XZ" PURGE="0" COMMENT="" />
    <EXPORT ORDINAL="416" NAME="??1TimeZone@icu_53@@UEAA@XZ" PURGE="0" COMMENT="" />
    <EXPORT ORDINAL="417" NAME="??1TimeZoneFormat@icu_53@@UEAA@XZ" PURGE="0" COMMENT="" />
    <EXPORT ORDINAL="418" NAME="??1TimeZoneGenericNames@icu_53@@UEAA@XZ" PURGE="0" COMMENT="" />
    <EXPORT ORDINAL="419" NAME="??1TimeZoneNames@icu_53@@UEAA@XZ" PURGE="0" COMMENT="" />
    <EXPORT ORDINAL="420" NAME="??1TimeZoneRule@icu_53@@UEAA@XZ" PURGE="0" COMMENT="" />
    <EXPORT ORDINAL="421" NAME="??1TimeZoneTransition@icu_53@@UEAA@XZ" PURGE="0" COMMENT="" />
    <EXPORT ORDINAL="422" NAME="??1Transliterator@icu_53@@UEAA@XZ" PURGE="0" COMMENT="" />
    <EXPORT ORDINAL="423" NAME="??1UIterCollationIterator@icu_53@@UEAA@XZ" PURGE="0" COMMENT="" />
    <EXPORT ORDINAL="424" NAME="??1UTF16CollationIterator@icu_53@@UEAA@XZ" PURGE="0" COMMENT="" />
    <EXPORT ORDINAL="425" NAME="??1UTF8CollationIterator@icu_53@@UEAA@XZ" PURGE="0" COMMENT="" />
    <EXPORT ORDINAL="426" NAME="??1UnicodeReplacer@icu_53@@UEAA@XZ" PURGE="0" COMMENT="" />
    <EXPORT ORDINAL="427" NAME="??1VTimeZone@icu_53@@UEAA@XZ" PURGE="0" COMMENT="" />
    <EXPORT ORDINAL="428" NAME="??1ZNStringPool@icu_53@@QEAA@XZ" PURGE="0" COMMENT="" />
    <EXPORT ORDINAL="429" NAME="??2DigitList@icu_53@@SAPEAX_KPEAXW4EStackMode@1@@Z" PURGE="0" COMMENT="" />
    <EXPORT ORDINAL="430" NAME="??3DigitList@icu_53@@SAXPEAX0W4EStackMode@1@@Z" PURGE="0" COMMENT="" />
    <EXPORT ORDINAL="431" NAME="??4?$EnumSet@W4UDateFormatBooleanAttribute@@$0A@$03@icu_53@@QEAAAEBV01@AEBV01@@Z" PURGE="0" COMMENT="" />
    <EXPORT ORDINAL="432" NAME="??4?$EnumSet@W4UNumberFormatAttribute@@$0BAAA@$0BAAC@@icu_53@@QEAAAEBV01@AEBV01@@Z" PURGE="0" COMMENT="" />
    <EXPORT ORDINAL="433" NAME="??4?$MaybeStackHeaderAndArray@UdecNumber@@D$0CI@@icu_53@@AEAAXAEBV01@@Z" PURGE="0" COMMENT="" />
    <EXPORT ORDINAL="434" NAME="??4AlphabeticIndex@icu_53@@AEAAAEAV01@AEBV01@@Z" PURGE="0" COMMENT="" />
    <EXPORT ORDINAL="435" NAME="??4AnnualTimeZoneRule@icu_53@@QEAAAEAV01@AEBV01@@Z" PURGE="0" COMMENT="" />
    <EXPORT ORDINAL="436" NAME="??4BasicTimeZone@icu_53@@QEAAAEAV01@AEBV01@@Z" PURGE="0" COMMENT="" />
    <EXPORT ORDINAL="437" NAME="??4Bucket@AlphabeticIndex@icu_53@@QEAAAEAV012@AEBV012@@Z" PURGE="0" COMMENT="" />
    <EXPORT ORDINAL="438" NAME="??4CECalendar@icu_53@@IEAAAEAV01@AEBV01@@Z" PURGE="0" COMMENT="" />
    <EXPORT ORDINAL="439" NAME="??4Calendar@icu_53@@IEAAAEAV01@AEBV01@@Z" PURGE="0" COMMENT="" />
    <EXPORT ORDINAL="440" NAME="??4CalendarAstronomer@icu_53@@QEAAAEAV01@AEBV01@@Z" PURGE="0" COMMENT="" />
    <EXPORT ORDINAL="441" NAME="??4ChineseCalendar@icu_53@@QEAAAEAV01@AEBV01@@Z" PURGE="0" COMMENT="" />
    <EXPORT ORDINAL="442" NAME="??4ChoiceFormat@icu_53@@QEAAAEBV01@AEBV01@@Z" PURGE="0" COMMENT="" />
    <EXPORT ORDINAL="443" NAME="??4Collation@icu_53@@QEAAAEAV01@AEBV01@@Z" PURGE="0" COMMENT="" />
    <EXPORT ORDINAL="444" NAME="??4CollationCompare@icu_53@@QEAAAEAV01@AEBV01@@Z" PURGE="0" COMMENT="" />
    <EXPORT ORDINAL="445" NAME="??4CollationDataReader@icu_53@@QEAAAEAU01@AEBU01@@Z" PURGE="0" COMMENT="" />
    <EXPORT ORDINAL="446" NAME="??4CollationDataWriter@icu_53@@QEAAAEAV01@AEBV01@@Z" PURGE="0" COMMENT="" />
    <EXPORT ORDINAL="447" NAME="??4CollationElementIterator@icu_53@@AEAAAEBV01@AEBV01@@Z" PURGE="0" COMMENT="" />
    <EXPORT ORDINAL="448" NAME="??4CollationFCD@icu_53@@QEAAAEAV01@AEBV01@@Z" PURGE="0" COMMENT="" />
    <EXPORT ORDINAL="449" NAME="??4CollationFastLatin@icu_53@@QEAAAEAV01@AEBV01@@Z" PURGE="0" COMMENT="" />
    <EXPORT ORDINAL="450" NAME="??4CollationKey@icu_53@@QEAAAEBV01@AEBV01@@Z" PURGE="0" COMMENT="" />
    <EXPORT ORDINAL="451" NAME="??4CollationKeys@icu_53@@QEAAAEAV01@AEBV01@@Z" PURGE="0" COMMENT="" />
    <EXPORT ORDINAL="452" NAME="??4CollationRoot@icu_53@@QEAAAEAV01@AEBV01@@Z" PURGE="0" COMMENT="" />
    <EXPORT ORDINAL="453" NAME="??4CollationRootElements@icu_53@@QEAAAEAV01@AEBV01@@Z" PURGE="0" COMMENT="" />
    <EXPORT ORDINAL="454" NAME="??4CollationSettings@icu_53@@QEAAAEAU01@AEBU01@@Z" PURGE="0" COMMENT="" />
    <EXPORT ORDINAL="455" NAME="??4CollationTailoring@icu_53@@QEAAAEAU01@AEBU01@@Z" PURGE="0" COMMENT="" />
    <EXPORT ORDINAL="456" NAME="??4CollationWeights@icu_53@@QEAAAEAV01@AEBV01@@Z" PURGE="0" COMMENT="" />
    <EXPORT ORDINAL="457" NAME="??4CollatorFactory@icu_53@@QEAAAEAV01@AEBV01@@Z" PURGE="0" COMMENT="" />
    <EXPORT ORDINAL="458" NAME="??4CompactDecimalFormat@icu_53@@QEAAAEAV01@AEBV01@@Z" PURGE="0" COMMENT="" />
    <EXPORT ORDINAL="459" NAME="??4CompoundTransliterator@icu_53@@AEAAAEAV01@AEBV01@@Z" PURGE="0" COMMENT="" />
    <EXPORT ORDINAL="460" NAME="??4CurrencyAmount@icu_53@@QEAAAEAV01@AEBV01@@Z" PURGE="0" COMMENT="" />
    <EXPORT ORDINAL="461" NAME="??4CurrencyPluralInfo@icu_53@@QEAAAEAV01@AEBV01@@Z" PURGE="0" COMMENT="" />
    <EXPORT ORDINAL="462" NAME="??4CurrencyUnit@icu_53@@QEAAAEAV01@AEBV01@@Z" PURGE="0" COMMENT="" />
    <EXPORT ORDINAL="463" NAME="??4DateFormat@icu_53@@IEAAAEAV01@AEBV01@@Z" PURGE="0" COMMENT="" />
    <EXPORT ORDINAL="464" NAME="??4DateFormatSymbols@icu_53@@QEAAAEAV01@AEBV01@@Z" PURGE="0" COMMENT="" />
    <EXPORT ORDINAL="465" NAME="??4DateIntervalFormat@icu_53@@IEAAAEAV01@AEBV01@@Z" PURGE="0" COMMENT="" />
    <EXPORT ORDINAL="466" NAME="??4DateIntervalInfo@icu_53@@QEAAAEAV01@AEBV01@@Z" PURGE="0" COMMENT="" />
    <EXPORT ORDINAL="467" NAME="??4DateTimePatternGenerator@icu_53@@AEAAAEAV01@AEBV01@@Z" PURGE="0" COMMENT="" />
    <EXPORT ORDINAL="468" NAME="??4DateTimeRule@icu_53@@QEAAAEAV01@AEBV01@@Z" PURGE="0" COMMENT="" />
    <EXPORT ORDINAL="469" NAME="??4DecimalFormat@icu_53@@QEAAAEAV01@AEBV01@@Z" PURGE="0" COMMENT="" />
    <EXPORT ORDINAL="470" NAME="??4DecimalFormatSymbols@icu_53@@QEAAAEAV01@AEBV01@@Z" PURGE="0" COMMENT="" />
    <EXPORT ORDINAL="471" NAME="??4DigitList@icu_53@@QEAAAEAV01@AEBV01@@Z" PURGE="0" COMMENT="" />
    <EXPORT ORDINAL="472" NAME="??4DummyFormat@MessageFormat@icu_53@@QEAAAEAV012@AEBV012@@Z" PURGE="0" COMMENT="" />
    <EXPORT ORDINAL="473" NAME="??4Ecliptic@CalendarAstronomer@icu_53@@QEAAAEAV012@AEBV012@@Z" PURGE="0" COMMENT="" />
    <EXPORT ORDINAL="474" NAME="??4Equatorial@CalendarAstronomer@icu_53@@QEAAAEAV012@AEBV012@@Z" PURGE="0" COMMENT="" />
    <EXPORT ORDINAL="475" NAME="??4FieldPosition@icu_53@@QEAAAEAV01@AEBV01@@Z" PURGE="0" COMMENT="" />
    <EXPORT ORDINAL="476" NAME="??4FieldPositionIterator@icu_53@@QEAAAEAV01@AEBV01@@Z" PURGE="0" COMMENT="" />
    <EXPORT ORDINAL="477" NAME="??4FixedDecimal@icu_53@@QEAAAEAV01@AEBV01@@Z" PURGE="0" COMMENT="" />
    <EXPORT ORDINAL="478" NAME="??4Format@icu_53@@IEAAAEAV01@AEBV01@@Z" PURGE="0" COMMENT="" />
    <EXPORT ORDINAL="479" NAME="??4Formattable@icu_53@@QEAAAEAV01@AEBV01@@Z" PURGE="0" COMMENT="" />
    <EXPORT ORDINAL="480" NAME="??4GregorianCalendar@icu_53@@QEAAAEAV01@AEBV01@@Z" PURGE="0" COMMENT="" />
    <EXPORT ORDINAL="481" NAME="??4Horizon@CalendarAstronomer@icu_53@@QEAAAEAV012@AEBV012@@Z" PURGE="0" COMMENT="" />
    <EXPORT ORDINAL="482" NAME="??4IdentifierInfo@icu_53@@QEAAAEAV01@AEBV01@@Z" PURGE="0" COMMENT="" />
    <EXPORT ORDINAL="483" NAME="??4ImmutableIndex@AlphabeticIndex@icu_53@@QEAAAEAV012@AEBV012@@Z" PURGE="0" COMMENT="" />
    <EXPORT ORDINAL="484" NAME="??4Importer@CollationRuleParser@icu_53@@QEAAAEAV012@AEBV012@@Z" PURGE="0" COMMENT="" />
    <EXPORT ORDINAL="485" NAME="??4InitialTimeZoneRule@icu_53@@QEAAAEAV01@AEBV01@@Z" PURGE="0" COMMENT="" />
    <EXPORT ORDINAL="486" NAME="??4IslamicCalendar@icu_53@@QEAAAEAV01@AEBV01@@Z" PURGE="0" COMMENT="" />
    <EXPORT ORDINAL="487" NAME="??4LocaleDisplayNames@icu_53@@QEAAAEAV01@AEBV01@@Z" PURGE="0" COMMENT="" />
    <EXPORT ORDINAL="488" NAME="??4MatchInfoCollection@TimeZoneNames@icu_53@@QEAAAEAV012@AEBV012@@Z" PURGE="0" COMMENT="" />
    <EXPORT ORDINAL="489" NAME="??4Measure@icu_53@@QEAAAEAV01@AEBV01@@Z" PURGE="0" COMMENT="" />
    <EXPORT ORDINAL="490" NAME="??4MeasureFormat@icu_53@@QEAAAEAV01@AEBV01@@Z" PURGE="0" COMMENT="" />
    <EXPORT ORDINAL="491" NAME="??4MeasureUnit@icu_53@@QEAAAEAV01@AEBV01@@Z" PURGE="0" COMMENT="" />
    <EXPORT ORDINAL="492" NAME="??4MessageFormat@icu_53@@QEAAAEBV01@AEBV01@@Z" PURGE="0" COMMENT="" />
    <EXPORT ORDINAL="493" NAME="??4MoonAge@CalendarAstronomer@icu_53@@QEAAAEAV012@AEBV012@@Z" PURGE="0" COMMENT="" />
    <EXPORT ORDINAL="494" NAME="??4NumberFormat@icu_53@@IEAAAEAV01@AEBV01@@Z" PURGE="0" COMMENT="" />
    <EXPORT ORDINAL="495" NAME="??4NumberFormatFactory@icu_53@@QEAAAEAV01@AEBV01@@Z" PURGE="0" COMMENT="" />
    <EXPORT ORDINAL="496" NAME="??4NumberingSystem@icu_53@@QEAAAEAV01@AEBV01@@Z" PURGE="0" COMMENT="" />
    <EXPORT ORDINAL="497" NAME="??4OlsonTimeZone@icu_53@@QEAAAEAV01@AEBV01@@Z" PURGE="0" COMMENT="" />
    <EXPORT ORDINAL="498" NAME="??4PluralAvailableLocalesEnumeration@icu_53@@QEAAAEAV01@AEBV01@@Z" PURGE="0" COMMENT="" />
    <EXPORT ORDINAL="499" NAME="??4PluralFormat@icu_53@@QEAAAEAV01@AEBV01@@Z" PURGE="0" COMMENT="" />
    <EXPORT ORDINAL="500" NAME="??4PluralRules@icu_53@@QEAAAEAV01@AEBV01@@Z" PURGE="0" COMMENT="" />
    <EXPORT ORDINAL="501" NAME="??4PluralSelector@PluralFormat@icu_53@@QEAAAEAV012@AEBV012@@Z" PURGE="0" COMMENT="" />
    <EXPORT ORDINAL="502" NAME="??4PluralSelectorAdapter@PluralFormat@icu_53@@QEAAAEAV012@AEBV012@@Z" PURGE="0" COMMENT="" />
    <EXPORT ORDINAL="503" NAME="??4QuantityFormatter@icu_53@@QEAAAEAV01@AEBV01@@Z" PURGE="0" COMMENT="" />
    <EXPORT ORDINAL="504" NAME="??4RegexPattern@icu_53@@QEAAAEAV01@AEBV01@@Z" PURGE="0" COMMENT="" />
    <EXPORT ORDINAL="505" NAME="??4Region@icu_53@@QEAAAEAV01@AEBV01@@Z" PURGE="0" COMMENT="" />
    <EXPORT ORDINAL="506" NAME="??4RelativeDateTimeFormatter@icu_53@@QEAAAEAV01@AEBV01@@Z" PURGE="0" COMMENT="" />
    <EXPORT ORDINAL="507" NAME="??4RuleBasedCollator@icu_53@@QEAAAEAV01@AEBV01@@Z" PURGE="0" COMMENT="" />
    <EXPORT ORDINAL="508" NAME="??4RuleBasedNumberFormat@icu_53@@QEAAAEAV01@AEBV01@@Z" PURGE="0" COMMENT="" />
    <EXPORT ORDINAL="509" NAME="??4RuleBasedTimeZone@icu_53@@QEAAAEAV01@AEBV01@@Z" PURGE="0" COMMENT="" />
    <EXPORT ORDINAL="510" NAME="??4ScriptSet@icu_53@@QEAAAEAV01@AEBV01@@Z" PURGE="0" COMMENT="" />
    <EXPORT ORDINAL="511" NAME="??4SearchIterator@icu_53@@IEAAAEAV01@AEBV01@@Z" PURGE="0" COMMENT="" />
    <EXPORT ORDINAL="512" NAME="??4SelectFormat@icu_53@@QEAAAEAV01@AEBV01@@Z" PURGE="0" COMMENT="" />
    <EXPORT ORDINAL="513" NAME="??4SimpleDateFormat@icu_53@@QEAAAEAV01@AEBV01@@Z" PURGE="0" COMMENT="" />
    <EXPORT ORDINAL="514" NAME="??4SimpleTimeZone@icu_53@@QEAAAEAV01@AEBV01@@Z" PURGE="0" COMMENT="" />
    <EXPORT ORDINAL="515" NAME="??4Sink@CollationRuleParser@icu_53@@QEAAAEAV012@AEBV012@@Z" PURGE="0" COMMENT="" />
    <EXPORT ORDINAL="516" NAME="??4StringSearch@icu_53@@QEAAAEAV01@AEBV01@@Z" PURGE="0" COMMENT="" />
    <EXPORT ORDINAL="517" NAME="??4TextTrieMap@icu_53@@QEAAAEAV01@AEBV01@@Z" PURGE="0" COMMENT="" />
    <EXPORT ORDINAL="518" NAME="??4TimeArrayTimeZoneRule@icu_53@@QEAAAEAV01@AEBV01@@Z" PURGE="0" COMMENT="" />
    <EXPORT ORDINAL="519" NAME="??4TimeUnit@icu_53@@QEAAAEAV01@AEBV01@@Z" PURGE="0" COMMENT="" />
    <EXPORT ORDINAL="520" NAME="??4TimeUnitAmount@icu_53@@QEAAAEAV01@AEBV01@@Z" PURGE="0" COMMENT="" />
    <EXPORT ORDINAL="521" NAME="??4TimeUnitFormat@icu_53@@QEAAAEAV01@AEBV01@@Z" PURGE="0" COMMENT="" />
    <EXPORT ORDINAL="522" NAME="??4TimeZone@icu_53@@IEAAAEAV01@AEBV01@@Z" PURGE="0" COMMENT="" />
    <EXPORT ORDINAL="523" NAME="??4TimeZoneFormat@icu_53@@QEAAAEAV01@AEBV01@@Z" PURGE="0" COMMENT="" />
    <EXPORT ORDINAL="524" NAME="??4TimeZoneGenericNames@icu_53@@QEAAAEAV01@AEBV01@@Z" PURGE="0" COMMENT="" />
    <EXPORT ORDINAL="525" NAME="??4TimeZoneNames@icu_53@@QEAAAEAV01@AEBV01@@Z" PURGE="0" COMMENT="" />
    <EXPORT ORDINAL="526" NAME="??4TimeZoneRule@icu_53@@IEAAAEAV01@AEBV01@@Z" PURGE="0" COMMENT="" />
    <EXPORT ORDINAL="527" NAME="??4TimeZoneTransition@icu_53@@QEAAAEAV01@AEBV01@@Z" PURGE="0" COMMENT="" />
    <EXPORT ORDINAL="528" NAME="??4Transliterator@icu_53@@IEAAAEAV01@AEBV01@@Z" PURGE="0" COMMENT="" />
    <EXPORT ORDINAL="529" NAME="??4UnicodeReplacer@icu_53@@QEAAAEAV01@AEBV01@@Z" PURGE="0" COMMENT="" />
    <EXPORT ORDINAL="530" NAME="??4VTimeZone@icu_53@@QEAAAEAV01@AEBV01@@Z" PURGE="0" COMMENT="" />
    <EXPORT ORDINAL="531" NAME="??4ZNStringPool@icu_53@@QEAAAEAV01@AEBV01@@Z" PURGE="0" COMMENT="" />
    <EXPORT ORDINAL="532" NAME="??4ZoneMeta@icu_53@@QEAAAEAV01@AEBV01@@Z" PURGE="0" COMMENT="" />
    <EXPORT ORDINAL="533" NAME="??8?$MaybeStackHeaderAndArray@UdecNumber@@D$0CI@@icu_53@@AEAA_NAEBV01@@Z" PURGE="0" COMMENT="" />
    <EXPORT ORDINAL="534" NAME="??8AlphabeticIndex@icu_53@@EEBACAEBV01@@Z" PURGE="0" COMMENT="" />
    <EXPORT ORDINAL="535" NAME="??8AnnualTimeZoneRule@icu_53@@UEBACAEBVTimeZoneRule@1@@Z" PURGE="0" COMMENT="" />
    <EXPORT ORDINAL="536" NAME="??8Calendar@icu_53@@UEBACAEBV01@@Z" PURGE="0" COMMENT="" />
    <EXPORT ORDINAL="537" NAME="??8ChoiceFormat@icu_53@@UEBACAEBVFormat@1@@Z" PURGE="0" COMMENT="" />
    <EXPORT ORDINAL="538" NAME="??8CollationElementIterator@icu_53@@QEBACAEBV01@@Z" PURGE="0" COMMENT="" />
    <EXPORT ORDINAL="539" NAME="??8CollationIterator@icu_53@@UEBACAEBV01@@Z" PURGE="0" COMMENT="" />
    <EXPORT ORDINAL="540" NAME="??8CollationKey@icu_53@@QEBACAEBV01@@Z" PURGE="0" COMMENT="" />
    <EXPORT ORDINAL="541" NAME="??8CollationSettings@icu_53@@QEBACAEBU01@@Z" PURGE="0" COMMENT="" />
    <EXPORT ORDINAL="542" NAME="??8Collator@icu_53@@UEBACAEBV01@@Z" PURGE="0" COMMENT="" />
    <EXPORT ORDINAL="543" NAME="??8CompactDecimalFormat@icu_53@@UEBACAEBVFormat@1@@Z" PURGE="0" COMMENT="" />
    <EXPORT ORDINAL="544" NAME="??8CurrencyPluralInfo@icu_53@@QEBACAEBV01@@Z" PURGE="0" COMMENT="" />
    <EXPORT ORDINAL="545" NAME="??8DateFormat@icu_53@@UEBACAEBVFormat@1@@Z" PURGE="0" COMMENT="" />
    <EXPORT ORDINAL="546" NAME="??8DateFormatSymbols@icu_53@@QEBACAEBV01@@Z" PURGE="0" COMMENT="" />
    <EXPORT ORDINAL="547" NAME="??8DateIntervalFormat@icu_53@@UEBACAEBVFormat@1@@Z" PURGE="0" COMMENT="" />
    <EXPORT ORDINAL="548" NAME="??8DateIntervalInfo@icu_53@@UEBACAEBV01@@Z" PURGE="0" COMMENT="" />
    <EXPORT ORDINAL="549" NAME="??8DateTimePatternGenerator@icu_53@@QEBACAEBV01@@Z" PURGE="0" COMMENT="" />
    <EXPORT ORDINAL="550" NAME="??8DateTimeRule@icu_53@@QEBACAEBV01@@Z" PURGE="0" COMMENT="" />
    <EXPORT ORDINAL="551" NAME="??8DecimalFormat@icu_53@@UEBACAEBVFormat@1@@Z" PURGE="0" COMMENT="" />
    <EXPORT ORDINAL="552" NAME="??8DecimalFormatSymbols@icu_53@@QEBACAEBV01@@Z" PURGE="0" COMMENT="" />
    <EXPORT ORDINAL="553" NAME="??8DigitList@icu_53@@QEBACAEBV01@@Z" PURGE="0" COMMENT="" />
    <EXPORT ORDINAL="554" NAME="??8DummyFormat@MessageFormat@icu_53@@UEBACAEBVFormat@2@@Z" PURGE="0" COMMENT="" />
    <EXPORT ORDINAL="555" NAME="??8FCDUTF16CollationIterator@icu_53@@UEBACAEBVCollationIterator@1@@Z" PURGE="0" COMMENT="" />
    <EXPORT ORDINAL="556" NAME="??8FieldPosition@icu_53@@QEBACAEBV01@@Z" PURGE="0" COMMENT="" />
    <EXPORT ORDINAL="557" NAME="??8FieldPositionIterator@icu_53@@QEBACAEBV01@@Z" PURGE="0" COMMENT="" />
    <EXPORT ORDINAL="558" NAME="??8Format@icu_53@@UEBACAEBV01@@Z" PURGE="0" COMMENT="" />
    <EXPORT ORDINAL="559" NAME="??8Formattable@icu_53@@QEBACAEBV01@@Z" PURGE="0" COMMENT="" />
    <EXPORT ORDINAL="560" NAME="??8InitialTimeZoneRule@icu_53@@UEBACAEBVTimeZoneRule@1@@Z" PURGE="0" COMMENT="" />
    <EXPORT ORDINAL="561" NAME="??8Measure@icu_53@@QEBACAEBVUObject@1@@Z" PURGE="0" COMMENT="" />
    <EXPORT ORDINAL="562" NAME="??8MeasureFormat@icu_53@@UEBACAEBVFormat@1@@Z" PURGE="0" COMMENT="" />
    <EXPORT ORDINAL="563" NAME="??8MeasureUnit@icu_53@@UEBACAEBVUObject@1@@Z" PURGE="0" COMMENT="" />
    <EXPORT ORDINAL="564" NAME="??8MessageFormat@icu_53@@UEBACAEBVFormat@1@@Z" PURGE="0" COMMENT="" />
    <EXPORT ORDINAL="565" NAME="??8NumberFormat@icu_53@@UEBACAEBVFormat@1@@Z" PURGE="0" COMMENT="" />
    <EXPORT ORDINAL="566" NAME="??8OlsonTimeZone@icu_53@@UEBACAEBVTimeZone@1@@Z" PURGE="0" COMMENT="" />
    <EXPORT ORDINAL="567" NAME="??8PluralFormat@icu_53@@UEBACAEBVFormat@1@@Z" PURGE="0" COMMENT="" />
    <EXPORT ORDINAL="568" NAME="??8PluralRules@icu_53@@UEBACAEBV01@@Z" PURGE="0" COMMENT="" />
    <EXPORT ORDINAL="569" NAME="??8RegexPattern@icu_53@@QEBACAEBV01@@Z" PURGE="0" COMMENT="" />
    <EXPORT ORDINAL="570" NAME="??8Region@icu_53@@QEBACAEBV01@@Z" PURGE="0" COMMENT="" />
    <EXPORT ORDINAL="571" NAME="??8RuleBasedCollator@icu_53@@UEBACAEBVCollator@1@@Z" PURGE="0" COMMENT="" />
    <EXPORT ORDINAL="572" NAME="??8RuleBasedNumberFormat@icu_53@@UEBACAEBVFormat@1@@Z" PURGE="0" COMMENT="" />
    <EXPORT ORDINAL="573" NAME="??8RuleBasedTimeZone@icu_53@@UEBACAEBVTimeZone@1@@Z" PURGE="0" COMMENT="" />
    <EXPORT ORDINAL="574" NAME="??8ScriptSet@icu_53@@QEBACAEBV01@@Z" PURGE="0" COMMENT="" />
    <EXPORT ORDINAL="575" NAME="??8SearchIterator@icu_53@@UEBACAEBV01@@Z" PURGE="0" COMMENT="" />
    <EXPORT ORDINAL="576" NAME="??8SelectFormat@icu_53@@UEBACAEBVFormat@1@@Z" PURGE="0" COMMENT="" />
    <EXPORT ORDINAL="577" NAME="??8SimpleDateFormat@icu_53@@UEBACAEBVFormat@1@@Z" PURGE="0" COMMENT="" />
    <EXPORT ORDINAL="578" NAME="??8SimpleTimeZone@icu_53@@UEBACAEBVTimeZone@1@@Z" PURGE="0" COMMENT="" />
    <EXPORT ORDINAL="579" NAME="??8StringSearch@icu_53@@UEBACAEBVSearchIterator@1@@Z" PURGE="0" COMMENT="" />
    <EXPORT ORDINAL="580" NAME="??8TimeArrayTimeZoneRule@icu_53@@UEBACAEBVTimeZoneRule@1@@Z" PURGE="0" COMMENT="" />
    <EXPORT ORDINAL="581" NAME="??8TimeUnitAmount@icu_53@@UEBACAEBVUObject@1@@Z" PURGE="0" COMMENT="" />
    <EXPORT ORDINAL="582" NAME="??8TimeZone@icu_53@@UEBACAEBV01@@Z" PURGE="0" COMMENT="" />
    <EXPORT ORDINAL="583" NAME="??8TimeZoneFormat@icu_53@@UEBACAEBVFormat@1@@Z" PURGE="0" COMMENT="" />
    <EXPORT ORDINAL="584" NAME="??8TimeZoneGenericNames@icu_53@@UEBACAEBV01@@Z" PURGE="0" COMMENT="" />
    <EXPORT ORDINAL="585" NAME="??8TimeZoneRule@icu_53@@UEBACAEBV01@@Z" PURGE="0" COMMENT="" />
    <EXPORT ORDINAL="586" NAME="??8TimeZoneTransition@icu_53@@QEBACAEBV01@@Z" PURGE="0" COMMENT="" />
    <EXPORT ORDINAL="587" NAME="??8UTF16CollationIterator@icu_53@@UEBACAEBVCollationIterator@1@@Z" PURGE="0" COMMENT="" />
    <EXPORT ORDINAL="588" NAME="??8VTimeZone@icu_53@@UEBACAEBVTimeZone@1@@Z" PURGE="0" COMMENT="" />
    <EXPORT ORDINAL="589" NAME="??9?$MaybeStackHeaderAndArray@UdecNumber@@D$0CI@@icu_53@@AEAA_NAEBV01@@Z" PURGE="0" COMMENT="" />
    <EXPORT ORDINAL="590" NAME="??9AlphabeticIndex@icu_53@@EEBACAEBV01@@Z" PURGE="0" COMMENT="" />
    <EXPORT ORDINAL="591" NAME="??9AnnualTimeZoneRule@icu_53@@UEBACAEBVTimeZoneRule@1@@Z" PURGE="0" COMMENT="" />
    <EXPORT ORDINAL="592" NAME="??9Calendar@icu_53@@QEBACAEBV01@@Z" PURGE="0" COMMENT="" />
    <EXPORT ORDINAL="593" NAME="??9CollationElementIterator@icu_53@@QEBACAEBV01@@Z" PURGE="0" COMMENT="" />
    <EXPORT ORDINAL="594" NAME="??9CollationIterator@icu_53@@QEBACAEBV01@@Z" PURGE="0" COMMENT="" />
    <EXPORT ORDINAL="595" NAME="??9CollationKey@icu_53@@QEBACAEBV01@@Z" PURGE="0" COMMENT="" />
    <EXPORT ORDINAL="596" NAME="??9CollationSettings@icu_53@@QEBACAEBU01@@Z" PURGE="0" COMMENT="" />
    <EXPORT ORDINAL="597" NAME="??9Collator@icu_53@@UEBACAEBV01@@Z" PURGE="0" COMMENT="" />
    <EXPORT ORDINAL="598" NAME="??9CurrencyPluralInfo@icu_53@@QEBACAEBV01@@Z" PURGE="0" COMMENT="" />
    <EXPORT ORDINAL="599" NAME="??9DateFormatSymbols@icu_53@@QEBACAEBV01@@Z" PURGE="0" COMMENT="" />
    <EXPORT ORDINAL="600" NAME="??9DateIntervalFormat@icu_53@@QEBACAEBVFormat@1@@Z" PURGE="0" COMMENT="" />
    <EXPORT ORDINAL="601" NAME="??9DateIntervalInfo@icu_53@@QEBACAEBV01@@Z" PURGE="0" COMMENT="" />
    <EXPORT ORDINAL="602" NAME="??9DateTimePatternGenerator@icu_53@@QEBACAEBV01@@Z" PURGE="0" COMMENT="" />
    <EXPORT ORDINAL="603" NAME="??9DateTimeRule@icu_53@@QEBACAEBV01@@Z" PURGE="0" COMMENT="" />
    <EXPORT ORDINAL="604" NAME="??9DecimalFormatSymbols@icu_53@@QEBACAEBV01@@Z" PURGE="0" COMMENT="" />
    <EXPORT ORDINAL="605" NAME="??9DigitList@icu_53@@QEBACAEBV01@@Z" PURGE="0" COMMENT="" />
    <EXPORT ORDINAL="606" NAME="??9FieldPosition@icu_53@@QEBACAEBV01@@Z" PURGE="0" COMMENT="" />
    <EXPORT ORDINAL="607" NAME="??9FieldPositionIterator@icu_53@@QEBACAEBV01@@Z" PURGE="0" COMMENT="" />
    <EXPORT ORDINAL="608" NAME="??9Format@icu_53@@QEBACAEBV01@@Z" PURGE="0" COMMENT="" />
    <EXPORT ORDINAL="609" NAME="??9Formattable@icu_53@@QEBACAEBV01@@Z" PURGE="0" COMMENT="" />
    <EXPORT ORDINAL="610" NAME="??9InitialTimeZoneRule@icu_53@@UEBACAEBVTimeZoneRule@1@@Z" PURGE="0" COMMENT="" />
    <EXPORT ORDINAL="611" NAME="??9MeasureUnit@icu_53@@QEBACAEBVUObject@1@@Z" PURGE="0" COMMENT="" />
    <EXPORT ORDINAL="612" NAME="??9PluralFormat@icu_53@@UEBACAEBVFormat@1@@Z" PURGE="0" COMMENT="" />
    <EXPORT ORDINAL="613" NAME="??9PluralRules@icu_53@@QEBACAEBV01@@Z" PURGE="0" COMMENT="" />
    <EXPORT ORDINAL="614" NAME="??9RegexPattern@icu_53@@QEBACAEBV01@@Z" PURGE="0" COMMENT="" />
    <EXPORT ORDINAL="615" NAME="??9Region@icu_53@@QEBACAEBV01@@Z" PURGE="0" COMMENT="" />
    <EXPORT ORDINAL="616" NAME="??9RuleBasedTimeZone@icu_53@@UEBACAEBVTimeZone@1@@Z" PURGE="0" COMMENT="" />
    <EXPORT ORDINAL="617" NAME="??9SearchIterator@icu_53@@QEBACAEBV01@@Z" PURGE="0" COMMENT="" />
    <EXPORT ORDINAL="618" NAME="??9SelectFormat@icu_53@@UEBACAEBVFormat@1@@Z" PURGE="0" COMMENT="" />
    <EXPORT ORDINAL="619" NAME="??9TimeArrayTimeZoneRule@icu_53@@UEBACAEBVTimeZoneRule@1@@Z" PURGE="0" COMMENT="" />
    <EXPORT ORDINAL="620" NAME="??9TimeUnitAmount@icu_53@@QEBACAEBVUObject@1@@Z" PURGE="0" COMMENT="" />
    <EXPORT ORDINAL="621" NAME="??9TimeUnitFormat@icu_53@@QEBACAEBVFormat@1@@Z" PURGE="0" COMMENT="" />
    <EXPORT ORDINAL="622" NAME="??9TimeZone@icu_53@@QEBACAEBV01@@Z" PURGE="0" COMMENT="" />
    <EXPORT ORDINAL="623" NAME="??9TimeZoneGenericNames@icu_53@@UEBACAEBV01@@Z" PURGE="0" COMMENT="" />
    <EXPORT ORDINAL="624" NAME="??9TimeZoneNames@icu_53@@QEBACAEBV01@@Z" PURGE="0" COMMENT="" />
    <EXPORT ORDINAL="625" NAME="??9TimeZoneRule@icu_53@@UEBACAEBV01@@Z" PURGE="0" COMMENT="" />
    <EXPORT ORDINAL="626" NAME="??9TimeZoneTransition@icu_53@@QEBACAEBV01@@Z" PURGE="0" COMMENT="" />
    <EXPORT ORDINAL="627" NAME="??9VTimeZone@icu_53@@UEBACAEBVTimeZone@1@@Z" PURGE="0" COMMENT="" />
    <EXPORT ORDINAL="628" NAME="??A?$MaybeStackHeaderAndArray@UdecNumber@@D$0CI@@icu_53@@QEAAAEAD_J@Z" PURGE="0" COMMENT="" />
    <EXPORT ORDINAL="629" NAME="??AFormattable@icu_53@@QEAAAEAV01@H@Z" PURGE="0" COMMENT="" />
    <EXPORT ORDINAL="630" NAME="??B?$MaybeStackHeaderAndArray@UdecNumber@@D$0CI@@icu_53@@QEBAPEAUdecNumber@@XZ" PURGE="0" COMMENT="" />
    <EXPORT ORDINAL="631" NAME="??CSharedNumberFormat@icu_53@@QEBAPEBVNumberFormat@1@XZ" PURGE="0" COMMENT="" />
    <EXPORT ORDINAL="632" NAME="??CSharedPluralRules@icu_53@@QEBAPEBVPluralRules@1@XZ" PURGE="0" COMMENT="" />
    <EXPORT ORDINAL="633" NAME="??DSharedNumberFormat@icu_53@@QEBAAEBVNumberFormat@1@XZ" PURGE="0" COMMENT="" />
    <EXPORT ORDINAL="634" NAME="??DSharedPluralRules@icu_53@@QEBAAEBVPluralRules@1@XZ" PURGE="0" COMMENT="" />
    <EXPORT ORDINAL="635" NAME="??_7AlphabeticIndex@icu_53@@6B@" PURGE="-1" COMMENT="" />
    <EXPORT ORDINAL="636" NAME="??_7AnnualTimeZoneRule@icu_53@@6B@" PURGE="-1" COMMENT="" />
    <EXPORT ORDINAL="637" NAME="??_7BasicTimeZone@icu_53@@6B@" PURGE="-1" COMMENT="" />
    <EXPORT ORDINAL="638" NAME="??_7Bucket@AlphabeticIndex@icu_53@@6B@" PURGE="-1" COMMENT="" />
    <EXPORT ORDINAL="639" NAME="??_7CECalendar@icu_53@@6B@" PURGE="-1" COMMENT="" />
    <EXPORT ORDINAL="640" NAME="??_7Calendar@icu_53@@6B@" PURGE="-1" COMMENT="" />
    <EXPORT ORDINAL="641" NAME="??_7ChineseCalendar@icu_53@@6B@" PURGE="-1" COMMENT="" />
    <EXPORT ORDINAL="642" NAME="??_7ChoiceFormat@icu_53@@6B@" PURGE="-1" COMMENT="" />
    <EXPORT ORDINAL="643" NAME="??_7CollationBaseDataBuilder@icu_53@@6B@" PURGE="-1" COMMENT="" />
    <EXPORT ORDINAL="644" NAME="??_7CollationBuilder@icu_53@@6B@" PURGE="-1" COMMENT="" />
    <EXPORT ORDINAL="645" NAME="??_7CollationDataBuilder@icu_53@@6B@" PURGE="-1" COMMENT="" />
    <EXPORT ORDINAL="646" NAME="??_7CollationElementIterator@icu_53@@6B@" PURGE="-1" COMMENT="" />
    <EXPORT ORDINAL="647" NAME="??_7CollationFastLatinBuilder@icu_53@@6B@" PURGE="-1" COMMENT="" />
    <EXPORT ORDINAL="648" NAME="??_7CollationIterator@icu_53@@6B@" PURGE="-1" COMMENT="" />
    <EXPORT ORDINAL="649" NAME="??_7CollationKey@icu_53@@6B@" PURGE="-1" COMMENT="" />
    <EXPORT ORDINAL="650" NAME="??_7CollationSettings@icu_53@@6B@" PURGE="-1" COMMENT="" />
    <EXPORT ORDINAL="651" NAME="??_7CollationTailoring@icu_53@@6B@" PURGE="-1" COMMENT="" />
    <EXPORT ORDINAL="652" NAME="??_7Collator@icu_53@@6B@" PURGE="-1" COMMENT="" />
    <EXPORT ORDINAL="653" NAME="??_7CollatorFactory@icu_53@@6B@" PURGE="-1" COMMENT="" />
    <EXPORT ORDINAL="654" NAME="??_7CompactDecimalFormat@icu_53@@6B@" PURGE="-1" COMMENT="" />
    <EXPORT ORDINAL="655" NAME="??_7CompoundTransliterator@icu_53@@6B@" PURGE="-1" COMMENT="" />
    <EXPORT ORDINAL="656" NAME="??_7CurrencyAmount@icu_53@@6B@" PURGE="-1" COMMENT="" />
    <EXPORT ORDINAL="657" NAME="??_7CurrencyPluralInfo@icu_53@@6B@" PURGE="-1" COMMENT="" />
    <EXPORT ORDINAL="658" NAME="??_7CurrencyUnit@icu_53@@6B@" PURGE="-1" COMMENT="" />
    <EXPORT ORDINAL="659" NAME="??_7DateFormat@icu_53@@6B@" PURGE="-1" COMMENT="" />
    <EXPORT ORDINAL="660" NAME="??_7DateFormatSymbols@icu_53@@6B@" PURGE="-1" COMMENT="" />
    <EXPORT ORDINAL="661" NAME="??_7DateIntervalFormat@icu_53@@6B@" PURGE="-1" COMMENT="" />
    <EXPORT ORDINAL="662" NAME="??_7DateIntervalInfo@icu_53@@6B@" PURGE="-1" COMMENT="" />
    <EXPORT ORDINAL="663" NAME="??_7DateTimePatternGenerator@icu_53@@6B@" PURGE="-1" COMMENT="" />
    <EXPORT ORDINAL="664" NAME="??_7DateTimeRule@icu_53@@6B@" PURGE="-1" COMMENT="" />
    <EXPORT ORDINAL="665" NAME="??_7DecimalFormat@icu_53@@6B@" PURGE="-1" COMMENT="" />
    <EXPORT ORDINAL="666" NAME="??_7DecimalFormatSymbols@icu_53@@6B@" PURGE="-1" COMMENT="" />
    <EXPORT ORDINAL="667" NAME="??_7DummyFormat@MessageFormat@icu_53@@6B@" PURGE="-1" COMMENT="" />
    <EXPORT ORDINAL="668" NAME="??_7FCDUIterCollationIterator@icu_53@@6B@" PURGE="-1" COMMENT="" />
    <EXPORT ORDINAL="669" NAME="??_7FCDUTF16CollationIterator@icu_53@@6B@" PURGE="-1" COMMENT="" />
    <EXPORT ORDINAL="670" NAME="??_7FCDUTF8CollationIterator@icu_53@@6B@" PURGE="-1" COMMENT="" />
    <EXPORT ORDINAL="671" NAME="??_7FieldPosition@icu_53@@6B@" PURGE="-1" COMMENT="" />
    <EXPORT ORDINAL="672" NAME="??_7FieldPositionIterator@icu_53@@6B@" PURGE="-1" COMMENT="" />
    <EXPORT ORDINAL="673" NAME="??_7Format@icu_53@@6B@" PURGE="-1" COMMENT="" />
    <EXPORT ORDINAL="674" NAME="??_7Formattable@icu_53@@6B@" PURGE="-1" COMMENT="" />
    <EXPORT ORDINAL="675" NAME="??_7GenderInfo@icu_53@@6B@" PURGE="-1" COMMENT="" />
    <EXPORT ORDINAL="676" NAME="??_7GregorianCalendar@icu_53@@6B@" PURGE="-1" COMMENT="" />
    <EXPORT ORDINAL="677" NAME="??_7HebrewCalendar@icu_53@@6B@" PURGE="-1" COMMENT="" />
    <EXPORT ORDINAL="678" NAME="??_7IdentifierInfo@icu_53@@6B@" PURGE="-1" COMMENT="" />
    <EXPORT ORDINAL="679" NAME="??_7ImmutableIndex@AlphabeticIndex@icu_53@@6B@" PURGE="-1" COMMENT="" />
    <EXPORT ORDINAL="680" NAME="??_7Importer@CollationRuleParser@icu_53@@6B@" PURGE="-1" COMMENT="" />
    <EXPORT ORDINAL="681" NAME="??_7InitialTimeZoneRule@icu_53@@6B@" PURGE="-1" COMMENT="" />
    <EXPORT ORDINAL="682" NAME="??_7IslamicCalendar@icu_53@@6B@" PURGE="-1" COMMENT="" />
    <EXPORT ORDINAL="683" NAME="??_7LocaleDisplayNames@icu_53@@6B@" PURGE="-1" COMMENT="" />
    <EXPORT ORDINAL="684" NAME="??_7MatchInfoCollection@TimeZoneNames@icu_53@@6B@" PURGE="-1" COMMENT="" />
    <EXPORT ORDINAL="685" NAME="??_7Measure@icu_53@@6B@" PURGE="-1" COMMENT="" />
    <EXPORT ORDINAL="686" NAME="??_7MeasureFormat@icu_53@@6B@" PURGE="-1" COMMENT="" />
    <EXPORT ORDINAL="687" NAME="??_7MeasureUnit@icu_53@@6B@" PURGE="-1" COMMENT="" />
    <EXPORT ORDINAL="688" NAME="??_7MessageFormat@icu_53@@6B@" PURGE="-1" COMMENT="" />
    <EXPORT ORDINAL="689" NAME="??_7NumberFormat@icu_53@@6B@" PURGE="-1" COMMENT="" />
    <EXPORT ORDINAL="690" NAME="??_7NumberFormatFactory@icu_53@@6B@" PURGE="-1" COMMENT="" />
    <EXPORT ORDINAL="691" NAME="??_7NumberingSystem@icu_53@@6B@" PURGE="-1" COMMENT="" />
    <EXPORT ORDINAL="692" NAME="??_7OlsonTimeZone@icu_53@@6B@" PURGE="-1" COMMENT="" />
    <EXPORT ORDINAL="693" NAME="??_7PluralAvailableLocalesEnumeration@icu_53@@6B@" PURGE="-1" COMMENT="" />
    <EXPORT ORDINAL="694" NAME="??_7PluralFormat@icu_53@@6B@" PURGE="-1" COMMENT="" />
    <EXPORT ORDINAL="695" NAME="??_7PluralRules@icu_53@@6B@" PURGE="-1" COMMENT="" />
    <EXPORT ORDINAL="696" NAME="??_7PluralSelector@PluralFormat@icu_53@@6B@" PURGE="-1" COMMENT="" />
    <EXPORT ORDINAL="697" NAME="??_7PluralSelectorAdapter@PluralFormat@icu_53@@6B@" PURGE="-1" COMMENT="" />
    <EXPORT ORDINAL="698" NAME="??_7PluralSelectorProvider@MessageFormat@icu_53@@6B@" PURGE="-1" COMMENT="" />
    <EXPORT ORDINAL="699" NAME="??_7RegexMatcher@icu_53@@6B@" PURGE="-1" COMMENT="" />
    <EXPORT ORDINAL="700" NAME="??_7RegexPattern@icu_53@@6B@" PURGE="-1" COMMENT="" />
    <EXPORT ORDINAL="701" NAME="??_7Region@icu_53@@6B@" PURGE="-1" COMMENT="" />
    <EXPORT ORDINAL="702" NAME="??_7RelativeDateTimeFormatter@icu_53@@6B@" PURGE="-1" COMMENT="" />
    <EXPORT ORDINAL="703" NAME="??_7RuleBasedCollator@icu_53@@6B@" PURGE="-1" COMMENT="" />
    <EXPORT ORDINAL="704" NAME="??_7RuleBasedNumberFormat@icu_53@@6B@" PURGE="-1" COMMENT="" />
    <EXPORT ORDINAL="705" NAME="??_7RuleBasedTimeZone@icu_53@@6B@" PURGE="-1" COMMENT="" />
    <EXPORT ORDINAL="706" NAME="??_7SearchIterator@icu_53@@6B@" PURGE="-1" COMMENT="" />
    <EXPORT ORDINAL="707" NAME="??_7SelectFormat@icu_53@@6B@" PURGE="-1" COMMENT="" />
    <EXPORT ORDINAL="708" NAME="??_7SharedNumberFormat@icu_53@@6B@" PURGE="-1" COMMENT="" />
    <EXPORT ORDINAL="709" NAME="??_7SharedPluralRules@icu_53@@6B@" PURGE="-1" COMMENT="" />
    <EXPORT ORDINAL="710" NAME="??_7SimpleDateFormat@icu_53@@6B@" PURGE="-1" COMMENT="" />
    <EXPORT ORDINAL="711" NAME="??_7SimpleNumberFormatFactory@icu_53@@6B@" PURGE="-1" COMMENT="" />
    <EXPORT ORDINAL="712" NAME="??_7SimpleTimeZone@icu_53@@6B@" PURGE="-1" COMMENT="" />
    <EXPORT ORDINAL="713" NAME="??_7Sink@CollationRuleParser@icu_53@@6B@" PURGE="-1" COMMENT="" />
    <EXPORT ORDINAL="714" NAME="??_7StringSearch@icu_53@@6B@" PURGE="-1" COMMENT="" />
    <EXPORT ORDINAL="715" NAME="??_7TextTrieMap@icu_53@@6B@" PURGE="-1" COMMENT="" />
    <EXPORT ORDINAL="716" NAME="??_7TimeArrayTimeZoneRule@icu_53@@6B@" PURGE="-1" COMMENT="" />
    <EXPORT ORDINAL="717" NAME="??_7TimeUnit@icu_53@@6B@" PURGE="-1" COMMENT="" />
    <EXPORT ORDINAL="718" NAME="??_7TimeUnitAmount@icu_53@@6B@" PURGE="-1" COMMENT="" />
    <EXPORT ORDINAL="719" NAME="??_7TimeUnitFormat@icu_53@@6B@" PURGE="-1" COMMENT="" />
    <EXPORT ORDINAL="720" NAME="??_7TimeZone@icu_53@@6B@" PURGE="-1" COMMENT="" />
    <EXPORT ORDINAL="721" NAME="??_7TimeZoneFormat@icu_53@@6B@" PURGE="-1" COMMENT="" />
    <EXPORT ORDINAL="722" NAME="??_7TimeZoneGenericNames@icu_53@@6B@" PURGE="-1" COMMENT="" />
    <EXPORT ORDINAL="723" NAME="??_7TimeZoneNames@icu_53@@6B@" PURGE="-1" COMMENT="" />
    <EXPORT ORDINAL="724" NAME="??_7TimeZoneRule@icu_53@@6B@" PURGE="-1" COMMENT="" />
    <EXPORT ORDINAL="725" NAME="??_7TimeZoneTransition@icu_53@@6B@" PURGE="-1" COMMENT="" />
    <EXPORT ORDINAL="726" NAME="??_7Transliterator@icu_53@@6B@" PURGE="-1" COMMENT="" />
    <EXPORT ORDINAL="727" NAME="??_7UIterCollationIterator@icu_53@@6B@" PURGE="-1" COMMENT="" />
    <EXPORT ORDINAL="728" NAME="??_7UTF16CollationIterator@icu_53@@6B@" PURGE="-1" COMMENT="" />
    <EXPORT ORDINAL="729" NAME="??_7UTF8CollationIterator@icu_53@@6B@" PURGE="-1" COMMENT="" />
    <EXPORT ORDINAL="730" NAME="??_7UnicodeReplacer@icu_53@@6B@" PURGE="-1" COMMENT="" />
    <EXPORT ORDINAL="731" NAME="??_7VTimeZone@icu_53@@6B@" PURGE="-1" COMMENT="" />
    <EXPORT ORDINAL="732" NAME="??_FEcliptic@CalendarAstronomer@icu_53@@QEAAXXZ" PURGE="0" COMMENT="" />
    <EXPORT ORDINAL="733" NAME="??_FEquatorial@CalendarAstronomer@icu_53@@QEAAXXZ" PURGE="0" COMMENT="" />
    <EXPORT ORDINAL="734" NAME="??_FHorizon@CalendarAstronomer@icu_53@@QEAAXXZ" PURGE="0" COMMENT="" />
    <EXPORT ORDINAL="735" NAME="?ALTERNATE_MASK@CollationSettings@icu_53@@2HB" PURGE="-1" COMMENT="" />
    <EXPORT ORDINAL="736" NAME="?BACKWARD_SECONDARY@CollationSettings@icu_53@@2HB" PURGE="-1" COMMENT="" />
    <EXPORT ORDINAL="737" NAME="?BAIL_OUT@CollationFastLatin@icu_53@@2IB" PURGE="-1" COMMENT="" />
    <EXPORT ORDINAL="738" NAME="?BAIL_OUT_RESULT@CollationFastLatin@icu_53@@2HB" PURGE="-1" COMMENT="" />
    <EXPORT ORDINAL="739" NAME="?BEFORE_WEIGHT16@CollationBuilder@icu_53@@0IB" PURGE="-1" COMMENT="" />
    <EXPORT ORDINAL="740" NAME="?CASE_AND_QUATERNARY_MASK@Collation@icu_53@@2IB" PURGE="-1" COMMENT="" />
    <EXPORT ORDINAL="741" NAME="?CASE_AND_TERTIARY_MASK@Collation@icu_53@@2IB" PURGE="-1" COMMENT="" />
    <EXPORT ORDINAL="742" NAME="?CASE_AND_TERTIARY_MASK@CollationFastLatin@icu_53@@2IB" PURGE="-1" COMMENT="" />
    <EXPORT ORDINAL="743" NAME="?CASE_FIRST@CollationSettings@icu_53@@2HB" PURGE="-1" COMMENT="" />
    <EXPORT ORDINAL="744" NAME="?CASE_FIRST_AND_UPPER_MASK@CollationSettings@icu_53@@2HB" PURGE="-1" COMMENT="" />
    <EXPORT ORDINAL="745" NAME="?CASE_LEVEL@CollationSettings@icu_53@@2HB" PURGE="-1" COMMENT="" />
    <EXPORT ORDINAL="746" NAME="?CASE_LEVEL_FLAG@Collation@icu_53@@2IB" PURGE="-1" COMMENT="" />
    <EXPORT ORDINAL="747" NAME="?CASE_LOWER_FIRST_COMMON_HIGH@CollationKeys@icu_53@@0IB" PURGE="-1" COMMENT="" />
    <EXPORT ORDINAL="748" NAME="?CASE_LOWER_FIRST_COMMON_LOW@CollationKeys@icu_53@@0IB" PURGE="-1" COMMENT="" />
    <EXPORT ORDINAL="749" NAME="?CASE_LOWER_FIRST_COMMON_MAX_COUNT@CollationKeys@icu_53@@0HB" PURGE="-1" COMMENT="" />
    <EXPORT ORDINAL="750" NAME="?CASE_LOWER_FIRST_COMMON_MIDDLE@CollationKeys@icu_53@@0IB" PURGE="-1" COMMENT="" />
    <EXPORT ORDINAL="751" NAME="?CASE_MASK@Collation@icu_53@@2IB" PURGE="-1" COMMENT="" />
    <EXPORT ORDINAL="752" NAME="?CASE_MASK@CollationFastLatin@icu_53@@2IB" PURGE="-1" COMMENT="" />
    <EXPORT ORDINAL="753" NAME="?CASE_UPPER_FIRST_COMMON_HIGH@CollationKeys@icu_53@@0IB" PURGE="-1" COMMENT="" />
    <EXPORT ORDINAL="754" NAME="?CASE_UPPER_FIRST_COMMON_LOW@CollationKeys@icu_53@@0IB" PURGE="-1" COMMENT="" />
    <EXPORT ORDINAL="755" NAME="?CASE_UPPER_FIRST_COMMON_MAX_COUNT@CollationKeys@icu_53@@0HB" PURGE="-1" COMMENT="" />
    <EXPORT ORDINAL="756" NAME="?CHECK_FCD@CollationSettings@icu_53@@2HB" PURGE="-1" COMMENT="" />
    <EXPORT ORDINAL="757" NAME="?CHINESE_DATE_PRECEDENCE@ChineseCalendar@icu_53@@0QAY1M@7$$CBHA" PURGE="-1" COMMENT="" />
    <EXPORT ORDINAL="758" NAME="?COMMON_BYTE@Collation@icu_53@@2EB" PURGE="-1" COMMENT="" />
    <EXPORT ORDINAL="759" NAME="?COMMON_SEC@CollationFastLatin@icu_53@@2IB" PURGE="-1" COMMENT="" />
    <EXPORT ORDINAL="760" NAME="?COMMON_SECONDARY_CE@Collation@icu_53@@2IB" PURGE="-1" COMMENT="" />
    <EXPORT ORDINAL="761" NAME="?COMMON_SEC_AND_TER_CE@Collation@icu_53@@2IB" PURGE="-1" COMMENT="" />
    <EXPORT ORDINAL="762" NAME="?COMMON_SEC_PLUS_OFFSET@CollationFastLatin@icu_53@@2IB" PURGE="-1" COMMENT="" />
    <EXPORT ORDINAL="763" NAME="?COMMON_TER@CollationFastLatin@icu_53@@2IB" PURGE="-1" COMMENT="" />
    <EXPORT ORDINAL="764" NAME="?COMMON_TERTIARY_CE@Collation@icu_53@@2IB" PURGE="-1" COMMENT="" />
    <EXPORT ORDINAL="765" NAME="?COMMON_TER_PLUS_OFFSET@CollationFastLatin@icu_53@@2IB" PURGE="-1" COMMENT="" />
    <EXPORT ORDINAL="766" NAME="?COMMON_WEIGHT16@Collation@icu_53@@2IB" PURGE="-1" COMMENT="" />
    <EXPORT ORDINAL="767" NAME="?CONTRACTION@CollationFastLatin@icu_53@@2IB" PURGE="-1" COMMENT="" />
    <EXPORT ORDINAL="768" NAME="?CONTRACTION_FLAG@CollationFastLatinBuilder@icu_53@@0IB" PURGE="-1" COMMENT="" />
    <EXPORT ORDINAL="769" NAME="?CONTRACT_NEXT_CCC@Collation@icu_53@@2IB" PURGE="-1" COMMENT="" />
    <EXPORT ORDINAL="770" NAME="?CONTRACT_SINGLE_CP_NO_MATCH@Collation@icu_53@@2IB" PURGE="-1" COMMENT="" />
    <EXPORT ORDINAL="771" NAME="?CONTRACT_TRAILING_CCC@Collation@icu_53@@2IB" PURGE="-1" COMMENT="" />
    <EXPORT ORDINAL="772" NAME="?CONTR_CHAR_MASK@CollationFastLatin@icu_53@@2IB" PURGE="-1" COMMENT="" />
    <EXPORT ORDINAL="773" NAME="?CONTR_LENGTH_SHIFT@CollationFastLatin@icu_53@@2IB" PURGE="-1" COMMENT="" />
    <EXPORT ORDINAL="774" NAME="?EOS@CollationFastLatin@icu_53@@2IB" PURGE="-1" COMMENT="" />
    <EXPORT ORDINAL="775" NAME="?EXPANSION@CollationFastLatin@icu_53@@2IB" PURGE="-1" COMMENT="" />
    <EXPORT ORDINAL="776" NAME="?FALLBACK_CE32@Collation@icu_53@@2IB" PURGE="-1" COMMENT="" />
    <EXPORT ORDINAL="777" NAME="?FFFD_CE32@Collation@icu_53@@2IB" PURGE="-1" COMMENT="" />
    <EXPORT ORDINAL="778" NAME="?FFFD_PRIMARY@Collation@icu_53@@2IB" PURGE="-1" COMMENT="" />
    <EXPORT ORDINAL="779" NAME="?FIRST_TRAILING_PRIMARY@Collation@icu_53@@2IB" PURGE="-1" COMMENT="" />
    <EXPORT ORDINAL="780" NAME="?FIRST_UNASSIGNED_PRIMARY@Collation@icu_53@@2IB" PURGE="-1" COMMENT="" />
    <EXPORT ORDINAL="781" NAME="?FULL_MOON@CalendarAstronomer@icu_53@@SA?BVMoonAge@12@XZ" PURGE="0" COMMENT="" />
    <EXPORT ORDINAL="782" NAME="?HANGUL_NO_SPECIAL_JAMO@Collation@icu_53@@2IB" PURGE="-1" COMMENT="" />
    <EXPORT ORDINAL="783" NAME="?HAS_BEFORE2@CollationBuilder@icu_53@@0HB" PURGE="-1" COMMENT="" />
    <EXPORT ORDINAL="784" NAME="?HAS_BEFORE3@CollationBuilder@icu_53@@0HB" PURGE="-1" COMMENT="" />
    <EXPORT ORDINAL="785" NAME="?IDENTICAL_LEVEL_FLAG@Collation@icu_53@@2IB" PURGE="-1" COMMENT="" />
    <EXPORT ORDINAL="786" NAME="?INDEX_MASK@CollationFastLatin@icu_53@@2IB" PURGE="-1" COMMENT="" />
    <EXPORT ORDINAL="787" NAME="?IS_BUILDER_JAMO_CE32@CollationDataBuilder@icu_53@@1IB" PURGE="-1" COMMENT="" />
    <EXPORT ORDINAL="788" NAME="?IS_TAILORED@CollationBuilder@icu_53@@0HB" PURGE="-1" COMMENT="" />
    <EXPORT ORDINAL="789" NAME="?IncrementTime@RegexMatcher@icu_53@@AEAAXAEAW4UErrorCode@@@Z" PURGE="0" COMMENT="" />
    <EXPORT ORDINAL="790" NAME="?JAMO_CE32S_LENGTH@CollationData@icu_53@@2HB" PURGE="-1" COMMENT="" />
    <EXPORT ORDINAL="791" NAME="?LATIN_LIMIT@CollationFastLatin@icu_53@@2HB" PURGE="-1" COMMENT="" />
    <EXPORT ORDINAL="792" NAME="?LATIN_MAX@CollationFastLatin@icu_53@@2HB" PURGE="-1" COMMENT="" />
    <EXPORT ORDINAL="793" NAME="?LATIN_MAX_UTF8_LEAD@CollationFastLatin@icu_53@@2HB" PURGE="-1" COMMENT="" />
    <EXPORT ORDINAL="794" NAME="?LEAD_ALL_FALLBACK@Collation@icu_53@@2IB" PURGE="-1" COMMENT="" />
    <EXPORT ORDINAL="795" NAME="?LEAD_ALL_UNASSIGNED@Collation@icu_53@@2IB" PURGE="-1" COMMENT="" />
    <EXPORT ORDINAL="796" NAME="?LEAD_MIXED@Collation@icu_53@@2IB" PURGE="-1" COMMENT="" />
    <EXPORT ORDINAL="797" NAME="?LEAD_TYPE_MASK@Collation@icu_53@@2IB" PURGE="-1" COMMENT="" />
    <EXPORT ORDINAL="798" NAME="?LEVEL_SEPARATOR_BYTE@Collation@icu_53@@2EB" PURGE="-1" COMMENT="" />
    <EXPORT ORDINAL="799" NAME="?LONG_INC@CollationFastLatin@icu_53@@2IB" PURGE="-1" COMMENT="" />
    <EXPORT ORDINAL="800" NAME="?LONG_PRIMARY_CE32_LOW_BYTE@Collation@icu_53@@2EB" PURGE="-1" COMMENT="" />
    <EXPORT ORDINAL="801" NAME="?LONG_PRIMARY_MASK@CollationFastLatin@icu_53@@2IB" PURGE="-1" COMMENT="" />
    <EXPORT ORDINAL="802" NAME="?LOWER_CASE@CollationFastLatin@icu_53@@2IB" PURGE="-1" COMMENT="" />
    <EXPORT ORDINAL="803" NAME="?MAX_EXPANSION_LENGTH@Collation@icu_53@@2HB" PURGE="-1" COMMENT="" />
    <EXPORT ORDINAL="804" NAME="?MAX_INDEX@Collation@icu_53@@2HB" PURGE="-1" COMMENT="" />
    <EXPORT ORDINAL="805" NAME="?MAX_INDEX@CollationBuilder@icu_53@@0HB" PURGE="-1" COMMENT="" />
    <EXPORT ORDINAL="806" NAME="?MAX_LONG@CollationFastLatin@icu_53@@2IB" PURGE="-1" COMMENT="" />
    <EXPORT ORDINAL="807" NAME="?MAX_PRIMARY@Collation@icu_53@@2IB" PURGE="-1" COMMENT="" />
    <EXPORT ORDINAL="808" NAME="?MAX_REGULAR_CE32@Collation@icu_53@@2IB" PURGE="-1" COMMENT="" />
    <EXPORT ORDINAL="809" NAME="?MAX_SEC_AFTER@CollationFastLatin@icu_53@@2IB" PURGE="-1" COMMENT="" />
    <EXPORT ORDINAL="810" NAME="?MAX_SEC_BEFORE@CollationFastLatin@icu_53@@2IB" PURGE="-1" COMMENT="" />
    <EXPORT ORDINAL="811" NAME="?MAX_SEC_HIGH@CollationFastLatin@icu_53@@2IB" PURGE="-1" COMMENT="" />
    <EXPORT ORDINAL="812" NAME="?MAX_SHORT@CollationFastLatin@icu_53@@2IB" PURGE="-1" COMMENT="" />
    <EXPORT ORDINAL="813" NAME="?MAX_TER_AFTER@CollationFastLatin@icu_53@@2IB" PURGE="-1" COMMENT="" />
    <EXPORT ORDINAL="814" NAME="?MAX_VARIABLE_MASK@CollationSettings@icu_53@@2HB" PURGE="-1" COMMENT="" />
    <EXPORT ORDINAL="815" NAME="?MAX_VARIABLE_SHIFT@CollationSettings@icu_53@@2HB" PURGE="-1" COMMENT="" />
    <EXPORT ORDINAL="816" NAME="?MAX_YEAR@AnnualTimeZoneRule@icu_53@@2HB" PURGE="-1" COMMENT="" />
    <EXPORT ORDINAL="817" NAME="?MERGE_SEPARATOR_BYTE@Collation@icu_53@@2EB" PURGE="-1" COMMENT="" />
    <EXPORT ORDINAL="818" NAME="?MERGE_SEPARATOR_CE32@Collation@icu_53@@2IB" PURGE="-1" COMMENT="" />
    <EXPORT ORDINAL="819" NAME="?MERGE_SEPARATOR_LOWER32@Collation@icu_53@@2IB" PURGE="-1" COMMENT="" />
    <EXPORT ORDINAL="820" NAME="?MERGE_SEPARATOR_PRIMARY@Collation@icu_53@@2IB" PURGE="-1" COMMENT="" />
    <EXPORT ORDINAL="821" NAME="?MERGE_SEPARATOR_WEIGHT16@Collation@icu_53@@2IB" PURGE="-1" COMMENT="" />
    <EXPORT ORDINAL="822" NAME="?MERGE_WEIGHT@CollationFastLatin@icu_53@@2IB" PURGE="-1" COMMENT="" />
    <EXPORT ORDINAL="823" NAME="?MIN_LONG@CollationFastLatin@icu_53@@2IB" PURGE="-1" COMMENT="" />
    <EXPORT ORDINAL="824" NAME="?MIN_SEC_AFTER@CollationFastLatin@icu_53@@2IB" PURGE="-1" COMMENT="" />
    <EXPORT ORDINAL="825" NAME="?MIN_SEC_BEFORE@CollationFastLatin@icu_53@@2IB" PURGE="-1" COMMENT="" />
    <EXPORT ORDINAL="826" NAME="?MIN_SEC_HIGH@CollationFastLatin@icu_53@@2IB" PURGE="-1" COMMENT="" />
    <EXPORT ORDINAL="827" NAME="?MIN_SHORT@CollationFastLatin@icu_53@@2IB" PURGE="-1" COMMENT="" />
    <EXPORT ORDINAL="828" NAME="?MatchAt@RegexMatcher@icu_53@@AEAAX_JCAEAW4UErrorCode@@@Z" PURGE="0" COMMENT="" />
    <EXPORT ORDINAL="829" NAME="?MatchChunkAt@RegexMatcher@icu_53@@AEAAXHCAEAW4UErrorCode@@@Z" PURGE="0" COMMENT="" />
    <EXPORT ORDINAL="830" NAME="?NEW_MOON@CalendarAstronomer@icu_53@@SA?BVMoonAge@12@XZ" PURGE="0" COMMENT="" />
    <EXPORT ORDINAL="831" NAME="?NO_CE32@Collation@icu_53@@2IB" PURGE="-1" COMMENT="" />
    <EXPORT ORDINAL="832" NAME="?NO_CE@Collation@icu_53@@2_JB" PURGE="-1" COMMENT="" />
    <EXPORT ORDINAL="833" NAME="?NO_CE_PRIMARY@Collation@icu_53@@2IB" PURGE="-1" COMMENT="" />
    <EXPORT ORDINAL="834" NAME="?NO_CE_WEIGHT16@Collation@icu_53@@2IB" PURGE="-1" COMMENT="" />
    <EXPORT ORDINAL="835" NAME="?NO_LEVEL_FLAG@Collation@icu_53@@2IB" PURGE="-1" COMMENT="" />
    <EXPORT ORDINAL="836" NAME="?NUMERIC@CollationSettings@icu_53@@2HB" PURGE="-1" COMMENT="" />
    <EXPORT ORDINAL="837" NAME="?NUM_FAST_CHARS@CollationFastLatin@icu_53@@2HB" PURGE="-1" COMMENT="" />
    <EXPORT ORDINAL="838" NAME="?OFFSET_SHIFT@CollationRuleParser@icu_53@@0HB" PURGE="-1" COMMENT="" />
    <EXPORT ORDINAL="839" NAME="?ONLY_SEC_TER_MASK@Collation@icu_53@@2IB" PURGE="-1" COMMENT="" />
    <EXPORT ORDINAL="840" NAME="?ONLY_TERTIARY_MASK@Collation@icu_53@@2IB" PURGE="-1" COMMENT="" />
    <EXPORT ORDINAL="841" NAME="?PASS_STRING@CompoundTransliterator@icu_53@@2QB_WB" PURGE="-1" COMMENT="" />
    <EXPORT ORDINAL="842" NAME="?PI@CalendarAstronomer@icu_53@@2NB" PURGE="-1" COMMENT="" />
    <EXPORT ORDINAL="843" NAME="?POS_BASE@CollationRuleParser@icu_53@@2_WB" PURGE="-1" COMMENT="" />
    <EXPORT ORDINAL="844" NAME="?POS_LEAD@CollationRuleParser@icu_53@@2_WB" PURGE="-1" COMMENT="" />
    <EXPORT ORDINAL="845" NAME="?PRIMARY_COMPRESSION_HIGH_BYTE@Collation@icu_53@@2EB" PURGE="-1" COMMENT="" />
    <EXPORT ORDINAL="846" NAME="?PRIMARY_COMPRESSION_LOW_BYTE@Collation@icu_53@@2EB" PURGE="-1" COMMENT="" />
    <EXPORT ORDINAL="847" NAME="?PRIMARY_LEVEL_FLAG@Collation@icu_53@@2IB" PURGE="-1" COMMENT="" />
    <EXPORT ORDINAL="848" NAME="?PRIMARY_SENTINEL@CollationRootElements@icu_53@@2IB" PURGE="-1" COMMENT="" />
    <EXPORT ORDINAL="849" NAME="?PRIMARY_STEP_MASK@CollationRootElements@icu_53@@2EB" PURGE="-1" COMMENT="" />
    <EXPORT ORDINAL="850" NAME="?PUNCT_LIMIT@CollationFastLatin@icu_53@@2HB" PURGE="-1" COMMENT="" />
    <EXPORT ORDINAL="851" NAME="?PUNCT_START@CollationFastLatin@icu_53@@2HB" PURGE="-1" COMMENT="" />
    <EXPORT ORDINAL="852" NAME="?QUATERNARY_LEVEL_FLAG@Collation@icu_53@@2IB" PURGE="-1" COMMENT="" />
    <EXPORT ORDINAL="853" NAME="?QUATERNARY_MASK@Collation@icu_53@@2IB" PURGE="-1" COMMENT="" />
    <EXPORT ORDINAL="854" NAME="?QUAT_COMMON_HIGH@CollationKeys@icu_53@@0IB" PURGE="-1" COMMENT="" />
    <EXPORT ORDINAL="855" NAME="?QUAT_COMMON_LOW@CollationKeys@icu_53@@0IB" PURGE="-1" COMMENT="" />
    <EXPORT ORDINAL="856" NAME="?QUAT_COMMON_MAX_COUNT@CollationKeys@icu_53@@0HB" PURGE="-1" COMMENT="" />
    <EXPORT ORDINAL="857" NAME="?QUAT_COMMON_MIDDLE@CollationKeys@icu_53@@0IB" PURGE="-1" COMMENT="" />
    <EXPORT ORDINAL="858" NAME="?QUAT_SHIFTED_LIMIT_BYTE@CollationKeys@icu_53@@0IB" PURGE="-1" COMMENT="" />
    <EXPORT ORDINAL="859" NAME="?ReportFindProgress@RegexMatcher@icu_53@@AEAAC_JAEAW4UErrorCode@@@Z" PURGE="0" COMMENT="" />
    <EXPORT ORDINAL="860" NAME="?SECONDARY_AND_CASE_MASK@Collation@icu_53@@2IB" PURGE="-1" COMMENT="" />
    <EXPORT ORDINAL="861" NAME="?SECONDARY_LEVEL_FLAG@Collation@icu_53@@2IB" PURGE="-1" COMMENT="" />
    <EXPORT ORDINAL="862" NAME="?SECONDARY_MASK@Collation@icu_53@@2IB" PURGE="-1" COMMENT="" />
    <EXPORT ORDINAL="863" NAME="?SECONDARY_MASK@CollationFastLatin@icu_53@@2IB" PURGE="-1" COMMENT="" />
    <EXPORT ORDINAL="864" NAME="?SEC_COMMON_HIGH@CollationKeys@icu_53@@0IB" PURGE="-1" COMMENT="" />
    <EXPORT ORDINAL="865" NAME="?SEC_COMMON_LOW@CollationKeys@icu_53@@0IB" PURGE="-1" COMMENT="" />
    <EXPORT ORDINAL="866" NAME="?SEC_COMMON_MAX_COUNT@CollationKeys@icu_53@@0HB" PURGE="-1" COMMENT="" />
    <EXPORT ORDINAL="867" NAME="?SEC_COMMON_MIDDLE@CollationKeys@icu_53@@0IB" PURGE="-1" COMMENT="" />
    <EXPORT ORDINAL="868" NAME="?SEC_INC@CollationFastLatin@icu_53@@2IB" PURGE="-1" COMMENT="" />
    <EXPORT ORDINAL="869" NAME="?SEC_OFFSET@CollationFastLatin@icu_53@@2IB" PURGE="-1" COMMENT="" />
    <EXPORT ORDINAL="870" NAME="?SEC_TER_DELTA_FLAG@CollationRootElements@icu_53@@2IB" PURGE="-1" COMMENT="" />
    <EXPORT ORDINAL="871" NAME="?SHIFTED@CollationSettings@icu_53@@2HB" PURGE="-1" COMMENT="" />
    <EXPORT ORDINAL="872" NAME="?SHORT_INC@CollationFastLatin@icu_53@@2IB" PURGE="-1" COMMENT="" />
    <EXPORT ORDINAL="873" NAME="?SHORT_PRIMARY_MASK@CollationFastLatin@icu_53@@2IB" PURGE="-1" COMMENT="" />
    <EXPORT ORDINAL="874" NAME="?SPECIAL_CE32_LOW_BYTE@Collation@icu_53@@2EB" PURGE="-1" COMMENT="" />
    <EXPORT ORDINAL="875" NAME="?STARRED_FLAG@CollationRuleParser@icu_53@@0HB" PURGE="-1" COMMENT="" />
    <EXPORT ORDINAL="876" NAME="?STATICMONTHLENGTH@SimpleTimeZone@icu_53@@0QBCB" PURGE="-1" COMMENT="" />
    <EXPORT ORDINAL="877" NAME="?STRENGTH_MASK@CollationRuleParser@icu_53@@0HB" PURGE="-1" COMMENT="" />
    <EXPORT ORDINAL="878" NAME="?STRENGTH_MASK@CollationSettings@icu_53@@2HB" PURGE="-1" COMMENT="" />
    <EXPORT ORDINAL="879" NAME="?STRENGTH_SHIFT@CollationSettings@icu_53@@2HB" PURGE="-1" COMMENT="" />
    <EXPORT ORDINAL="880" NAME="?SUMMER_SOLSTICE@CalendarAstronomer@icu_53@@SANXZ" PURGE="0" COMMENT="" />
    <EXPORT ORDINAL="881" NAME="?SYNODIC_MONTH@CalendarAstronomer@icu_53@@2NB" PURGE="-1" COMMENT="" />
    <EXPORT ORDINAL="882" NAME="?StateSave@RegexMatcher@icu_53@@AEAAPEAUREStackFrame@2@PEAU32@_JAEAW4UErrorCode@@@Z" PURGE="0" COMMENT="" />
    <EXPORT ORDINAL="883" NAME="?TERMINATOR_BYTE@Collation@icu_53@@2EB" PURGE="-1" COMMENT="" />
    <EXPORT ORDINAL="884" NAME="?TERTIARY_LEVEL_FLAG@Collation@icu_53@@2IB" PURGE="-1" COMMENT="" />
    <EXPORT ORDINAL="885" NAME="?TERTIARY_MASK@CollationFastLatin@icu_53@@2IB" PURGE="-1" COMMENT="" />
    <EXPORT ORDINAL="886" NAME="?TER_LOWER_FIRST_COMMON_HIGH@CollationKeys@icu_53@@0IB" PURGE="-1" COMMENT="" />
    <EXPORT ORDINAL="887" NAME="?TER_LOWER_FIRST_COMMON_LOW@CollationKeys@icu_53@@0IB" PURGE="-1" COMMENT="" />
    <EXPORT ORDINAL="888" NAME="?TER_LOWER_FIRST_COMMON_MAX_COUNT@CollationKeys@icu_53@@0HB" PURGE="-1" COMMENT="" />
    <EXPORT ORDINAL="889" NAME="?TER_LOWER_FIRST_COMMON_MIDDLE@CollationKeys@icu_53@@0IB" PURGE="-1" COMMENT="" />
    <EXPORT ORDINAL="890" NAME="?TER_OFFSET@CollationFastLatin@icu_53@@2IB" PURGE="-1" COMMENT="" />
    <EXPORT ORDINAL="891" NAME="?TER_ONLY_COMMON_HIGH@CollationKeys@icu_53@@0IB" PURGE="-1" COMMENT="" />
    <EXPORT ORDINAL="892" NAME="?TER_ONLY_COMMON_LOW@CollationKeys@icu_53@@0IB" PURGE="-1" COMMENT="" />
    <EXPORT ORDINAL="893" NAME="?TER_ONLY_COMMON_MAX_COUNT@CollationKeys@icu_53@@0HB" PURGE="-1" COMMENT="" />
    <EXPORT ORDINAL="894" NAME="?TER_ONLY_COMMON_MIDDLE@CollationKeys@icu_53@@0IB" PURGE="-1" COMMENT="" />
    <EXPORT ORDINAL="895" NAME="?TER_UPPER_FIRST_COMMON_HIGH@CollationKeys@icu_53@@0IB" PURGE="-1" COMMENT="" />
    <EXPORT ORDINAL="896" NAME="?TER_UPPER_FIRST_COMMON_LOW@CollationKeys@icu_53@@0IB" PURGE="-1" COMMENT="" />
    <EXPORT ORDINAL="897" NAME="?TER_UPPER_FIRST_COMMON_MAX_COUNT@CollationKeys@icu_53@@0HB" PURGE="-1" COMMENT="" />
    <EXPORT ORDINAL="898" NAME="?TER_UPPER_FIRST_COMMON_MIDDLE@CollationKeys@icu_53@@0IB" PURGE="-1" COMMENT="" />
    <EXPORT ORDINAL="899" NAME="?TRAIL_WEIGHT_BYTE@Collation@icu_53@@2EB" PURGE="-1" COMMENT="" />
    <EXPORT ORDINAL="900" NAME="?TWO_CASES_MASK@CollationFastLatin@icu_53@@2IB" PURGE="-1" COMMENT="" />
    <EXPORT ORDINAL="901" NAME="?TWO_COMMON_SEC_PLUS_OFFSET@CollationFastLatin@icu_53@@2IB" PURGE="-1" COMMENT="" />
    <EXPORT ORDINAL="902" NAME="?TWO_COMMON_TER_PLUS_OFFSET@CollationFastLatin@icu_53@@2IB" PURGE="-1" COMMENT="" />
    <EXPORT ORDINAL="903" NAME="?TWO_LONG_PRIMARIES_MASK@CollationFastLatin@icu_53@@2IB" PURGE="-1" COMMENT="" />
    <EXPORT ORDINAL="904" NAME="?TWO_LOWER_CASES@CollationFastLatin@icu_53@@2IB" PURGE="-1" COMMENT="" />
    <EXPORT ORDINAL="905" NAME="?TWO_SECONDARIES_MASK@CollationFastLatin@icu_53@@2IB" PURGE="-1" COMMENT="" />
    <EXPORT ORDINAL="906" NAME="?TWO_SEC_OFFSETS@CollationFastLatin@icu_53@@2IB" PURGE="-1" COMMENT="" />
    <EXPORT ORDINAL="907" NAME="?TWO_SHORT_PRIMARIES_MASK@CollationFastLatin@icu_53@@2IB" PURGE="-1" COMMENT="" />
    <EXPORT ORDINAL="908" NAME="?TWO_TERTIARIES_MASK@CollationFastLatin@icu_53@@2IB" PURGE="-1" COMMENT="" />
    <EXPORT ORDINAL="909" NAME="?TWO_TER_OFFSETS@CollationFastLatin@icu_53@@2IB" PURGE="-1" COMMENT="" />
    <EXPORT ORDINAL="910" NAME="?UNASSIGNED_CE32@Collation@icu_53@@2IB" PURGE="-1" COMMENT="" />
    <EXPORT ORDINAL="911" NAME="?UNASSIGNED_IMPLICIT_BYTE@Collation@icu_53@@2EB" PURGE="-1" COMMENT="" />
    <EXPORT ORDINAL="912" NAME="?UPPER_FIRST@CollationSettings@icu_53@@2HB" PURGE="-1" COMMENT="" />
    <EXPORT ORDINAL="913" NAME="?Union@ScriptSet@icu_53@@QEAAAEAV12@AEBV12@@Z" PURGE="0" COMMENT="" />
    <EXPORT ORDINAL="914" NAME="?VERSION@CollationFastLatin@icu_53@@2GB" PURGE="-1" COMMENT="" />
    <EXPORT ORDINAL="915" NAME="?WINTER_SOLSTICE@CalendarAstronomer@icu_53@@SANXZ" PURGE="0" COMMENT="" />
    <EXPORT ORDINAL="916" NAME="?ZERO_LEVEL_FLAG@Collation@icu_53@@2IB" PURGE="-1" COMMENT="" />
    <EXPORT ORDINAL="917" NAME="?_countAvailableSources@Transliterator@icu_53@@KAHXZ" PURGE="0" COMMENT="" />
    <EXPORT ORDINAL="918" NAME="?_countAvailableTargets@Transliterator@icu_53@@KAHAEBVUnicodeString@2@@Z" PURGE="0" COMMENT="" />
    <EXPORT ORDINAL="919" NAME="?_countAvailableVariants@Transliterator@icu_53@@KAHAEBVUnicodeString@2@0@Z" PURGE="0" COMMENT="" />
    <EXPORT ORDINAL="920" NAME="?_format@DecimalFormat@icu_53@@AEBAAEAVUnicodeString@2@AEBVDigitList@2@AEAV32@AEAVFieldPositionHandler@2@AEAW4UErrorCode@@@Z" PURGE="0" COMMENT="" />
    <EXPORT ORDINAL="921" NAME="?_format@DecimalFormat@icu_53@@AEBAAEAVUnicodeString@2@NAEAV32@AEAVFieldPositionHandler@2@AEAW4UErrorCode@@@Z" PURGE="0" COMMENT="" />
    <EXPORT ORDINAL="922" NAME="?_format@DecimalFormat@icu_53@@AEBAAEAVUnicodeString@2@_JAEAV32@AEAVFieldPositionHandler@2@AEAW4UErrorCode@@@Z" PURGE="0" COMMENT="" />
    <EXPORT ORDINAL="923" NAME="?_format@SimpleDateFormat@icu_53@@AEBAAEAVUnicodeString@2@AEAVCalendar@2@AEAV32@AEAVFieldPositionHandler@2@AEAW4UErrorCode@@@Z" PURGE="0" COMMENT="" />
    <EXPORT ORDINAL="924" NAME="?_getAvailableSource@Transliterator@icu_53@@KAAEAVUnicodeString@2@HAEAV32@@Z" PURGE="0" COMMENT="" />
    <EXPORT ORDINAL="925" NAME="?_getAvailableTarget@Transliterator@icu_53@@KAAEAVUnicodeString@2@HAEBV32@AEAV32@@Z" PURGE="0" COMMENT="" />
    <EXPORT ORDINAL="926" NAME="?_getAvailableVariant@Transliterator@icu_53@@KAAEAVUnicodeString@2@HAEBV32@0AEAV32@@Z" PURGE="0" COMMENT="" />
    <EXPORT ORDINAL="927" NAME="?_registerAlias@Transliterator@icu_53@@KAXAEBVUnicodeString@2@0@Z" PURGE="0" COMMENT="" />
    <EXPORT ORDINAL="928" NAME="?_registerFactory@Transliterator@icu_53@@KAXAEBVUnicodeString@2@P6APEAV12@0TToken@12@@Z1@Z" PURGE="0" COMMENT="" />
    <EXPORT ORDINAL="929" NAME="?_registerInstance@Transliterator@icu_53@@KAXPEAV12@@Z" PURGE="0" COMMENT="" />
    <EXPORT ORDINAL="930" NAME="?_registerSpecialInverse@Transliterator@icu_53@@KAXAEBVUnicodeString@2@0C@Z" PURGE="0" COMMENT="" />
    <EXPORT ORDINAL="931" NAME="?_round@DecimalFormat@icu_53@@IEBAAEAVDigitList@2@AEBV32@AEAV32@AEACAEAW4UErrorCode@@@Z" PURGE="0" COMMENT="" />
    <EXPORT ORDINAL="932" NAME="?_transliterate@Transliterator@icu_53@@AEBAXAEAVReplaceable@2@AEAUUTransPosition@@PEBVUnicodeString@2@AEAW4UErrorCode@@@Z" PURGE="0" COMMENT="" />
    <EXPORT ORDINAL="933" NAME="?absoluteDayToDayOfWeek@HebrewCalendar@icu_53@@CAHH@Z" PURGE="0" COMMENT="" />
    <EXPORT ORDINAL="934" NAME="?add@?$EnumSet@W4UDateFormatBooleanAttribute@@$0A@$03@icu_53@@QEAAXW4UDateFormatBooleanAttribute@@@Z" PURGE="0" COMMENT="" />
    <EXPORT ORDINAL="935" NAME="?add@?$EnumSet@W4UNumberFormatAttribute@@$0BAAA@$0BAAC@@icu_53@@QEAAXW4UNumberFormatAttribute@@@Z" PURGE="0" COMMENT="" />
    <EXPORT ORDINAL="936" NAME="?add@Calendar@icu_53@@UEAAXW4EDateFields@12@HAEAW4UErrorCode@@@Z" PURGE="0" COMMENT="" />
    <EXPORT ORDINAL="937" NAME="?add@Calendar@icu_53@@UEAAXW4UCalendarDateFields@@HAEAW4UErrorCode@@@Z" PURGE="0" COMMENT="" />
    <EXPORT ORDINAL="938" NAME="?add@ChineseCalendar@icu_53@@UEAAXW4EDateFields@Calendar@2@HAEAW4UErrorCode@@@Z" PURGE="0" COMMENT="" />
    <EXPORT ORDINAL="939" NAME="?add@ChineseCalendar@icu_53@@UEAAXW4UCalendarDateFields@@HAEAW4UErrorCode@@@Z" PURGE="0" COMMENT="" />
    <EXPORT ORDINAL="940" NAME="?add@CollationDataBuilder@icu_53@@QEAAXAEBVUnicodeString@2@0QEB_JHAEAW4UErrorCode@@@Z" PURGE="0" COMMENT="" />
    <EXPORT ORDINAL="941" NAME="?add@HebrewCalendar@icu_53@@UEAAXW4EDateFields@Calendar@2@HAEAW4UErrorCode@@@Z" PURGE="0" COMMENT="" />
    <EXPORT ORDINAL="942" NAME="?add@HebrewCalendar@icu_53@@UEAAXW4UCalendarDateFields@@HAEAW4UErrorCode@@@Z" PURGE="0" COMMENT="" />
    <EXPORT ORDINAL="943" NAME="?add@QuantityFormatter@icu_53@@QEAACPEBDAEBVUnicodeString@2@AEAW4UErrorCode@@@Z" PURGE="0" COMMENT="" />
    <EXPORT ORDINAL="944" NAME="?addCE32@CollationDataBuilder@icu_53@@IEAAHIAEAW4UErrorCode@@@Z" PURGE="0" COMMENT="" />
    <EXPORT ORDINAL="945" NAME="?addCE32@CollationDataBuilder@icu_53@@QEAAXAEBVUnicodeString@2@0IAEAW4UErrorCode@@@Z" PURGE="0" COMMENT="" />
    <EXPORT ORDINAL="946" NAME="?addCE@CollationDataBuilder@icu_53@@IEAAH_JAEAW4UErrorCode@@@Z" PURGE="0" COMMENT="" />
    <EXPORT ORDINAL="947" NAME="?addCLDRData@DateTimePatternGenerator@icu_53@@AEAAXAEBVLocale@2@AEAW4UErrorCode@@@Z" PURGE="0" COMMENT="" />
    <EXPORT ORDINAL="948" NAME="?addCanonicalItems@DateTimePatternGenerator@icu_53@@AEAAXXZ" PURGE="0" COMMENT="" />
    <EXPORT ORDINAL="949" NAME="?addChildNode@TextTrieMap@icu_53@@AEAAPEAUCharacterNode@2@PEAU32@_WAEAW4UErrorCode@@@Z" PURGE="0" COMMENT="" />
    <EXPORT ORDINAL="950" NAME="?addChineseIndexCharacters@AlphabeticIndex@icu_53@@AEAACAEAW4UErrorCode@@@Z" PURGE="0" COMMENT="" />
    <EXPORT ORDINAL="951" NAME="?addConditionalCE32@CollationDataBuilder@icu_53@@IEAAHAEBVUnicodeString@2@IAEAW4UErrorCode@@@Z" PURGE="0" COMMENT="" />
    <EXPORT ORDINAL="952" NAME="?addContextTrie@CollationDataBuilder@icu_53@@IEAAHIAEAVUCharsTrieBuilder@2@AEAW4UErrorCode@@@Z" PURGE="0" COMMENT="" />
    <EXPORT ORDINAL="953" NAME="?addContractionEntry@CollationFastLatinBuilder@icu_53@@AEAAXH_J0AEAW4UErrorCode@@@Z" PURGE="0" COMMENT="" />
    <EXPORT ORDINAL="954" NAME="?addICUPatterns@DateTimePatternGenerator@icu_53@@AEAAXAEBVLocale@2@AEAW4UErrorCode@@@Z" PURGE="0" COMMENT="" />
    <EXPORT ORDINAL="955" NAME="?addIfDifferent@CollationBuilder@icu_53@@AEAAIAEBVUnicodeString@2@0QEB_JHIAEAW4UErrorCode@@@Z" PURGE="0" COMMENT="" />
    <EXPORT ORDINAL="956" NAME="?addIndexExemplars@AlphabeticIndex@icu_53@@AEAAXAEBVLocale@2@AEAW4UErrorCode@@@Z" PURGE="0" COMMENT="" />
    <EXPORT ORDINAL="957" NAME="?addLabels@AlphabeticIndex@icu_53@@UEAAAEAV12@AEBVLocale@2@AEAW4UErrorCode@@@Z" PURGE="0" COMMENT="" />
    <EXPORT ORDINAL="958" NAME="?addLabels@AlphabeticIndex@icu_53@@UEAAAEAV12@AEBVUnicodeSet@2@AEAW4UErrorCode@@@Z" PURGE="0" COMMENT="" />
    <EXPORT ORDINAL="959" NAME="?addMetaZone@MatchInfoCollection@TimeZoneNames@icu_53@@QEAAXW4UTimeZoneNameType@@HAEBVUnicodeString@3@AEAW4UErrorCode@@@Z" PURGE="0" COMMENT="" />
    <EXPORT ORDINAL="960" NAME="?addOnlyClosure@CollationBuilder@icu_53@@AEAAIAEBVUnicodeString@2@0QEB_JHIAEAW4UErrorCode@@@Z" PURGE="0" COMMENT="" />
    <EXPORT ORDINAL="961" NAME="?addPadding@DecimalFormat@icu_53@@AEBAXAEAVUnicodeString@2@AEAVFieldPositionHandler@2@HH@Z" PURGE="0" COMMENT="" />
    <EXPORT ORDINAL="962" NAME="?addPattern@DateTimePatternGenerator@icu_53@@QEAA?AW4UDateTimePatternConflict@@AEBVUnicodeString@2@CAEAV42@AEAW4UErrorCode@@@Z" PURGE="0" COMMENT="" />
    <EXPORT ORDINAL="963" NAME="?addPatternWithSkeleton@DateTimePatternGenerator@icu_53@@AEAA?AW4UDateTimePatternConflict@@AEBVUnicodeString@2@PEBV42@CAEAV42@AEAW4UErrorCode@@@Z" PURGE="0" COMMENT="" />
    <EXPORT ORDINAL="964" NAME="?addRecord@AlphabeticIndex@icu_53@@UEAAAEAV12@AEBVUnicodeString@2@PEBXAEAW4UErrorCode@@@Z" PURGE="0" COMMENT="" />
    <EXPORT ORDINAL="965" NAME="?addRelation@CollationBuilder@icu_53@@EEAAXHAEBVUnicodeString@2@00AEAPEBDAEAW4UErrorCode@@@Z" PURGE="0" COMMENT="" />
    <EXPORT ORDINAL="966" NAME="?addReorderingGroup@CollationBaseDataBuilder@icu_53@@QEAAXIIAEBVUnicodeString@2@AEAW4UErrorCode@@@Z" PURGE="0" COMMENT="" />
    <EXPORT ORDINAL="967" NAME="?addReset@CollationBuilder@icu_53@@EEAAXHAEBVUnicodeString@2@AEAPEBDAEAW4UErrorCode@@@Z" PURGE="0" COMMENT="" />
    <EXPORT ORDINAL="968" NAME="?addRootElement@CollationBaseDataBuilder@icu_53@@QEAAX_JAEAW4UErrorCode@@@Z" PURGE="0" COMMENT="" />
    <EXPORT ORDINAL="969" NAME="?addRootElements@CollationBaseDataBuilder@icu_53@@QEAAXQEB_JHAEAW4UErrorCode@@@Z" PURGE="0" COMMENT="" />
    <EXPORT ORDINAL="970" NAME="?addTailComposites@CollationBuilder@icu_53@@AEAAXAEBVUnicodeString@2@0AEAW4UErrorCode@@@Z" PURGE="0" COMMENT="" />
    <EXPORT ORDINAL="971" NAME="?addTransitionRule@RuleBasedTimeZone@icu_53@@QEAAXPEAVTimeZoneRule@2@AEAW4UErrorCode@@@Z" PURGE="0" COMMENT="" />
    <EXPORT ORDINAL="972" NAME="?addUniqueCE@CollationFastLatinBuilder@icu_53@@AEAAX_JAEAW4UErrorCode@@@Z" PURGE="0" COMMENT="" />
    <EXPORT ORDINAL="973" NAME="?addWithClosure@CollationBuilder@icu_53@@AEAAIAEBVUnicodeString@2@0QEB_JHIAEAW4UErrorCode@@@Z" PURGE="0" COMMENT="" />
    <EXPORT ORDINAL="974" NAME="?addZone@MatchInfoCollection@TimeZoneNames@icu_53@@QEAAXW4UTimeZoneNameType@@HAEBVUnicodeString@3@AEAW4UErrorCode@@@Z" PURGE="0" COMMENT="" />
    <EXPORT ORDINAL="975" NAME="?adjustFieldTypes@DateTimePatternGenerator@icu_53@@AEAA?AVUnicodeString@2@AEBV32@PEBVPtnSkeleton@2@HW4UDateTimePatternMatchOptions@@@Z" PURGE="0" COMMENT="" />
    <EXPORT ORDINAL="976" NAME="?adjustFieldWidth@DateIntervalFormat@icu_53@@CAXAEBVUnicodeString@2@00CAEAV32@@Z" PURGE="0" COMMENT="" />
    <EXPORT ORDINAL="977" NAME="?adjustForCapitalizationContext@RuleBasedNumberFormat@icu_53@@AEBAAEAVUnicodeString@2@HAEAV32@@Z" PURGE="0" COMMENT="" />
    <EXPORT ORDINAL="978" NAME="?adjustForMinFractionDigits@FixedDecimal@icu_53@@QEAAXH@Z" PURGE="0" COMMENT="" />
    <EXPORT ORDINAL="979" NAME="?adopt@ZNStringPool@icu_53@@QEAAPEB_WPEB_WAEAW4UErrorCode@@@Z" PURGE="0" COMMENT="" />
    <EXPORT ORDINAL="980" NAME="?adoptArray@Formattable@icu_53@@QEAAXPEAV12@H@Z" PURGE="0" COMMENT="" />
    <EXPORT ORDINAL="981" NAME="?adoptCalendar@DateFormat@icu_53@@UEAAXPEAVCalendar@2@@Z" PURGE="0" COMMENT="" />
    <EXPORT ORDINAL="982" NAME="?adoptCalendar@SimpleDateFormat@icu_53@@UEAAXPEAVCalendar@2@@Z" PURGE="0" COMMENT="" />
    <EXPORT ORDINAL="983" NAME="?adoptCurrencyPluralInfo@DecimalFormat@icu_53@@UEAAXPEAVCurrencyPluralInfo@2@@Z" PURGE="0" COMMENT="" />
    <EXPORT ORDINAL="984" NAME="?adoptDateFormatSymbols@SimpleDateFormat@icu_53@@UEAAXPEAVDateFormatSymbols@2@@Z" PURGE="0" COMMENT="" />
    <EXPORT ORDINAL="985" NAME="?adoptDecimalFormatSymbols@DecimalFormat@icu_53@@UEAAXPEAVDecimalFormatSymbols@2@@Z" PURGE="0" COMMENT="" />
    <EXPORT ORDINAL="986" NAME="?adoptDecimalFormatSymbols@RuleBasedNumberFormat@icu_53@@UEAAXPEAVDecimalFormatSymbols@2@@Z" PURGE="0" COMMENT="" />
    <EXPORT ORDINAL="987" NAME="?adoptDefault@TimeZone@icu_53@@SAXPEAV12@@Z" PURGE="0" COMMENT="" />
    <EXPORT ORDINAL="988" NAME="?adoptDigitList@Formattable@icu_53@@QEAAXPEAVDigitList@2@@Z" PURGE="0" COMMENT="" />
    <EXPORT ORDINAL="989" NAME="?adoptFilter@Transliterator@icu_53@@QEAAXPEAVUnicodeFilter@2@@Z" PURGE="0" COMMENT="" />
    <EXPORT ORDINAL="990" NAME="?adoptFormat@MessageFormat@icu_53@@UEAAXAEBVUnicodeString@2@PEAVFormat@2@AEAW4UErrorCode@@@Z" PURGE="0" COMMENT="" />
    <EXPORT ORDINAL="991" NAME="?adoptFormat@MessageFormat@icu_53@@UEAAXHPEAVFormat@2@@Z" PURGE="0" COMMENT="" />
    <EXPORT ORDINAL="992" NAME="?adoptFormats@MessageFormat@icu_53@@UEAAXPEAPEAVFormat@2@H@Z" PURGE="0" COMMENT="" />
    <EXPORT ORDINAL="993" NAME="?adoptFrom@TimeZoneTransition@icu_53@@QEAAXPEAVTimeZoneRule@2@@Z" PURGE="0" COMMENT="" />
    <EXPORT ORDINAL="994" NAME="?adoptNumberFormat@DateFormat@icu_53@@UEAAXPEAVNumberFormat@2@@Z" PURGE="0" COMMENT="" />
    <EXPORT ORDINAL="995" NAME="?adoptNumberFormat@MeasureFormat@icu_53@@IEAAXPEAVNumberFormat@2@AEAW4UErrorCode@@@Z" PURGE="0" COMMENT="" />
    <EXPORT ORDINAL="996" NAME="?adoptObject@Formattable@icu_53@@QEAAXPEAVUObject@2@@Z" PURGE="0" COMMENT="" />
    <EXPORT ORDINAL="997" NAME="?adoptString@Formattable@icu_53@@QEAAXPEAVUnicodeString@2@@Z" PURGE="0" COMMENT="" />
    <EXPORT ORDINAL="998" NAME="?adoptTailoring@RuleBasedCollator@icu_53@@AEAAXPEAUCollationTailoring@2@@Z" PURGE="0" COMMENT="" />
    <EXPORT ORDINAL="999" NAME="?adoptTimeZone@Calendar@icu_53@@QEAAXPEAVTimeZone@2@@Z" PURGE="0" COMMENT="" />
    <EXPORT ORDINAL="1000" NAME="?adoptTimeZone@DateFormat@icu_53@@UEAAXPEAVTimeZone@2@@Z" PURGE="0" COMMENT="" />
    <EXPORT ORDINAL="1001" NAME="?adoptTimeZone@DateIntervalFormat@icu_53@@UEAAXPEAVTimeZone@2@@Z" PURGE="0" COMMENT="" />
    <EXPORT ORDINAL="1002" NAME="?adoptTimeZoneFormat@SimpleDateFormat@icu_53@@UEAAXPEAVTimeZoneFormat@2@@Z" PURGE="0" COMMENT="" />
    <EXPORT ORDINAL="1003" NAME="?adoptTimeZoneNames@TimeZoneFormat@icu_53@@QEAAXPEAVTimeZoneNames@2@@Z" PURGE="0" COMMENT="" />
    <EXPORT ORDINAL="1004" NAME="?adoptTo@TimeZoneTransition@icu_53@@QEAAXPEAVTimeZoneRule@2@@Z" PURGE="0" COMMENT="" />
    <EXPORT ORDINAL="1005" NAME="?adoptTransliterators@CompoundTransliterator@icu_53@@QEAAXQEAPEAVTransliterator@2@H@Z" PURGE="0" COMMENT="" />
    <EXPORT ORDINAL="1006" NAME="?after@Calendar@icu_53@@QEBACAEBV12@AEAW4UErrorCode@@@Z" PURGE="0" COMMENT="" />
    <EXPORT ORDINAL="1007" NAME="?aggregateStamp@GregorianCalendar@icu_53@@AEAAHHH@Z" PURGE="0" COMMENT="" />
    <EXPORT ORDINAL="1008" NAME="?aliasInstead@?$MaybeStackHeaderAndArray@UdecNumber@@D$0CI@@icu_53@@QEAAXPEAUdecNumber@@H@Z" PURGE="0" COMMENT="" />
    <EXPORT ORDINAL="1009" NAME="?aliasReordering@CollationSettings@icu_53@@QEAAXPEBHHPEBE@Z" PURGE="0" COMMENT="" />
    <EXPORT ORDINAL="1010" NAME="?allocWeights@CollationWeights@icu_53@@QEAACIIH@Z" PURGE="0" COMMENT="" />
    <EXPORT ORDINAL="1011" NAME="?allocWeightsInMinLengthRanges@CollationWeights@icu_53@@AEAACHH@Z" PURGE="0" COMMENT="" />
    <EXPORT ORDINAL="1012" NAME="?allocWeightsInShortRanges@CollationWeights@icu_53@@AEAACHH@Z" PURGE="0" COMMENT="" />
    <EXPORT ORDINAL="1013" NAME="?allocateArgTypes@MessageFormat@icu_53@@AEAACHAEAW4UErrorCode@@@Z" PURGE="0" COMMENT="" />
    <EXPORT ORDINAL="1014" NAME="?append@DigitList@icu_53@@QEAAXD@Z" PURGE="0" COMMENT="" />
    <EXPORT ORDINAL="1015" NAME="?appendAffix@DecimalFormat@icu_53@@AEBAHAEAVUnicodeString@2@NAEAVFieldPositionHandler@2@CC@Z" PURGE="0" COMMENT="" />
    <EXPORT ORDINAL="1016" NAME="?appendAffixPattern@DecimalFormat@icu_53@@AEBAXAEAVUnicodeString@2@AEBV32@C@Z" PURGE="0" COMMENT="" />
    <EXPORT ORDINAL="1017" NAME="?appendAffixPattern@DecimalFormat@icu_53@@AEBAXAEAVUnicodeString@2@PEBV32@AEBV32@C@Z" PURGE="0" COMMENT="" />
    <EXPORT ORDINAL="1018" NAME="?appendCEsFromCE32@CollationIterator@icu_53@@IEAAXPEBUCollationData@2@HICAEAW4UErrorCode@@@Z" PURGE="0" COMMENT="" />
    <EXPORT ORDINAL="1019" NAME="?appendGroup@RegexMatcher@icu_53@@AEBA_JHPEAUUText@@AEAW4UErrorCode@@@Z" PURGE="0" COMMENT="" />
    <EXPORT ORDINAL="1020" NAME="?appendNumericCEs@CollationIterator@icu_53@@AEAAXICAEAW4UErrorCode@@@Z" PURGE="0" COMMENT="" />
    <EXPORT ORDINAL="1021" NAME="?appendNumericSegmentCEs@CollationIterator@icu_53@@AEAAXPEBDHAEAW4UErrorCode@@@Z" PURGE="0" COMMENT="" />
    <EXPORT ORDINAL="1022" NAME="?appendOffsetDigits@TimeZoneFormat@icu_53@@AEBAXAEAVUnicodeString@2@HE@Z" PURGE="0" COMMENT="" />
    <EXPORT ORDINAL="1023" NAME="?appendReplacement@RegexMatcher@icu_53@@UEAAAEAV12@AEAVUnicodeString@2@AEBV32@AEAW4UErrorCode@@@Z" PURGE="0" COMMENT="" />
    <EXPORT ORDINAL="1024" NAME="?appendReplacement@RegexMatcher@icu_53@@UEAAAEAV12@PEAUUText@@0AEAW4UErrorCode@@@Z" PURGE="0" COMMENT="" />
    <EXPORT ORDINAL="1025" NAME="?appendTail@RegexMatcher@icu_53@@UEAAAEAVUnicodeString@2@AEAV32@@Z" PURGE="0" COMMENT="" />
    <EXPORT ORDINAL="1026" NAME="?appendTail@RegexMatcher@icu_53@@UEAAPEAUUText@@PEAU3@AEAW4UErrorCode@@@Z" PURGE="0" COMMENT="" />
    <EXPORT ORDINAL="1027" NAME="?appendUNTIL@VTimeZone@icu_53@@AEBAXAEAVVTZWriter@2@AEBVUnicodeString@2@AEAW4UErrorCode@@@Z" PURGE="0" COMMENT="" />
    <EXPORT ORDINAL="1028" NAME="?applyLocalizedPattern@DecimalFormat@icu_53@@UEAAXAEBVUnicodeString@2@AEAUUParseError@@AEAW4UErrorCode@@@Z" PURGE="0" COMMENT="" />
    <EXPORT ORDINAL="1029" NAME="?applyLocalizedPattern@DecimalFormat@icu_53@@UEAAXAEBVUnicodeString@2@AEAW4UErrorCode@@@Z" PURGE="0" COMMENT="" />
    <EXPORT ORDINAL="1030" NAME="?applyLocalizedPattern@SimpleDateFormat@icu_53@@UEAAXAEBVUnicodeString@2@AEAW4UErrorCode@@@Z" PURGE="0" COMMENT="" />
    <EXPORT ORDINAL="1031" NAME="?applyPattern@ChoiceFormat@icu_53@@UEAAXAEBVUnicodeString@2@AEAUUParseError@@AEAW4UErrorCode@@@Z" PURGE="0" COMMENT="" />
    <EXPORT ORDINAL="1032" NAME="?applyPattern@ChoiceFormat@icu_53@@UEAAXAEBVUnicodeString@2@AEAW4UErrorCode@@@Z" PURGE="0" COMMENT="" />
    <EXPORT ORDINAL="1033" NAME="?applyPattern@DecimalFormat@icu_53@@AEAAXAEBVUnicodeString@2@CAEAUUParseError@@AEAW4UErrorCode@@@Z" PURGE="0" COMMENT="" />
    <EXPORT ORDINAL="1034" NAME="?applyPattern@DecimalFormat@icu_53@@UEAAXAEBVUnicodeString@2@AEAUUParseError@@AEAW4UErrorCode@@@Z" PURGE="0" COMMENT="" />
    <EXPORT ORDINAL="1035" NAME="?applyPattern@DecimalFormat@icu_53@@UEAAXAEBVUnicodeString@2@AEAW4UErrorCode@@@Z" PURGE="0" COMMENT="" />
    <EXPORT ORDINAL="1036" NAME="?applyPattern@MessageFormat@icu_53@@UEAAXAEBVUnicodeString@2@AEAUUParseError@@AEAW4UErrorCode@@@Z" PURGE="0" COMMENT="" />
    <EXPORT ORDINAL="1037" NAME="?applyPattern@MessageFormat@icu_53@@UEAAXAEBVUnicodeString@2@AEAW4UErrorCode@@@Z" PURGE="0" COMMENT="" />
    <EXPORT ORDINAL="1038" NAME="?applyPattern@MessageFormat@icu_53@@UEAAXAEBVUnicodeString@2@W4UMessagePatternApostropheMode@@PEAUUParseError@@AEAW4UErrorCode@@@Z" PURGE="0" COMMENT="" />
    <EXPORT ORDINAL="1039" NAME="?applyPattern@PluralFormat@icu_53@@QEAAXAEBVUnicodeString@2@AEAW4UErrorCode@@@Z" PURGE="0" COMMENT="" />
    <EXPORT ORDINAL="1040" NAME="?applyPattern@SelectFormat@icu_53@@QEAAXAEBVUnicodeString@2@AEAW4UErrorCode@@@Z" PURGE="0" COMMENT="" />
    <EXPORT ORDINAL="1041" NAME="?applyPattern@SimpleDateFormat@icu_53@@UEAAXAEBVUnicodeString@2@@Z" PURGE="0" COMMENT="" />
    <EXPORT ORDINAL="1042" NAME="?applyPatternInternally@DecimalFormat@icu_53@@AEAAXAEBVUnicodeString@2@0CAEAUUParseError@@AEAW4UErrorCode@@@Z" PURGE="0" COMMENT="" />
    <EXPORT ORDINAL="1043" NAME="?applyPatternWithoutExpandAffix@DecimalFormat@icu_53@@AEAAXAEBVUnicodeString@2@CAEAUUParseError@@AEAW4UErrorCode@@@Z" PURGE="0" COMMENT="" />
    <EXPORT ORDINAL="1044" NAME="?areSignificantDigitsUsed@DecimalFormat@icu_53@@QEBACXZ" PURGE="0" COMMENT="" />
    <EXPORT ORDINAL="1045" NAME="?argNameMatches@MessageFormat@icu_53@@AEAACHAEBVUnicodeString@2@H@Z" PURGE="0" COMMENT="" />
    <EXPORT ORDINAL="1046" NAME="?arrayCompare@DateFormatSymbols@icu_53@@CACPEBVUnicodeString@2@0H@Z" PURGE="0" COMMENT="" />
    <EXPORT ORDINAL="1047" NAME="?assignArray@DateFormatSymbols@icu_53@@CAXAEAPEAVUnicodeString@2@AEAHPEBV32@H@Z" PURGE="0" COMMENT="" />
    <EXPORT ORDINAL="1048" NAME="?attributeHasBeenSetExplicitly@RuleBasedCollator@icu_53@@AEBACH@Z" PURGE="0" COMMENT="" />
    <EXPORT ORDINAL="1049" NAME="?autoQuoteApostrophe@MessageFormat@icu_53@@SA?AVUnicodeString@2@AEBV32@AEAW4UErrorCode@@@Z" PURGE="0" COMMENT="" />
    <EXPORT ORDINAL="1050" NAME="?backwardNumCodePoints@FCDUIterCollationIterator@icu_53@@MEAAXHAEAW4UErrorCode@@@Z" PURGE="0" COMMENT="" />
    <EXPORT ORDINAL="1051" NAME="?backwardNumCodePoints@FCDUTF16CollationIterator@icu_53@@MEAAXHAEAW4UErrorCode@@@Z" PURGE="0" COMMENT="" />
    <EXPORT ORDINAL="1052" NAME="?backwardNumCodePoints@FCDUTF8CollationIterator@icu_53@@MEAAXHAEAW4UErrorCode@@@Z" PURGE="0" COMMENT="" />
    <EXPORT ORDINAL="1053" NAME="?backwardNumCodePoints@UIterCollationIterator@icu_53@@MEAAXHAEAW4UErrorCode@@@Z" PURGE="0" COMMENT="" />
    <EXPORT ORDINAL="1054" NAME="?backwardNumCodePoints@UTF16CollationIterator@icu_53@@MEAAXHAEAW4UErrorCode@@@Z" PURGE="0" COMMENT="" />
    <EXPORT ORDINAL="1055" NAME="?backwardNumCodePoints@UTF8CollationIterator@icu_53@@MEAAXHAEAW4UErrorCode@@@Z" PURGE="0" COMMENT="" />
    <EXPORT ORDINAL="1056" NAME="?backwardNumSkipped@CollationIterator@icu_53@@AEAAXHAEAW4UErrorCode@@@Z" PURGE="0" COMMENT="" />
    <EXPORT ORDINAL="1057" NAME="?before@Calendar@icu_53@@QEBACAEBV12@AEAW4UErrorCode@@@Z" PURGE="0" COMMENT="" />
    <EXPORT ORDINAL="1058" NAME="?beginRRULE@VTimeZone@icu_53@@AEBAXAEAVVTZWriter@2@HAEAW4UErrorCode@@@Z" PURGE="0" COMMENT="" />
    <EXPORT ORDINAL="1059" NAME="?beginZoneProps@VTimeZone@icu_53@@AEBAXAEAVVTZWriter@2@CAEBVUnicodeString@2@HHNAEAW4UErrorCode@@@Z" PURGE="0" COMMENT="" />
    <EXPORT ORDINAL="1060" NAME="?boundsCheck@GregorianCalendar@icu_53@@AEBACHW4UCalendarDateFields@@@Z" PURGE="0" COMMENT="" />
    <EXPORT ORDINAL="1061" NAME="?build@CollationBaseDataBuilder@icu_53@@UEAAXAEAUCollationData@2@AEAW4UErrorCode@@@Z" PURGE="0" COMMENT="" />
    <EXPORT ORDINAL="1062" NAME="?build@CollationDataBuilder@icu_53@@UEAAXAEAUCollationData@2@AEAW4UErrorCode@@@Z" PURGE="0" COMMENT="" />
    <EXPORT ORDINAL="1063" NAME="?buildContext@CollationDataBuilder@icu_53@@IEAAIPEAUConditionalCE32@2@AEAW4UErrorCode@@@Z" PURGE="0" COMMENT="" />
    <EXPORT ORDINAL="1064" NAME="?buildContexts@CollationDataBuilder@icu_53@@IEAAXAEAW4UErrorCode@@@Z" PURGE="0" COMMENT="" />
    <EXPORT ORDINAL="1065" NAME="?buildFastLatinTable@CollationDataBuilder@icu_53@@IEAAXAEAUCollationData@2@AEAW4UErrorCode@@@Z" PURGE="0" COMMENT="" />
    <EXPORT ORDINAL="1066" NAME="?buildImmutableIndex@AlphabeticIndex@icu_53@@QEAAPEAVImmutableIndex@12@AEAW4UErrorCode@@@Z" PURGE="0" COMMENT="" />
    <EXPORT ORDINAL="1067" NAME="?buildMappings@CollationDataBuilder@icu_53@@IEAAXAEAUCollationData@2@AEAW4UErrorCode@@@Z" PURGE="0" COMMENT="" />
    <EXPORT ORDINAL="1068" NAME="?buildRootElementsTable@CollationBaseDataBuilder@icu_53@@QEAAXAEAVUVector32@2@AEAW4UErrorCode@@@Z" PURGE="0" COMMENT="" />
    <EXPORT ORDINAL="1069" NAME="?buildTrie@TextTrieMap@icu_53@@AEAAXAEAW4UErrorCode@@@Z" PURGE="0" COMMENT="" />
    <EXPORT ORDINAL="1070" NAME="?cacheExplicitFormats@MessageFormat@icu_53@@AEAAXAEAW4UErrorCode@@@Z" PURGE="0" COMMENT="" />
    <EXPORT ORDINAL="1071" NAME="?calendarFieldToIntervalIndex@DateIntervalInfo@icu_53@@CA?AW4IntervalPatternIndex@12@W4UCalendarDateFields@@AEAW4UErrorCode@@@Z" PURGE="0" COMMENT="" />
    <EXPORT ORDINAL="1072" NAME="?ce32HasContext@Collation@icu_53@@SACI@Z" PURGE="0" COMMENT="" />
    <EXPORT ORDINAL="1073" NAME="?ceFromCE32@Collation@icu_53@@SA_JI@Z" PURGE="0" COMMENT="" />
    <EXPORT ORDINAL="1074" NAME="?ceFromLongPrimaryCE32@Collation@icu_53@@SA_JI@Z" PURGE="0" COMMENT="" />
    <EXPORT ORDINAL="1075" NAME="?ceFromLongSecondaryCE32@Collation@icu_53@@SA_JI@Z" PURGE="0" COMMENT="" />
    <EXPORT ORDINAL="1076" NAME="?ceFromSimpleCE32@Collation@icu_53@@SA_JI@Z" PURGE="0" COMMENT="" />
    <EXPORT ORDINAL="1077" NAME="?ceStrength@CollationBuilder@icu_53@@CAH_J@Z" PURGE="0" COMMENT="" />
    <EXPORT ORDINAL="1078" NAME="?ceToJD@CECalendar@icu_53@@KAHHHHH@Z" PURGE="0" COMMENT="" />
    <EXPORT ORDINAL="1079" NAME="?changeNodeNextIndex@CollationBuilder@icu_53@@CA_J_JH@Z" PURGE="0" COMMENT="" />
    <EXPORT ORDINAL="1080" NAME="?changeNodePreviousIndex@CollationBuilder@icu_53@@CA_J_JH@Z" PURGE="0" COMMENT="" />
    <EXPORT ORDINAL="1081" NAME="?checkAbuttingHoursAndMinutes@TimeZoneFormat@icu_53@@AEAAXXZ" PURGE="0" COMMENT="" />
    <EXPORT ORDINAL="1082" NAME="?checkConsistency@TimeUnitFormat@icu_53@@AEAAXW4UTimeUnitFormatStyle@@PEBDAEAW4UErrorCode@@@Z" PURGE="0" COMMENT="" />
    <EXPORT ORDINAL="1083" NAME="?checkIntSuffix@SimpleDateFormat@icu_53@@AEBAHAEBVUnicodeString@2@HHC@Z" PURGE="0" COMMENT="" />
    <EXPORT ORDINAL="1084" NAME="?checkTransitionRules@OlsonTimeZone@icu_53@@AEBAXAEAW4UErrorCode@@@Z" PURGE="0" COMMENT="" />
    <EXPORT ORDINAL="1085" NAME="?checkTransitionRules@SimpleTimeZone@icu_53@@AEBAXAEAW4UErrorCode@@@Z" PURGE="0" COMMENT="" />
    <EXPORT ORDINAL="1086" NAME="?civilLeapYear@IslamicCalendar@icu_53@@CACH@Z" PURGE="0" COMMENT="" />
    <EXPORT ORDINAL="1087" NAME="?cleanupRegionData@Region@icu_53@@SAXXZ" PURGE="0" COMMENT="" />
    <EXPORT ORDINAL="1088" NAME="?clear@?$EnumSet@W4UDateFormatBooleanAttribute@@$0A@$03@icu_53@@QEAAXXZ" PURGE="0" COMMENT="" />
    <EXPORT ORDINAL="1089" NAME="?clear@?$EnumSet@W4UNumberFormatAttribute@@$0BAAA@$0BAAC@@icu_53@@QEAAXXZ" PURGE="0" COMMENT="" />
    <EXPORT ORDINAL="1090" NAME="?clear@Calendar@icu_53@@QEAAXW4UCalendarDateFields@@@Z" PURGE="0" COMMENT="" />
    <EXPORT ORDINAL="1091" NAME="?clear@Calendar@icu_53@@QEAAXXZ" PURGE="0" COMMENT="" />
    <EXPORT ORDINAL="1092" NAME="?clear@DigitList@icu_53@@QEAAXXZ" PURGE="0" COMMENT="" />
    <EXPORT ORDINAL="1093" NAME="?clear@IdentifierInfo@icu_53@@AEAAAEAV12@XZ" PURGE="0" COMMENT="" />
    <EXPORT ORDINAL="1094" NAME="?clearBuckets@AlphabeticIndex@icu_53@@AEAAXXZ" PURGE="0" COMMENT="" />
    <EXPORT ORDINAL="1095" NAME="?clearCEs@CollationIterator@icu_53@@QEAAXXZ" PURGE="0" COMMENT="" />
    <EXPORT ORDINAL="1096" NAME="?clearCEsIfNoneRemaining@CollationIterator@icu_53@@QEAAXXZ" PURGE="0" COMMENT="" />
    <EXPORT ORDINAL="1097" NAME="?clearCache@CalendarAstronomer@icu_53@@AEAAXXZ" PURGE="0" COMMENT="" />
    <EXPORT ORDINAL="1098" NAME="?clearContexts@CollationDataBuilder@icu_53@@IEAAXXZ" PURGE="0" COMMENT="" />
    <EXPORT ORDINAL="1099" NAME="?clearRecords@AlphabeticIndex@icu_53@@UEAAAEAV12@AEAW4UErrorCode@@@Z" PURGE="0" COMMENT="" />
    <EXPORT ORDINAL="1100" NAME="?clearTransitionRules@OlsonTimeZone@icu_53@@AEAAXXZ" PURGE="0" COMMENT="" />
    <EXPORT ORDINAL="1101" NAME="?clearTransitionRules@SimpleTimeZone@icu_53@@AEAAXXZ" PURGE="0" COMMENT="" />
    <EXPORT ORDINAL="1102" NAME="?clone@AnnualTimeZoneRule@icu_53@@UEBAPEAV12@XZ" PURGE="0" COMMENT="" />
    <EXPORT ORDINAL="1103" NAME="?clone@ChineseCalendar@icu_53@@UEBAPEAVCalendar@2@XZ" PURGE="0" COMMENT="" />
    <EXPORT ORDINAL="1104" NAME="?clone@ChoiceFormat@icu_53@@UEBAPEAVFormat@2@XZ" PURGE="0" COMMENT="" />
    <EXPORT ORDINAL="1105" NAME="?clone@CompactDecimalFormat@icu_53@@UEBAPEAVFormat@2@XZ" PURGE="0" COMMENT="" />
    <EXPORT ORDINAL="1106" NAME="?clone@CompoundTransliterator@icu_53@@UEBAPEAVTransliterator@2@XZ" PURGE="0" COMMENT="" />
    <EXPORT ORDINAL="1107" NAME="?clone@CurrencyAmount@icu_53@@UEBAPEAVUObject@2@XZ" PURGE="0" COMMENT="" />
    <EXPORT ORDINAL="1108" NAME="?clone@CurrencyPluralInfo@icu_53@@QEBAPEAV12@XZ" PURGE="0" COMMENT="" />
    <EXPORT ORDINAL="1109" NAME="?clone@CurrencyUnit@icu_53@@UEBAPEAVUObject@2@XZ" PURGE="0" COMMENT="" />
    <EXPORT ORDINAL="1110" NAME="?clone@DateIntervalFormat@icu_53@@UEBAPEAVFormat@2@XZ" PURGE="0" COMMENT="" />
    <EXPORT ORDINAL="1111" NAME="?clone@DateIntervalInfo@icu_53@@UEBAPEAV12@XZ" PURGE="0" COMMENT="" />
    <EXPORT ORDINAL="1112" NAME="?clone@DateTimePatternGenerator@icu_53@@QEBAPEAV12@XZ" PURGE="0" COMMENT="" />
    <EXPORT ORDINAL="1113" NAME="?clone@DateTimeRule@icu_53@@QEBAPEAV12@XZ" PURGE="0" COMMENT="" />
    <EXPORT ORDINAL="1114" NAME="?clone@DecimalFormat@icu_53@@UEBAPEAVFormat@2@XZ" PURGE="0" COMMENT="" />
    <EXPORT ORDINAL="1115" NAME="?clone@DummyFormat@MessageFormat@icu_53@@UEBAPEAVFormat@3@XZ" PURGE="0" COMMENT="" />
    <EXPORT ORDINAL="1116" NAME="?clone@FieldPosition@icu_53@@QEBAPEAV12@XZ" PURGE="0" COMMENT="" />
    <EXPORT ORDINAL="1117" NAME="?clone@Formattable@icu_53@@QEBAPEAV12@XZ" PURGE="0" COMMENT="" />
    <EXPORT ORDINAL="1118" NAME="?clone@GregorianCalendar@icu_53@@UEBAPEAVCalendar@2@XZ" PURGE="0" COMMENT="" />
    <EXPORT ORDINAL="1119" NAME="?clone@HebrewCalendar@icu_53@@UEBAPEAVCalendar@2@XZ" PURGE="0" COMMENT="" />
    <EXPORT ORDINAL="1120" NAME="?clone@InitialTimeZoneRule@icu_53@@UEBAPEAV12@XZ" PURGE="0" COMMENT="" />
    <EXPORT ORDINAL="1121" NAME="?clone@IslamicCalendar@icu_53@@UEBAPEAVCalendar@2@XZ" PURGE="0" COMMENT="" />
    <EXPORT ORDINAL="1122" NAME="?clone@Measure@icu_53@@UEBAPEAVUObject@2@XZ" PURGE="0" COMMENT="" />
    <EXPORT ORDINAL="1123" NAME="?clone@MeasureFormat@icu_53@@UEBAPEAVFormat@2@XZ" PURGE="0" COMMENT="" />
    <EXPORT ORDINAL="1124" NAME="?clone@MeasureUnit@icu_53@@UEBAPEAVUObject@2@XZ" PURGE="0" COMMENT="" />
    <EXPORT ORDINAL="1125" NAME="?clone@MessageFormat@icu_53@@UEBAPEAVFormat@2@XZ" PURGE="0" COMMENT="" />
    <EXPORT ORDINAL="1126" NAME="?clone@OlsonTimeZone@icu_53@@UEBAPEAVTimeZone@2@XZ" PURGE="0" COMMENT="" />
    <EXPORT ORDINAL="1127" NAME="?clone@PluralFormat@icu_53@@UEBAPEAVFormat@2@XZ" PURGE="0" COMMENT="" />
    <EXPORT ORDINAL="1128" NAME="?clone@PluralRules@icu_53@@QEBAPEAV12@XZ" PURGE="0" COMMENT="" />
    <EXPORT ORDINAL="1129" NAME="?clone@RegexPattern@icu_53@@UEBAPEAV12@XZ" PURGE="0" COMMENT="" />
    <EXPORT ORDINAL="1130" NAME="?clone@RuleBasedCollator@icu_53@@UEBAPEAVCollator@2@XZ" PURGE="0" COMMENT="" />
    <EXPORT ORDINAL="1131" NAME="?clone@RuleBasedNumberFormat@icu_53@@UEBAPEAVFormat@2@XZ" PURGE="0" COMMENT="" />
    <EXPORT ORDINAL="1132" NAME="?clone@RuleBasedTimeZone@icu_53@@UEBAPEAVTimeZone@2@XZ" PURGE="0" COMMENT="" />
    <EXPORT ORDINAL="1133" NAME="?clone@SelectFormat@icu_53@@UEBAPEAVFormat@2@XZ" PURGE="0" COMMENT="" />
    <EXPORT ORDINAL="1134" NAME="?clone@SimpleDateFormat@icu_53@@UEBAPEAVFormat@2@XZ" PURGE="0" COMMENT="" />
    <EXPORT ORDINAL="1135" NAME="?clone@SimpleTimeZone@icu_53@@UEBAPEAVTimeZone@2@XZ" PURGE="0" COMMENT="" />
    <EXPORT ORDINAL="1136" NAME="?clone@StringSearch@icu_53@@QEBAPEAV12@XZ" PURGE="0" COMMENT="" />
    <EXPORT ORDINAL="1137" NAME="?clone@TimeArrayTimeZoneRule@icu_53@@UEBAPEAV12@XZ" PURGE="0" COMMENT="" />
    <EXPORT ORDINAL="1138" NAME="?clone@TimeUnit@icu_53@@UEBAPEAVUObject@2@XZ" PURGE="0" COMMENT="" />
    <EXPORT ORDINAL="1139" NAME="?clone@TimeUnitAmount@icu_53@@UEBAPEAVUObject@2@XZ" PURGE="0" COMMENT="" />
    <EXPORT ORDINAL="1140" NAME="?clone@TimeUnitFormat@icu_53@@UEBAPEAVFormat@2@XZ" PURGE="0" COMMENT="" />
    <EXPORT ORDINAL="1141" NAME="?clone@TimeZoneFormat@icu_53@@UEBAPEAVFormat@2@XZ" PURGE="0" COMMENT="" />
    <EXPORT ORDINAL="1142" NAME="?clone@TimeZoneGenericNames@icu_53@@UEBAPEAV12@XZ" PURGE="0" COMMENT="" />
    <EXPORT ORDINAL="1143" NAME="?clone@TimeZoneTransition@icu_53@@QEBAPEAV12@XZ" PURGE="0" COMMENT="" />
    <EXPORT ORDINAL="1144" NAME="?clone@Transliterator@icu_53@@UEBAPEAV12@XZ" PURGE="0" COMMENT="" />
    <EXPORT ORDINAL="1145" NAME="?clone@VTimeZone@icu_53@@UEBAPEAVTimeZone@2@XZ" PURGE="0" COMMENT="" />
    <EXPORT ORDINAL="1146" NAME="?cloneBinary@RuleBasedCollator@icu_53@@QEBAHPEAEHAEAW4UErrorCode@@@Z" PURGE="0" COMMENT="" />
    <EXPORT ORDINAL="1147" NAME="?cloneRuleData@RuleBasedCollator@icu_53@@QEBAPEAEAEAHAEAW4UErrorCode@@@Z" PURGE="0" COMMENT="" />
    <EXPORT ORDINAL="1148" NAME="?closeOverComposites@CollationBuilder@icu_53@@AEAAXAEAW4UErrorCode@@@Z" PURGE="0" COMMENT="" />
    <EXPORT ORDINAL="1149" NAME="?combineDateAndTime@RelativeDateTimeFormatter@icu_53@@QEBAAEAVUnicodeString@2@AEBV32@0AEAV32@AEAW4UErrorCode@@@Z" PURGE="0" COMMENT="" />
    <EXPORT ORDINAL="1150" NAME="?compare@Collator@icu_53@@UEBA?AW4EComparisonResult@12@AEBVUnicodeString@2@0@Z" PURGE="0" COMMENT="" />
    <EXPORT ORDINAL="1151" NAME="?compare@Collator@icu_53@@UEBA?AW4EComparisonResult@12@AEBVUnicodeString@2@0H@Z" PURGE="0" COMMENT="" />
    <EXPORT ORDINAL="1152" NAME="?compare@Collator@icu_53@@UEBA?AW4EComparisonResult@12@PEB_WH0H@Z" PURGE="0" COMMENT="" />
    <EXPORT ORDINAL="1153" NAME="?compare@Collator@icu_53@@UEBA?AW4UCollationResult@@AEAUUCharIterator@@0AEAW4UErrorCode@@@Z" PURGE="0" COMMENT="" />
    <EXPORT ORDINAL="1154" NAME="?compare@DigitList@icu_53@@QEAAHAEBV12@@Z" PURGE="0" COMMENT="" />
    <EXPORT ORDINAL="1155" NAME="?compare@RuleBasedCollator@icu_53@@UEBA?AW4UCollationResult@@AEAUUCharIterator@@0AEAW4UErrorCode@@@Z" PURGE="0" COMMENT="" />
    <EXPORT ORDINAL="1156" NAME="?compare@RuleBasedCollator@icu_53@@UEBA?AW4UCollationResult@@AEBVUnicodeString@2@0AEAW4UErrorCode@@@Z" PURGE="0" COMMENT="" />
    <EXPORT ORDINAL="1157" NAME="?compare@RuleBasedCollator@icu_53@@UEBA?AW4UCollationResult@@AEBVUnicodeString@2@0HAEAW4UErrorCode@@@Z" PURGE="0" COMMENT="" />
    <EXPORT ORDINAL="1158" NAME="?compare@RuleBasedCollator@icu_53@@UEBA?AW4UCollationResult@@PEB_WH0HAEAW4UErrorCode@@@Z" PURGE="0" COMMENT="" />
    <EXPORT ORDINAL="1159" NAME="?compareAffix@DecimalFormat@icu_53@@AEBAHAEBVUnicodeString@2@HCCPEBV32@CCPEA_W@Z" PURGE="0" COMMENT="" />
    <EXPORT ORDINAL="1160" NAME="?compareComplexAffix@DecimalFormat@icu_53@@AEBAHAEBVUnicodeString@2@0HCPEA_W@Z" PURGE="0" COMMENT="" />
    <EXPORT ORDINAL="1161" NAME="?compareSimpleAffix@DecimalFormat@icu_53@@AEBAHAEBVUnicodeString@2@0HC@Z" PURGE="0" COMMENT="" />
    <EXPORT ORDINAL="1162" NAME="?compareSimpleAffix@SimpleDateFormat@icu_53@@AEBAHAEBVUnicodeString@2@0H@Z" PURGE="0" COMMENT="" />
    <EXPORT ORDINAL="1163" NAME="?compareTo@CollationKey@icu_53@@QEBA?AW4EComparisonResult@Collator@2@AEBV12@@Z" PURGE="0" COMMENT="" />
    <EXPORT ORDINAL="1164" NAME="?compareTo@CollationKey@icu_53@@QEBA?AW4UCollationResult@@AEBV12@AEAW4UErrorCode@@@Z" PURGE="0" COMMENT="" />
    <EXPORT ORDINAL="1165" NAME="?compareToRule@SimpleTimeZone@icu_53@@CAHCCCCCHHW4EMode@12@CCCH@Z" PURGE="0" COMMENT="" />
    <EXPORT ORDINAL="1166" NAME="?compareUTF16@CollationFastLatin@icu_53@@SAHPEBG0HPEB_WH1H@Z" PURGE="0" COMMENT="" />
    <EXPORT ORDINAL="1167" NAME="?compareUTF8@CollationFastLatin@icu_53@@SAHPEBG0HPEBEH1H@Z" PURGE="0" COMMENT="" />
    <EXPORT ORDINAL="1168" NAME="?compareUTF8@Collator@icu_53@@UEBA?AW4UCollationResult@@AEBVStringPiece@2@0AEAW4UErrorCode@@@Z" PURGE="0" COMMENT="" />
    <EXPORT ORDINAL="1169" NAME="?compareUTF8@RuleBasedCollator@icu_53@@UEBA?AW4UCollationResult@@AEBVStringPiece@2@0AEAW4UErrorCode@@@Z" PURGE="0" COMMENT="" />
    <EXPORT ORDINAL="1170" NAME="?compareUpToQuaternary@CollationCompare@icu_53@@SA?AW4UCollationResult@@AEAVCollationIterator@2@0AEBUCollationSettings@2@AEAW4UErrorCode@@@Z" PURGE="0" COMMENT="" />
    <EXPORT ORDINAL="1171" NAME="?compile@RegexPattern@icu_53@@SAPEAV12@AEBVUnicodeString@2@AEAUUParseError@@AEAW4UErrorCode@@@Z" PURGE="0" COMMENT="" />
    <EXPORT ORDINAL="1172" NAME="?compile@RegexPattern@icu_53@@SAPEAV12@AEBVUnicodeString@2@IAEAUUParseError@@AEAW4UErrorCode@@@Z" PURGE="0" COMMENT="" />
    <EXPORT ORDINAL="1173" NAME="?compile@RegexPattern@icu_53@@SAPEAV12@AEBVUnicodeString@2@IAEAW4UErrorCode@@@Z" PURGE="0" COMMENT="" />
    <EXPORT ORDINAL="1174" NAME="?compile@RegexPattern@icu_53@@SAPEAV12@PEAUUText@@AEAUUParseError@@AEAW4UErrorCode@@@Z" PURGE="0" COMMENT="" />
    <EXPORT ORDINAL="1175" NAME="?compile@RegexPattern@icu_53@@SAPEAV12@PEAUUText@@IAEAUUParseError@@AEAW4UErrorCode@@@Z" PURGE="0" COMMENT="" />
    <EXPORT ORDINAL="1176" NAME="?compile@RegexPattern@icu_53@@SAPEAV12@PEAUUText@@IAEAW4UErrorCode@@@Z" PURGE="0" COMMENT="" />
    <EXPORT ORDINAL="1177" NAME="?complete@Calendar@icu_53@@IEAAXAEAW4UErrorCode@@@Z" PURGE="0" COMMENT="" />
    <EXPORT ORDINAL="1178" NAME="?complete@RuleBasedTimeZone@icu_53@@QEAAXAEAW4UErrorCode@@@Z" PURGE="0" COMMENT="" />
    <EXPORT ORDINAL="1179" NAME="?completeConst@RuleBasedTimeZone@icu_53@@AEBAXAEAW4UErrorCode@@@Z" PURGE="0" COMMENT="" />
    <EXPORT ORDINAL="1180" NAME="?computeChineseFields@ChineseCalendar@icu_53@@EEAAXHHHC@Z" PURGE="0" COMMENT="" />
    <EXPORT ORDINAL="1181" NAME="?computeFields@Calendar@icu_53@@MEAAXAEAW4UErrorCode@@@Z" PURGE="0" COMMENT="" />
    <EXPORT ORDINAL="1182" NAME="?computeGregorianAndDOWFields@Calendar@icu_53@@AEAAXHAEAW4UErrorCode@@@Z" PURGE="0" COMMENT="" />
    <EXPORT ORDINAL="1183" NAME="?computeGregorianFields@Calendar@icu_53@@IEAAXHAEAW4UErrorCode@@@Z" PURGE="0" COMMENT="" />
    <EXPORT ORDINAL="1184" NAME="?computeJulianDay@Calendar@icu_53@@IEAAHXZ" PURGE="0" COMMENT="" />
    <EXPORT ORDINAL="1185" NAME="?computeJulianDayOfYear@GregorianCalendar@icu_53@@CANCHAEAC@Z" PURGE="0" COMMENT="" />
    <EXPORT ORDINAL="1186" NAME="?computeMaxExpansions@CollationElementIterator@icu_53@@CAPEAUUHashtable@@PEBUCollationData@2@AEAW4UErrorCode@@@Z" PURGE="0" COMMENT="" />
    <EXPORT ORDINAL="1187" NAME="?computeMaxExpansions@RuleBasedCollator@icu_53@@CAXPEBUCollationTailoring@2@AEAW4UErrorCode@@@Z" PURGE="0" COMMENT="" />
    <EXPORT ORDINAL="1188" NAME="?computeMaximumContextLength@CompoundTransliterator@icu_53@@AEAAXXZ" PURGE="0" COMMENT="" />
    <EXPORT ORDINAL="1189" NAME="?computeMillisInDay@Calendar@icu_53@@IEAAHXZ" PURGE="0" COMMENT="" />
    <EXPORT ORDINAL="1190" NAME="?computeTime@Calendar@icu_53@@MEAAXAEAW4UErrorCode@@@Z" PURGE="0" COMMENT="" />
    <EXPORT ORDINAL="1191" NAME="?computeWeekFields@Calendar@icu_53@@AEAAXAEAW4UErrorCode@@@Z" PURGE="0" COMMENT="" />
    <EXPORT ORDINAL="1192" NAME="?computeZoneOffset@Calendar@icu_53@@IEAAHNHAEAW4UErrorCode@@@Z" PURGE="0" COMMENT="" />
    <EXPORT ORDINAL="1193" NAME="?concatSingleDate2TimeInterval@DateIntervalFormat@icu_53@@AEAAXPEB_WHAEBVUnicodeString@2@W4UCalendarDateFields@@AEAW4UErrorCode@@@Z" PURGE="0" COMMENT="" />
    <EXPORT ORDINAL="1194" NAME="?construct@DecimalFormat@icu_53@@AEAAXAEAW4UErrorCode@@AEAUUParseError@@PEBVUnicodeString@2@PEAVDecimalFormatSymbols@2@@Z" PURGE="0" COMMENT="" />
    <EXPORT ORDINAL="1195" NAME="?construct@SimpleDateFormat@icu_53@@AEAAXW4EStyle@DateFormat@2@0AEBVLocale@2@AEAW4UErrorCode@@@Z" PURGE="0" COMMENT="" />
    <EXPORT ORDINAL="1196" NAME="?construct@SimpleTimeZone@icu_53@@AEAAXHCCCHW4TimeMode@12@CCCH0HAEAW4UErrorCode@@@Z" PURGE="0" COMMENT="" />
    <EXPORT ORDINAL="1197" NAME="?constructEmpty@OlsonTimeZone@icu_53@@AEAAXXZ" PURGE="0" COMMENT="" />
    <EXPORT ORDINAL="1198" NAME="?contains@?$EnumSet@W4UDateFormatBooleanAttribute@@$0A@$03@icu_53@@QEBAHW4UDateFormatBooleanAttribute@@@Z" PURGE="0" COMMENT="" />
    <EXPORT ORDINAL="1199" NAME="?contains@?$EnumSet@W4UNumberFormatAttribute@@$0BAAA@$0BAAC@@icu_53@@QEBAHW4UNumberFormatAttribute@@@Z" PURGE="0" COMMENT="" />
    <EXPORT ORDINAL="1200" NAME="?contains@Region@icu_53@@QEBACAEBV12@@Z" PURGE="0" COMMENT="" />
    <EXPORT ORDINAL="1201" NAME="?contains@ScriptSet@icu_53@@QEBACAEBV12@@Z" PURGE="0" COMMENT="" />
    <EXPORT ORDINAL="1202" NAME="?containsWithAlternates@IdentifierInfo@icu_53@@AEBACAEBVScriptSet@2@0@Z" PURGE="0" COMMENT="" />
    <EXPORT ORDINAL="1203" NAME="?copyContractionsFromBaseCE32@CollationDataBuilder@icu_53@@IEAAHAEAVUnicodeString@2@HIPEAUConditionalCE32@2@AEAW4UErrorCode@@@Z" PURGE="0" COMMENT="" />
    <EXPORT ORDINAL="1204" NAME="?copyData@CollationDataWriter@icu_53@@CAXQEBHHPEBXPEAE@Z" PURGE="0" COMMENT="" />
    <EXPORT ORDINAL="1205" NAME="?copyData@DateFormatSymbols@icu_53@@AEAAXAEBV12@@Z" PURGE="0" COMMENT="" />
    <EXPORT ORDINAL="1206" NAME="?copyFrom@CollationDataBuilder@icu_53@@QEAAXAEBV12@AEBVCEModifier@12@AEAW4UErrorCode@@@Z" PURGE="0" COMMENT="" />
    <EXPORT ORDINAL="1207" NAME="?copyFromBaseCE32@CollationDataBuilder@icu_53@@IEAAIHICAEAW4UErrorCode@@@Z" PURGE="0" COMMENT="" />
    <EXPORT ORDINAL="1208" NAME="?copyHash@CurrencyPluralInfo@icu_53@@AEAAXPEBVHashtable@2@PEAV32@AEAW4UErrorCode@@@Z" PURGE="0" COMMENT="" />
    <EXPORT ORDINAL="1209" NAME="?copyHash@DateIntervalInfo@icu_53@@AEAAXPEBVHashtable@2@PEAV32@AEAW4UErrorCode@@@Z" PURGE="0" COMMENT="" />
    <EXPORT ORDINAL="1210" NAME="?copyHash@TimeUnitFormat@icu_53@@AEAAXPEBVHashtable@2@PEAV32@AEAW4UErrorCode@@@Z" PURGE="0" COMMENT="" />
    <EXPORT ORDINAL="1211" NAME="?copyHashForAffix@DecimalFormat@icu_53@@AEAAXPEBVHashtable@2@PEAV32@AEAW4UErrorCode@@@Z" PURGE="0" COMMENT="" />
    <EXPORT ORDINAL="1212" NAME="?copyHashForAffixPattern@DecimalFormat@icu_53@@AEAAXPEBVHashtable@2@PEAV32@AEAW4UErrorCode@@@Z" PURGE="0" COMMENT="" />
    <EXPORT ORDINAL="1213" NAME="?copyHashtable@DateTimePatternGenerator@icu_53@@AEAAXPEAVHashtable@2@AEAW4UErrorCode@@@Z" PURGE="0" COMMENT="" />
    <EXPORT ORDINAL="1214" NAME="?copyObjects@MessageFormat@icu_53@@AEAAXAEBV12@AEAW4UErrorCode@@@Z" PURGE="0" COMMENT="" />
    <EXPORT ORDINAL="1215" NAME="?copyObjects@PluralFormat@icu_53@@AEAAXAEBV12@@Z" PURGE="0" COMMENT="" />
    <EXPORT ORDINAL="1216" NAME="?copyRules@RuleBasedTimeZone@icu_53@@AEAAPEAVUVector@2@PEAV32@@Z" PURGE="0" COMMENT="" />
    <EXPORT ORDINAL="1217" NAME="?count@PluralAvailableLocalesEnumeration@icu_53@@UEBAHAEAW4UErrorCode@@@Z" PURGE="0" COMMENT="" />
    <EXPORT ORDINAL="1218" NAME="?countAvailableIDs@Transliterator@icu_53@@SAHXZ" PURGE="0" COMMENT="" />
    <EXPORT ORDINAL="1219" NAME="?countAvailableSources@Transliterator@icu_53@@SAHXZ" PURGE="0" COMMENT="" />
    <EXPORT ORDINAL="1220" NAME="?countAvailableTargets@Transliterator@icu_53@@SAHAEBVUnicodeString@2@@Z" PURGE="0" COMMENT="" />
    <EXPORT ORDINAL="1221" NAME="?countAvailableVariants@Transliterator@icu_53@@SAHAEBVUnicodeString@2@0@Z" PURGE="0" COMMENT="" />
    <EXPORT ORDINAL="1222" NAME="?countBytes@CollationWeights@icu_53@@AEBAHH@Z" PURGE="0" COMMENT="" />
    <EXPORT ORDINAL="1223" NAME="?countElements@Transliterator@icu_53@@QEBAHXZ" PURGE="0" COMMENT="" />
    <EXPORT ORDINAL="1224" NAME="?countEquivalentIDs@TimeZone@icu_53@@SAHAEBVUnicodeString@2@@Z" PURGE="0" COMMENT="" />
    <EXPORT ORDINAL="1225" NAME="?countMembers@ScriptSet@icu_53@@QEBAHXZ" PURGE="0" COMMENT="" />
    <EXPORT ORDINAL="1226" NAME="?countStartTimes@TimeArrayTimeZoneRule@icu_53@@QEBAHXZ" PURGE="0" COMMENT="" />
    <EXPORT ORDINAL="1227" NAME="?countTailoredNodes@CollationBuilder@icu_53@@CAHPEB_JHH@Z" PURGE="0" COMMENT="" />
    <EXPORT ORDINAL="1228" NAME="?countTransitionRules@OlsonTimeZone@icu_53@@UEBAHAEAW4UErrorCode@@@Z" PURGE="0" COMMENT="" />
    <EXPORT ORDINAL="1229" NAME="?countTransitionRules@RuleBasedTimeZone@icu_53@@UEBAHAEAW4UErrorCode@@@Z" PURGE="0" COMMENT="" />
    <EXPORT ORDINAL="1230" NAME="?countTransitionRules@SimpleTimeZone@icu_53@@UEBAHAEAW4UErrorCode@@@Z" PURGE="0" COMMENT="" />
    <EXPORT ORDINAL="1231" NAME="?countTransitionRules@VTimeZone@icu_53@@UEBAHAEAW4UErrorCode@@@Z" PURGE="0" COMMENT="" />
    <EXPORT ORDINAL="1232" NAME="?create@DateFormat@icu_53@@CAPEAV12@W4EStyle@12@0AEBVLocale@2@@Z" PURGE="0" COMMENT="" />
    <EXPORT ORDINAL="1233" NAME="?create@DateIntervalFormat@icu_53@@CAPEAV12@AEBVLocale@2@PEAVDateIntervalInfo@2@PEBVUnicodeString@2@AEAW4UErrorCode@@@Z" PURGE="0" COMMENT="" />
    <EXPORT ORDINAL="1234" NAME="?create@MeasureUnit@icu_53@@CAPEAV12@HHAEAW4UErrorCode@@@Z" PURGE="0" COMMENT="" />
    <EXPORT ORDINAL="1235" NAME="?create@TimeUnitFormat@icu_53@@AEAAXW4UTimeUnitFormatStyle@@AEAW4UErrorCode@@@Z" PURGE="0" COMMENT="" />
    <EXPORT ORDINAL="1236" NAME="?createAcre@MeasureUnit@icu_53@@SAPEAV12@AEAW4UErrorCode@@@Z" PURGE="0" COMMENT="" />
    <EXPORT ORDINAL="1237" NAME="?createAppropriateFormat@MessageFormat@icu_53@@AEAAPEAVFormat@2@AEAVUnicodeString@2@0AEAW4Type@Formattable@2@AEAUUParseError@@AEAW4UErrorCode@@@Z" PURGE="0" COMMENT="" />
    <EXPORT ORDINAL="1238" NAME="?createArcMinute@MeasureUnit@icu_53@@SAPEAV12@AEAW4UErrorCode@@@Z" PURGE="0" COMMENT="" />
    <EXPORT ORDINAL="1239" NAME="?createArcSecond@MeasureUnit@icu_53@@SAPEAV12@AEAW4UErrorCode@@@Z" PURGE="0" COMMENT="" />
    <EXPORT ORDINAL="1240" NAME="?createBasicInstance@Transliterator@icu_53@@KAPEAV12@AEBVUnicodeString@2@PEBV32@@Z" PURGE="0" COMMENT="" />
    <EXPORT ORDINAL="1241" NAME="?createBucketList@AlphabeticIndex@icu_53@@AEBAPEAVBucketList@2@AEAW4UErrorCode@@@Z" PURGE="0" COMMENT="" />
    <EXPORT ORDINAL="1242" NAME="?createCelsius@MeasureUnit@icu_53@@SAPEAV12@AEAW4UErrorCode@@@Z" PURGE="0" COMMENT="" />
    <EXPORT ORDINAL="1243" NAME="?createCentimeter@MeasureUnit@icu_53@@SAPEAV12@AEAW4UErrorCode@@@Z" PURGE="0" COMMENT="" />
    <EXPORT ORDINAL="1244" NAME="?createCollationElementIterator@RuleBasedCollator@icu_53@@UEBAPEAVCollationElementIterator@2@AEBVCharacterIterator@2@@Z" PURGE="0" COMMENT="" />
    <EXPORT ORDINAL="1245" NAME="?createCollationElementIterator@RuleBasedCollator@icu_53@@UEBAPEAVCollationElementIterator@2@AEBVUnicodeString@2@@Z" PURGE="0" COMMENT="" />
    <EXPORT ORDINAL="1246" NAME="?createCubicKilometer@MeasureUnit@icu_53@@SAPEAV12@AEAW4UErrorCode@@@Z" PURGE="0" COMMENT="" />
    <EXPORT ORDINAL="1247" NAME="?createCubicMile@MeasureUnit@icu_53@@SAPEAV12@AEAW4UErrorCode@@@Z" PURGE="0" COMMENT="" />
    <EXPORT ORDINAL="1248" NAME="?createCurrencyFormat@MeasureFormat@icu_53@@SAPEAV12@AEAW4UErrorCode@@@Z" PURGE="0" COMMENT="" />
    <EXPORT ORDINAL="1249" NAME="?createCurrencyFormat@MeasureFormat@icu_53@@SAPEAV12@AEBVLocale@2@AEAW4UErrorCode@@@Z" PURGE="0" COMMENT="" />
    <EXPORT ORDINAL="1250" NAME="?createCurrencyInstance@NumberFormat@icu_53@@SAPEAV12@AEAW4UErrorCode@@@Z" PURGE="0" COMMENT="" />
    <EXPORT ORDINAL="1251" NAME="?createCurrencyInstance@NumberFormat@icu_53@@SAPEAV12@AEBVLocale@2@AEAW4UErrorCode@@@Z" PURGE="0" COMMENT="" />
    <EXPORT ORDINAL="1252" NAME="?createCustomTimeZone@TimeZone@icu_53@@CAPEAV12@AEBVUnicodeString@2@@Z" PURGE="0" COMMENT="" />
    <EXPORT ORDINAL="1253" NAME="?createCustomTimeZone@ZoneMeta@icu_53@@SAPEAVTimeZone@2@H@Z" PURGE="0" COMMENT="" />
    <EXPORT ORDINAL="1254" NAME="?createDateInstance@DateFormat@icu_53@@SAPEAV12@W4EStyle@12@AEBVLocale@2@@Z" PURGE="0" COMMENT="" />
    <EXPORT ORDINAL="1255" NAME="?createDateTimeInstance@DateFormat@icu_53@@SAPEAV12@W4EStyle@12@0AEBVLocale@2@@Z" PURGE="0" COMMENT="" />
    <EXPORT ORDINAL="1256" NAME="?createDay@MeasureUnit@icu_53@@SAPEAV12@AEAW4UErrorCode@@@Z" PURGE="0" COMMENT="" />
    <EXPORT ORDINAL="1257" NAME="?createDefault@TimeZone@icu_53@@SAPEAV12@XZ" PURGE="0" COMMENT="" />
    <EXPORT ORDINAL="1258" NAME="?createDefaultRules@PluralRules@icu_53@@SAPEAV12@AEAW4UErrorCode@@@Z" PURGE="0" COMMENT="" />
    <EXPORT ORDINAL="1259" NAME="?createDegree@MeasureUnit@icu_53@@SAPEAV12@AEAW4UErrorCode@@@Z" PURGE="0" COMMENT="" />
    <EXPORT ORDINAL="1260" NAME="?createEmptyInstance@DateTimePatternGenerator@icu_53@@SAPEAV12@AEAW4UErrorCode@@@Z" PURGE="0" COMMENT="" />
    <EXPORT ORDINAL="1261" NAME="?createEnumeration@TimeZone@icu_53@@SAPEAVStringEnumeration@2@H@Z" PURGE="0" COMMENT="" />
    <EXPORT ORDINAL="1262" NAME="?createEnumeration@TimeZone@icu_53@@SAPEAVStringEnumeration@2@PEBD@Z" PURGE="0" COMMENT="" />
    <EXPORT ORDINAL="1263" NAME="?createEnumeration@TimeZone@icu_53@@SAPEAVStringEnumeration@2@XZ" PURGE="0" COMMENT="" />
    <EXPORT ORDINAL="1264" NAME="?createFahrenheit@MeasureUnit@icu_53@@SAPEAV12@AEAW4UErrorCode@@@Z" PURGE="0" COMMENT="" />
    <EXPORT ORDINAL="1265" NAME="?createFoot@MeasureUnit@icu_53@@SAPEAV12@AEAW4UErrorCode@@@Z" PURGE="0" COMMENT="" />
    <EXPORT ORDINAL="1266" NAME="?createFromRules@Transliterator@icu_53@@SAPEAV12@AEBVUnicodeString@2@0W4UTransDirection@@AEAUUParseError@@AEAW4UErrorCode@@@Z" PURGE="0" COMMENT="" />
    <EXPORT ORDINAL="1267" NAME="?createGForce@MeasureUnit@icu_53@@SAPEAV12@AEAW4UErrorCode@@@Z" PURGE="0" COMMENT="" />
    <EXPORT ORDINAL="1268" NAME="?createGram@MeasureUnit@icu_53@@SAPEAV12@AEAW4UErrorCode@@@Z" PURGE="0" COMMENT="" />
    <EXPORT ORDINAL="1269" NAME="?createHectare@MeasureUnit@icu_53@@SAPEAV12@AEAW4UErrorCode@@@Z" PURGE="0" COMMENT="" />
    <EXPORT ORDINAL="1270" NAME="?createHectopascal@MeasureUnit@icu_53@@SAPEAV12@AEAW4UErrorCode@@@Z" PURGE="0" COMMENT="" />
    <EXPORT ORDINAL="1271" NAME="?createHorsepower@MeasureUnit@icu_53@@SAPEAV12@AEAW4UErrorCode@@@Z" PURGE="0" COMMENT="" />
    <EXPORT ORDINAL="1272" NAME="?createHour@MeasureUnit@icu_53@@SAPEAV12@AEAW4UErrorCode@@@Z" PURGE="0" COMMENT="" />
    <EXPORT ORDINAL="1273" NAME="?createInch@MeasureUnit@icu_53@@SAPEAV12@AEAW4UErrorCode@@@Z" PURGE="0" COMMENT="" />
    <EXPORT ORDINAL="1274" NAME="?createInchHg@MeasureUnit@icu_53@@SAPEAV12@AEAW4UErrorCode@@@Z" PURGE="0" COMMENT="" />
    <EXPORT ORDINAL="1275" NAME="?createInstance@Calendar@icu_53@@SAPEAV12@AEAW4UErrorCode@@@Z" PURGE="0" COMMENT="" />
    <EXPORT ORDINAL="1276" NAME="?createInstance@Calendar@icu_53@@SAPEAV12@AEBVLocale@2@AEAW4UErrorCode@@@Z" PURGE="0" COMMENT="" />
    <EXPORT ORDINAL="1277" NAME="?createInstance@Calendar@icu_53@@SAPEAV12@AEBVTimeZone@2@AEAW4UErrorCode@@@Z" PURGE="0" COMMENT="" />
    <EXPORT ORDINAL="1278" NAME="?createInstance@Calendar@icu_53@@SAPEAV12@AEBVTimeZone@2@AEBVLocale@2@AEAW4UErrorCode@@@Z" PURGE="0" COMMENT="" />
    <EXPORT ORDINAL="1279" NAME="?createInstance@Calendar@icu_53@@SAPEAV12@PEAVTimeZone@2@AEAW4UErrorCode@@@Z" PURGE="0" COMMENT="" />
    <EXPORT ORDINAL="1280" NAME="?createInstance@Calendar@icu_53@@SAPEAV12@PEAVTimeZone@2@AEBVLocale@2@AEAW4UErrorCode@@@Z" PURGE="0" COMMENT="" />
    <EXPORT ORDINAL="1281" NAME="?createInstance@Collator@icu_53@@SAPEAV12@AEAW4UErrorCode@@@Z" PURGE="0" COMMENT="" />
    <EXPORT ORDINAL="1282" NAME="?createInstance@Collator@icu_53@@SAPEAV12@AEBVLocale@2@AEAW4UErrorCode@@@Z" PURGE="0" COMMENT="" />
    <EXPORT ORDINAL="1283" NAME="?createInstance@CompactDecimalFormat@icu_53@@SAPEAV12@AEBVLocale@2@W4UNumberCompactStyle@@AEAW4UErrorCode@@@Z" PURGE="0" COMMENT="" />
    <EXPORT ORDINAL="1284" NAME="?createInstance@DateFormat@icu_53@@SAPEAV12@XZ" PURGE="0" COMMENT="" />
    <EXPORT ORDINAL="1285" NAME="?createInstance@DateIntervalFormat@icu_53@@SAPEAV12@AEBVUnicodeString@2@AEAW4UErrorCode@@@Z" PURGE="0" COMMENT="" />
    <EXPORT ORDINAL="1286" NAME="?createInstance@DateIntervalFormat@icu_53@@SAPEAV12@AEBVUnicodeString@2@AEBVDateIntervalInfo@2@AEAW4UErrorCode@@@Z" PURGE="0" COMMENT="" />
    <EXPORT ORDINAL="1287" NAME="?createInstance@DateIntervalFormat@icu_53@@SAPEAV12@AEBVUnicodeString@2@AEBVLocale@2@AEAW4UErrorCode@@@Z" PURGE="0" COMMENT="" />
    <EXPORT ORDINAL="1288" NAME="?createInstance@DateIntervalFormat@icu_53@@SAPEAV12@AEBVUnicodeString@2@AEBVLocale@2@AEBVDateIntervalInfo@2@AEAW4UErrorCode@@@Z" PURGE="0" COMMENT="" />
    <EXPORT ORDINAL="1289" NAME="?createInstance@DateTimePatternGenerator@icu_53@@SAPEAV12@AEAW4UErrorCode@@@Z" PURGE="0" COMMENT="" />
    <EXPORT ORDINAL="1290" NAME="?createInstance@DateTimePatternGenerator@icu_53@@SAPEAV12@AEBVLocale@2@AEAW4UErrorCode@@@Z" PURGE="0" COMMENT="" />
    <EXPORT ORDINAL="1291" NAME="?createInstance@LocaleDisplayNames@icu_53@@SAPEAV12@AEBVLocale@2@@Z" PURGE="0" COMMENT="" />
    <EXPORT ORDINAL="1292" NAME="?createInstance@LocaleDisplayNames@icu_53@@SAPEAV12@AEBVLocale@2@PEAW4UDisplayContext@@H@Z" PURGE="0" COMMENT="" />
    <EXPORT ORDINAL="1293" NAME="?createInstance@LocaleDisplayNames@icu_53@@SAPEAV12@AEBVLocale@2@W4UDialectHandling@@@Z" PURGE="0" COMMENT="" />
    <EXPORT ORDINAL="1294" NAME="?createInstance@NumberFormat@icu_53@@SAPEAV12@AEAW4UErrorCode@@@Z" PURGE="0" COMMENT="" />
    <EXPORT ORDINAL="1295" NAME="?createInstance@NumberFormat@icu_53@@SAPEAV12@AEBVLocale@2@AEAW4UErrorCode@@@Z" PURGE="0" COMMENT="" />
    <EXPORT ORDINAL="1296" NAME="?createInstance@NumberFormat@icu_53@@SAPEAV12@AEBVLocale@2@W4UNumberFormatStyle@@AEAW4UErrorCode@@@Z" PURGE="0" COMMENT="" />
    <EXPORT ORDINAL="1297" NAME="?createInstance@NumberingSystem@icu_53@@SAPEAV12@AEAW4UErrorCode@@@Z" PURGE="0" COMMENT="" />
    <EXPORT ORDINAL="1298" NAME="?createInstance@NumberingSystem@icu_53@@SAPEAV12@AEBVLocale@2@AEAW4UErrorCode@@@Z" PURGE="0" COMMENT="" />
    <EXPORT ORDINAL="1299" NAME="?createInstance@NumberingSystem@icu_53@@SAPEAV12@HCAEBVUnicodeString@2@AEAW4UErrorCode@@@Z" PURGE="0" COMMENT="" />
    <EXPORT ORDINAL="1300" NAME="?createInstance@TimeUnit@icu_53@@SAPEAV12@W4UTimeUnitFields@12@AEAW4UErrorCode@@@Z" PURGE="0" COMMENT="" />
    <EXPORT ORDINAL="1301" NAME="?createInstance@TimeZoneFormat@icu_53@@SAPEAV12@AEBVLocale@2@AEAW4UErrorCode@@@Z" PURGE="0" COMMENT="" />
    <EXPORT ORDINAL="1302" NAME="?createInstance@TimeZoneGenericNames@icu_53@@SAPEAV12@AEBVLocale@2@AEAW4UErrorCode@@@Z" PURGE="0" COMMENT="" />
    <EXPORT ORDINAL="1303" NAME="?createInstance@TimeZoneNames@icu_53@@SAPEAV12@AEBVLocale@2@AEAW4UErrorCode@@@Z" PURGE="0" COMMENT="" />
    <EXPORT ORDINAL="1304" NAME="?createInstance@Transliterator@icu_53@@SAPEAV12@AEBVUnicodeString@2@W4UTransDirection@@AEAUUParseError@@AEAW4UErrorCode@@@Z" PURGE="0" COMMENT="" />
    <EXPORT ORDINAL="1305" NAME="?createInstance@Transliterator@icu_53@@SAPEAV12@AEBVUnicodeString@2@W4UTransDirection@@AEAW4UErrorCode@@@Z" PURGE="0" COMMENT="" />
    <EXPORT ORDINAL="1306" NAME="?createInstanceByName@NumberingSystem@icu_53@@SAPEAV12@PEBDAEAW4UErrorCode@@@Z" PURGE="0" COMMENT="" />
    <EXPORT ORDINAL="1307" NAME="?createIntegerFormat@MessageFormat@icu_53@@AEBAPEAVNumberFormat@2@AEBVLocale@2@AEAW4UErrorCode@@@Z" PURGE="0" COMMENT="" />
    <EXPORT ORDINAL="1308" NAME="?createInverse@Transliterator@icu_53@@QEBAPEAV12@AEAW4UErrorCode@@@Z" PURGE="0" COMMENT="" />
    <EXPORT ORDINAL="1309" NAME="?createKilogram@MeasureUnit@icu_53@@SAPEAV12@AEAW4UErrorCode@@@Z" PURGE="0" COMMENT="" />
    <EXPORT ORDINAL="1310" NAME="?createKilometer@MeasureUnit@icu_53@@SAPEAV12@AEAW4UErrorCode@@@Z" PURGE="0" COMMENT="" />
    <EXPORT ORDINAL="1311" NAME="?createKilometerPerHour@MeasureUnit@icu_53@@SAPEAV12@AEAW4UErrorCode@@@Z" PURGE="0" COMMENT="" />
    <EXPORT ORDINAL="1312" NAME="?createKilowatt@MeasureUnit@icu_53@@SAPEAV12@AEAW4UErrorCode@@@Z" PURGE="0" COMMENT="" />
    <EXPORT ORDINAL="1313" NAME="?createLightYear@MeasureUnit@icu_53@@SAPEAV12@AEAW4UErrorCode@@@Z" PURGE="0" COMMENT="" />
    <EXPORT ORDINAL="1314" NAME="?createLiter@MeasureUnit@icu_53@@SAPEAV12@AEAW4UErrorCode@@@Z" PURGE="0" COMMENT="" />
    <EXPORT ORDINAL="1315" NAME="?createMetazoneMappings@ZoneMeta@icu_53@@CAPEAVUVector@2@AEBVUnicodeString@2@@Z" PURGE="0" COMMENT="" />
    <EXPORT ORDINAL="1316" NAME="?createMeter@MeasureUnit@icu_53@@SAPEAV12@AEAW4UErrorCode@@@Z" PURGE="0" COMMENT="" />
    <EXPORT ORDINAL="1317" NAME="?createMeterPerSecond@MeasureUnit@icu_53@@SAPEAV12@AEAW4UErrorCode@@@Z" PURGE="0" COMMENT="" />
    <EXPORT ORDINAL="1318" NAME="?createMile@MeasureUnit@icu_53@@SAPEAV12@AEAW4UErrorCode@@@Z" PURGE="0" COMMENT="" />
    <EXPORT ORDINAL="1319" NAME="?createMilePerHour@MeasureUnit@icu_53@@SAPEAV12@AEAW4UErrorCode@@@Z" PURGE="0" COMMENT="" />
    <EXPORT ORDINAL="1320" NAME="?createMillibar@MeasureUnit@icu_53@@SAPEAV12@AEAW4UErrorCode@@@Z" PURGE="0" COMMENT="" />
    <EXPORT ORDINAL="1321" NAME="?createMillimeter@MeasureUnit@icu_53@@SAPEAV12@AEAW4UErrorCode@@@Z" PURGE="0" COMMENT="" />
    <EXPORT ORDINAL="1322" NAME="?createMillisecond@MeasureUnit@icu_53@@SAPEAV12@AEAW4UErrorCode@@@Z" PURGE="0" COMMENT="" />
    <EXPORT ORDINAL="1323" NAME="?createMinute@MeasureUnit@icu_53@@SAPEAV12@AEAW4UErrorCode@@@Z" PURGE="0" COMMENT="" />
    <EXPORT ORDINAL="1324" NAME="?createMonth@MeasureUnit@icu_53@@SAPEAV12@AEAW4UErrorCode@@@Z" PURGE="0" COMMENT="" />
    <EXPORT ORDINAL="1325" NAME="?createOunce@MeasureUnit@icu_53@@SAPEAV12@AEAW4UErrorCode@@@Z" PURGE="0" COMMENT="" />
    <EXPORT ORDINAL="1326" NAME="?createPercentInstance@NumberFormat@icu_53@@SAPEAV12@AEAW4UErrorCode@@@Z" PURGE="0" COMMENT="" />
    <EXPORT ORDINAL="1327" NAME="?createPercentInstance@NumberFormat@icu_53@@SAPEAV12@AEBVLocale@2@AEAW4UErrorCode@@@Z" PURGE="0" COMMENT="" />
    <EXPORT ORDINAL="1328" NAME="?createPicometer@MeasureUnit@icu_53@@SAPEAV12@AEAW4UErrorCode@@@Z" PURGE="0" COMMENT="" />
    <EXPORT ORDINAL="1329" NAME="?createPound@MeasureUnit@icu_53@@SAPEAV12@AEAW4UErrorCode@@@Z" PURGE="0" COMMENT="" />
    <EXPORT ORDINAL="1330" NAME="?createRules@PluralRules@icu_53@@SAPEAV12@AEBVUnicodeString@2@AEAW4UErrorCode@@@Z" PURGE="0" COMMENT="" />
    <EXPORT ORDINAL="1331" NAME="?createSDFPatternInstance@DateIntervalFormat@icu_53@@CAPEAVSimpleDateFormat@2@AEBVUnicodeString@2@AEBVLocale@2@PEAVDateTimePatternGenerator@2@AEAW4UErrorCode@@@Z" PURGE="0" COMMENT="" />
    <EXPORT ORDINAL="1332" NAME="?createScientificInstance@NumberFormat@icu_53@@SAPEAV12@AEAW4UErrorCode@@@Z" PURGE="0" COMMENT="" />
    <EXPORT ORDINAL="1333" NAME="?createScientificInstance@NumberFormat@icu_53@@SAPEAV12@AEBVLocale@2@AEAW4UErrorCode@@@Z" PURGE="0" COMMENT="" />
    <EXPORT ORDINAL="1334" NAME="?createSecond@MeasureUnit@icu_53@@SAPEAV12@AEAW4UErrorCode@@@Z" PURGE="0" COMMENT="" />
    <EXPORT ORDINAL="1335" NAME="?createSharedInstance@NumberFormat@icu_53@@SAPEBVSharedNumberFormat@2@AEBVLocale@2@W4UNumberFormatStyle@@AEAW4UErrorCode@@@Z" PURGE="0" COMMENT="" />
    <EXPORT ORDINAL="1336" NAME="?createSharedInstance@PluralRules@icu_53@@SAPEBVSharedPluralRules@2@AEBVLocale@2@W4UPluralType@@AEAW4UErrorCode@@@Z" PURGE="0" COMMENT="" />
    <EXPORT ORDINAL="1337" NAME="?createSquareFoot@MeasureUnit@icu_53@@SAPEAV12@AEAW4UErrorCode@@@Z" PURGE="0" COMMENT="" />
    <EXPORT ORDINAL="1338" NAME="?createSquareKilometer@MeasureUnit@icu_53@@SAPEAV12@AEAW4UErrorCode@@@Z" PURGE="0" COMMENT="" />
    <EXPORT ORDINAL="1339" NAME="?createSquareMeter@MeasureUnit@icu_53@@SAPEAV12@AEAW4UErrorCode@@@Z" PURGE="0" COMMENT="" />
    <EXPORT ORDINAL="1340" NAME="?createSquareMile@MeasureUnit@icu_53@@SAPEAV12@AEAW4UErrorCode@@@Z" PURGE="0" COMMENT="" />
    <EXPORT ORDINAL="1341" NAME="?createTimeInstance@DateFormat@icu_53@@SAPEAV12@W4EStyle@12@AEBVLocale@2@@Z" PURGE="0" COMMENT="" />
    <EXPORT ORDINAL="1342" NAME="?createTimeZone@TimeZone@icu_53@@SAPEAV12@AEBVUnicodeString@2@@Z" PURGE="0" COMMENT="" />
    <EXPORT ORDINAL="1343" NAME="?createTimeZoneForOffset@TimeZoneFormat@icu_53@@AEBAPEAVTimeZone@2@H@Z" PURGE="0" COMMENT="" />
    <EXPORT ORDINAL="1344" NAME="?createTimeZoneIDEnumeration@TimeZone@icu_53@@SAPEAVStringEnumeration@2@W4USystemTimeZoneType@@PEBDPEBHAEAW4UErrorCode@@@Z" PURGE="0" COMMENT="" />
    <EXPORT ORDINAL="1345" NAME="?createVTimeZone@VTimeZone@icu_53@@SAPEAV12@AEBVUnicodeString@2@AEAW4UErrorCode@@@Z" PURGE="0" COMMENT="" />
    <EXPORT ORDINAL="1346" NAME="?createVTimeZoneByID@VTimeZone@icu_53@@SAPEAV12@AEBVUnicodeString@2@@Z" PURGE="0" COMMENT="" />
    <EXPORT ORDINAL="1347" NAME="?createVTimeZoneFromBasicTimeZone@VTimeZone@icu_53@@SAPEAV12@AEBVBasicTimeZone@2@AEAW4UErrorCode@@@Z" PURGE="0" COMMENT="" />
    <EXPORT ORDINAL="1348" NAME="?createWatt@MeasureUnit@icu_53@@SAPEAV12@AEAW4UErrorCode@@@Z" PURGE="0" COMMENT="" />
    <EXPORT ORDINAL="1349" NAME="?createWeek@MeasureUnit@icu_53@@SAPEAV12@AEAW4UErrorCode@@@Z" PURGE="0" COMMENT="" />
    <EXPORT ORDINAL="1350" NAME="?createWithLastResortData@DecimalFormatSymbols@icu_53@@SAPEAV12@AEAW4UErrorCode@@@Z" PURGE="0" COMMENT="" />
    <EXPORT ORDINAL="1351" NAME="?createYard@MeasureUnit@icu_53@@SAPEAV12@AEAW4UErrorCode@@@Z" PURGE="0" COMMENT="" />
    <EXPORT ORDINAL="1352" NAME="?createYear@MeasureUnit@icu_53@@SAPEAV12@AEAW4UErrorCode@@@Z" PURGE="0" COMMENT="" />
    <EXPORT ORDINAL="1353" NAME="?createZoneStrings@DateFormatSymbols@icu_53@@AEAAXPEBQEBVUnicodeString@2@@Z" PURGE="0" COMMENT="" />
    <EXPORT ORDINAL="1354" NAME="?daysToMillis@ChineseCalendar@icu_53@@AEBANN@Z" PURGE="0" COMMENT="" />
    <EXPORT ORDINAL="1355" NAME="?decThreeBytePrimaryByOneStep@Collation@icu_53@@SAIICH@Z" PURGE="0" COMMENT="" />
    <EXPORT ORDINAL="1356" NAME="?decTwoBytePrimaryByOneStep@Collation@icu_53@@SAIICH@Z" PURGE="0" COMMENT="" />
    <EXPORT ORDINAL="1357" NAME="?decimals@FixedDecimal@icu_53@@SAHN@Z" PURGE="0" COMMENT="" />
    <EXPORT ORDINAL="1358" NAME="?decodeEndRule@SimpleTimeZone@icu_53@@AEAAXAEAW4UErrorCode@@@Z" PURGE="0" COMMENT="" />
    <EXPORT ORDINAL="1359" NAME="?decodeRules@SimpleTimeZone@icu_53@@AEAAXAEAW4UErrorCode@@@Z" PURGE="0" COMMENT="" />
    <EXPORT ORDINAL="1360" NAME="?decodeStartRule@SimpleTimeZone@icu_53@@AEAAXAEAW4UErrorCode@@@Z" PURGE="0" COMMENT="" />
    <EXPORT ORDINAL="1361" NAME="?defaultCenturyStart@ChineseCalendar@icu_53@@MEBANXZ" PURGE="0" COMMENT="" />
    <EXPORT ORDINAL="1362" NAME="?defaultCenturyStart@GregorianCalendar@icu_53@@UEBANXZ" PURGE="0" COMMENT="" />
    <EXPORT ORDINAL="1363" NAME="?defaultCenturyStart@HebrewCalendar@icu_53@@MEBANXZ" PURGE="0" COMMENT="" />
    <EXPORT ORDINAL="1364" NAME="?defaultCenturyStart@IslamicCalendar@icu_53@@MEBANXZ" PURGE="0" COMMENT="" />
    <EXPORT ORDINAL="1365" NAME="?defaultCenturyStartYear@ChineseCalendar@icu_53@@MEBAHXZ" PURGE="0" COMMENT="" />
    <EXPORT ORDINAL="1366" NAME="?defaultCenturyStartYear@GregorianCalendar@icu_53@@UEBAHXZ" PURGE="0" COMMENT="" />
    <EXPORT ORDINAL="1367" NAME="?defaultCenturyStartYear@HebrewCalendar@icu_53@@MEBAHXZ" PURGE="0" COMMENT="" />
    <EXPORT ORDINAL="1368" NAME="?defaultCenturyStartYear@IslamicCalendar@icu_53@@MEBAHXZ" PURGE="0" COMMENT="" />
    <EXPORT ORDINAL="1369" NAME="?deleteHash@CurrencyPluralInfo@icu_53@@AEAAXPEAVHashtable@2@@Z" PURGE="0" COMMENT="" />
    <EXPORT ORDINAL="1370" NAME="?deleteHash@DateIntervalInfo@icu_53@@AEAAXPEAVHashtable@2@@Z" PURGE="0" COMMENT="" />
    <EXPORT ORDINAL="1371" NAME="?deleteHash@TimeUnitFormat@icu_53@@AEAAXPEAVHashtable@2@@Z" PURGE="0" COMMENT="" />
    <EXPORT ORDINAL="1372" NAME="?deleteHashForAffix@DecimalFormat@icu_53@@AEAAXAEAPEAVHashtable@2@@Z" PURGE="0" COMMENT="" />
    <EXPORT ORDINAL="1373" NAME="?deleteHashForAffixPattern@DecimalFormat@icu_53@@AEAAXXZ" PURGE="0" COMMENT="" />
    <EXPORT ORDINAL="1374" NAME="?deleteRules@RuleBasedTimeZone@icu_53@@AEAAXXZ" PURGE="0" COMMENT="" />
    <EXPORT ORDINAL="1375" NAME="?deleteTransitionRules@OlsonTimeZone@icu_53@@AEAAXXZ" PURGE="0" COMMENT="" />
    <EXPORT ORDINAL="1376" NAME="?deleteTransitionRules@SimpleTimeZone@icu_53@@AEAAXXZ" PURGE="0" COMMENT="" />
    <EXPORT ORDINAL="1377" NAME="?deleteTransitions@RuleBasedTimeZone@icu_53@@AEAAXXZ" PURGE="0" COMMENT="" />
    <EXPORT ORDINAL="1378" NAME="?dereferOlsonLink@TimeZone@icu_53@@CAPEB_WAEBVUnicodeString@2@@Z" PURGE="0" COMMENT="" />
    <EXPORT ORDINAL="1379" NAME="?diffThreeBytePrimaries@CollationBaseDataBuilder@icu_53@@SAHIIC@Z" PURGE="0" COMMENT="" />
    <EXPORT ORDINAL="1380" NAME="?diffTwoBytePrimaries@CollationBaseDataBuilder@icu_53@@SAHIIC@Z" PURGE="0" COMMENT="" />
    <EXPORT ORDINAL="1381" NAME="?digitFromCE32@Collation@icu_53@@SADI@Z" PURGE="0" COMMENT="" />
    <EXPORT ORDINAL="1382" NAME="?digits@DigitList@icu_53@@QEBAHXZ" PURGE="0" COMMENT="" />
    <EXPORT ORDINAL="1383" NAME="?disableFastLatin@CollationBuilder@icu_53@@QEAAXXZ" PURGE="0" COMMENT="" />
    <EXPORT ORDINAL="1384" NAME="?displayAlternates@IdentifierInfo@icu_53@@SAAEAVUnicodeString@2@AEAV32@PEBUUHashtable@@AEAW4UErrorCode@@@Z" PURGE="0" COMMENT="" />
    <EXPORT ORDINAL="1385" NAME="?displayScripts@ScriptSet@icu_53@@QEBAAEAVUnicodeString@2@AEAV32@@Z" PURGE="0" COMMENT="" />
    <EXPORT ORDINAL="1386" NAME="?dispose@DateFormatSymbols@icu_53@@AEAAXXZ" PURGE="0" COMMENT="" />
    <EXPORT ORDINAL="1387" NAME="?dispose@Formattable@icu_53@@AEAAXXZ" PURGE="0" COMMENT="" />
    <EXPORT ORDINAL="1388" NAME="?dispose@RuleBasedNumberFormat@icu_53@@AEAAXXZ" PURGE="0" COMMENT="" />
    <EXPORT ORDINAL="1389" NAME="?disposeZoneStrings@DateFormatSymbols@icu_53@@AEAAXXZ" PURGE="0" COMMENT="" />
    <EXPORT ORDINAL="1390" NAME="?div@DigitList@icu_53@@QEAAXAEBV12@AEAW4UErrorCode@@@Z" PURGE="0" COMMENT="" />
    <EXPORT ORDINAL="1391" NAME="?doCompare@RuleBasedCollator@icu_53@@AEBA?AW4UCollationResult@@PEBEH0HAEAW4UErrorCode@@@Z" PURGE="0" COMMENT="" />
    <EXPORT ORDINAL="1392" NAME="?doCompare@RuleBasedCollator@icu_53@@AEBA?AW4UCollationResult@@PEB_WH0HAEAW4UErrorCode@@@Z" PURGE="0" COMMENT="" />
    <EXPORT ORDINAL="1393" NAME="?dontCheckFCD@CollationSettings@icu_53@@QEBACXZ" PURGE="0" COMMENT="" />
    <EXPORT ORDINAL="1394" NAME="?dstOffsetAt@OlsonTimeZone@icu_53@@AEBAHF@Z" PURGE="0" COMMENT="" />
    <EXPORT ORDINAL="1395" NAME="?dtos@ChoiceFormat@icu_53@@CAAEAVUnicodeString@2@NAEAV32@@Z" PURGE="0" COMMENT="" />
    <EXPORT ORDINAL="1396" NAME="?dumpOp@RegexPattern@icu_53@@AEBAXH@Z" PURGE="0" COMMENT="" />
    <EXPORT ORDINAL="1397" NAME="?dumpPattern@RegexPattern@icu_53@@QEBAXXZ" PURGE="0" COMMENT="" />
    <EXPORT ORDINAL="1398" NAME="?eclipticObliquity@CalendarAstronomer@icu_53@@AEAANXZ" PURGE="0" COMMENT="" />
    <EXPORT ORDINAL="1399" NAME="?eclipticToEquatorial@CalendarAstronomer@icu_53@@QEAAAEAVEquatorial@12@AEAV312@AEBVEcliptic@12@@Z" PURGE="0" COMMENT="" />
    <EXPORT ORDINAL="1400" NAME="?eclipticToEquatorial@CalendarAstronomer@icu_53@@QEAAAEAVEquatorial@12@AEAV312@N@Z" PURGE="0" COMMENT="" />
    <EXPORT ORDINAL="1401" NAME="?eclipticToEquatorial@CalendarAstronomer@icu_53@@QEAAAEAVEquatorial@12@AEAV312@NN@Z" PURGE="0" COMMENT="" />
    <EXPORT ORDINAL="1402" NAME="?eclipticToHorizon@CalendarAstronomer@icu_53@@QEAAAEAVHorizon@12@AEAV312@N@Z" PURGE="0" COMMENT="" />
    <EXPORT ORDINAL="1403" NAME="?enableFastLatin@CollationDataBuilder@icu_53@@QEAAXXZ" PURGE="0" COMMENT="" />
    <EXPORT ORDINAL="1404" NAME="?encodeCEs@CollationBaseDataBuilder@icu_53@@UEAAIQEB_JHAEAW4UErrorCode@@@Z" PURGE="0" COMMENT="" />
    <EXPORT ORDINAL="1405" NAME="?encodeCEs@CollationDataBuilder@icu_53@@UEAAIQEB_JHAEAW4UErrorCode@@@Z" PURGE="0" COMMENT="" />
    <EXPORT ORDINAL="1406" NAME="?encodeCharCEs@CollationFastLatinBuilder@icu_53@@AEAACAEAW4UErrorCode@@@Z" PURGE="0" COMMENT="" />
    <EXPORT ORDINAL="1407" NAME="?encodeContractions@CollationFastLatinBuilder@icu_53@@AEAACAEAW4UErrorCode@@@Z" PURGE="0" COMMENT="" />
    <EXPORT ORDINAL="1408" NAME="?encodeExpansion32@CollationDataBuilder@icu_53@@IEAAIQEBHHAEAW4UErrorCode@@@Z" PURGE="0" COMMENT="" />
    <EXPORT ORDINAL="1409" NAME="?encodeExpansion@CollationDataBuilder@icu_53@@IEAAIQEB_JHAEAW4UErrorCode@@@Z" PURGE="0" COMMENT="" />
    <EXPORT ORDINAL="1410" NAME="?encodeOneCE@CollationDataBuilder@icu_53@@IEAAI_JAEAW4UErrorCode@@@Z" PURGE="0" COMMENT="" />
    <EXPORT ORDINAL="1411" NAME="?encodeOneCEAsCE32@CollationDataBuilder@icu_53@@KAI_J@Z" PURGE="0" COMMENT="" />
    <EXPORT ORDINAL="1412" NAME="?encodeTwoCEs@CollationFastLatinBuilder@icu_53@@AEBAI_J0@Z" PURGE="0" COMMENT="" />
    <EXPORT ORDINAL="1413" NAME="?encodeUniqueCEs@CollationFastLatinBuilder@icu_53@@AEAACAEAW4UErrorCode@@@Z" PURGE="0" COMMENT="" />
    <EXPORT ORDINAL="1414" NAME="?end64@RegexMatcher@icu_53@@UEBA_JAEAW4UErrorCode@@@Z" PURGE="0" COMMENT="" />
    <EXPORT ORDINAL="1415" NAME="?end64@RegexMatcher@icu_53@@UEBA_JHAEAW4UErrorCode@@@Z" PURGE="0" COMMENT="" />
    <EXPORT ORDINAL="1416" NAME="?end@RegexMatcher@icu_53@@UEBAHAEAW4UErrorCode@@@Z" PURGE="0" COMMENT="" />
    <EXPORT ORDINAL="1417" NAME="?end@RegexMatcher@icu_53@@UEBAHHAEAW4UErrorCode@@@Z" PURGE="0" COMMENT="" />
    <EXPORT ORDINAL="1418" NAME="?endZoneProps@VTimeZone@icu_53@@AEBAXAEAVVTZWriter@2@CAEAW4UErrorCode@@@Z" PURGE="0" COMMENT="" />
    <EXPORT ORDINAL="1419" NAME="?ensureCapacity@DigitList@icu_53@@QEAAXHAEAW4UErrorCode@@@Z" PURGE="0" COMMENT="" />
    <EXPORT ORDINAL="1420" NAME="?ensureOwnedData@CollationTailoring@icu_53@@QEAACAEAW4UErrorCode@@@Z" PURGE="0" COMMENT="" />
    <EXPORT ORDINAL="1421" NAME="?eqHelper@CompactDecimalFormat@icu_53@@AEBACAEBV12@@Z" PURGE="0" COMMENT="" />
    <EXPORT ORDINAL="1422" NAME="?equalFormats@MessageFormat@icu_53@@SACPEBX0@Z" PURGE="0" COMMENT="" />
    <EXPORT ORDINAL="1423" NAME="?equalWithSignCompatibility@DecimalFormat@icu_53@@AEBACHH@Z" PURGE="0" COMMENT="" />
    <EXPORT ORDINAL="1424" NAME="?equals@Calendar@icu_53@@QEBACAEBV12@AEAW4UErrorCode@@@Z" PURGE="0" COMMENT="" />
    <EXPORT ORDINAL="1425" NAME="?equals@Collator@icu_53@@QEBACAEBVUnicodeString@2@0@Z" PURGE="0" COMMENT="" />
    <EXPORT ORDINAL="1426" NAME="?expandAffix@DecimalFormat@icu_53@@AEBAXAEBVUnicodeString@2@AEAV32@NAEAVFieldPositionHandler@2@CPEBV32@@Z" PURGE="0" COMMENT="" />
    <EXPORT ORDINAL="1427" NAME="?expandAffixAdjustWidth@DecimalFormat@icu_53@@AEAAXPEBVUnicodeString@2@@Z" PURGE="0" COMMENT="" />
    <EXPORT ORDINAL="1428" NAME="?expandAffixes@DecimalFormat@icu_53@@AEAAXPEBVUnicodeString@2@@Z" PURGE="0" COMMENT="" />
    <EXPORT ORDINAL="1429" NAME="?expandOffsetPattern@TimeZoneFormat@icu_53@@CAAEAVUnicodeString@2@AEBV32@AEAV32@AEAW4UErrorCode@@@Z" PURGE="0" COMMENT="" />
    <EXPORT ORDINAL="1430" NAME="?fallbackFormat@DateIntervalFormat@icu_53@@AEBAAEAVUnicodeString@2@AEAVCalendar@2@0AEAV32@AEAVFieldPosition@2@AEAW4UErrorCode@@@Z" PURGE="0" COMMENT="" />
    <EXPORT ORDINAL="1431" NAME="?fetchCEs@CollationIterator@icu_53@@QEAAHAEAW4UErrorCode@@@Z" PURGE="0" COMMENT="" />
    <EXPORT ORDINAL="1432" NAME="?fgCalendarFieldToLevel@SimpleDateFormat@icu_53@@0QBHB" PURGE="-1" COMMENT="" />
    <EXPORT ORDINAL="1433" NAME="?fgCalendarFieldToPatternLetter@DateIntervalFormat@icu_53@@0QB_WB" PURGE="-1" COMMENT="" />
    <EXPORT ORDINAL="1434" NAME="?fgNumberPatterns@DecimalFormat@icu_53@@2QBDB" PURGE="-1" COMMENT="" />
    <EXPORT ORDINAL="1435" NAME="?fgPatternCharToLevel@SimpleDateFormat@icu_53@@0QBHB" PURGE="-1" COMMENT="" />
    <EXPORT ORDINAL="1436" NAME="?fgPatternIndexToCalendarField@SimpleDateFormat@icu_53@@0QBW4UCalendarDateFields@@B" PURGE="-1" COMMENT="" />
    <EXPORT ORDINAL="1437" NAME="?fgPatternIndexToDateFormatField@SimpleDateFormat@icu_53@@0QBW4UDateFormatField@@B" PURGE="-1" COMMENT="" />
    <EXPORT ORDINAL="1438" NAME="?fieldDifference@Calendar@icu_53@@UEAAHNW4EDateFields@12@AEAW4UErrorCode@@@Z" PURGE="0" COMMENT="" />
    <EXPORT ORDINAL="1439" NAME="?fieldDifference@Calendar@icu_53@@UEAAHNW4UCalendarDateFields@@AEAW4UErrorCode@@@Z" PURGE="0" COMMENT="" />
    <EXPORT ORDINAL="1440" NAME="?fieldExistsInSkeleton@DateIntervalFormat@icu_53@@CACW4UCalendarDateFields@@AEBVUnicodeString@2@@Z" PURGE="0" COMMENT="" />
    <EXPORT ORDINAL="1441" NAME="?filteredTransliterate@Transliterator@icu_53@@EEBAXAEAVReplaceable@2@AEAUUTransPosition@@CC@Z" PURGE="0" COMMENT="" />
    <EXPORT ORDINAL="1442" NAME="?filteredTransliterate@Transliterator@icu_53@@UEBAXAEAVReplaceable@2@AEAUUTransPosition@@C@Z" PURGE="0" COMMENT="" />
    <EXPORT ORDINAL="1443" NAME="?finalizeCEs@CollationBuilder@icu_53@@AEAAXAEAW4UErrorCode@@@Z" PURGE="0" COMMENT="" />
    <EXPORT ORDINAL="1444" NAME="?find@RegexMatcher@icu_53@@UEAACXZ" PURGE="0" COMMENT="" />
    <EXPORT ORDINAL="1445" NAME="?find@RegexMatcher@icu_53@@UEAAC_JAEAW4UErrorCode@@@Z" PURGE="0" COMMENT="" />
    <EXPORT ORDINAL="1446" NAME="?findBestMatch@TimeZoneGenericNames@icu_53@@QEBAHAEBVUnicodeString@2@HIAEAV32@AEAW4UTimeZoneFormatTimeType@@AEAW4UErrorCode@@@Z" PURGE="0" COMMENT="" />
    <EXPORT ORDINAL="1447" NAME="?findCommonNode@CollationBuilder@icu_53@@AEBAHHH@Z" PURGE="0" COMMENT="" />
    <EXPORT ORDINAL="1448" NAME="?findFirstPluralNumberArg@MessageFormat@icu_53@@AEBAHHAEBVUnicodeString@2@@Z" PURGE="0" COMMENT="" />
    <EXPORT ORDINAL="1449" NAME="?findID@TimeZone@icu_53@@CAPEB_WAEBVUnicodeString@2@@Z" PURGE="0" COMMENT="" />
    <EXPORT ORDINAL="1450" NAME="?findKeyword@MessageFormat@icu_53@@CAHAEBVUnicodeString@2@PEBQEB_W@Z" PURGE="0" COMMENT="" />
    <EXPORT ORDINAL="1451" NAME="?findMetaZoneID@ZoneMeta@icu_53@@SAPEB_WAEBVUnicodeString@2@@Z" PURGE="0" COMMENT="" />
    <EXPORT ORDINAL="1452" NAME="?findNext@RuleBasedTimeZone@icu_53@@AEBACNCAEANAEAPEAVTimeZoneRule@2@1@Z" PURGE="0" COMMENT="" />
    <EXPORT ORDINAL="1453" NAME="?findOrInsertNodeForCEs@CollationBuilder@icu_53@@AEAAHHAEAPEBDAEAW4UErrorCode@@@Z" PURGE="0" COMMENT="" />
    <EXPORT ORDINAL="1454" NAME="?findOrInsertNodeForPrimary@CollationBuilder@icu_53@@AEAAHIAEAW4UErrorCode@@@Z" PURGE="0" COMMENT="" />
    <EXPORT ORDINAL="1455" NAME="?findOrInsertNodeForRootCE@CollationBuilder@icu_53@@AEAAH_JHAEAW4UErrorCode@@@Z" PURGE="0" COMMENT="" />
    <EXPORT ORDINAL="1456" NAME="?findOrInsertWeakNode@CollationBuilder@icu_53@@AEAAHHIHAEAW4UErrorCode@@@Z" PURGE="0" COMMENT="" />
    <EXPORT ORDINAL="1457" NAME="?findOtherSubMessage@MessageFormat@icu_53@@AEBAHH@Z" PURGE="0" COMMENT="" />
    <EXPORT ORDINAL="1458" NAME="?findP@CollationRootElements@icu_53@@AEBAHI@Z" PURGE="0" COMMENT="" />
    <EXPORT ORDINAL="1459" NAME="?findPrev@RuleBasedTimeZone@icu_53@@AEBACNCAEANAEAPEAVTimeZoneRule@2@1@Z" PURGE="0" COMMENT="" />
    <EXPORT ORDINAL="1460" NAME="?findPrimary@CollationRootElements@icu_53@@QEBAHI@Z" PURGE="0" COMMENT="" />
    <EXPORT ORDINAL="1461" NAME="?findRuleInFinal@RuleBasedTimeZone@icu_53@@AEBAPEAVTimeZoneRule@2@NCHH@Z" PURGE="0" COMMENT="" />
    <EXPORT ORDINAL="1462" NAME="?findRuleSet@RuleBasedNumberFormat@icu_53@@AEBAPEAVNFRuleSet@2@AEBVUnicodeString@2@AEAW4UErrorCode@@@Z" PURGE="0" COMMENT="" />
    <EXPORT ORDINAL="1463" NAME="?findScript@CollationData@icu_53@@AEBAHH@Z" PURGE="0" COMMENT="" />
    <EXPORT ORDINAL="1464" NAME="?findSubMessage@ChoiceFormat@icu_53@@CAHAEBVMessagePattern@2@HN@Z" PURGE="0" COMMENT="" />
    <EXPORT ORDINAL="1465" NAME="?findSubMessage@PluralFormat@icu_53@@CAHAEBVMessagePattern@2@HAEBVPluralSelector@12@PEAXNAEAW4UErrorCode@@@Z" PURGE="0" COMMENT="" />
    <EXPORT ORDINAL="1466" NAME="?findSubMessage@SelectFormat@icu_53@@CAHAEBVMessagePattern@2@HAEBVUnicodeString@2@AEAW4UErrorCode@@@Z" PURGE="0" COMMENT="" />
    <EXPORT ORDINAL="1467" NAME="?findTimeZoneID@ZoneMeta@icu_53@@SAPEB_WAEBVUnicodeString@2@@Z" PURGE="0" COMMENT="" />
    <EXPORT ORDINAL="1468" NAME="?findUsingChunk@RegexMatcher@icu_53@@AEAACXZ" PURGE="0" COMMENT="" />
    <EXPORT ORDINAL="1469" NAME="?finishTransliteration@Transliterator@icu_53@@UEBAXAEAVReplaceable@2@AEAUUTransPosition@@@Z" PURGE="0" COMMENT="" />
    <EXPORT ORDINAL="1470" NAME="?first@SearchIterator@icu_53@@QEAAHAEAW4UErrorCode@@@Z" PURGE="0" COMMENT="" />
    <EXPORT ORDINAL="1471" NAME="?firstCEWithPrimaryAtLeast@CollationRootElements@icu_53@@QEBA_JI@Z" PURGE="0" COMMENT="" />
    <EXPORT ORDINAL="1472" NAME="?firstStringsInScript@AlphabeticIndex@icu_53@@AEAAPEAVUVector@2@AEAW4UErrorCode@@@Z" PURGE="0" COMMENT="" />
    <EXPORT ORDINAL="1473" NAME="?fitsIntoInt64@DigitList@icu_53@@QEAACC@Z" PURGE="0" COMMENT="" />
    <EXPORT ORDINAL="1474" NAME="?fitsIntoLong@DigitList@icu_53@@QEAACC@Z" PURGE="0" COMMENT="" />
    <EXPORT ORDINAL="1475" NAME="?flag@?$EnumSet@W4UDateFormatBooleanAttribute@@$0A@$03@icu_53@@AEBAIW4UDateFormatBooleanAttribute@@@Z" PURGE="0" COMMENT="" />
    <EXPORT ORDINAL="1476" NAME="?flag@?$EnumSet@W4UNumberFormatAttribute@@$0BAAA@$0BAAC@@icu_53@@AEBAIW4UNumberFormatAttribute@@@Z" PURGE="0" COMMENT="" />
    <EXPORT ORDINAL="1477" NAME="?flags@RegexPattern@icu_53@@UEBAIXZ" PURGE="0" COMMENT="" />
    <EXPORT ORDINAL="1478" NAME="?following@SearchIterator@icu_53@@QEAAHHAEAW4UErrorCode@@@Z" PURGE="0" COMMENT="" />
    <EXPORT ORDINAL="1479" NAME="?forData@CollationFastLatinBuilder@icu_53@@QEAACAEBUCollationData@2@AEAW4UErrorCode@@@Z" PURGE="0" COMMENT="" />
    <EXPORT ORDINAL="1480" NAME="?forLocale@PluralRules@icu_53@@SAPEAV12@AEBVLocale@2@AEAW4UErrorCode@@@Z" PURGE="0" COMMENT="" />
    <EXPORT ORDINAL="1481" NAME="?forLocale@PluralRules@icu_53@@SAPEAV12@AEBVLocale@2@W4UPluralType@@AEAW4UErrorCode@@@Z" PURGE="0" COMMENT="" />
    <EXPORT ORDINAL="1482" NAME="?forbidSurrogateCodePoints@CollationIterator@icu_53@@MEBACXZ" PURGE="0" COMMENT="" />
    <EXPORT ORDINAL="1483" NAME="?forbidSurrogateCodePoints@UTF8CollationIterator@icu_53@@MEBACXZ" PURGE="0" COMMENT="" />
    <EXPORT ORDINAL="1484" NAME="?format@ChoiceFormat@icu_53@@UEBAAEAVUnicodeString@2@HAEAV32@AEAVFieldPosition@2@@Z" PURGE="0" COMMENT="" />
    <EXPORT ORDINAL="1485" NAME="?format@ChoiceFormat@icu_53@@UEBAAEAVUnicodeString@2@NAEAV32@AEAVFieldPosition@2@@Z" PURGE="0" COMMENT="" />
    <EXPORT ORDINAL="1486" NAME="?format@ChoiceFormat@icu_53@@UEBAAEAVUnicodeString@2@PEBVFormattable@2@HAEAV32@AEAVFieldPosition@2@AEAW4UErrorCode@@@Z" PURGE="0" COMMENT="" />
    <EXPORT ORDINAL="1487" NAME="?format@ChoiceFormat@icu_53@@UEBAAEAVUnicodeString@2@_JAEAV32@AEAVFieldPosition@2@@Z" PURGE="0" COMMENT="" />
    <EXPORT ORDINAL="1488" NAME="?format@CompactDecimalFormat@icu_53@@UEBAAEAVUnicodeString@2@AEBVDigitList@2@AEAV32@AEAVFieldPosition@2@AEAW4UErrorCode@@@Z" PURGE="0" COMMENT="" />
    <EXPORT ORDINAL="1489" NAME="?format@CompactDecimalFormat@icu_53@@UEBAAEAVUnicodeString@2@AEBVDigitList@2@AEAV32@PEAVFieldPositionIterator@2@AEAW4UErrorCode@@@Z" PURGE="0" COMMENT="" />
    <EXPORT ORDINAL="1490" NAME="?format@CompactDecimalFormat@icu_53@@UEBAAEAVUnicodeString@2@AEBVStringPiece@2@AEAV32@PEAVFieldPositionIterator@2@AEAW4UErrorCode@@@Z" PURGE="0" COMMENT="" />
    <EXPORT ORDINAL="1491" NAME="?format@CompactDecimalFormat@icu_53@@UEBAAEAVUnicodeString@2@NAEAV32@AEAVFieldPosition@2@@Z" PURGE="0" COMMENT="" />
    <EXPORT ORDINAL="1492" NAME="?format@CompactDecimalFormat@icu_53@@UEBAAEAVUnicodeString@2@NAEAV32@PEAVFieldPositionIterator@2@AEAW4UErrorCode@@@Z" PURGE="0" COMMENT="" />
    <EXPORT ORDINAL="1493" NAME="?format@CompactDecimalFormat@icu_53@@UEBAAEAVUnicodeString@2@_JAEAV32@AEAVFieldPosition@2@@Z" PURGE="0" COMMENT="" />
    <EXPORT ORDINAL="1494" NAME="?format@CompactDecimalFormat@icu_53@@UEBAAEAVUnicodeString@2@_JAEAV32@PEAVFieldPositionIterator@2@AEAW4UErrorCode@@@Z" PURGE="0" COMMENT="" />
    <EXPORT ORDINAL="1495" NAME="?format@DateFormat@icu_53@@QEBAAEAVUnicodeString@2@NAEAV32@@Z" PURGE="0" COMMENT="" />
    <EXPORT ORDINAL="1496" NAME="?format@DateFormat@icu_53@@QEBAAEAVUnicodeString@2@NAEAV32@AEAVFieldPosition@2@@Z" PURGE="0" COMMENT="" />
    <EXPORT ORDINAL="1497" NAME="?format@DateFormat@icu_53@@QEBAAEAVUnicodeString@2@NAEAV32@PEAVFieldPositionIterator@2@AEAW4UErrorCode@@@Z" PURGE="0" COMMENT="" />
    <EXPORT ORDINAL="1498" NAME="?format@DateFormat@icu_53@@UEBAAEAVUnicodeString@2@AEAVCalendar@2@AEAV32@PEAVFieldPositionIterator@2@AEAW4UErrorCode@@@Z" PURGE="0" COMMENT="" />
    <EXPORT ORDINAL="1499" NAME="?format@DateFormat@icu_53@@UEBAAEAVUnicodeString@2@AEBVFormattable@2@AEAV32@AEAVFieldPosition@2@AEAW4UErrorCode@@@Z" PURGE="0" COMMENT="" />
    <EXPORT ORDINAL="1500" NAME="?format@DateFormat@icu_53@@UEBAAEAVUnicodeString@2@AEBVFormattable@2@AEAV32@PEAVFieldPositionIterator@2@AEAW4UErrorCode@@@Z" PURGE="0" COMMENT="" />
    <EXPORT ORDINAL="1501" NAME="?format@DateIntervalFormat@icu_53@@QEBAAEAVUnicodeString@2@AEAVCalendar@2@0AEAV32@AEAVFieldPosition@2@AEAW4UErrorCode@@@Z" PURGE="0" COMMENT="" />
    <EXPORT ORDINAL="1502" NAME="?format@DateIntervalFormat@icu_53@@QEBAAEAVUnicodeString@2@PEBVDateInterval@2@AEAV32@AEAVFieldPosition@2@AEAW4UErrorCode@@@Z" PURGE="0" COMMENT="" />
    <EXPORT ORDINAL="1503" NAME="?format@DateIntervalFormat@icu_53@@UEBAAEAVUnicodeString@2@AEBVFormattable@2@AEAV32@AEAVFieldPosition@2@AEAW4UErrorCode@@@Z" PURGE="0" COMMENT="" />
    <EXPORT ORDINAL="1504" NAME="?format@DecimalFormat@icu_53@@UEBAAEAVUnicodeString@2@AEBVDigitList@2@AEAV32@AEAVFieldPosition@2@AEAW4UErrorCode@@@Z" PURGE="0" COMMENT="" />
    <EXPORT ORDINAL="1505" NAME="?format@DecimalFormat@icu_53@@UEBAAEAVUnicodeString@2@AEBVDigitList@2@AEAV32@PEAVFieldPositionIterator@2@AEAW4UErrorCode@@@Z" PURGE="0" COMMENT="" />
    <EXPORT ORDINAL="1506" NAME="?format@DecimalFormat@icu_53@@UEBAAEAVUnicodeString@2@AEBVStringPiece@2@AEAV32@PEAVFieldPositionIterator@2@AEAW4UErrorCode@@@Z" PURGE="0" COMMENT="" />
    <EXPORT ORDINAL="1507" NAME="?format@DecimalFormat@icu_53@@UEBAAEAVUnicodeString@2@HAEAV32@AEAVFieldPosition@2@@Z" PURGE="0" COMMENT="" />
    <EXPORT ORDINAL="1508" NAME="?format@DecimalFormat@icu_53@@UEBAAEAVUnicodeString@2@HAEAV32@AEAVFieldPosition@2@AEAW4UErrorCode@@@Z" PURGE="0" COMMENT="" />
    <EXPORT ORDINAL="1509" NAME="?format@DecimalFormat@icu_53@@UEBAAEAVUnicodeString@2@HAEAV32@PEAVFieldPositionIterator@2@AEAW4UErrorCode@@@Z" PURGE="0" COMMENT="" />
    <EXPORT ORDINAL="1510" NAME="?format@DecimalFormat@icu_53@@UEBAAEAVUnicodeString@2@NAEAV32@AEAVFieldPosition@2@@Z" PURGE="0" COMMENT="" />
    <EXPORT ORDINAL="1511" NAME="?format@DecimalFormat@icu_53@@UEBAAEAVUnicodeString@2@NAEAV32@AEAVFieldPosition@2@AEAW4UErrorCode@@@Z" PURGE="0" COMMENT="" />
    <EXPORT ORDINAL="1512" NAME="?format@DecimalFormat@icu_53@@UEBAAEAVUnicodeString@2@NAEAV32@PEAVFieldPositionIterator@2@AEAW4UErrorCode@@@Z" PURGE="0" COMMENT="" />
    <EXPORT ORDINAL="1513" NAME="?format@DecimalFormat@icu_53@@UEBAAEAVUnicodeString@2@_JAEAV32@AEAVFieldPosition@2@@Z" PURGE="0" COMMENT="" />
    <EXPORT ORDINAL="1514" NAME="?format@DecimalFormat@icu_53@@UEBAAEAVUnicodeString@2@_JAEAV32@AEAVFieldPosition@2@AEAW4UErrorCode@@@Z" PURGE="0" COMMENT="" />
    <EXPORT ORDINAL="1515" NAME="?format@DecimalFormat@icu_53@@UEBAAEAVUnicodeString@2@_JAEAV32@PEAVFieldPositionIterator@2@AEAW4UErrorCode@@@Z" PURGE="0" COMMENT="" />
    <EXPORT ORDINAL="1516" NAME="?format@DummyFormat@MessageFormat@icu_53@@UEBAAEAVUnicodeString@3@AEBVFormattable@3@AEAV43@AEAVFieldPosition@3@AEAW4UErrorCode@@@Z" PURGE="0" COMMENT="" />
    <EXPORT ORDINAL="1517" NAME="?format@DummyFormat@MessageFormat@icu_53@@UEBAAEAVUnicodeString@3@AEBVFormattable@3@AEAV43@AEAW4UErrorCode@@@Z" PURGE="0" COMMENT="" />
    <EXPORT ORDINAL="1518" NAME="?format@DummyFormat@MessageFormat@icu_53@@UEBAAEAVUnicodeString@3@AEBVFormattable@3@AEAV43@PEAVFieldPositionIterator@3@AEAW4UErrorCode@@@Z" PURGE="0" COMMENT="" />
    <EXPORT ORDINAL="1519" NAME="?format@Format@icu_53@@QEBAAEAVUnicodeString@2@AEBVFormattable@2@AEAV32@AEAW4UErrorCode@@@Z" PURGE="0" COMMENT="" />
    <EXPORT ORDINAL="1520" NAME="?format@Format@icu_53@@UEBAAEAVUnicodeString@2@AEBVFormattable@2@AEAV32@PEAVFieldPositionIterator@2@AEAW4UErrorCode@@@Z" PURGE="0" COMMENT="" />
    <EXPORT ORDINAL="1521" NAME="?format@MeasureFormat@icu_53@@UEBAAEAVUnicodeString@2@AEBVFormattable@2@AEAV32@AEAVFieldPosition@2@AEAW4UErrorCode@@@Z" PURGE="0" COMMENT="" />
    <EXPORT ORDINAL="1522" NAME="?format@MessageFormat@icu_53@@AEBAAEAVUnicodeString@2@PEBVFormattable@2@PEBV32@HAEAV32@PEAVFieldPosition@2@AEAW4UErrorCode@@@Z" PURGE="0" COMMENT="" />
    <EXPORT ORDINAL="1523" NAME="?format@MessageFormat@icu_53@@AEBAXHPEBXPEBVFormattable@2@PEBVUnicodeString@2@HAEAVAppendableWrapper@2@PEAVFieldPosition@2@AEAW4UErrorCode@@@Z" PURGE="0" COMMENT="" />
    <EXPORT ORDINAL="1524" NAME="?format@MessageFormat@icu_53@@QEBAAEAVUnicodeString@2@PEBV32@PEBVFormattable@2@HAEAV32@AEAW4UErrorCode@@@Z" PURGE="0" COMMENT="" />
    <EXPORT ORDINAL="1525" NAME="?format@MessageFormat@icu_53@@QEBAAEAVUnicodeString@2@PEBVFormattable@2@HAEAV32@AEAVFieldPosition@2@AEAW4UErrorCode@@@Z" PURGE="0" COMMENT="" />
    <EXPORT ORDINAL="1526" NAME="?format@MessageFormat@icu_53@@SAAEAVUnicodeString@2@AEBV32@PEBVFormattable@2@HAEAV32@AEAW4UErrorCode@@@Z" PURGE="0" COMMENT="" />
    <EXPORT ORDINAL="1527" NAME="?format@MessageFormat@icu_53@@UEBAAEAVUnicodeString@2@AEBVFormattable@2@AEAV32@AEAVFieldPosition@2@AEAW4UErrorCode@@@Z" PURGE="0" COMMENT="" />
    <EXPORT ORDINAL="1528" NAME="?format@NumberFormat@icu_53@@QEBAAEAVUnicodeString@2@HAEAV32@@Z" PURGE="0" COMMENT="" />
    <EXPORT ORDINAL="1529" NAME="?format@NumberFormat@icu_53@@QEBAAEAVUnicodeString@2@NAEAV32@@Z" PURGE="0" COMMENT="" />
    <EXPORT ORDINAL="1530" NAME="?format@NumberFormat@icu_53@@QEBAAEAVUnicodeString@2@_JAEAV32@@Z" PURGE="0" COMMENT="" />
    <EXPORT ORDINAL="1531" NAME="?format@NumberFormat@icu_53@@UEBAAEAVUnicodeString@2@AEBVDigitList@2@AEAV32@AEAVFieldPosition@2@AEAW4UErrorCode@@@Z" PURGE="0" COMMENT="" />
    <EXPORT ORDINAL="1532" NAME="?format@NumberFormat@icu_53@@UEBAAEAVUnicodeString@2@AEBVDigitList@2@AEAV32@PEAVFieldPositionIterator@2@AEAW4UErrorCode@@@Z" PURGE="0" COMMENT="" />
    <EXPORT ORDINAL="1533" NAME="?format@NumberFormat@icu_53@@UEBAAEAVUnicodeString@2@AEBVFormattable@2@AEAV32@AEAVFieldPosition@2@AEAW4UErrorCode@@@Z" PURGE="0" COMMENT="" />
    <EXPORT ORDINAL="1534" NAME="?format@NumberFormat@icu_53@@UEBAAEAVUnicodeString@2@AEBVFormattable@2@AEAV32@PEAVFieldPositionIterator@2@AEAW4UErrorCode@@@Z" PURGE="0" COMMENT="" />
    <EXPORT ORDINAL="1535" NAME="?format@NumberFormat@icu_53@@UEBAAEAVUnicodeString@2@AEBVStringPiece@2@AEAV32@PEAVFieldPositionIterator@2@AEAW4UErrorCode@@@Z" PURGE="0" COMMENT="" />
    <EXPORT ORDINAL="1536" NAME="?format@NumberFormat@icu_53@@UEBAAEAVUnicodeString@2@HAEAV32@AEAVFieldPosition@2@AEAW4UErrorCode@@@Z" PURGE="0" COMMENT="" />
    <EXPORT ORDINAL="1537" NAME="?format@NumberFormat@icu_53@@UEBAAEAVUnicodeString@2@HAEAV32@PEAVFieldPositionIterator@2@AEAW4UErrorCode@@@Z" PURGE="0" COMMENT="" />
    <EXPORT ORDINAL="1538" NAME="?format@NumberFormat@icu_53@@UEBAAEAVUnicodeString@2@NAEAV32@AEAVFieldPosition@2@AEAW4UErrorCode@@@Z" PURGE="0" COMMENT="" />
    <EXPORT ORDINAL="1539" NAME="?format@NumberFormat@icu_53@@UEBAAEAVUnicodeString@2@NAEAV32@PEAVFieldPositionIterator@2@AEAW4UErrorCode@@@Z" PURGE="0" COMMENT="" />
    <EXPORT ORDINAL="1540" NAME="?format@NumberFormat@icu_53@@UEBAAEAVUnicodeString@2@_JAEAV32@AEAVFieldPosition@2@@Z" PURGE="0" COMMENT="" />
    <EXPORT ORDINAL="1541" NAME="?format@NumberFormat@icu_53@@UEBAAEAVUnicodeString@2@_JAEAV32@AEAVFieldPosition@2@AEAW4UErrorCode@@@Z" PURGE="0" COMMENT="" />
    <EXPORT ORDINAL="1542" NAME="?format@NumberFormat@icu_53@@UEBAAEAVUnicodeString@2@_JAEAV32@PEAVFieldPositionIterator@2@AEAW4UErrorCode@@@Z" PURGE="0" COMMENT="" />
    <EXPORT ORDINAL="1543" NAME="?format@PluralFormat@icu_53@@AEBAAEAVUnicodeString@2@AEBVFormattable@2@NAEAV32@AEAVFieldPosition@2@AEAW4UErrorCode@@@Z" PURGE="0" COMMENT="" />
    <EXPORT ORDINAL="1544" NAME="?format@PluralFormat@icu_53@@QEBA?AVUnicodeString@2@HAEAW4UErrorCode@@@Z" PURGE="0" COMMENT="" />
    <EXPORT ORDINAL="1545" NAME="?format@PluralFormat@icu_53@@QEBA?AVUnicodeString@2@NAEAW4UErrorCode@@@Z" PURGE="0" COMMENT="" />
    <EXPORT ORDINAL="1546" NAME="?format@PluralFormat@icu_53@@QEBAAEAVUnicodeString@2@HAEAV32@AEAVFieldPosition@2@AEAW4UErrorCode@@@Z" PURGE="0" COMMENT="" />
    <EXPORT ORDINAL="1547" NAME="?format@PluralFormat@icu_53@@QEBAAEAVUnicodeString@2@NAEAV32@AEAVFieldPosition@2@AEAW4UErrorCode@@@Z" PURGE="0" COMMENT="" />
    <EXPORT ORDINAL="1548" NAME="?format@PluralFormat@icu_53@@UEBAAEAVUnicodeString@2@AEBVFormattable@2@AEAV32@AEAVFieldPosition@2@AEAW4UErrorCode@@@Z" PURGE="0" COMMENT="" />
    <EXPORT ORDINAL="1549" NAME="?format@QuantityFormatter@icu_53@@QEBAAEAVUnicodeString@2@AEBVFormattable@2@AEBVNumberFormat@2@AEBVPluralRules@2@AEAV32@AEAVFieldPosition@2@AEAW4UErrorCode@@@Z" PURGE="0" COMMENT="" />
    <EXPORT ORDINAL="1550" NAME="?format@RelativeDateTimeFormatter@icu_53@@QEBAAEAVUnicodeString@2@NW4UDateDirection@@W4UDateRelativeUnit@@AEAV32@AEAW4UErrorCode@@@Z" PURGE="0" COMMENT="" />
    <EXPORT ORDINAL="1551" NAME="?format@RelativeDateTimeFormatter@icu_53@@QEBAAEAVUnicodeString@2@W4UDateDirection@@W4UDateAbsoluteUnit@@AEAV32@AEAW4UErrorCode@@@Z" PURGE="0" COMMENT="" />
    <EXPORT ORDINAL="1552" NAME="?format@RuleBasedNumberFormat@icu_53@@UEBAAEAVUnicodeString@2@HAEAV32@AEAVFieldPosition@2@@Z" PURGE="0" COMMENT="" />
    <EXPORT ORDINAL="1553" NAME="?format@RuleBasedNumberFormat@icu_53@@UEBAAEAVUnicodeString@2@HAEBV32@AEAV32@AEAVFieldPosition@2@AEAW4UErrorCode@@@Z" PURGE="0" COMMENT="" />
    <EXPORT ORDINAL="1554" NAME="?format@RuleBasedNumberFormat@icu_53@@UEBAAEAVUnicodeString@2@NAEAV32@AEAVFieldPosition@2@@Z" PURGE="0" COMMENT="" />
    <EXPORT ORDINAL="1555" NAME="?format@RuleBasedNumberFormat@icu_53@@UEBAAEAVUnicodeString@2@NAEBV32@AEAV32@AEAVFieldPosition@2@AEAW4UErrorCode@@@Z" PURGE="0" COMMENT="" />
    <EXPORT ORDINAL="1556" NAME="?format@RuleBasedNumberFormat@icu_53@@UEBAAEAVUnicodeString@2@_JAEAV32@AEAVFieldPosition@2@@Z" PURGE="0" COMMENT="" />
    <EXPORT ORDINAL="1557" NAME="?format@RuleBasedNumberFormat@icu_53@@UEBAAEAVUnicodeString@2@_JAEBV32@AEAV32@AEAVFieldPosition@2@AEAW4UErrorCode@@@Z" PURGE="0" COMMENT="" />
    <EXPORT ORDINAL="1558" NAME="?format@SelectFormat@icu_53@@QEBAAEAVUnicodeString@2@AEBV32@AEAV32@AEAVFieldPosition@2@AEAW4UErrorCode@@@Z" PURGE="0" COMMENT="" />
    <EXPORT ORDINAL="1559" NAME="?format@SelectFormat@icu_53@@UEBAAEAVUnicodeString@2@AEBVFormattable@2@AEAV32@AEAVFieldPosition@2@AEAW4UErrorCode@@@Z" PURGE="0" COMMENT="" />
    <EXPORT ORDINAL="1560" NAME="?format@SimpleDateFormat@icu_53@@UEBAAEAVUnicodeString@2@AEAVCalendar@2@AEAV32@AEAVFieldPosition@2@@Z" PURGE="0" COMMENT="" />
    <EXPORT ORDINAL="1561" NAME="?format@SimpleDateFormat@icu_53@@UEBAAEAVUnicodeString@2@AEAVCalendar@2@AEAV32@PEAVFieldPositionIterator@2@AEAW4UErrorCode@@@Z" PURGE="0" COMMENT="" />
    <EXPORT ORDINAL="1562" NAME="?format@TimeZoneFormat@icu_53@@UEBAAEAVUnicodeString@2@AEBVFormattable@2@AEAV32@AEAVFieldPosition@2@AEAW4UErrorCode@@@Z" PURGE="0" COMMENT="" />
    <EXPORT ORDINAL="1563" NAME="?format@TimeZoneFormat@icu_53@@UEBAAEAVUnicodeString@2@W4UTimeZoneFormatStyle@@AEBVTimeZone@2@NAEAV32@PEAW4UTimeZoneFormatTimeType@@@Z" PURGE="0" COMMENT="" />
    <EXPORT ORDINAL="1564" NAME="?formatComplexSubMessage@MessageFormat@icu_53@@AEBAXHPEBXPEBVFormattable@2@PEBVUnicodeString@2@HAEAVAppendableWrapper@2@AEAW4UErrorCode@@@Z" PURGE="0" COMMENT="" />
    <EXPORT ORDINAL="1565" NAME="?formatCustomID@TimeZone@icu_53@@CAAEAVUnicodeString@2@HHHCAEAV32@@Z" PURGE="0" COMMENT="" />
    <EXPORT ORDINAL="1566" NAME="?formatCustomID@ZoneMeta@icu_53@@CAAEAVUnicodeString@2@EEECAEAV32@@Z" PURGE="0" COMMENT="" />
    <EXPORT ORDINAL="1567" NAME="?formatExemplarLocation@TimeZoneFormat@icu_53@@AEBAAEAVUnicodeString@2@AEBVTimeZone@2@AEAV32@@Z" PURGE="0" COMMENT="" />
    <EXPORT ORDINAL="1568" NAME="?formatGeneric@TimeZoneFormat@icu_53@@AEBAAEAVUnicodeString@2@AEBVTimeZone@2@HNAEAV32@@Z" PURGE="0" COMMENT="" />
    <EXPORT ORDINAL="1569" NAME="?formatMeasure@MeasureFormat@icu_53@@AEBAAEAVUnicodeString@2@AEBVMeasure@2@AEBVNumberFormat@2@AEAV32@AEAVFieldPosition@2@AEAW4UErrorCode@@@Z" PURGE="0" COMMENT="" />
    <EXPORT ORDINAL="1570" NAME="?formatMeasures@MeasureFormat@icu_53@@QEBAAEAVUnicodeString@2@PEBVMeasure@2@HAEAV32@AEAVFieldPosition@2@AEAW4UErrorCode@@@Z" PURGE="0" COMMENT="" />
    <EXPORT ORDINAL="1571" NAME="?formatMeasuresSlowTrack@MeasureFormat@icu_53@@AEBAAEAVUnicodeString@2@PEBVMeasure@2@HAEAV32@AEAVFieldPosition@2@AEAW4UErrorCode@@@Z" PURGE="0" COMMENT="" />
    <EXPORT ORDINAL="1572" NAME="?formatNumeric@MeasureFormat@icu_53@@AEBAAEAVUnicodeString@2@NAEBVDateFormat@2@W4UDateFormatField@@AEBVFormattable@2@AEAV32@AEAW4UErrorCode@@@Z" PURGE="0" COMMENT="" />
    <EXPORT ORDINAL="1573" NAME="?formatNumeric@MeasureFormat@icu_53@@AEBAAEAVUnicodeString@2@PEBVFormattable@2@HAEAV32@AEAW4UErrorCode@@@Z" PURGE="0" COMMENT="" />
    <EXPORT ORDINAL="1574" NAME="?formatOffsetISO8601@TimeZoneFormat@icu_53@@AEBAAEAVUnicodeString@2@HCCCCAEAV32@AEAW4UErrorCode@@@Z" PURGE="0" COMMENT="" />
    <EXPORT ORDINAL="1575" NAME="?formatOffsetISO8601Basic@TimeZoneFormat@icu_53@@QEBAAEAVUnicodeString@2@HCCCAEAV32@AEAW4UErrorCode@@@Z" PURGE="0" COMMENT="" />
    <EXPORT ORDINAL="1576" NAME="?formatOffsetISO8601Extended@TimeZoneFormat@icu_53@@QEBAAEAVUnicodeString@2@HCCCAEAV32@AEAW4UErrorCode@@@Z" PURGE="0" COMMENT="" />
    <EXPORT ORDINAL="1577" NAME="?formatOffsetLocalizedGMT@TimeZoneFormat@icu_53@@AEBAAEAVUnicodeString@2@HCAEAV32@AEAW4UErrorCode@@@Z" PURGE="0" COMMENT="" />
    <EXPORT ORDINAL="1578" NAME="?formatOffsetLocalizedGMT@TimeZoneFormat@icu_53@@QEBAAEAVUnicodeString@2@HAEAV32@AEAW4UErrorCode@@@Z" PURGE="0" COMMENT="" />
    <EXPORT ORDINAL="1579" NAME="?formatOffsetShortLocalizedGMT@TimeZoneFormat@icu_53@@QEBAAEAVUnicodeString@2@HAEAV32@AEAW4UErrorCode@@@Z" PURGE="0" COMMENT="" />
    <EXPORT ORDINAL="1580" NAME="?formatOffsetWithAsciiDigits@TimeZoneFormat@icu_53@@CAAEAVUnicodeString@2@H_WW4OffsetFields@12@1AEAV32@@Z" PURGE="0" COMMENT="" />
    <EXPORT ORDINAL="1581" NAME="?formatSpecific@TimeZoneFormat@icu_53@@AEBAAEAVUnicodeString@2@AEBVTimeZone@2@W4UTimeZoneNameType@@1NAEAV32@PEAW4UTimeZoneFormatTimeType@@@Z" PURGE="0" COMMENT="" />
    <EXPORT ORDINAL="1582" NAME="?forwardNumCodePoints@FCDUIterCollationIterator@icu_53@@MEAAXHAEAW4UErrorCode@@@Z" PURGE="0" COMMENT="" />
    <EXPORT ORDINAL="1583" NAME="?forwardNumCodePoints@FCDUTF16CollationIterator@icu_53@@MEAAXHAEAW4UErrorCode@@@Z" PURGE="0" COMMENT="" />
    <EXPORT ORDINAL="1584" NAME="?forwardNumCodePoints@FCDUTF8CollationIterator@icu_53@@MEAAXHAEAW4UErrorCode@@@Z" PURGE="0" COMMENT="" />
    <EXPORT ORDINAL="1585" NAME="?forwardNumCodePoints@UIterCollationIterator@icu_53@@MEAAXHAEAW4UErrorCode@@@Z" PURGE="0" COMMENT="" />
    <EXPORT ORDINAL="1586" NAME="?forwardNumCodePoints@UTF16CollationIterator@icu_53@@MEAAXHAEAW4UErrorCode@@@Z" PURGE="0" COMMENT="" />
    <EXPORT ORDINAL="1587" NAME="?forwardNumCodePoints@UTF8CollationIterator@icu_53@@MEAAXHAEAW4UErrorCode@@@Z" PURGE="0" COMMENT="" />
    <EXPORT ORDINAL="1588" NAME="?foundNULTerminator@CollationIterator@icu_53@@MEAACXZ" PURGE="0" COMMENT="" />
    <EXPORT ORDINAL="1589" NAME="?foundNULTerminator@FCDUTF16CollationIterator@icu_53@@MEAACXZ" PURGE="0" COMMENT="" />
    <EXPORT ORDINAL="1590" NAME="?foundNULTerminator@FCDUTF8CollationIterator@icu_53@@MEAACXZ" PURGE="0" COMMENT="" />
    <EXPORT ORDINAL="1591" NAME="?foundNULTerminator@UTF16CollationIterator@icu_53@@MEAACXZ" PURGE="0" COMMENT="" />
    <EXPORT ORDINAL="1592" NAME="?foundNULTerminator@UTF8CollationIterator@icu_53@@MEAACXZ" PURGE="0" COMMENT="" />
    <EXPORT ORDINAL="1593" NAME="?freeTransliterators@CompoundTransliterator@icu_53@@AEAAXXZ" PURGE="0" COMMENT="" />
    <EXPORT ORDINAL="1594" NAME="?freeze@ZNStringPool@icu_53@@QEAAXXZ" PURGE="0" COMMENT="" />
    <EXPORT ORDINAL="1595" NAME="?fromUCollationElements@CollationElementIterator@icu_53@@SAPEAV12@PEAUUCollationElements@@@Z" PURGE="0" COMMENT="" />
    <EXPORT ORDINAL="1596" NAME="?fromUCollationElements@CollationElementIterator@icu_53@@SAPEBV12@PEBUUCollationElements@@@Z" PURGE="0" COMMENT="" />
    <EXPORT ORDINAL="1597" NAME="?fromUCollator@Collator@icu_53@@SAPEAV12@PEAUUCollator@@@Z" PURGE="0" COMMENT="" />
    <EXPORT ORDINAL="1598" NAME="?fromUCollator@Collator@icu_53@@SAPEBV12@PEBUUCollator@@@Z" PURGE="0" COMMENT="" />
    <EXPORT ORDINAL="1599" NAME="?fromUFormattable@Formattable@icu_53@@SAPEAV12@PEAPEAX@Z" PURGE="0" COMMENT="" />
    <EXPORT ORDINAL="1600" NAME="?fromUFormattable@Formattable@icu_53@@SAPEBV12@PEBQEAX@Z" PURGE="0" COMMENT="" />
    <EXPORT ORDINAL="1601" NAME="?gDefaultMaxIntegerDigits@NumberFormat@icu_53@@1HB" PURGE="-1" COMMENT="" />
    <EXPORT ORDINAL="1602" NAME="?gDefaultMinIntegerDigits@NumberFormat@icu_53@@1HB" PURGE="-1" COMMENT="" />
    <EXPORT ORDINAL="1603" NAME="?get2DigitYearStart@SimpleDateFormat@icu_53@@QEBANAEAW4UErrorCode@@@Z" PURGE="0" COMMENT="" />
    <EXPORT ORDINAL="1604" NAME="?get@?$EnumSet@W4UDateFormatBooleanAttribute@@$0A@$03@icu_53@@QEBAHW4UDateFormatBooleanAttribute@@@Z" PURGE="0" COMMENT="" />
    <EXPORT ORDINAL="1605" NAME="?get@?$EnumSet@W4UNumberFormatAttribute@@$0BAAA@$0BAAC@@icu_53@@QEBAHW4UNumberFormatAttribute@@@Z" PURGE="0" COMMENT="" />
    <EXPORT ORDINAL="1606" NAME="?get@Calendar@icu_53@@QEBAHW4UCalendarDateFields@@AEAW4UErrorCode@@@Z" PURGE="0" COMMENT="" />
    <EXPORT ORDINAL="1607" NAME="?get@FixedDecimal@icu_53@@QEBANW4tokenType@2@@Z" PURGE="0" COMMENT="" />
    <EXPORT ORDINAL="1608" NAME="?get@SharedNumberFormat@icu_53@@QEBAPEBVNumberFormat@2@XZ" PURGE="0" COMMENT="" />
    <EXPORT ORDINAL="1609" NAME="?get@ZNStringPool@icu_53@@QEAAPEB_WAEBVUnicodeString@2@AEAW4UErrorCode@@@Z" PURGE="0" COMMENT="" />
    <EXPORT ORDINAL="1610" NAME="?get@ZNStringPool@icu_53@@QEAAPEB_WPEB_WAEAW4UErrorCode@@@Z" PURGE="0" COMMENT="" />
    <EXPORT ORDINAL="1611" NAME="?getActualHelper@Calendar@icu_53@@AEBAHW4UCalendarDateFields@@HHAEAW4UErrorCode@@@Z" PURGE="0" COMMENT="" />
    <EXPORT ORDINAL="1612" NAME="?getActualMaximum@Calendar@icu_53@@UEBAHW4UCalendarDateFields@@AEAW4UErrorCode@@@Z" PURGE="0" COMMENT="" />
    <EXPORT ORDINAL="1613" NAME="?getActualMaximum@GregorianCalendar@icu_53@@UEBAHW4UCalendarDateFields@@AEAW4UErrorCode@@@Z" PURGE="0" COMMENT="" />
    <EXPORT ORDINAL="1614" NAME="?getActualMinimum@Calendar@icu_53@@QEBAHW4EDateFields@12@AEAW4UErrorCode@@@Z" PURGE="0" COMMENT="" />
    <EXPORT ORDINAL="1615" NAME="?getActualMinimum@Calendar@icu_53@@UEBAHW4UCalendarDateFields@@AEAW4UErrorCode@@@Z" PURGE="0" COMMENT="" />
    <EXPORT ORDINAL="1616" NAME="?getActualMinimum@GregorianCalendar@icu_53@@QEBAHW4EDateFields@Calendar@2@@Z" PURGE="0" COMMENT="" />
    <EXPORT ORDINAL="1617" NAME="?getActualMinimum@GregorianCalendar@icu_53@@QEBAHW4EDateFields@Calendar@2@AEAW4UErrorCode@@@Z" PURGE="0" COMMENT="" />
    <EXPORT ORDINAL="1618" NAME="?getActualMinimum@GregorianCalendar@icu_53@@UEBAHW4UCalendarDateFields@@AEAW4UErrorCode@@@Z" PURGE="0" COMMENT="" />
    <EXPORT ORDINAL="1619" NAME="?getAlias@?$MaybeStackHeaderAndArray@UdecNumber@@D$0CI@@icu_53@@QEBAPEAUdecNumber@@XZ" PURGE="0" COMMENT="" />
    <EXPORT ORDINAL="1620" NAME="?getAll@?$EnumSet@W4UDateFormatBooleanAttribute@@$0A@$03@icu_53@@QEBAIXZ" PURGE="0" COMMENT="" />
    <EXPORT ORDINAL="1621" NAME="?getAll@?$EnumSet@W4UNumberFormatAttribute@@$0BAAA@$0BAAC@@icu_53@@QEBAIXZ" PURGE="0" COMMENT="" />
    <EXPORT ORDINAL="1622" NAME="?getAllKeywordValues@PluralRules@icu_53@@QEAAHAEBVUnicodeString@2@PEANHAEAW4UErrorCode@@@Z" PURGE="0" COMMENT="" />
    <EXPORT ORDINAL="1623" NAME="?getAlternateHandling@CollationSettings@icu_53@@QEBA?AW4UColAttributeValue@@XZ" PURGE="0" COMMENT="" />
    <EXPORT ORDINAL="1624" NAME="?getAlternates@IdentifierInfo@icu_53@@QEBAPEBUUHashtable@@XZ" PURGE="0" COMMENT="" />
    <EXPORT ORDINAL="1625" NAME="?getAmPmStrings@DateFormatSymbols@icu_53@@QEBAPEBVUnicodeString@2@AEAH@Z" PURGE="0" COMMENT="" />
    <EXPORT ORDINAL="1626" NAME="?getApostropheMode@MessageFormat@icu_53@@QEBA?AW4UMessagePatternApostropheMode@@XZ" PURGE="0" COMMENT="" />
    <EXPORT ORDINAL="1627" NAME="?getAppendFormatNumber@DateTimePatternGenerator@icu_53@@AEBA?AW4UDateTimePatternField@@PEBD@Z" PURGE="0" COMMENT="" />
    <EXPORT ORDINAL="1628" NAME="?getAppendItemFormat@DateTimePatternGenerator@icu_53@@QEBAAEBVUnicodeString@2@W4UDateTimePatternField@@@Z" PURGE="0" COMMENT="" />
    <EXPORT ORDINAL="1629" NAME="?getAppendItemName@DateTimePatternGenerator@icu_53@@QEBAAEBVUnicodeString@2@W4UDateTimePatternField@@@Z" PURGE="0" COMMENT="" />
    <EXPORT ORDINAL="1630" NAME="?getAppendName@DateTimePatternGenerator@icu_53@@AEAAXW4UDateTimePatternField@@AEAVUnicodeString@2@@Z" PURGE="0" COMMENT="" />
    <EXPORT ORDINAL="1631" NAME="?getAppendNameNumber@DateTimePatternGenerator@icu_53@@AEBA?AW4UDateTimePatternField@@PEBD@Z" PURGE="0" COMMENT="" />
    <EXPORT ORDINAL="1632" NAME="?getArgFromListByName@MessageFormat@icu_53@@AEBAPEBVFormattable@2@PEBV32@PEBVUnicodeString@2@HAEAV42@@Z" PURGE="0" COMMENT="" />
    <EXPORT ORDINAL="1633" NAME="?getArgName@MessageFormat@icu_53@@AEAA?AVUnicodeString@2@H@Z" PURGE="0" COMMENT="" />
    <EXPORT ORDINAL="1634" NAME="?getArgTypeCount@MessageFormat@icu_53@@QEBAHXZ" PURGE="0" COMMENT="" />
    <EXPORT ORDINAL="1635" NAME="?getArgTypeList@MessageFormat@icu_53@@AEBAPEBW4Type@Formattable@2@AEAH@Z" PURGE="0" COMMENT="" />
    <EXPORT ORDINAL="1636" NAME="?getArray@Formattable@icu_53@@QEBAPEBV12@AEAH@Z" PURGE="0" COMMENT="" />
    <EXPORT ORDINAL="1637" NAME="?getArray@Formattable@icu_53@@QEBAPEBV12@AEAHAEAW4UErrorCode@@@Z" PURGE="0" COMMENT="" />
    <EXPORT ORDINAL="1638" NAME="?getArrayLimit@?$MaybeStackHeaderAndArray@UdecNumber@@D$0CI@@icu_53@@QEBAPEADXZ" PURGE="0" COMMENT="" />
    <EXPORT ORDINAL="1639" NAME="?getArrayStart@?$MaybeStackHeaderAndArray@UdecNumber@@D$0CI@@icu_53@@QEBAPEADXZ" PURGE="0" COMMENT="" />
    <EXPORT ORDINAL="1640" NAME="?getAttribute@DecimalFormat@icu_53@@UEBAHW4UNumberFormatAttribute@@AEAW4UErrorCode@@@Z" PURGE="0" COMMENT="" />
    <EXPORT ORDINAL="1641" NAME="?getAttribute@RuleBasedCollator@icu_53@@UEBA?AW4UColAttributeValue@@W4UColAttribute@@AEAW4UErrorCode@@@Z" PURGE="0" COMMENT="" />
    <EXPORT ORDINAL="1642" NAME="?getAttribute@SearchIterator@icu_53@@QEBA?AW4USearchAttributeValue@@W4USearchAttribute@@@Z" PURGE="0" COMMENT="" />
    <EXPORT ORDINAL="1643" NAME="?getAvailable@MeasureUnit@icu_53@@SAHPEAV12@HAEAW4UErrorCode@@@Z" PURGE="0" COMMENT="" />
    <EXPORT ORDINAL="1644" NAME="?getAvailable@MeasureUnit@icu_53@@SAHPEBDPEAV12@HAEAW4UErrorCode@@@Z" PURGE="0" COMMENT="" />
    <EXPORT ORDINAL="1645" NAME="?getAvailable@Region@icu_53@@SAPEAVStringEnumeration@2@W4URegionType@@@Z" PURGE="0" COMMENT="" />
    <EXPORT ORDINAL="1646" NAME="?getAvailableID@Transliterator@icu_53@@SAAEBVUnicodeString@2@H@Z" PURGE="0" COMMENT="" />
    <EXPORT ORDINAL="1647" NAME="?getAvailableIDs@Transliterator@icu_53@@SAPEAVStringEnumeration@2@AEAW4UErrorCode@@@Z" PURGE="0" COMMENT="" />
    <EXPORT ORDINAL="1648" NAME="?getAvailableLocales@Calendar@icu_53@@SAPEBVLocale@2@AEAH@Z" PURGE="0" COMMENT="" />
    <EXPORT ORDINAL="1649" NAME="?getAvailableLocales@Collator@icu_53@@SAPEAVStringEnumeration@2@XZ" PURGE="0" COMMENT="" />
    <EXPORT ORDINAL="1650" NAME="?getAvailableLocales@Collator@icu_53@@SAPEBVLocale@2@AEAH@Z" PURGE="0" COMMENT="" />
    <EXPORT ORDINAL="1651" NAME="?getAvailableLocales@DateFormat@icu_53@@SAPEBVLocale@2@AEAH@Z" PURGE="0" COMMENT="" />
    <EXPORT ORDINAL="1652" NAME="?getAvailableLocales@NumberFormat@icu_53@@SAPEAVStringEnumeration@2@XZ" PURGE="0" COMMENT="" />
    <EXPORT ORDINAL="1653" NAME="?getAvailableLocales@NumberFormat@icu_53@@SAPEBVLocale@2@AEAH@Z" PURGE="0" COMMENT="" />
    <EXPORT ORDINAL="1654" NAME="?getAvailableLocales@PluralRules@icu_53@@SAPEAVStringEnumeration@2@AEAW4UErrorCode@@@Z" PURGE="0" COMMENT="" />
    <EXPORT ORDINAL="1655" NAME="?getAvailableMetazoneIDs@ZoneMeta@icu_53@@SAPEBVUVector@2@XZ" PURGE="0" COMMENT="" />
    <EXPORT ORDINAL="1656" NAME="?getAvailableNames@NumberingSystem@icu_53@@SAPEAVStringEnumeration@2@AEAW4UErrorCode@@@Z" PURGE="0" COMMENT="" />
    <EXPORT ORDINAL="1657" NAME="?getAvailableSource@Transliterator@icu_53@@SAAEAVUnicodeString@2@HAEAV32@@Z" PURGE="0" COMMENT="" />
    <EXPORT ORDINAL="1658" NAME="?getAvailableTarget@Transliterator@icu_53@@SAAEAVUnicodeString@2@HAEBV32@AEAV32@@Z" PURGE="0" COMMENT="" />
    <EXPORT ORDINAL="1659" NAME="?getAvailableTypes@MeasureUnit@icu_53@@SAPEAVStringEnumeration@2@AEAW4UErrorCode@@@Z" PURGE="0" COMMENT="" />
    <EXPORT ORDINAL="1660" NAME="?getAvailableVariant@Transliterator@icu_53@@SAAEAVUnicodeString@2@HAEBV32@0AEAV32@@Z" PURGE="0" COMMENT="" />
    <EXPORT ORDINAL="1661" NAME="?getBaseSkeleton@DateTimePatternGenerator@icu_53@@QEAA?AVUnicodeString@2@AEBV32@AEAW4UErrorCode@@@Z" PURGE="0" COMMENT="" />
    <EXPORT ORDINAL="1662" NAME="?getBaseSkeletons@DateTimePatternGenerator@icu_53@@QEBAPEAVStringEnumeration@2@AEAW4UErrorCode@@@Z" PURGE="0" COMMENT="" />
    <EXPORT ORDINAL="1663" NAME="?getBasicTimeZone@Calendar@icu_53@@AEBAPEAVBasicTimeZone@2@XZ" PURGE="0" COMMENT="" />
    <EXPORT ORDINAL="1664" NAME="?getBeginIndex@FieldPosition@icu_53@@QEBAHXZ" PURGE="0" COMMENT="" />
    <EXPORT ORDINAL="1665" NAME="?getBestAppending@DateTimePatternGenerator@icu_53@@AEAA?AVUnicodeString@2@HHW4UDateTimePatternMatchOptions@@@Z" PURGE="0" COMMENT="" />
    <EXPORT ORDINAL="1666" NAME="?getBestPattern@DateTimePatternGenerator@icu_53@@QEAA?AVUnicodeString@2@AEBV32@AEAW4UErrorCode@@@Z" PURGE="0" COMMENT="" />
    <EXPORT ORDINAL="1667" NAME="?getBestPattern@DateTimePatternGenerator@icu_53@@QEAA?AVUnicodeString@2@AEBV32@W4UDateTimePatternMatchOptions@@AEAW4UErrorCode@@@Z" PURGE="0" COMMENT="" />
    <EXPORT ORDINAL="1668" NAME="?getBestRaw@DateTimePatternGenerator@icu_53@@AEAAPEBVUnicodeString@2@AEAVDateTimeMatcher@2@HPEAVDistanceInfo@2@PEAPEBVPtnSkeleton@2@@Z" PURGE="0" COMMENT="" />
    <EXPORT ORDINAL="1669" NAME="?getBestSkeleton@DateIntervalInfo@icu_53@@AEBAPEBVUnicodeString@2@AEBV32@AEAC@Z" PURGE="0" COMMENT="" />
    <EXPORT ORDINAL="1670" NAME="?getBogus@Formattable@icu_53@@AEBAPEAVUnicodeString@2@XZ" PURGE="0" COMMENT="" />
    <EXPORT ORDINAL="1671" NAME="?getBooleanAttribute@DateFormat@icu_53@@UEBACW4UDateFormatBooleanAttribute@@AEAW4UErrorCode@@@Z" PURGE="0" COMMENT="" />
    <EXPORT ORDINAL="1672" NAME="?getBound@Collator@icu_53@@SAHPEBEHW4UColBoundMode@@IPEAEHAEAW4UErrorCode@@@Z" PURGE="0" COMMENT="" />
    <EXPORT ORDINAL="1673" NAME="?getBreakIterator@SearchIterator@icu_53@@QEBAPEBVBreakIterator@2@XZ" PURGE="0" COMMENT="" />
    <EXPORT ORDINAL="1674" NAME="?getBucket@ImmutableIndex@AlphabeticIndex@icu_53@@QEBAPEBVBucket@23@H@Z" PURGE="0" COMMENT="" />
    <EXPORT ORDINAL="1675" NAME="?getBucketCount@AlphabeticIndex@icu_53@@UEAAHAEAW4UErrorCode@@@Z" PURGE="0" COMMENT="" />
    <EXPORT ORDINAL="1676" NAME="?getBucketCount@ImmutableIndex@AlphabeticIndex@icu_53@@QEBAHXZ" PURGE="0" COMMENT="" />
    <EXPORT ORDINAL="1677" NAME="?getBucketIndex@AlphabeticIndex@icu_53@@UEAAHAEBVUnicodeString@2@AEAW4UErrorCode@@@Z" PURGE="0" COMMENT="" />
    <EXPORT ORDINAL="1678" NAME="?getBucketIndex@AlphabeticIndex@icu_53@@UEBAHXZ" PURGE="0" COMMENT="" />
    <EXPORT ORDINAL="1679" NAME="?getBucketIndex@ImmutableIndex@AlphabeticIndex@icu_53@@QEBAHAEBVUnicodeString@3@AEAW4UErrorCode@@@Z" PURGE="0" COMMENT="" />
    <EXPORT ORDINAL="1680" NAME="?getBucketLabel@AlphabeticIndex@icu_53@@UEBAAEBVUnicodeString@2@XZ" PURGE="0" COMMENT="" />
    <EXPORT ORDINAL="1681" NAME="?getBucketLabelType@AlphabeticIndex@icu_53@@UEBA?AW4UAlphabeticIndexLabelType@@XZ" PURGE="0" COMMENT="" />
    <EXPORT ORDINAL="1682" NAME="?getBucketRecordCount@AlphabeticIndex@icu_53@@UEBAHXZ" PURGE="0" COMMENT="" />
    <EXPORT ORDINAL="1683" NAME="?getByteArray@CollationKey@icu_53@@QEBAPEBEAEAH@Z" PURGE="0" COMMENT="" />
    <EXPORT ORDINAL="1684" NAME="?getBytes@CollationKey@icu_53@@AEAAPEAEXZ" PURGE="0" COMMENT="" />
    <EXPORT ORDINAL="1685" NAME="?getBytes@CollationKey@icu_53@@AEBAPEBEXZ" PURGE="0" COMMENT="" />
    <EXPORT ORDINAL="1686" NAME="?getCE32@CollationData@icu_53@@QEBAIH@Z" PURGE="0" COMMENT="" />
    <EXPORT ORDINAL="1687" NAME="?getCE32FromBuilderData@CollationIterator@icu_53@@MEAAIIAEAW4UErrorCode@@@Z" PURGE="0" COMMENT="" />
    <EXPORT ORDINAL="1688" NAME="?getCE32FromOffsetCE32@CollationDataBuilder@icu_53@@IEBAICHI@Z" PURGE="0" COMMENT="" />
    <EXPORT ORDINAL="1689" NAME="?getCE32FromPrefix@CollationIterator@icu_53@@AEAAIPEBUCollationData@2@IAEAW4UErrorCode@@@Z" PURGE="0" COMMENT="" />
    <EXPORT ORDINAL="1690" NAME="?getCE32FromSupplementary@CollationData@icu_53@@QEBAIH@Z" PURGE="0" COMMENT="" />
    <EXPORT ORDINAL="1691" NAME="?getCE@CollationIterator@icu_53@@QEBA_JH@Z" PURGE="0" COMMENT="" />
    <EXPORT ORDINAL="1692" NAME="?getCEFromOffsetCE32@CollationData@icu_53@@QEBA_JHI@Z" PURGE="0" COMMENT="" />
    <EXPORT ORDINAL="1693" NAME="?getCEs@CollationDataBuilder@icu_53@@IEAAHAEBVUnicodeString@2@HQEA_JH@Z" PURGE="0" COMMENT="" />
    <EXPORT ORDINAL="1694" NAME="?getCEs@CollationDataBuilder@icu_53@@QEAAHAEBVUnicodeString@2@0QEA_JH@Z" PURGE="0" COMMENT="" />
    <EXPORT ORDINAL="1695" NAME="?getCEs@CollationDataBuilder@icu_53@@QEAAHAEBVUnicodeString@2@QEA_JH@Z" PURGE="0" COMMENT="" />
    <EXPORT ORDINAL="1696" NAME="?getCEs@CollationFastLatinBuilder@icu_53@@AEAAXAEBUCollationData@2@AEAW4UErrorCode@@@Z" PURGE="0" COMMENT="" />
    <EXPORT ORDINAL="1697" NAME="?getCEs@CollationIterator@icu_53@@QEBAPEB_JXZ" PURGE="0" COMMENT="" />
    <EXPORT ORDINAL="1698" NAME="?getCEsFromCE32@CollationFastLatinBuilder@icu_53@@AEAACAEBUCollationData@2@HIAEAW4UErrorCode@@@Z" PURGE="0" COMMENT="" />
    <EXPORT ORDINAL="1699" NAME="?getCEsFromContractionCE32@CollationFastLatinBuilder@icu_53@@AEAACAEBUCollationData@2@IAEAW4UErrorCode@@@Z" PURGE="0" COMMENT="" />
    <EXPORT ORDINAL="1700" NAME="?getCEsLength@CollationIterator@icu_53@@QEBAHXZ" PURGE="0" COMMENT="" />
    <EXPORT ORDINAL="1701" NAME="?getCachedFormatter@MessageFormat@icu_53@@AEBAPEAVFormat@2@H@Z" PURGE="0" COMMENT="" />
    <EXPORT ORDINAL="1702" NAME="?getCalendar@DateFormat@icu_53@@UEBAPEBVCalendar@2@XZ" PURGE="0" COMMENT="" />
    <EXPORT ORDINAL="1703" NAME="?getCanonicalCLDRID@ZoneMeta@icu_53@@SAAEAVUnicodeString@2@AEBV32@AEAV32@AEAW4UErrorCode@@@Z" PURGE="0" COMMENT="" />
    <EXPORT ORDINAL="1704" NAME="?getCanonicalCLDRID@ZoneMeta@icu_53@@SAPEB_WAEBVTimeZone@2@@Z" PURGE="0" COMMENT="" />
    <EXPORT ORDINAL="1705" NAME="?getCanonicalCLDRID@ZoneMeta@icu_53@@SAPEB_WAEBVUnicodeString@2@AEAW4UErrorCode@@@Z" PURGE="0" COMMENT="" />
    <EXPORT ORDINAL="1706" NAME="?getCanonicalCountry@ZoneMeta@icu_53@@SAAEAVUnicodeString@2@AEBV32@AEAV32@PEAC@Z" PURGE="0" COMMENT="" />
    <EXPORT ORDINAL="1707" NAME="?getCanonicalID@OlsonTimeZone@icu_53@@QEBAPEB_WXZ" PURGE="0" COMMENT="" />
    <EXPORT ORDINAL="1708" NAME="?getCanonicalID@TimeZone@icu_53@@SAAEAVUnicodeString@2@AEBV32@AEAV32@AEACAEAW4UErrorCode@@@Z" PURGE="0" COMMENT="" />
    <EXPORT ORDINAL="1709" NAME="?getCanonicalID@TimeZone@icu_53@@SAAEAVUnicodeString@2@AEBV32@AEAV32@AEAW4UErrorCode@@@Z" PURGE="0" COMMENT="" />
    <EXPORT ORDINAL="1710" NAME="?getCapacity@?$MaybeStackHeaderAndArray@UdecNumber@@D$0CI@@icu_53@@QEBAHXZ" PURGE="0" COMMENT="" />
    <EXPORT ORDINAL="1711" NAME="?getCapacity@CollationKey@icu_53@@AEBAHXZ" PURGE="0" COMMENT="" />
    <EXPORT ORDINAL="1712" NAME="?getCaseFirst@CollationSettings@icu_53@@QEBA?AW4UColAttributeValue@@XZ" PURGE="0" COMMENT="" />
    <EXPORT ORDINAL="1713" NAME="?getCases@CollationFastLatin@icu_53@@CAIICI@Z" PURGE="0" COMMENT="" />
    <EXPORT ORDINAL="1714" NAME="?getCharIndex@CollationFastLatin@icu_53@@SAH_W@Z" PURGE="0" COMMENT="" />
    <EXPORT ORDINAL="1715" NAME="?getChildNode@TextTrieMap@icu_53@@AEBAPEAUCharacterNode@2@PEAU32@_W@Z" PURGE="0" COMMENT="" />
    <EXPORT ORDINAL="1716" NAME="?getChineseCalZoneAstroCalc@ChineseCalendar@icu_53@@AEBAPEBVTimeZone@2@XZ" PURGE="0" COMMENT="" />
    <EXPORT ORDINAL="1717" NAME="?getClosures@ChoiceFormat@icu_53@@UEBAPEBCAEAH@Z" PURGE="0" COMMENT="" />
    <EXPORT ORDINAL="1718" NAME="?getCollationKey@RuleBasedCollator@icu_53@@UEBAAEAVCollationKey@2@AEBVUnicodeString@2@AEAV32@AEAW4UErrorCode@@@Z" PURGE="0" COMMENT="" />
    <EXPORT ORDINAL="1719" NAME="?getCollationKey@RuleBasedCollator@icu_53@@UEBAAEAVCollationKey@2@PEB_WHAEAV32@AEAW4UErrorCode@@@Z" PURGE="0" COMMENT="" />
    <EXPORT ORDINAL="1720" NAME="?getCollator@AlphabeticIndex@icu_53@@UEBAAEBVRuleBasedCollator@2@XZ" PURGE="0" COMMENT="" />
    <EXPORT ORDINAL="1721" NAME="?getCollator@RuleBasedNumberFormat@icu_53@@AEBAPEBVRuleBasedCollator@2@XZ" PURGE="0" COMMENT="" />
    <EXPORT ORDINAL="1722" NAME="?getCollator@StringSearch@icu_53@@QEBAPEAVRuleBasedCollator@2@XZ" PURGE="0" COMMENT="" />
    <EXPORT ORDINAL="1723" NAME="?getCommonAmongAlternates@IdentifierInfo@icu_53@@QEBAPEBVScriptSet@2@XZ" PURGE="0" COMMENT="" />
    <EXPORT ORDINAL="1724" NAME="?getConditionalCE32@CollationDataBuilder@icu_53@@IEBAPEAUConditionalCE32@2@H@Z" PURGE="0" COMMENT="" />
    <EXPORT ORDINAL="1725" NAME="?getConditionalCE32ForCE32@CollationDataBuilder@icu_53@@IEBAPEAUConditionalCE32@2@I@Z" PURGE="0" COMMENT="" />
    <EXPORT ORDINAL="1726" NAME="?getConstSymbol@DecimalFormat@icu_53@@AEBAAEBVUnicodeString@2@W4ENumberFormatSymbol@DecimalFormatSymbols@2@@Z" PURGE="0" COMMENT="" />
    <EXPORT ORDINAL="1727" NAME="?getConstSymbol@DecimalFormatSymbols@icu_53@@QEBAAEBVUnicodeString@2@W4ENumberFormatSymbol@12@@Z" PURGE="0" COMMENT="" />
    <EXPORT ORDINAL="1728" NAME="?getContainedRegions@Region@icu_53@@QEBAPEAVStringEnumeration@2@W4URegionType@@@Z" PURGE="0" COMMENT="" />
    <EXPORT ORDINAL="1729" NAME="?getContainedRegions@Region@icu_53@@QEBAPEAVStringEnumeration@2@XZ" PURGE="0" COMMENT="" />
    <EXPORT ORDINAL="1730" NAME="?getContainingRegion@Region@icu_53@@QEBAPEBV12@W4URegionType@@@Z" PURGE="0" COMMENT="" />
    <EXPORT ORDINAL="1731" NAME="?getContainingRegion@Region@icu_53@@QEBAPEBV12@XZ" PURGE="0" COMMENT="" />
    <EXPORT ORDINAL="1732" NAME="?getContext@DateFormat@icu_53@@UEBA?AW4UDisplayContext@@W4UDisplayContextType@@AEAW4UErrorCode@@@Z" PURGE="0" COMMENT="" />
    <EXPORT ORDINAL="1733" NAME="?getContext@NumberFormat@icu_53@@UEBA?AW4UDisplayContext@@W4UDisplayContextType@@AEAW4UErrorCode@@@Z" PURGE="0" COMMENT="" />
    <EXPORT ORDINAL="1734" NAME="?getCount@CompoundTransliterator@icu_53@@UEBAHXZ" PURGE="0" COMMENT="" />
    <EXPORT ORDINAL="1735" NAME="?getCount@DigitList@icu_53@@QEBAHXZ" PURGE="0" COMMENT="" />
    <EXPORT ORDINAL="1736" NAME="?getCurrency@CurrencyAmount@icu_53@@QEBAAEBVCurrencyUnit@2@XZ" PURGE="0" COMMENT="" />
    <EXPORT ORDINAL="1737" NAME="?getCurrency@NumberFormat@icu_53@@QEBAPEB_WXZ" PURGE="0" COMMENT="" />
    <EXPORT ORDINAL="1738" NAME="?getCurrencyPattern@DecimalFormatSymbols@icu_53@@QEBAPEB_WXZ" PURGE="0" COMMENT="" />
    <EXPORT ORDINAL="1739" NAME="?getCurrencyPluralInfo@DecimalFormat@icu_53@@UEBAPEBVCurrencyPluralInfo@2@XZ" PURGE="0" COMMENT="" />
    <EXPORT ORDINAL="1740" NAME="?getCurrencyPluralPattern@CurrencyPluralInfo@icu_53@@QEBAAEAVUnicodeString@2@AEBV32@AEAV32@@Z" PURGE="0" COMMENT="" />
    <EXPORT ORDINAL="1741" NAME="?getCurrentEra@JapaneseCalendar@icu_53@@SAIXZ" PURGE="0" COMMENT="" />
    <EXPORT ORDINAL="1742" NAME="?getCustomID@TimeZone@icu_53@@CAAEAVUnicodeString@2@AEBV32@AEAV32@AEAW4UErrorCode@@@Z" PURGE="0" COMMENT="" />
    <EXPORT ORDINAL="1743" NAME="?getDSTSavings@OlsonTimeZone@icu_53@@UEBAHXZ" PURGE="0" COMMENT="" />
    <EXPORT ORDINAL="1744" NAME="?getDSTSavings@SimpleTimeZone@icu_53@@UEBAHXZ" PURGE="0" COMMENT="" />
    <EXPORT ORDINAL="1745" NAME="?getDSTSavings@TimeZone@icu_53@@UEBAHXZ" PURGE="0" COMMENT="" />
    <EXPORT ORDINAL="1746" NAME="?getDSTSavings@TimeZoneRule@icu_53@@QEBAHXZ" PURGE="0" COMMENT="" />
    <EXPORT ORDINAL="1747" NAME="?getData@CollationRoot@icu_53@@SAPEBUCollationData@2@AEAW4UErrorCode@@@Z" PURGE="0" COMMENT="" />
    <EXPORT ORDINAL="1748" NAME="?getDataCE32@CollationIterator@icu_53@@MEBAIH@Z" PURGE="0" COMMENT="" />
    <EXPORT ORDINAL="1749" NAME="?getDate@Formattable@icu_53@@QEBANAEAW4UErrorCode@@@Z" PURGE="0" COMMENT="" />
    <EXPORT ORDINAL="1750" NAME="?getDate@Formattable@icu_53@@QEBANXZ" PURGE="0" COMMENT="" />
    <EXPORT ORDINAL="1751" NAME="?getDateFormat@DateIntervalFormat@icu_53@@QEBAPEBVDateFormat@2@XZ" PURGE="0" COMMENT="" />
    <EXPORT ORDINAL="1752" NAME="?getDateFormatSymbols@SimpleDateFormat@icu_53@@UEBAPEBVDateFormatSymbols@2@XZ" PURGE="0" COMMENT="" />
    <EXPORT ORDINAL="1753" NAME="?getDateIntervalInfo@DateIntervalFormat@icu_53@@QEBAPEBVDateIntervalInfo@2@XZ" PURGE="0" COMMENT="" />
    <EXPORT ORDINAL="1754" NAME="?getDateRuleType@DateTimeRule@icu_53@@QEBA?AW4DateRuleType@12@XZ" PURGE="0" COMMENT="" />
    <EXPORT ORDINAL="1755" NAME="?getDateTimeFormat@DateTimePatternGenerator@icu_53@@QEBAAEBVUnicodeString@2@XZ" PURGE="0" COMMENT="" />
    <EXPORT ORDINAL="1756" NAME="?getDateTimeSkeleton@DateIntervalFormat@icu_53@@CAXAEBVUnicodeString@2@AEAV32@111@Z" PURGE="0" COMMENT="" />
    <EXPORT ORDINAL="1757" NAME="?getDayOfWeekType@Calendar@icu_53@@UEBA?AW4UCalendarWeekdayType@@W4UCalendarDaysOfWeek@@AEAW4UErrorCode@@@Z" PURGE="0" COMMENT="" />
    <EXPORT ORDINAL="1758" NAME="?getDecimal@DateTimePatternGenerator@icu_53@@QEBAAEBVUnicodeString@2@XZ" PURGE="0" COMMENT="" />
    <EXPORT ORDINAL="1759" NAME="?getDecimal@DigitList@icu_53@@QEAAXAEAVCharString@2@AEAW4UErrorCode@@@Z" PURGE="0" COMMENT="" />
    <EXPORT ORDINAL="1760" NAME="?getDecimalAt@DigitList@icu_53@@QEAAHXZ" PURGE="0" COMMENT="" />
    <EXPORT ORDINAL="1761" NAME="?getDecimalFormatSymbols@DecimalFormat@icu_53@@UEBAPEBVDecimalFormatSymbols@2@XZ" PURGE="0" COMMENT="" />
    <EXPORT ORDINAL="1762" NAME="?getDecimalFormatSymbols@RuleBasedNumberFormat@icu_53@@AEBAPEAVDecimalFormatSymbols@2@XZ" PURGE="0" COMMENT="" />
    <EXPORT ORDINAL="1763" NAME="?getDecimalNumber@Formattable@icu_53@@QEAA?AVStringPiece@2@AEAW4UErrorCode@@@Z" PURGE="0" COMMENT="" />
    <EXPORT ORDINAL="1764" NAME="?getDefaultDateFormat@MessageFormat@icu_53@@AEBAPEBVDateFormat@2@AEAW4UErrorCode@@@Z" PURGE="0" COMMENT="" />
    <EXPORT ORDINAL="1765" NAME="?getDefaultDayInMonth@Calendar@icu_53@@MEAAHHH@Z" PURGE="0" COMMENT="" />
    <EXPORT ORDINAL="1766" NAME="?getDefaultMonthInYear@Calendar@icu_53@@MEAAHH@Z" PURGE="0" COMMENT="" />
    <EXPORT ORDINAL="1767" NAME="?getDefaultNumberFormat@MessageFormat@icu_53@@AEBAPEBVNumberFormat@2@AEAW4UErrorCode@@@Z" PURGE="0" COMMENT="" />
    <EXPORT ORDINAL="1768" NAME="?getDefaultOrder@DateIntervalInfo@icu_53@@QEBACXZ" PURGE="0" COMMENT="" />
    <EXPORT ORDINAL="1769" NAME="?getDefaultParseOptions@TimeZoneFormat@icu_53@@QEBAIXZ" PURGE="0" COMMENT="" />
    <EXPORT ORDINAL="1770" NAME="?getDefaultRuleSet@RuleBasedNumberFormat@icu_53@@AEBAPEAVNFRuleSet@2@XZ" PURGE="0" COMMENT="" />
    <EXPORT ORDINAL="1771" NAME="?getDefaultRuleSetName@RuleBasedNumberFormat@icu_53@@UEBA?AVUnicodeString@2@XZ" PURGE="0" COMMENT="" />
    <EXPORT ORDINAL="1772" NAME="?getDefaultSettings@RuleBasedCollator@icu_53@@AEBAAEBUCollationSettings@2@XZ" PURGE="0" COMMENT="" />
    <EXPORT ORDINAL="1773" NAME="?getDescription@NumberingSystem@icu_53@@UEBA?AVUnicodeString@2@XZ" PURGE="0" COMMENT="" />
    <EXPORT ORDINAL="1774" NAME="?getDigit@DigitList@icu_53@@QEAADH@Z" PURGE="0" COMMENT="" />
    <EXPORT ORDINAL="1775" NAME="?getDigitList@Formattable@icu_53@@QEBAPEAVDigitList@2@XZ" PURGE="0" COMMENT="" />
    <EXPORT ORDINAL="1776" NAME="?getDigitValue@DigitList@icu_53@@QEAAEH@Z" PURGE="0" COMMENT="" />
    <EXPORT ORDINAL="1777" NAME="?getDisplayName@Collator@icu_53@@SAAEAVUnicodeString@2@AEBVLocale@2@0AEAV32@@Z" PURGE="0" COMMENT="" />
    <EXPORT ORDINAL="1778" NAME="?getDisplayName@Collator@icu_53@@SAAEAVUnicodeString@2@AEBVLocale@2@AEAV32@@Z" PURGE="0" COMMENT="" />
    <EXPORT ORDINAL="1779" NAME="?getDisplayName@CollatorFactory@icu_53@@UEAAAEAVUnicodeString@2@AEBVLocale@2@0AEAV32@@Z" PURGE="0" COMMENT="" />
    <EXPORT ORDINAL="1780" NAME="?getDisplayName@TimeZone@icu_53@@QEBAAEAVUnicodeString@2@AEAV32@@Z" PURGE="0" COMMENT="" />
    <EXPORT ORDINAL="1781" NAME="?getDisplayName@TimeZone@icu_53@@QEBAAEAVUnicodeString@2@AEBVLocale@2@AEAV32@@Z" PURGE="0" COMMENT="" />
    <EXPORT ORDINAL="1782" NAME="?getDisplayName@TimeZone@icu_53@@QEBAAEAVUnicodeString@2@CW4EDisplayType@12@AEAV32@@Z" PURGE="0" COMMENT="" />
    <EXPORT ORDINAL="1783" NAME="?getDisplayName@TimeZone@icu_53@@QEBAAEAVUnicodeString@2@CW4EDisplayType@12@AEBVLocale@2@AEAV32@@Z" PURGE="0" COMMENT="" />
    <EXPORT ORDINAL="1784" NAME="?getDisplayName@TimeZoneGenericNames@icu_53@@QEBAAEAVUnicodeString@2@AEBVTimeZone@2@W4UTimeZoneGenericNameType@@NAEAV32@@Z" PURGE="0" COMMENT="" />
    <EXPORT ORDINAL="1785" NAME="?getDisplayName@TimeZoneNames@icu_53@@UEBAAEAVUnicodeString@2@AEBV32@W4UTimeZoneNameType@@NAEAV32@@Z" PURGE="0" COMMENT="" />
    <EXPORT ORDINAL="1786" NAME="?getDisplayName@Transliterator@icu_53@@SAAEAVUnicodeString@2@AEBV32@AEAV32@@Z" PURGE="0" COMMENT="" />
    <EXPORT ORDINAL="1787" NAME="?getDisplayName@Transliterator@icu_53@@SAAEAVUnicodeString@2@AEBV32@AEBVLocale@2@AEAV32@@Z" PURGE="0" COMMENT="" />
    <EXPORT ORDINAL="1788" NAME="?getDouble@DigitList@icu_53@@QEBANXZ" PURGE="0" COMMENT="" />
    <EXPORT ORDINAL="1789" NAME="?getDouble@Formattable@icu_53@@QEBANAEAW4UErrorCode@@@Z" PURGE="0" COMMENT="" />
    <EXPORT ORDINAL="1790" NAME="?getDouble@Formattable@icu_53@@QEBANXZ" PURGE="0" COMMENT="" />
    <EXPORT ORDINAL="1791" NAME="?getDynamicClassID@AnnualTimeZoneRule@icu_53@@UEBAPEAXXZ" PURGE="0" COMMENT="" />
    <EXPORT ORDINAL="1792" NAME="?getDynamicClassID@ChineseCalendar@icu_53@@UEBAPEAXXZ" PURGE="0" COMMENT="" />
    <EXPORT ORDINAL="1793" NAME="?getDynamicClassID@ChoiceFormat@icu_53@@UEBAPEAXXZ" PURGE="0" COMMENT="" />
    <EXPORT ORDINAL="1794" NAME="?getDynamicClassID@CollationElementIterator@icu_53@@UEBAPEAXXZ" PURGE="0" COMMENT="" />
    <EXPORT ORDINAL="1795" NAME="?getDynamicClassID@CollationKey@icu_53@@UEBAPEAXXZ" PURGE="0" COMMENT="" />
    <EXPORT ORDINAL="1796" NAME="?getDynamicClassID@CompactDecimalFormat@icu_53@@UEBAPEAXXZ" PURGE="0" COMMENT="" />
    <EXPORT ORDINAL="1797" NAME="?getDynamicClassID@CompoundTransliterator@icu_53@@UEBAPEAXXZ" PURGE="0" COMMENT="" />
    <EXPORT ORDINAL="1798" NAME="?getDynamicClassID@CurrencyAmount@icu_53@@UEBAPEAXXZ" PURGE="0" COMMENT="" />
    <EXPORT ORDINAL="1799" NAME="?getDynamicClassID@CurrencyPluralInfo@icu_53@@UEBAPEAXXZ" PURGE="0" COMMENT="" />
    <EXPORT ORDINAL="1800" NAME="?getDynamicClassID@CurrencyUnit@icu_53@@UEBAPEAXXZ" PURGE="0" COMMENT="" />
    <EXPORT ORDINAL="1801" NAME="?getDynamicClassID@DateFormatSymbols@icu_53@@UEBAPEAXXZ" PURGE="0" COMMENT="" />
    <EXPORT ORDINAL="1802" NAME="?getDynamicClassID@DateIntervalFormat@icu_53@@UEBAPEAXXZ" PURGE="0" COMMENT="" />
    <EXPORT ORDINAL="1803" NAME="?getDynamicClassID@DateIntervalInfo@icu_53@@UEBAPEAXXZ" PURGE="0" COMMENT="" />
    <EXPORT ORDINAL="1804" NAME="?getDynamicClassID@DateTimePatternGenerator@icu_53@@UEBAPEAXXZ" PURGE="0" COMMENT="" />
    <EXPORT ORDINAL="1805" NAME="?getDynamicClassID@DateTimeRule@icu_53@@UEBAPEAXXZ" PURGE="0" COMMENT="" />
    <EXPORT ORDINAL="1806" NAME="?getDynamicClassID@DecimalFormat@icu_53@@UEBAPEAXXZ" PURGE="0" COMMENT="" />
    <EXPORT ORDINAL="1807" NAME="?getDynamicClassID@DecimalFormatSymbols@icu_53@@UEBAPEAXXZ" PURGE="0" COMMENT="" />
    <EXPORT ORDINAL="1808" NAME="?getDynamicClassID@FieldPosition@icu_53@@UEBAPEAXXZ" PURGE="0" COMMENT="" />
    <EXPORT ORDINAL="1809" NAME="?getDynamicClassID@Formattable@icu_53@@UEBAPEAXXZ" PURGE="0" COMMENT="" />
    <EXPORT ORDINAL="1810" NAME="?getDynamicClassID@GregorianCalendar@icu_53@@UEBAPEAXXZ" PURGE="0" COMMENT="" />
    <EXPORT ORDINAL="1811" NAME="?getDynamicClassID@HebrewCalendar@icu_53@@UEBAPEAXXZ" PURGE="0" COMMENT="" />
    <EXPORT ORDINAL="1812" NAME="?getDynamicClassID@InitialTimeZoneRule@icu_53@@UEBAPEAXXZ" PURGE="0" COMMENT="" />
    <EXPORT ORDINAL="1813" NAME="?getDynamicClassID@IslamicCalendar@icu_53@@UEBAPEAXXZ" PURGE="0" COMMENT="" />
    <EXPORT ORDINAL="1814" NAME="?getDynamicClassID@Measure@icu_53@@UEBAPEAXXZ" PURGE="0" COMMENT="" />
    <EXPORT ORDINAL="1815" NAME="?getDynamicClassID@MeasureFormat@icu_53@@UEBAPEAXXZ" PURGE="0" COMMENT="" />
    <EXPORT ORDINAL="1816" NAME="?getDynamicClassID@MeasureUnit@icu_53@@UEBAPEAXXZ" PURGE="0" COMMENT="" />
    <EXPORT ORDINAL="1817" NAME="?getDynamicClassID@MessageFormat@icu_53@@UEBAPEAXXZ" PURGE="0" COMMENT="" />
    <EXPORT ORDINAL="1818" NAME="?getDynamicClassID@NumberingSystem@icu_53@@UEBAPEAXXZ" PURGE="0" COMMENT="" />
    <EXPORT ORDINAL="1819" NAME="?getDynamicClassID@OlsonTimeZone@icu_53@@UEBAPEAXXZ" PURGE="0" COMMENT="" />
    <EXPORT ORDINAL="1820" NAME="?getDynamicClassID@PluralFormat@icu_53@@UEBAPEAXXZ" PURGE="0" COMMENT="" />
    <EXPORT ORDINAL="1821" NAME="?getDynamicClassID@PluralRules@icu_53@@UEBAPEAXXZ" PURGE="0" COMMENT="" />
    <EXPORT ORDINAL="1822" NAME="?getDynamicClassID@RegexMatcher@icu_53@@UEBAPEAXXZ" PURGE="0" COMMENT="" />
    <EXPORT ORDINAL="1823" NAME="?getDynamicClassID@RegexPattern@icu_53@@UEBAPEAXXZ" PURGE="0" COMMENT="" />
    <EXPORT ORDINAL="1824" NAME="?getDynamicClassID@RuleBasedCollator@icu_53@@UEBAPEAXXZ" PURGE="0" COMMENT="" />
    <EXPORT ORDINAL="1825" NAME="?getDynamicClassID@RuleBasedNumberFormat@icu_53@@UEBAPEAXXZ" PURGE="0" COMMENT="" />
    <EXPORT ORDINAL="1826" NAME="?getDynamicClassID@RuleBasedTimeZone@icu_53@@UEBAPEAXXZ" PURGE="0" COMMENT="" />
    <EXPORT ORDINAL="1827" NAME="?getDynamicClassID@SelectFormat@icu_53@@UEBAPEAXXZ" PURGE="0" COMMENT="" />
    <EXPORT ORDINAL="1828" NAME="?getDynamicClassID@SimpleDateFormat@icu_53@@UEBAPEAXXZ" PURGE="0" COMMENT="" />
    <EXPORT ORDINAL="1829" NAME="?getDynamicClassID@SimpleTimeZone@icu_53@@UEBAPEAXXZ" PURGE="0" COMMENT="" />
    <EXPORT ORDINAL="1830" NAME="?getDynamicClassID@StringSearch@icu_53@@UEBAPEAXXZ" PURGE="0" COMMENT="" />
    <EXPORT ORDINAL="1831" NAME="?getDynamicClassID@TimeArrayTimeZoneRule@icu_53@@UEBAPEAXXZ" PURGE="0" COMMENT="" />
    <EXPORT ORDINAL="1832" NAME="?getDynamicClassID@TimeUnit@icu_53@@UEBAPEAXXZ" PURGE="0" COMMENT="" />
    <EXPORT ORDINAL="1833" NAME="?getDynamicClassID@TimeUnitAmount@icu_53@@UEBAPEAXXZ" PURGE="0" COMMENT="" />
    <EXPORT ORDINAL="1834" NAME="?getDynamicClassID@TimeUnitFormat@icu_53@@UEBAPEAXXZ" PURGE="0" COMMENT="" />
    <EXPORT ORDINAL="1835" NAME="?getDynamicClassID@TimeZoneFormat@icu_53@@UEBAPEAXXZ" PURGE="0" COMMENT="" />
    <EXPORT ORDINAL="1836" NAME="?getDynamicClassID@TimeZoneTransition@icu_53@@UEBAPEAXXZ" PURGE="0" COMMENT="" />
    <EXPORT ORDINAL="1837" NAME="?getDynamicClassID@VTimeZone@icu_53@@UEBAPEAXXZ" PURGE="0" COMMENT="" />
    <EXPORT ORDINAL="1838" NAME="?getEffectiveCurrency@DecimalFormat@icu_53@@MEBAXPEA_WAEAW4UErrorCode@@@Z" PURGE="0" COMMENT="" />
    <EXPORT ORDINAL="1839" NAME="?getEffectiveCurrency@NumberFormat@icu_53@@MEBAXPEA_WAEAW4UErrorCode@@@Z" PURGE="0" COMMENT="" />
    <EXPORT ORDINAL="1840" NAME="?getElement@Transliterator@icu_53@@QEBAAEBV12@HAEAW4UErrorCode@@@Z" PURGE="0" COMMENT="" />
    <EXPORT ORDINAL="1841" NAME="?getEndIndex@FieldPosition@icu_53@@QEBAHXZ" PURGE="0" COMMENT="" />
    <EXPORT ORDINAL="1842" NAME="?getEndYear@AnnualTimeZoneRule@icu_53@@QEBAHXZ" PURGE="0" COMMENT="" />
    <EXPORT ORDINAL="1843" NAME="?getEpochDay@GregorianCalendar@icu_53@@MEAANAEAW4UErrorCode@@@Z" PURGE="0" COMMENT="" />
    <EXPORT ORDINAL="1844" NAME="?getEquivalentID@TimeZone@icu_53@@SA?BVUnicodeString@2@AEBV32@H@Z" PURGE="0" COMMENT="" />
    <EXPORT ORDINAL="1845" NAME="?getEquivalentReorderCodes@Collator@icu_53@@SAHHPEAHHAEAW4UErrorCode@@@Z" PURGE="0" COMMENT="" />
    <EXPORT ORDINAL="1846" NAME="?getEquivalentScripts@CollationData@icu_53@@QEBAHHQEAHHAEAW4UErrorCode@@@Z" PURGE="0" COMMENT="" />
    <EXPORT ORDINAL="1847" NAME="?getEraNames@DateFormatSymbols@icu_53@@QEBAPEBVUnicodeString@2@AEAH@Z" PURGE="0" COMMENT="" />
    <EXPORT ORDINAL="1848" NAME="?getEras@DateFormatSymbols@icu_53@@QEBAPEBVUnicodeString@2@AEAH@Z" PURGE="0" COMMENT="" />
    <EXPORT ORDINAL="1849" NAME="?getErrorReason@CollationBuilder@icu_53@@QEBAPEBDXZ" PURGE="0" COMMENT="" />
    <EXPORT ORDINAL="1850" NAME="?getErrorReason@CollationRuleParser@icu_53@@QEBAPEBDXZ" PURGE="0" COMMENT="" />
    <EXPORT ORDINAL="1851" NAME="?getExemplarLocationName@TimeZoneNames@icu_53@@UEBAAEAVUnicodeString@2@AEBV32@AEAV32@@Z" PURGE="0" COMMENT="" />
    <EXPORT ORDINAL="1852" NAME="?getFCD16@CollationData@icu_53@@QEBAGH@Z" PURGE="0" COMMENT="" />
    <EXPORT ORDINAL="1853" NAME="?getFallbackIntervalPattern@DateIntervalInfo@icu_53@@QEBAAEAVUnicodeString@2@AEAV32@@Z" PURGE="0" COMMENT="" />
    <EXPORT ORDINAL="1854" NAME="?getField@FieldPosition@icu_53@@QEBAHXZ" PURGE="0" COMMENT="" />
    <EXPORT ORDINAL="1855" NAME="?getFieldResolutionTable@Calendar@icu_53@@MEBAPEAY1M@7$$CBHXZ" PURGE="0" COMMENT="" />
    <EXPORT ORDINAL="1856" NAME="?getFieldResolutionTable@ChineseCalendar@icu_53@@MEBAPEAY1M@7$$CBHXZ" PURGE="0" COMMENT="" />
    <EXPORT ORDINAL="1857" NAME="?getFilter@Transliterator@icu_53@@QEBAPEBVUnicodeFilter@2@XZ" PURGE="0" COMMENT="" />
    <EXPORT ORDINAL="1858" NAME="?getFinalCE32@CollationData@icu_53@@QEBAII@Z" PURGE="0" COMMENT="" />
    <EXPORT ORDINAL="1859" NAME="?getFinalStart@AnnualTimeZoneRule@icu_53@@UEBACHHAEAN@Z" PURGE="0" COMMENT="" />
    <EXPORT ORDINAL="1860" NAME="?getFinalStart@InitialTimeZoneRule@icu_53@@UEBACHHAEAN@Z" PURGE="0" COMMENT="" />
    <EXPORT ORDINAL="1861" NAME="?getFinalStart@TimeArrayTimeZoneRule@icu_53@@UEBACHHAEAN@Z" PURGE="0" COMMENT="" />
    <EXPORT ORDINAL="1862" NAME="?getFindProgressCallback@RegexMatcher@icu_53@@UEAAXAEAP6ACPEBX_J@ZAEAPEBXAEAW4UErrorCode@@@Z" PURGE="0" COMMENT="" />
    <EXPORT ORDINAL="1863" NAME="?getFirstDayOfWeek@Calendar@icu_53@@QEBA?AW4EDaysOfWeek@12@XZ" PURGE="0" COMMENT="" />
    <EXPORT ORDINAL="1864" NAME="?getFirstDayOfWeek@Calendar@icu_53@@QEBA?AW4UCalendarDaysOfWeek@@AEAW4UErrorCode@@@Z" PURGE="0" COMMENT="" />
    <EXPORT ORDINAL="1865" NAME="?getFirstPrimary@CollationRootElements@icu_53@@QEBAIXZ" PURGE="0" COMMENT="" />
    <EXPORT ORDINAL="1866" NAME="?getFirstPrimaryCE@CollationRootElements@icu_53@@QEBA_JXZ" PURGE="0" COMMENT="" />
    <EXPORT ORDINAL="1867" NAME="?getFirstPrimaryForGroup@CollationData@icu_53@@QEBAIH@Z" PURGE="0" COMMENT="" />
    <EXPORT ORDINAL="1868" NAME="?getFirstSecondaryCE@CollationRootElements@icu_53@@QEBAIXZ" PURGE="0" COMMENT="" />
    <EXPORT ORDINAL="1869" NAME="?getFirstStart@AnnualTimeZoneRule@icu_53@@UEBACHHAEAN@Z" PURGE="0" COMMENT="" />
    <EXPORT ORDINAL="1870" NAME="?getFirstStart@InitialTimeZoneRule@icu_53@@UEBACHHAEAN@Z" PURGE="0" COMMENT="" />
    <EXPORT ORDINAL="1871" NAME="?getFirstStart@TimeArrayTimeZoneRule@icu_53@@UEBACHHAEAN@Z" PURGE="0" COMMENT="" />
    <EXPORT ORDINAL="1872" NAME="?getFirstTertiaryCE@CollationRootElements@icu_53@@QEBAIXZ" PURGE="0" COMMENT="" />
    <EXPORT ORDINAL="1873" NAME="?getFixedDecimal@DecimalFormat@icu_53@@QEBA?AVFixedDecimal@2@AEAVDigitList@2@AEAW4UErrorCode@@@Z" PURGE="0" COMMENT="" />
    <EXPORT ORDINAL="1874" NAME="?getFixedDecimal@DecimalFormat@icu_53@@QEBA?AVFixedDecimal@2@AEBVFormattable@2@AEAW4UErrorCode@@@Z" PURGE="0" COMMENT="" />
    <EXPORT ORDINAL="1875" NAME="?getFixedDecimal@DecimalFormat@icu_53@@QEBA?AVFixedDecimal@2@NAEAW4UErrorCode@@@Z" PURGE="0" COMMENT="" />
    <EXPORT ORDINAL="1876" NAME="?getFlag@CollationSettings@icu_53@@QEBA?AW4UColAttributeValue@@H@Z" PURGE="0" COMMENT="" />
    <EXPORT ORDINAL="1877" NAME="?getFormat@MessageFormat@icu_53@@UEAAPEAVFormat@2@AEBVUnicodeString@2@AEAW4UErrorCode@@@Z" PURGE="0" COMMENT="" />
    <EXPORT ORDINAL="1878" NAME="?getFormatNames@MessageFormat@icu_53@@UEAAPEAVStringEnumeration@2@AEAW4UErrorCode@@@Z" PURGE="0" COMMENT="" />
    <EXPORT ORDINAL="1879" NAME="?getFormatWidth@DecimalFormat@icu_53@@UEBAHXZ" PURGE="0" COMMENT="" />
    <EXPORT ORDINAL="1880" NAME="?getFormats@ChoiceFormat@icu_53@@UEBAPEBVUnicodeString@2@AEAH@Z" PURGE="0" COMMENT="" />
    <EXPORT ORDINAL="1881" NAME="?getFormats@MessageFormat@icu_53@@UEBAPEAPEBVFormat@2@AEAH@Z" PURGE="0" COMMENT="" />
    <EXPORT ORDINAL="1882" NAME="?getFractionalDigits@FixedDecimal@icu_53@@SA_JNH@Z" PURGE="0" COMMENT="" />
    <EXPORT ORDINAL="1883" NAME="?getFrom@TimeZoneTransition@icu_53@@QEBAPEBVTimeZoneRule@2@XZ" PURGE="0" COMMENT="" />
    <EXPORT ORDINAL="1884" NAME="?getFunctionalEquivalent@Collator@icu_53@@SA?AVLocale@2@PEBDAEBV32@AEACAEAW4UErrorCode@@@Z" PURGE="0" COMMENT="" />
    <EXPORT ORDINAL="1885" NAME="?getGMT@TimeZone@icu_53@@SAPEBV12@XZ" PURGE="0" COMMENT="" />
    <EXPORT ORDINAL="1886" NAME="?getGMTOffsetDigits@TimeZoneFormat@icu_53@@QEBAAEAVUnicodeString@2@AEAV32@@Z" PURGE="0" COMMENT="" />
    <EXPORT ORDINAL="1887" NAME="?getGMTOffsetPattern@TimeZoneFormat@icu_53@@QEBAAEAVUnicodeString@2@W4UTimeZoneFormatGMTOffsetPatternType@@AEAV32@@Z" PURGE="0" COMMENT="" />
    <EXPORT ORDINAL="1888" NAME="?getGMTPattern@TimeZoneFormat@icu_53@@QEBAAEAVUnicodeString@2@AEAV32@@Z" PURGE="0" COMMENT="" />
    <EXPORT ORDINAL="1889" NAME="?getGMTZeroFormat@TimeZoneFormat@icu_53@@QEBAAEAVUnicodeString@2@AEAV32@@Z" PURGE="0" COMMENT="" />
    <EXPORT ORDINAL="1890" NAME="?getGenericLocationName@TimeZoneGenericNames@icu_53@@QEBAAEAVUnicodeString@2@AEBV32@AEAV32@@Z" PURGE="0" COMMENT="" />
    <EXPORT ORDINAL="1891" NAME="?getGreatestMinimum@Calendar@icu_53@@UEBAHW4EDateFields@12@@Z" PURGE="0" COMMENT="" />
    <EXPORT ORDINAL="1892" NAME="?getGreatestMinimum@Calendar@icu_53@@UEBAHW4UCalendarDateFields@@@Z" PURGE="0" COMMENT="" />
    <EXPORT ORDINAL="1893" NAME="?getGreenwichSidereal@CalendarAstronomer@icu_53@@QEAANXZ" PURGE="0" COMMENT="" />
    <EXPORT ORDINAL="1894" NAME="?getGregorianChange@GregorianCalendar@icu_53@@QEBANXZ" PURGE="0" COMMENT="" />
    <EXPORT ORDINAL="1895" NAME="?getGregorianDayOfMonth@Calendar@icu_53@@IEBAHXZ" PURGE="0" COMMENT="" />
    <EXPORT ORDINAL="1896" NAME="?getGregorianDayOfYear@Calendar@icu_53@@IEBAHXZ" PURGE="0" COMMENT="" />
    <EXPORT ORDINAL="1897" NAME="?getGregorianMonth@Calendar@icu_53@@IEBAHXZ" PURGE="0" COMMENT="" />
    <EXPORT ORDINAL="1898" NAME="?getGregorianYear@Calendar@icu_53@@IEBAHXZ" PURGE="0" COMMENT="" />
    <EXPORT ORDINAL="1899" NAME="?getGroupForPrimary@CollationData@icu_53@@QEBAHI@Z" PURGE="0" COMMENT="" />
    <EXPORT ORDINAL="1900" NAME="?getGroupingSize@DecimalFormat@icu_53@@QEBAHXZ" PURGE="0" COMMENT="" />
    <EXPORT ORDINAL="1901" NAME="?getHistoricalOffset@OlsonTimeZone@icu_53@@AEBAXNCHHAEAH0@Z" PURGE="0" COMMENT="" />
    <EXPORT ORDINAL="1902" NAME="?getID@TimeZone@icu_53@@QEBAAEAVUnicodeString@2@AEAV32@@Z" PURGE="0" COMMENT="" />
    <EXPORT ORDINAL="1903" NAME="?getID@Transliterator@icu_53@@UEBAAEBVUnicodeString@2@XZ" PURGE="0" COMMENT="" />
    <EXPORT ORDINAL="1904" NAME="?getIDForWindowsID@TimeZone@icu_53@@SAAEAVUnicodeString@2@AEBV32@PEBDAEAV32@AEAW4UErrorCode@@@Z" PURGE="0" COMMENT="" />
    <EXPORT ORDINAL="1905" NAME="?getISOCurrency@CurrencyAmount@icu_53@@QEBAPEB_WXZ" PURGE="0" COMMENT="" />
    <EXPORT ORDINAL="1906" NAME="?getISOCurrency@CurrencyUnit@icu_53@@QEBAPEB_WXZ" PURGE="0" COMMENT="" />
    <EXPORT ORDINAL="1907" NAME="?getIdentifier@IdentifierInfo@icu_53@@QEBAPEBVUnicodeString@2@XZ" PURGE="0" COMMENT="" />
    <EXPORT ORDINAL="1908" NAME="?getIdentifierProfile@IdentifierInfo@icu_53@@QEBAAEBVUnicodeSet@2@XZ" PURGE="0" COMMENT="" />
    <EXPORT ORDINAL="1909" NAME="?getImmediatePreviousZoneTransition@Calendar@icu_53@@AEBACNPEANAEAW4UErrorCode@@@Z" PURGE="0" COMMENT="" />
    <EXPORT ORDINAL="1910" NAME="?getIndex@MeasureUnit@icu_53@@QEBAHXZ" PURGE="0" COMMENT="" />
    <EXPORT ORDINAL="1911" NAME="?getIndexCount@MeasureUnit@icu_53@@SAHXZ" PURGE="0" COMMENT="" />
    <EXPORT ORDINAL="1912" NAME="?getIndirectCE32@CollationData@icu_53@@QEBAII@Z" PURGE="0" COMMENT="" />
    <EXPORT ORDINAL="1913" NAME="?getInflowLabel@AlphabeticIndex@icu_53@@UEBAAEBVUnicodeString@2@XZ" PURGE="0" COMMENT="" />
    <EXPORT ORDINAL="1914" NAME="?getInput@RegexMatcher@icu_53@@UEBAPEAUUText@@PEAU3@AEAW4UErrorCode@@@Z" PURGE="0" COMMENT="" />
    <EXPORT ORDINAL="1915" NAME="?getInstance@GenderInfo@icu_53@@SAPEBV12@AEBVLocale@2@AEAW4UErrorCode@@@Z" PURGE="0" COMMENT="" />
    <EXPORT ORDINAL="1916" NAME="?getInstance@Region@icu_53@@SAPEBV12@HAEAW4UErrorCode@@@Z" PURGE="0" COMMENT="" />
    <EXPORT ORDINAL="1917" NAME="?getInstance@Region@icu_53@@SAPEBV12@PEBDAEAW4UErrorCode@@@Z" PURGE="0" COMMENT="" />
    <EXPORT ORDINAL="1918" NAME="?getInt64@DigitList@icu_53@@QEAA_JXZ" PURGE="0" COMMENT="" />
    <EXPORT ORDINAL="1919" NAME="?getInt64@Formattable@icu_53@@QEBA_JAEAW4UErrorCode@@@Z" PURGE="0" COMMENT="" />
    <EXPORT ORDINAL="1920" NAME="?getInt64@Formattable@icu_53@@QEBA_JXZ" PURGE="0" COMMENT="" />
    <EXPORT ORDINAL="1921" NAME="?getInternalDigitList@Formattable@icu_53@@QEAAPEAVDigitList@2@XZ" PURGE="0" COMMENT="" />
    <EXPORT ORDINAL="1922" NAME="?getIntervalPattern@DateIntervalInfo@icu_53@@QEBAAEAVUnicodeString@2@AEBV32@W4UCalendarDateFields@@AEAV32@AEAW4UErrorCode@@@Z" PURGE="0" COMMENT="" />
    <EXPORT ORDINAL="1923" NAME="?getJamoCE32s@CollationDataBuilder@icu_53@@IEAACQEAIAEAW4UErrorCode@@@Z" PURGE="0" COMMENT="" />
    <EXPORT ORDINAL="1924" NAME="?getJulianCentury@CalendarAstronomer@icu_53@@QEAANXZ" PURGE="0" COMMENT="" />
    <EXPORT ORDINAL="1925" NAME="?getJulianDay@CalendarAstronomer@icu_53@@QEAANXZ" PURGE="0" COMMENT="" />
    <EXPORT ORDINAL="1926" NAME="?getKeywordOther@PluralRules@icu_53@@QEBA?AVUnicodeString@2@XZ" PURGE="0" COMMENT="" />
    <EXPORT ORDINAL="1927" NAME="?getKeywordValues@Collator@icu_53@@SAPEAVStringEnumeration@2@PEBDAEAW4UErrorCode@@@Z" PURGE="0" COMMENT="" />
    <EXPORT ORDINAL="1928" NAME="?getKeywordValuesForLocale@Calendar@icu_53@@SAPEAVStringEnumeration@2@PEBDAEBVLocale@2@CAEAW4UErrorCode@@@Z" PURGE="0" COMMENT="" />
    <EXPORT ORDINAL="1929" NAME="?getKeywordValuesForLocale@Collator@icu_53@@SAPEAVStringEnumeration@2@PEBDAEBVLocale@2@CAEAW4UErrorCode@@@Z" PURGE="0" COMMENT="" />
    <EXPORT ORDINAL="1930" NAME="?getKeywords@Collator@icu_53@@SAPEAVStringEnumeration@2@AEAW4UErrorCode@@@Z" PURGE="0" COMMENT="" />
    <EXPORT ORDINAL="1931" NAME="?getKeywords@PluralRules@icu_53@@QEBAPEAVStringEnumeration@2@AEAW4UErrorCode@@@Z" PURGE="0" COMMENT="" />
    <EXPORT ORDINAL="1932" NAME="?getLabel@Bucket@AlphabeticIndex@icu_53@@QEBAAEBVUnicodeString@3@XZ" PURGE="0" COMMENT="" />
    <EXPORT ORDINAL="1933" NAME="?getLabelType@Bucket@AlphabeticIndex@icu_53@@QEBA?AW4UAlphabeticIndexLabelType@@XZ" PURGE="0" COMMENT="" />
    <EXPORT ORDINAL="1934" NAME="?getLastCommonSecondary@CollationRootElements@icu_53@@QEBAIXZ" PURGE="0" COMMENT="" />
    <EXPORT ORDINAL="1935" NAME="?getLastModified@VTimeZone@icu_53@@QEBACAEAN@Z" PURGE="0" COMMENT="" />
    <EXPORT ORDINAL="1936" NAME="?getLastPrimaryForGroup@CollationData@icu_53@@QEBAIH@Z" PURGE="0" COMMENT="" />
    <EXPORT ORDINAL="1937" NAME="?getLastSecondaryCE@CollationRootElements@icu_53@@QEBAIXZ" PURGE="0" COMMENT="" />
    <EXPORT ORDINAL="1938" NAME="?getLastTertiaryCE@CollationRootElements@icu_53@@QEBAIXZ" PURGE="0" COMMENT="" />
    <EXPORT ORDINAL="1939" NAME="?getLeapMonthPatterns@DateFormatSymbols@icu_53@@QEBAPEBVUnicodeString@2@AEAH@Z" PURGE="0" COMMENT="" />
    <EXPORT ORDINAL="1940" NAME="?getLeastMaximum@Calendar@icu_53@@UEBAHW4EDateFields@12@@Z" PURGE="0" COMMENT="" />
    <EXPORT ORDINAL="1941" NAME="?getLeastMaximum@Calendar@icu_53@@UEBAHW4UCalendarDateFields@@@Z" PURGE="0" COMMENT="" />
    <EXPORT ORDINAL="1942" NAME="?getLength@CollationKey@icu_53@@AEBAHXZ" PURGE="0" COMMENT="" />
    <EXPORT ORDINAL="1943" NAME="?getLimit@Calendar@icu_53@@MEBAHW4UCalendarDateFields@@W4ELimitType@12@@Z" PURGE="0" COMMENT="" />
    <EXPORT ORDINAL="1944" NAME="?getLimits@ChoiceFormat@icu_53@@UEBAPEBNAEAH@Z" PURGE="0" COMMENT="" />
    <EXPORT ORDINAL="1945" NAME="?getListGender@GenderInfo@icu_53@@QEBA?AW4UGender@@PEBW43@HAEAW4UErrorCode@@@Z" PURGE="0" COMMENT="" />
    <EXPORT ORDINAL="1946" NAME="?getLiteralStringUntilNextArgument@MessageFormat@icu_53@@AEBA?AVUnicodeString@2@H@Z" PURGE="0" COMMENT="" />
    <EXPORT ORDINAL="1947" NAME="?getLocalDOW@Calendar@icu_53@@IEAAHXZ" PURGE="0" COMMENT="" />
    <EXPORT ORDINAL="1948" NAME="?getLocalDelta@RuleBasedTimeZone@icu_53@@AEBAHHHHHHH@Z" PURGE="0" COMMENT="" />
    <EXPORT ORDINAL="1949" NAME="?getLocalPatternChars@DateFormatSymbols@icu_53@@QEBAAEAVUnicodeString@2@AEAV32@@Z" PURGE="0" COMMENT="" />
    <EXPORT ORDINAL="1950" NAME="?getLocalSidereal@CalendarAstronomer@icu_53@@QEAANXZ" PURGE="0" COMMENT="" />
    <EXPORT ORDINAL="1951" NAME="?getLocale@Calendar@icu_53@@QEBA?AVLocale@2@W4ULocDataLocaleType@@AEAW4UErrorCode@@@Z" PURGE="0" COMMENT="" />
    <EXPORT ORDINAL="1952" NAME="?getLocale@CurrencyPluralInfo@icu_53@@QEBAAEBVLocale@2@XZ" PURGE="0" COMMENT="" />
    <EXPORT ORDINAL="1953" NAME="?getLocale@DateFormatSymbols@icu_53@@QEBA?AVLocale@2@W4ULocDataLocaleType@@AEAW4UErrorCode@@@Z" PURGE="0" COMMENT="" />
    <EXPORT ORDINAL="1954" NAME="?getLocale@DecimalFormatSymbols@icu_53@@QEBA?AVLocale@2@W4ULocDataLocaleType@@AEAW4UErrorCode@@@Z" PURGE="0" COMMENT="" />
    <EXPORT ORDINAL="1955" NAME="?getLocale@DecimalFormatSymbols@icu_53@@QEBA?AVLocale@2@XZ" PURGE="0" COMMENT="" />
    <EXPORT ORDINAL="1956" NAME="?getLocale@Format@icu_53@@QEBA?AVLocale@2@W4ULocDataLocaleType@@AEAW4UErrorCode@@@Z" PURGE="0" COMMENT="" />
    <EXPORT ORDINAL="1957" NAME="?getLocale@MeasureFormat@icu_53@@IEBA?AVLocale@2@AEAW4UErrorCode@@@Z" PURGE="0" COMMENT="" />
    <EXPORT ORDINAL="1958" NAME="?getLocale@MessageFormat@icu_53@@UEBAAEBVLocale@2@XZ" PURGE="0" COMMENT="" />
    <EXPORT ORDINAL="1959" NAME="?getLocale@RuleBasedCollator@icu_53@@UEBA?AVLocale@2@W4ULocDataLocaleType@@AEAW4UErrorCode@@@Z" PURGE="0" COMMENT="" />
    <EXPORT ORDINAL="1960" NAME="?getLocaleID@Calendar@icu_53@@QEBAPEBDW4ULocDataLocaleType@@AEAW4UErrorCode@@@Z" PURGE="0" COMMENT="" />
    <EXPORT ORDINAL="1961" NAME="?getLocaleID@Format@icu_53@@QEBAPEBDW4ULocDataLocaleType@@AEAW4UErrorCode@@@Z" PURGE="0" COMMENT="" />
    <EXPORT ORDINAL="1962" NAME="?getLocaleID@MeasureFormat@icu_53@@IEBAPEBDAEAW4UErrorCode@@@Z" PURGE="0" COMMENT="" />
    <EXPORT ORDINAL="1963" NAME="?getLong@DigitList@icu_53@@QEAAHXZ" PURGE="0" COMMENT="" />
    <EXPORT ORDINAL="1964" NAME="?getLong@Formattable@icu_53@@QEBAHAEAW4UErrorCode@@@Z" PURGE="0" COMMENT="" />
    <EXPORT ORDINAL="1965" NAME="?getLong@Formattable@icu_53@@QEBAHPEAW4UErrorCode@@@Z" PURGE="0" COMMENT="" />
    <EXPORT ORDINAL="1966" NAME="?getLong@Formattable@icu_53@@QEBAHXZ" PURGE="0" COMMENT="" />
    <EXPORT ORDINAL="1967" NAME="?getLongPrimaryIfSingleCE@CollationDataBuilder@icu_53@@QEBAIH@Z" PURGE="0" COMMENT="" />
    <EXPORT ORDINAL="1968" NAME="?getMaleTaintsInstance@GenderInfo@icu_53@@CAPEBV12@XZ" PURGE="0" COMMENT="" />
    <EXPORT ORDINAL="1969" NAME="?getMatchCallback@RegexMatcher@icu_53@@UEAAXAEAP6ACPEBXH@ZAEAPEBXAEAW4UErrorCode@@@Z" PURGE="0" COMMENT="" />
    <EXPORT ORDINAL="1970" NAME="?getMatchLengthAt@MatchInfoCollection@TimeZoneNames@icu_53@@QEBAHH@Z" PURGE="0" COMMENT="" />
    <EXPORT ORDINAL="1971" NAME="?getMatchedLength@SearchIterator@icu_53@@QEBAHXZ" PURGE="0" COMMENT="" />
    <EXPORT ORDINAL="1972" NAME="?getMatchedStart@SearchIterator@icu_53@@QEBAHXZ" PURGE="0" COMMENT="" />
    <EXPORT ORDINAL="1973" NAME="?getMatchedText@SearchIterator@icu_53@@QEBAXAEAVUnicodeString@2@@Z" PURGE="0" COMMENT="" />
    <EXPORT ORDINAL="1974" NAME="?getMaxExpansion@CollationElementIterator@icu_53@@CAHPEBUUHashtable@@H@Z" PURGE="0" COMMENT="" />
    <EXPORT ORDINAL="1975" NAME="?getMaxExpansion@CollationElementIterator@icu_53@@QEBAHH@Z" PURGE="0" COMMENT="" />
    <EXPORT ORDINAL="1976" NAME="?getMaxExpansion@RuleBasedCollator@icu_53@@QEBAHH@Z" PURGE="0" COMMENT="" />
    <EXPORT ORDINAL="1977" NAME="?getMaxLabelCount@AlphabeticIndex@icu_53@@UEBAHXZ" PURGE="0" COMMENT="" />
    <EXPORT ORDINAL="1978" NAME="?getMaxVariable@CollationSettings@icu_53@@QEBA?AW4MaxVariable@12@XZ" PURGE="0" COMMENT="" />
    <EXPORT ORDINAL="1979" NAME="?getMaxVariable@Collator@icu_53@@UEBA?AW4UColReorderCode@@XZ" PURGE="0" COMMENT="" />
    <EXPORT ORDINAL="1980" NAME="?getMaxVariable@RuleBasedCollator@icu_53@@UEBA?AW4UColReorderCode@@XZ" PURGE="0" COMMENT="" />
    <EXPORT ORDINAL="1981" NAME="?getMaximum@Calendar@icu_53@@UEBAHW4EDateFields@12@@Z" PURGE="0" COMMENT="" />
    <EXPORT ORDINAL="1982" NAME="?getMaximum@Calendar@icu_53@@UEBAHW4UCalendarDateFields@@@Z" PURGE="0" COMMENT="" />
    <EXPORT ORDINAL="1983" NAME="?getMaximumContextLength@Transliterator@icu_53@@QEBAHXZ" PURGE="0" COMMENT="" />
    <EXPORT ORDINAL="1984" NAME="?getMaximumFractionDigits@NumberFormat@icu_53@@QEBAHXZ" PURGE="0" COMMENT="" />
    <EXPORT ORDINAL="1985" NAME="?getMaximumIntegerDigits@NumberFormat@icu_53@@QEBAHXZ" PURGE="0" COMMENT="" />
    <EXPORT ORDINAL="1986" NAME="?getMaximumSignificantDigits@DecimalFormat@icu_53@@QEBAHXZ" PURGE="0" COMMENT="" />
    <EXPORT ORDINAL="1987" NAME="?getMetaZoneIDAt@MatchInfoCollection@TimeZoneNames@icu_53@@QEBACHAEAVUnicodeString@3@@Z" PURGE="0" COMMENT="" />
    <EXPORT ORDINAL="1988" NAME="?getMetazoneID@ZoneMeta@icu_53@@SAAEAVUnicodeString@2@AEBV32@NAEAV32@@Z" PURGE="0" COMMENT="" />
    <EXPORT ORDINAL="1989" NAME="?getMetazoneMappings@ZoneMeta@icu_53@@SAPEBVUVector@2@AEBVUnicodeString@2@@Z" PURGE="0" COMMENT="" />
    <EXPORT ORDINAL="1990" NAME="?getMiniCE@CollationFastLatinBuilder@icu_53@@AEBAI_J@Z" PURGE="0" COMMENT="" />
    <EXPORT ORDINAL="1991" NAME="?getMinimalDaysInFirstWeek@Calendar@icu_53@@QEBAEXZ" PURGE="0" COMMENT="" />
    <EXPORT ORDINAL="1992" NAME="?getMinimum@Calendar@icu_53@@UEBAHW4EDateFields@12@@Z" PURGE="0" COMMENT="" />
    <EXPORT ORDINAL="1993" NAME="?getMinimum@Calendar@icu_53@@UEBAHW4UCalendarDateFields@@@Z" PURGE="0" COMMENT="" />
    <EXPORT ORDINAL="1994" NAME="?getMinimumExponentDigits@DecimalFormat@icu_53@@UEBACXZ" PURGE="0" COMMENT="" />
    <EXPORT ORDINAL="1995" NAME="?getMinimumFractionDigits@NumberFormat@icu_53@@QEBAHXZ" PURGE="0" COMMENT="" />
    <EXPORT ORDINAL="1996" NAME="?getMinimumIntegerDigits@NumberFormat@icu_53@@QEBAHXZ" PURGE="0" COMMENT="" />
    <EXPORT ORDINAL="1997" NAME="?getMinimumSignificantDigits@DecimalFormat@icu_53@@QEBAHXZ" PURGE="0" COMMENT="" />
    <EXPORT ORDINAL="1998" NAME="?getMixedNeutralInstance@GenderInfo@icu_53@@CAPEBV12@XZ" PURGE="0" COMMENT="" />
    <EXPORT ORDINAL="1999" NAME="?getMonths@DateFormatSymbols@icu_53@@QEBAPEBVUnicodeString@2@AEAH@Z" PURGE="0" COMMENT="" />
    <EXPORT ORDINAL="2000" NAME="?getMonths@DateFormatSymbols@icu_53@@QEBAPEBVUnicodeString@2@AEAHW4DtContextType@12@W4DtWidthType@12@@Z" PURGE="0" COMMENT="" />
    <EXPORT ORDINAL="2001" NAME="?getMoonAge@CalendarAstronomer@icu_53@@QEAANXZ" PURGE="0" COMMENT="" />
    <EXPORT ORDINAL="2002" NAME="?getMoonPhase@CalendarAstronomer@icu_53@@QEAANXZ" PURGE="0" COMMENT="" />
    <EXPORT ORDINAL="2003" NAME="?getMoonPosition@CalendarAstronomer@icu_53@@QEAAAEBVEquatorial@12@XZ" PURGE="0" COMMENT="" />
    <EXPORT ORDINAL="2004" NAME="?getMoonRiseSet@CalendarAstronomer@icu_53@@QEAANC@Z" PURGE="0" COMMENT="" />
    <EXPORT ORDINAL="2005" NAME="?getMoonTime@CalendarAstronomer@icu_53@@QEAANAEBVMoonAge@12@C@Z" PURGE="0" COMMENT="" />
    <EXPORT ORDINAL="2006" NAME="?getMoonTime@CalendarAstronomer@icu_53@@QEAANNC@Z" PURGE="0" COMMENT="" />
    <EXPORT ORDINAL="2007" NAME="?getMultiplier@DecimalFormat@icu_53@@QEBAHXZ" PURGE="0" COMMENT="" />
    <EXPORT ORDINAL="2008" NAME="?getName@NumberingSystem@icu_53@@QEBAPEBDXZ" PURGE="0" COMMENT="" />
    <EXPORT ORDINAL="2009" NAME="?getName@TimeZoneRule@icu_53@@QEBAAEAVUnicodeString@2@AEAV32@@Z" PURGE="0" COMMENT="" />
    <EXPORT ORDINAL="2010" NAME="?getNameTypeAt@MatchInfoCollection@TimeZoneNames@icu_53@@QEBA?AW4UTimeZoneNameType@@H@Z" PURGE="0" COMMENT="" />
    <EXPORT ORDINAL="2011" NAME="?getNarrowEras@DateFormatSymbols@icu_53@@QEBAPEBVUnicodeString@2@AEAH@Z" PURGE="0" COMMENT="" />
    <EXPORT ORDINAL="2012" NAME="?getNegativePrefix@DecimalFormat@icu_53@@QEBAAEAVUnicodeString@2@AEAV32@@Z" PURGE="0" COMMENT="" />
    <EXPORT ORDINAL="2013" NAME="?getNegativeSuffix@DecimalFormat@icu_53@@QEBAAEAVUnicodeString@2@AEAV32@@Z" PURGE="0" COMMENT="" />
    <EXPORT ORDINAL="2014" NAME="?getNeutralInstance@GenderInfo@icu_53@@CAPEBV12@XZ" PURGE="0" COMMENT="" />
    <EXPORT ORDINAL="2015" NAME="?getNextStart@AnnualTimeZoneRule@icu_53@@UEBACNHHCAEAN@Z" PURGE="0" COMMENT="" />
    <EXPORT ORDINAL="2016" NAME="?getNextStart@InitialTimeZoneRule@icu_53@@UEBACNHHCAEAN@Z" PURGE="0" COMMENT="" />
    <EXPORT ORDINAL="2017" NAME="?getNextStart@TimeArrayTimeZoneRule@icu_53@@UEBACNHHCAEAN@Z" PURGE="0" COMMENT="" />
    <EXPORT ORDINAL="2018" NAME="?getNextTransition@OlsonTimeZone@icu_53@@UEBACNCAEAVTimeZoneTransition@2@@Z" PURGE="0" COMMENT="" />
    <EXPORT ORDINAL="2019" NAME="?getNextTransition@RuleBasedTimeZone@icu_53@@UEBACNCAEAVTimeZoneTransition@2@@Z" PURGE="0" COMMENT="" />
    <EXPORT ORDINAL="2020" NAME="?getNextTransition@SimpleTimeZone@icu_53@@UEBACNCAEAVTimeZoneTransition@2@@Z" PURGE="0" COMMENT="" />
    <EXPORT ORDINAL="2021" NAME="?getNextTransition@VTimeZone@icu_53@@UEBACNCAEAVTimeZoneTransition@2@@Z" PURGE="0" COMMENT="" />
    <EXPORT ORDINAL="2022" NAME="?getNow@Calendar@icu_53@@SANXZ" PURGE="0" COMMENT="" />
    <EXPORT ORDINAL="2023" NAME="?getNumber@Measure@icu_53@@QEBAAEBVFormattable@2@XZ" PURGE="0" COMMENT="" />
    <EXPORT ORDINAL="2024" NAME="?getNumberFormat@DateFormat@icu_53@@UEBAPEBVNumberFormat@2@XZ" PURGE="0" COMMENT="" />
    <EXPORT ORDINAL="2025" NAME="?getNumberFormat@MeasureFormat@icu_53@@IEBAAEBVNumberFormat@2@XZ" PURGE="0" COMMENT="" />
    <EXPORT ORDINAL="2026" NAME="?getNumberFormat@RelativeDateTimeFormatter@icu_53@@QEBAAEBVNumberFormat@2@XZ" PURGE="0" COMMENT="" />
    <EXPORT ORDINAL="2027" NAME="?getNumberFormatByIndex@SimpleDateFormat@icu_53@@AEBAPEAVNumberFormat@2@W4UDateFormatField@@@Z" PURGE="0" COMMENT="" />
    <EXPORT ORDINAL="2028" NAME="?getNumberOfRuleSetDisplayNameLocales@RuleBasedNumberFormat@icu_53@@UEBAHXZ" PURGE="0" COMMENT="" />
    <EXPORT ORDINAL="2029" NAME="?getNumberOfRuleSetNames@RuleBasedNumberFormat@icu_53@@UEBAHXZ" PURGE="0" COMMENT="" />
    <EXPORT ORDINAL="2030" NAME="?getNumericCode@Region@icu_53@@QEBAHXZ" PURGE="0" COMMENT="" />
    <EXPORT ORDINAL="2031" NAME="?getNumerics@IdentifierInfo@icu_53@@QEBAPEBVUnicodeSet@2@XZ" PURGE="0" COMMENT="" />
    <EXPORT ORDINAL="2032" NAME="?getObject@Formattable@icu_53@@QEBAPEBVUObject@2@XZ" PURGE="0" COMMENT="" />
    <EXPORT ORDINAL="2033" NAME="?getOffset@CollationElementIterator@icu_53@@QEBAHXZ" PURGE="0" COMMENT="" />
    <EXPORT ORDINAL="2034" NAME="?getOffset@FCDUIterCollationIterator@icu_53@@UEBAHXZ" PURGE="0" COMMENT="" />
    <EXPORT ORDINAL="2035" NAME="?getOffset@FCDUTF16CollationIterator@icu_53@@UEBAHXZ" PURGE="0" COMMENT="" />
    <EXPORT ORDINAL="2036" NAME="?getOffset@FCDUTF8CollationIterator@icu_53@@UEBAHXZ" PURGE="0" COMMENT="" />
    <EXPORT ORDINAL="2037" NAME="?getOffset@MeasureUnit@icu_53@@AEBAHXZ" PURGE="0" COMMENT="" />
    <EXPORT ORDINAL="2038" NAME="?getOffset@OlsonTimeZone@icu_53@@UEBAHEHHHEHAEAW4UErrorCode@@@Z" PURGE="0" COMMENT="" />
    <EXPORT ORDINAL="2039" NAME="?getOffset@OlsonTimeZone@icu_53@@UEBAHEHHHEHHAEAW4UErrorCode@@@Z" PURGE="0" COMMENT="" />
    <EXPORT ORDINAL="2040" NAME="?getOffset@OlsonTimeZone@icu_53@@UEBAXNCAEAH0AEAW4UErrorCode@@@Z" PURGE="0" COMMENT="" />
    <EXPORT ORDINAL="2041" NAME="?getOffset@RuleBasedTimeZone@icu_53@@UEBAHEHHHEHAEAW4UErrorCode@@@Z" PURGE="0" COMMENT="" />
    <EXPORT ORDINAL="2042" NAME="?getOffset@RuleBasedTimeZone@icu_53@@UEBAHEHHHEHHAEAW4UErrorCode@@@Z" PURGE="0" COMMENT="" />
    <EXPORT ORDINAL="2043" NAME="?getOffset@RuleBasedTimeZone@icu_53@@UEBAXNCAEAH0AEAW4UErrorCode@@@Z" PURGE="0" COMMENT="" />
    <EXPORT ORDINAL="2044" NAME="?getOffset@SimpleTimeZone@icu_53@@UEBAHEHHHEHAEAW4UErrorCode@@@Z" PURGE="0" COMMENT="" />
    <EXPORT ORDINAL="2045" NAME="?getOffset@SimpleTimeZone@icu_53@@UEBAHEHHHEHHAEAW4UErrorCode@@@Z" PURGE="0" COMMENT="" />
    <EXPORT ORDINAL="2046" NAME="?getOffset@SimpleTimeZone@icu_53@@UEBAHEHHHEHHHAEAW4UErrorCode@@@Z" PURGE="0" COMMENT="" />
    <EXPORT ORDINAL="2047" NAME="?getOffset@SimpleTimeZone@icu_53@@UEBAXNCAEAH0AEAW4UErrorCode@@@Z" PURGE="0" COMMENT="" />
    <EXPORT ORDINAL="2048" NAME="?getOffset@StringSearch@icu_53@@UEBAHXZ" PURGE="0" COMMENT="" />
    <EXPORT ORDINAL="2049" NAME="?getOffset@TimeZone@icu_53@@UEBAXNCAEAH0AEAW4UErrorCode@@@Z" PURGE="0" COMMENT="" />
    <EXPORT ORDINAL="2050" NAME="?getOffset@UIterCollationIterator@icu_53@@UEBAHXZ" PURGE="0" COMMENT="" />
    <EXPORT ORDINAL="2051" NAME="?getOffset@UTF16CollationIterator@icu_53@@UEBAHXZ" PURGE="0" COMMENT="" />
    <EXPORT ORDINAL="2052" NAME="?getOffset@UTF8CollationIterator@icu_53@@UEBAHXZ" PURGE="0" COMMENT="" />
    <EXPORT ORDINAL="2053" NAME="?getOffset@VTimeZone@icu_53@@UEBAHEHHHEHAEAW4UErrorCode@@@Z" PURGE="0" COMMENT="" />
    <EXPORT ORDINAL="2054" NAME="?getOffset@VTimeZone@icu_53@@UEBAHEHHHEHHAEAW4UErrorCode@@@Z" PURGE="0" COMMENT="" />
    <EXPORT ORDINAL="2055" NAME="?getOffset@VTimeZone@icu_53@@UEBAXNCAEAH0AEAW4UErrorCode@@@Z" PURGE="0" COMMENT="" />
    <EXPORT ORDINAL="2056" NAME="?getOffsetFromLocal@BasicTimeZone@icu_53@@UEBAXNHHAEAH0AEAW4UErrorCode@@@Z" PURGE="0" COMMENT="" />
    <EXPORT ORDINAL="2057" NAME="?getOffsetFromLocal@OlsonTimeZone@icu_53@@UEBAXNHHAEAH0AEAW4UErrorCode@@@Z" PURGE="0" COMMENT="" />
    <EXPORT ORDINAL="2058" NAME="?getOffsetFromLocal@RuleBasedTimeZone@icu_53@@UEBAXNHHAEAH0AEAW4UErrorCode@@@Z" PURGE="0" COMMENT="" />
    <EXPORT ORDINAL="2059" NAME="?getOffsetFromLocal@SimpleTimeZone@icu_53@@UEBAXNHHAEAH0AEAW4UErrorCode@@@Z" PURGE="0" COMMENT="" />
    <EXPORT ORDINAL="2060" NAME="?getOffsetInternal@RuleBasedTimeZone@icu_53@@AEBAXNCHHAEAH0AEAW4UErrorCode@@@Z" PURGE="0" COMMENT="" />
    <EXPORT ORDINAL="2061" NAME="?getOnOffValue@CollationRuleParser@icu_53@@CA?AW4UColAttributeValue@@AEBVUnicodeString@2@@Z" PURGE="0" COMMENT="" />
    <EXPORT ORDINAL="2062" NAME="?getOptions@CollationFastLatin@icu_53@@SAHPEBUCollationData@2@AEBUCollationSettings@2@PEAGH@Z" PURGE="0" COMMENT="" />
    <EXPORT ORDINAL="2063" NAME="?getOverflowLabel@AlphabeticIndex@icu_53@@UEBAAEBVUnicodeString@2@XZ" PURGE="0" COMMENT="" />
    <EXPORT ORDINAL="2064" NAME="?getPadCharacterString@DecimalFormat@icu_53@@UEBA?AVUnicodeString@2@XZ" PURGE="0" COMMENT="" />
    <EXPORT ORDINAL="2065" NAME="?getPadPosition@DecimalFormat@icu_53@@UEBA?AW4EPadPosition@12@XZ" PURGE="0" COMMENT="" />
    <EXPORT ORDINAL="2066" NAME="?getPattern@StringSearch@icu_53@@QEBAAEBVUnicodeString@2@XZ" PURGE="0" COMMENT="" />
    <EXPORT ORDINAL="2067" NAME="?getPatternCharIndex@DateFormatSymbols@icu_53@@CA?AW4UDateFormatField@@_W@Z" PURGE="0" COMMENT="" />
    <EXPORT ORDINAL="2068" NAME="?getPatternForCurrencySpacing@DecimalFormatSymbols@icu_53@@QEBAAEBVUnicodeString@2@W4UCurrencySpacing@@CAEAW4UErrorCode@@@Z" PURGE="0" COMMENT="" />
    <EXPORT ORDINAL="2069" NAME="?getPatternForSkeleton@DateTimePatternGenerator@icu_53@@QEBAAEBVUnicodeString@2@AEBV32@@Z" PURGE="0" COMMENT="" />
    <EXPORT ORDINAL="2070" NAME="?getPatternUChars@DateFormatSymbols@icu_53@@SAPEB_WXZ" PURGE="0" COMMENT="" />
    <EXPORT ORDINAL="2071" NAME="?getPluralRules@CurrencyPluralInfo@icu_53@@QEBAPEBVPluralRules@2@XZ" PURGE="0" COMMENT="" />
    <EXPORT ORDINAL="2072" NAME="?getPluralRules@MeasureFormat@icu_53@@IEBAAEBVPluralRules@2@XZ" PURGE="0" COMMENT="" />
    <EXPORT ORDINAL="2073" NAME="?getPositivePrefix@DecimalFormat@icu_53@@QEBAAEAVUnicodeString@2@AEAV32@@Z" PURGE="0" COMMENT="" />
    <EXPORT ORDINAL="2074" NAME="?getPositiveSuffix@DecimalFormat@icu_53@@QEBAAEAVUnicodeString@2@AEAV32@@Z" PURGE="0" COMMENT="" />
    <EXPORT ORDINAL="2075" NAME="?getPreferredValues@Region@icu_53@@QEBAPEAVStringEnumeration@2@XZ" PURGE="0" COMMENT="" />
    <EXPORT ORDINAL="2076" NAME="?getPreviousStart@AnnualTimeZoneRule@icu_53@@UEBACNHHCAEAN@Z" PURGE="0" COMMENT="" />
    <EXPORT ORDINAL="2077" NAME="?getPreviousStart@InitialTimeZoneRule@icu_53@@UEBACNHHCAEAN@Z" PURGE="0" COMMENT="" />
    <EXPORT ORDINAL="2078" NAME="?getPreviousStart@TimeArrayTimeZoneRule@icu_53@@UEBACNHHCAEAN@Z" PURGE="0" COMMENT="" />
    <EXPORT ORDINAL="2079" NAME="?getPreviousTransition@OlsonTimeZone@icu_53@@UEBACNCAEAVTimeZoneTransition@2@@Z" PURGE="0" COMMENT="" />
    <EXPORT ORDINAL="2080" NAME="?getPreviousTransition@RuleBasedTimeZone@icu_53@@UEBACNCAEAVTimeZoneTransition@2@@Z" PURGE="0" COMMENT="" />
    <EXPORT ORDINAL="2081" NAME="?getPreviousTransition@SimpleTimeZone@icu_53@@UEBACNCAEAVTimeZoneTransition@2@@Z" PURGE="0" COMMENT="" />
    <EXPORT ORDINAL="2082" NAME="?getPreviousTransition@VTimeZone@icu_53@@UEBACNCAEAVTimeZoneTransition@2@@Z" PURGE="0" COMMENT="" />
    <EXPORT ORDINAL="2083" NAME="?getPrimaries@CollationFastLatin@icu_53@@CAIII@Z" PURGE="0" COMMENT="" />
    <EXPORT ORDINAL="2084" NAME="?getPrimaryAfter@CollationRootElements@icu_53@@QEBAIIHC@Z" PURGE="0" COMMENT="" />
    <EXPORT ORDINAL="2085" NAME="?getPrimaryBefore@CollationRootElements@icu_53@@QEBAIIC@Z" PURGE="0" COMMENT="" />
    <EXPORT ORDINAL="2086" NAME="?getQuantityFormatter@MeasureFormat@icu_53@@AEBAPEBVQuantityFormatter@2@HHAEAW4UErrorCode@@@Z" PURGE="0" COMMENT="" />
    <EXPORT ORDINAL="2087" NAME="?getQuarters@DateFormatSymbols@icu_53@@QEBAPEBVUnicodeString@2@AEAHW4DtContextType@12@W4DtWidthType@12@@Z" PURGE="0" COMMENT="" />
    <EXPORT ORDINAL="2088" NAME="?getQuaternaries@CollationFastLatin@icu_53@@CAIII@Z" PURGE="0" COMMENT="" />
    <EXPORT ORDINAL="2089" NAME="?getRadix@NumberingSystem@icu_53@@QEBAHXZ" PURGE="0" COMMENT="" />
    <EXPORT ORDINAL="2090" NAME="?getRawOffset@OlsonTimeZone@icu_53@@UEBAHXZ" PURGE="0" COMMENT="" />
    <EXPORT ORDINAL="2091" NAME="?getRawOffset@RuleBasedTimeZone@icu_53@@UEBAHXZ" PURGE="0" COMMENT="" />
    <EXPORT ORDINAL="2092" NAME="?getRawOffset@SimpleTimeZone@icu_53@@UEBAHXZ" PURGE="0" COMMENT="" />
    <EXPORT ORDINAL="2093" NAME="?getRawOffset@TimeZoneRule@icu_53@@QEBAHXZ" PURGE="0" COMMENT="" />
    <EXPORT ORDINAL="2094" NAME="?getRawOffset@VTimeZone@icu_53@@UEBAHXZ" PURGE="0" COMMENT="" />
    <EXPORT ORDINAL="2095" NAME="?getRecordCount@AlphabeticIndex@icu_53@@UEAAHAEAW4UErrorCode@@@Z" PURGE="0" COMMENT="" />
    <EXPORT ORDINAL="2096" NAME="?getRecordData@AlphabeticIndex@icu_53@@UEBAPEBXXZ" PURGE="0" COMMENT="" />
    <EXPORT ORDINAL="2097" NAME="?getRecordName@AlphabeticIndex@icu_53@@UEBAAEBVUnicodeString@2@XZ" PURGE="0" COMMENT="" />
    <EXPORT ORDINAL="2098" NAME="?getRedundants@DateTimePatternGenerator@icu_53@@QEAAPEAVStringEnumeration@2@AEAW4UErrorCode@@@Z" PURGE="0" COMMENT="" />
    <EXPORT ORDINAL="2099" NAME="?getRegion@TimeZone@icu_53@@CAPEB_WAEBVUnicodeString@2@@Z" PURGE="0" COMMENT="" />
    <EXPORT ORDINAL="2100" NAME="?getRegion@TimeZone@icu_53@@SAHAEBVUnicodeString@2@PEADHAEAW4UErrorCode@@@Z" PURGE="0" COMMENT="" />
    <EXPORT ORDINAL="2101" NAME="?getRegion@TimeZone@icu_53@@SAPEB_WAEBVUnicodeString@2@AEAW4UErrorCode@@@Z" PURGE="0" COMMENT="" />
    <EXPORT ORDINAL="2102" NAME="?getRegionCode@Region@icu_53@@QEBAPEBDXZ" PURGE="0" COMMENT="" />
    <EXPORT ORDINAL="2103" NAME="?getRelatedYear@Calendar@icu_53@@UEBAHAEAW4UErrorCode@@@Z" PURGE="0" COMMENT="" />
    <EXPORT ORDINAL="2104" NAME="?getReorderCode@CollationRuleParser@icu_53@@SAHPEBD@Z" PURGE="0" COMMENT="" />
    <EXPORT ORDINAL="2105" NAME="?getReorderCodes@Collator@icu_53@@UEBAHPEAHHAEAW4UErrorCode@@@Z" PURGE="0" COMMENT="" />
    <EXPORT ORDINAL="2106" NAME="?getReorderCodes@RuleBasedCollator@icu_53@@UEBAHPEAHHAEAW4UErrorCode@@@Z" PURGE="0" COMMENT="" />
    <EXPORT ORDINAL="2107" NAME="?getRepeatedWallTimeOption@Calendar@icu_53@@QEBA?AW4UCalendarWallTimeOption@@XZ" PURGE="0" COMMENT="" />
    <EXPORT ORDINAL="2108" NAME="?getRestrictionLevel@IdentifierInfo@icu_53@@QEBA?AW4URestrictionLevel@@AEAW4UErrorCode@@@Z" PURGE="0" COMMENT="" />
    <EXPORT ORDINAL="2109" NAME="?getRoot@CollationRoot@icu_53@@SAPEBUCollationTailoring@2@AEAW4UErrorCode@@@Z" PURGE="0" COMMENT="" />
    <EXPORT ORDINAL="2110" NAME="?getRoundingIncrement@DecimalFormat@icu_53@@UEBANXZ" PURGE="0" COMMENT="" />
    <EXPORT ORDINAL="2111" NAME="?getRoundingMode@DecimalFormat@icu_53@@UEBA?AW4ERoundingMode@12@XZ" PURGE="0" COMMENT="" />
    <EXPORT ORDINAL="2112" NAME="?getRule@AnnualTimeZoneRule@icu_53@@QEBAPEBVDateTimeRule@2@XZ" PURGE="0" COMMENT="" />
    <EXPORT ORDINAL="2113" NAME="?getRuleDayOfMonth@DateTimeRule@icu_53@@QEBAHXZ" PURGE="0" COMMENT="" />
    <EXPORT ORDINAL="2114" NAME="?getRuleDayOfWeek@DateTimeRule@icu_53@@QEBAHXZ" PURGE="0" COMMENT="" />
    <EXPORT ORDINAL="2115" NAME="?getRuleFromResource@PluralRules@icu_53@@AEAA?AVUnicodeString@2@AEBVLocale@2@W4UPluralType@@AEAW4UErrorCode@@@Z" PURGE="0" COMMENT="" />
    <EXPORT ORDINAL="2116" NAME="?getRuleMillisInDay@DateTimeRule@icu_53@@QEBAHXZ" PURGE="0" COMMENT="" />
    <EXPORT ORDINAL="2117" NAME="?getRuleMonth@DateTimeRule@icu_53@@QEBAHXZ" PURGE="0" COMMENT="" />
    <EXPORT ORDINAL="2118" NAME="?getRuleSetDisplayName@RuleBasedNumberFormat@icu_53@@UEAA?AVUnicodeString@2@AEBV32@AEBVLocale@2@@Z" PURGE="0" COMMENT="" />
    <EXPORT ORDINAL="2119" NAME="?getRuleSetDisplayName@RuleBasedNumberFormat@icu_53@@UEAA?AVUnicodeString@2@HAEBVLocale@2@@Z" PURGE="0" COMMENT="" />
    <EXPORT ORDINAL="2120" NAME="?getRuleSetDisplayNameLocale@RuleBasedNumberFormat@icu_53@@UEBA?AVLocale@2@HAEAW4UErrorCode@@@Z" PURGE="0" COMMENT="" />
    <EXPORT ORDINAL="2121" NAME="?getRuleSetName@RuleBasedNumberFormat@icu_53@@UEBA?AVUnicodeString@2@H@Z" PURGE="0" COMMENT="" />
    <EXPORT ORDINAL="2122" NAME="?getRuleWeekInMonth@DateTimeRule@icu_53@@QEBAHXZ" PURGE="0" COMMENT="" />
    <EXPORT ORDINAL="2123" NAME="?getRules@PluralRules@icu_53@@QEBA?AVUnicodeString@2@XZ" PURGE="0" COMMENT="" />
    <EXPORT ORDINAL="2124" NAME="?getRules@RuleBasedCollator@icu_53@@QEBAAEBVUnicodeString@2@XZ" PURGE="0" COMMENT="" />
    <EXPORT ORDINAL="2125" NAME="?getRules@RuleBasedCollator@icu_53@@QEBAXW4UColRuleOption@@AEAVUnicodeString@2@@Z" PURGE="0" COMMENT="" />
    <EXPORT ORDINAL="2126" NAME="?getRules@RuleBasedNumberFormat@icu_53@@UEBA?AVUnicodeString@2@XZ" PURGE="0" COMMENT="" />
    <EXPORT ORDINAL="2127" NAME="?getSamples@PluralRules@icu_53@@QEAAHAEBVUnicodeString@2@PEANHAEAW4UErrorCode@@@Z" PURGE="0" COMMENT="" />
    <EXPORT ORDINAL="2128" NAME="?getScriptCount@IdentifierInfo@icu_53@@QEBAHXZ" PURGE="0" COMMENT="" />
    <EXPORT ORDINAL="2129" NAME="?getScripts@IdentifierInfo@icu_53@@QEBAPEBVScriptSet@2@XZ" PURGE="0" COMMENT="" />
    <EXPORT ORDINAL="2130" NAME="?getSecondaries@CollationFastLatin@icu_53@@CAIII@Z" PURGE="0" COMMENT="" />
    <EXPORT ORDINAL="2131" NAME="?getSecondariesFromOneShortCE@CollationFastLatin@icu_53@@CAII@Z" PURGE="0" COMMENT="" />
    <EXPORT ORDINAL="2132" NAME="?getSecondaryAfter@CollationRootElements@icu_53@@QEBAIHI@Z" PURGE="0" COMMENT="" />
    <EXPORT ORDINAL="2133" NAME="?getSecondaryBefore@CollationRootElements@icu_53@@QEBAIII@Z" PURGE="0" COMMENT="" />
    <EXPORT ORDINAL="2134" NAME="?getSecondaryBoundary@CollationRootElements@icu_53@@QEBAIXZ" PURGE="0" COMMENT="" />
    <EXPORT ORDINAL="2135" NAME="?getSecondaryGroupingSize@DecimalFormat@icu_53@@QEBAHXZ" PURGE="0" COMMENT="" />
    <EXPORT ORDINAL="2136" NAME="?getSettings@CollationRoot@icu_53@@SAPEBUCollationSettings@2@AEAW4UErrorCode@@@Z" PURGE="0" COMMENT="" />
    <EXPORT ORDINAL="2137" NAME="?getShortID@ZoneMeta@icu_53@@SAPEB_WAEBVTimeZone@2@@Z" PURGE="0" COMMENT="" />
    <EXPORT ORDINAL="2138" NAME="?getShortID@ZoneMeta@icu_53@@SAPEB_WAEBVUnicodeString@2@@Z" PURGE="0" COMMENT="" />
    <EXPORT ORDINAL="2139" NAME="?getShortIDFromCanonical@ZoneMeta@icu_53@@CAPEB_WPEB_W@Z" PURGE="0" COMMENT="" />
    <EXPORT ORDINAL="2140" NAME="?getShortMonths@DateFormatSymbols@icu_53@@QEBAPEBVUnicodeString@2@AEAH@Z" PURGE="0" COMMENT="" />
    <EXPORT ORDINAL="2141" NAME="?getShortWeekdays@DateFormatSymbols@icu_53@@QEBAPEBVUnicodeString@2@AEAH@Z" PURGE="0" COMMENT="" />
    <EXPORT ORDINAL="2142" NAME="?getSiderealOffset@CalendarAstronomer@icu_53@@AEAANXZ" PURGE="0" COMMENT="" />
    <EXPORT ORDINAL="2143" NAME="?getSimpleRulesNear@BasicTimeZone@icu_53@@UEBAXNAEAPEAVInitialTimeZoneRule@2@AEAPEAVAnnualTimeZoneRule@2@1AEAW4UErrorCode@@@Z" PURGE="0" COMMENT="" />
    <EXPORT ORDINAL="2144" NAME="?getSingleCE@CollationDataBuilder@icu_53@@QEBA_JHAEAW4UErrorCode@@@Z" PURGE="0" COMMENT="" />
    <EXPORT ORDINAL="2145" NAME="?getSkeleton@DateTimePatternGenerator@icu_53@@QEAA?AVUnicodeString@2@AEBV32@AEAW4UErrorCode@@@Z" PURGE="0" COMMENT="" />
    <EXPORT ORDINAL="2146" NAME="?getSkeletons@DateTimePatternGenerator@icu_53@@QEBAPEAVStringEnumeration@2@AEAW4UErrorCode@@@Z" PURGE="0" COMMENT="" />
    <EXPORT ORDINAL="2147" NAME="?getSkippedWallTimeOption@Calendar@icu_53@@QEBA?AW4UCalendarWallTimeOption@@XZ" PURGE="0" COMMENT="" />
    <EXPORT ORDINAL="2148" NAME="?getSmpFmtLocale@SimpleDateFormat@icu_53@@QEBAAEBVLocale@2@XZ" PURGE="0" COMMENT="" />
    <EXPORT ORDINAL="2149" NAME="?getSortKey@RuleBasedCollator@icu_53@@UEBAHAEBVUnicodeString@2@PEAEH@Z" PURGE="0" COMMENT="" />
    <EXPORT ORDINAL="2150" NAME="?getSortKey@RuleBasedCollator@icu_53@@UEBAHPEB_WHPEAEH@Z" PURGE="0" COMMENT="" />
    <EXPORT ORDINAL="2151" NAME="?getSourceSet@Transliterator@icu_53@@QEBAAEAVUnicodeSet@2@AEAV32@@Z" PURGE="0" COMMENT="" />
    <EXPORT ORDINAL="2152" NAME="?getSpecialResetPosition@CollationBuilder@icu_53@@AEAA_JAEBVUnicodeString@2@AEAPEBDAEAW4UErrorCode@@@Z" PURGE="0" COMMENT="" />
    <EXPORT ORDINAL="2153" NAME="?getStackLimit@RegexMatcher@icu_53@@UEBAHXZ" PURGE="0" COMMENT="" />
    <EXPORT ORDINAL="2154" NAME="?getStartInYear@AnnualTimeZoneRule@icu_53@@QEBACHHHAEAN@Z" PURGE="0" COMMENT="" />
    <EXPORT ORDINAL="2155" NAME="?getStartTimeAt@TimeArrayTimeZoneRule@icu_53@@QEBACHAEAN@Z" PURGE="0" COMMENT="" />
    <EXPORT ORDINAL="2156" NAME="?getStartYear@AnnualTimeZoneRule@icu_53@@QEBAHXZ" PURGE="0" COMMENT="" />
    <EXPORT ORDINAL="2157" NAME="?getStaticClassID@AnnualTimeZoneRule@icu_53@@SAPEAXXZ" PURGE="0" COMMENT="" />
    <EXPORT ORDINAL="2158" NAME="?getStaticClassID@AnyTransliterator@icu_53@@SAPEAXXZ" PURGE="0" COMMENT="" />
    <EXPORT ORDINAL="2159" NAME="?getStaticClassID@BreakTransliterator@icu_53@@SAPEAXXZ" PURGE="0" COMMENT="" />
    <EXPORT ORDINAL="2160" NAME="?getStaticClassID@BuddhistCalendar@icu_53@@SAPEAXXZ" PURGE="0" COMMENT="" />
    <EXPORT ORDINAL="2161" NAME="?getStaticClassID@CaseMapTransliterator@icu_53@@SAPEAXXZ" PURGE="0" COMMENT="" />
    <EXPORT ORDINAL="2162" NAME="?getStaticClassID@ChineseCalendar@icu_53@@SAPEAXXZ" PURGE="0" COMMENT="" />
    <EXPORT ORDINAL="2163" NAME="?getStaticClassID@ChoiceFormat@icu_53@@SAPEAXXZ" PURGE="0" COMMENT="" />
    <EXPORT ORDINAL="2164" NAME="?getStaticClassID@CollationElementIterator@icu_53@@SAPEAXXZ" PURGE="0" COMMENT="" />
    <EXPORT ORDINAL="2165" NAME="?getStaticClassID@CollationKey@icu_53@@SAPEAXXZ" PURGE="0" COMMENT="" />
    <EXPORT ORDINAL="2166" NAME="?getStaticClassID@CompactDecimalFormat@icu_53@@SAPEAXXZ" PURGE="0" COMMENT="" />
    <EXPORT ORDINAL="2167" NAME="?getStaticClassID@CompoundTransliterator@icu_53@@SAPEAXXZ" PURGE="0" COMMENT="" />
    <EXPORT ORDINAL="2168" NAME="?getStaticClassID@CopticCalendar@icu_53@@SAPEAXXZ" PURGE="0" COMMENT="" />
    <EXPORT ORDINAL="2169" NAME="?getStaticClassID@CurrencyAmount@icu_53@@SAPEAXXZ" PURGE="0" COMMENT="" />
    <EXPORT ORDINAL="2170" NAME="?getStaticClassID@CurrencyPluralInfo@icu_53@@SAPEAXXZ" PURGE="0" COMMENT="" />
    <EXPORT ORDINAL="2171" NAME="?getStaticClassID@CurrencyUnit@icu_53@@SAPEAXXZ" PURGE="0" COMMENT="" />
    <EXPORT ORDINAL="2172" NAME="?getStaticClassID@DangiCalendar@icu_53@@SAPEAXXZ" PURGE="0" COMMENT="" />
    <EXPORT ORDINAL="2173" NAME="?getStaticClassID@DateFormatSymbols@icu_53@@SAPEAXXZ" PURGE="0" COMMENT="" />
    <EXPORT ORDINAL="2174" NAME="?getStaticClassID@DateIntervalFormat@icu_53@@SAPEAXXZ" PURGE="0" COMMENT="" />
    <EXPORT ORDINAL="2175" NAME="?getStaticClassID@DateIntervalInfo@icu_53@@SAPEAXXZ" PURGE="0" COMMENT="" />
    <EXPORT ORDINAL="2176" NAME="?getStaticClassID@DateTimePatternGenerator@icu_53@@SAPEAXXZ" PURGE="0" COMMENT="" />
    <EXPORT ORDINAL="2177" NAME="?getStaticClassID@DateTimeRule@icu_53@@SAPEAXXZ" PURGE="0" COMMENT="" />
    <EXPORT ORDINAL="2178" NAME="?getStaticClassID@DecimalFormat@icu_53@@SAPEAXXZ" PURGE="0" COMMENT="" />
    <EXPORT ORDINAL="2179" NAME="?getStaticClassID@DecimalFormatSymbols@icu_53@@SAPEAXXZ" PURGE="0" COMMENT="" />
    <EXPORT ORDINAL="2180" NAME="?getStaticClassID@EscapeTransliterator@icu_53@@SAPEAXXZ" PURGE="0" COMMENT="" />
    <EXPORT ORDINAL="2181" NAME="?getStaticClassID@EthiopicCalendar@icu_53@@SAPEAXXZ" PURGE="0" COMMENT="" />
    <EXPORT ORDINAL="2182" NAME="?getStaticClassID@FieldPosition@icu_53@@SAPEAXXZ" PURGE="0" COMMENT="" />
    <EXPORT ORDINAL="2183" NAME="?getStaticClassID@Formattable@icu_53@@SAPEAXXZ" PURGE="0" COMMENT="" />
    <EXPORT ORDINAL="2184" NAME="?getStaticClassID@GregorianCalendar@icu_53@@SAPEAXXZ" PURGE="0" COMMENT="" />
    <EXPORT ORDINAL="2185" NAME="?getStaticClassID@HebrewCalendar@icu_53@@SAPEAXXZ" PURGE="0" COMMENT="" />
    <EXPORT ORDINAL="2186" NAME="?getStaticClassID@IndianCalendar@icu_53@@SAPEAXXZ" PURGE="0" COMMENT="" />
    <EXPORT ORDINAL="2187" NAME="?getStaticClassID@InitialTimeZoneRule@icu_53@@SAPEAXXZ" PURGE="0" COMMENT="" />
    <EXPORT ORDINAL="2188" NAME="?getStaticClassID@IslamicCalendar@icu_53@@SAPEAXXZ" PURGE="0" COMMENT="" />
    <EXPORT ORDINAL="2189" NAME="?getStaticClassID@JapaneseCalendar@icu_53@@SAPEAXXZ" PURGE="0" COMMENT="" />
    <EXPORT ORDINAL="2190" NAME="?getStaticClassID@LowercaseTransliterator@icu_53@@SAPEAXXZ" PURGE="0" COMMENT="" />
    <EXPORT ORDINAL="2191" NAME="?getStaticClassID@Measure@icu_53@@SAPEAXXZ" PURGE="0" COMMENT="" />
    <EXPORT ORDINAL="2192" NAME="?getStaticClassID@MeasureFormat@icu_53@@SAPEAXXZ" PURGE="0" COMMENT="" />
    <EXPORT ORDINAL="2193" NAME="?getStaticClassID@MeasureUnit@icu_53@@SAPEAXXZ" PURGE="0" COMMENT="" />
    <EXPORT ORDINAL="2194" NAME="?getStaticClassID@MessageFormat@icu_53@@SAPEAXXZ" PURGE="0" COMMENT="" />
    <EXPORT ORDINAL="2195" NAME="?getStaticClassID@NameUnicodeTransliterator@icu_53@@SAPEAXXZ" PURGE="0" COMMENT="" />
    <EXPORT ORDINAL="2196" NAME="?getStaticClassID@NormalizationTransliterator@icu_53@@SAPEAXXZ" PURGE="0" COMMENT="" />
    <EXPORT ORDINAL="2197" NAME="?getStaticClassID@NullTransliterator@icu_53@@SAPEAXXZ" PURGE="0" COMMENT="" />
    <EXPORT ORDINAL="2198" NAME="?getStaticClassID@NumberFormat@icu_53@@SAPEAXXZ" PURGE="0" COMMENT="" />
    <EXPORT ORDINAL="2199" NAME="?getStaticClassID@NumberingSystem@icu_53@@SAPEAXXZ" PURGE="0" COMMENT="" />
    <EXPORT ORDINAL="2200" NAME="?getStaticClassID@OlsonTimeZone@icu_53@@SAPEAXXZ" PURGE="0" COMMENT="" />
    <EXPORT ORDINAL="2201" NAME="?getStaticClassID@PersianCalendar@icu_53@@SAPEAXXZ" PURGE="0" COMMENT="" />
    <EXPORT ORDINAL="2202" NAME="?getStaticClassID@PluralFormat@icu_53@@SAPEAXXZ" PURGE="0" COMMENT="" />
    <EXPORT ORDINAL="2203" NAME="?getStaticClassID@PluralRules@icu_53@@SAPEAXXZ" PURGE="0" COMMENT="" />
    <EXPORT ORDINAL="2204" NAME="?getStaticClassID@RegexMatcher@icu_53@@SAPEAXXZ" PURGE="0" COMMENT="" />
    <EXPORT ORDINAL="2205" NAME="?getStaticClassID@RegexPattern@icu_53@@SAPEAXXZ" PURGE="0" COMMENT="" />
    <EXPORT ORDINAL="2206" NAME="?getStaticClassID@RelativeDateFormat@icu_53@@SAPEAXXZ" PURGE="0" COMMENT="" />
    <EXPORT ORDINAL="2207" NAME="?getStaticClassID@RemoveTransliterator@icu_53@@SAPEAXXZ" PURGE="0" COMMENT="" />
    <EXPORT ORDINAL="2208" NAME="?getStaticClassID@RuleBasedCollator@icu_53@@SAPEAXXZ" PURGE="0" COMMENT="" />
    <EXPORT ORDINAL="2209" NAME="?getStaticClassID@RuleBasedNumberFormat@icu_53@@SAPEAXXZ" PURGE="0" COMMENT="" />
    <EXPORT ORDINAL="2210" NAME="?getStaticClassID@RuleBasedTimeZone@icu_53@@SAPEAXXZ" PURGE="0" COMMENT="" />
    <EXPORT ORDINAL="2211" NAME="?getStaticClassID@RuleBasedTransliterator@icu_53@@SAPEAXXZ" PURGE="0" COMMENT="" />
    <EXPORT ORDINAL="2212" NAME="?getStaticClassID@SelectFormat@icu_53@@SAPEAXXZ" PURGE="0" COMMENT="" />
    <EXPORT ORDINAL="2213" NAME="?getStaticClassID@SimpleDateFormat@icu_53@@SAPEAXXZ" PURGE="0" COMMENT="" />
    <EXPORT ORDINAL="2214" NAME="?getStaticClassID@SimpleTimeZone@icu_53@@SAPEAXXZ" PURGE="0" COMMENT="" />
    <EXPORT ORDINAL="2215" NAME="?getStaticClassID@StringSearch@icu_53@@SAPEAXXZ" PURGE="0" COMMENT="" />
    <EXPORT ORDINAL="2216" NAME="?getStaticClassID@TaiwanCalendar@icu_53@@SAPEAXXZ" PURGE="0" COMMENT="" />
    <EXPORT ORDINAL="2217" NAME="?getStaticClassID@TimeArrayTimeZoneRule@icu_53@@SAPEAXXZ" PURGE="0" COMMENT="" />
    <EXPORT ORDINAL="2218" NAME="?getStaticClassID@TimeUnit@icu_53@@SAPEAXXZ" PURGE="0" COMMENT="" />
    <EXPORT ORDINAL="2219" NAME="?getStaticClassID@TimeUnitAmount@icu_53@@SAPEAXXZ" PURGE="0" COMMENT="" />
    <EXPORT ORDINAL="2220" NAME="?getStaticClassID@TimeUnitFormat@icu_53@@SAPEAXXZ" PURGE="0" COMMENT="" />
    <EXPORT ORDINAL="2221" NAME="?getStaticClassID@TimeZone@icu_53@@SAPEAXXZ" PURGE="0" COMMENT="" />
    <EXPORT ORDINAL="2222" NAME="?getStaticClassID@TimeZoneFormat@icu_53@@SAPEAXXZ" PURGE="0" COMMENT="" />
    <EXPORT ORDINAL="2223" NAME="?getStaticClassID@TimeZoneTransition@icu_53@@SAPEAXXZ" PURGE="0" COMMENT="" />
    <EXPORT ORDINAL="2224" NAME="?getStaticClassID@TitlecaseTransliterator@icu_53@@SAPEAXXZ" PURGE="0" COMMENT="" />
    <EXPORT ORDINAL="2225" NAME="?getStaticClassID@Transliterator@icu_53@@SAPEAXXZ" PURGE="0" COMMENT="" />
    <EXPORT ORDINAL="2226" NAME="?getStaticClassID@UnescapeTransliterator@icu_53@@SAPEAXXZ" PURGE="0" COMMENT="" />
    <EXPORT ORDINAL="2227" NAME="?getStaticClassID@UnicodeNameTransliterator@icu_53@@SAPEAXXZ" PURGE="0" COMMENT="" />
    <EXPORT ORDINAL="2228" NAME="?getStaticClassID@UppercaseTransliterator@icu_53@@SAPEAXXZ" PURGE="0" COMMENT="" />
    <EXPORT ORDINAL="2229" NAME="?getStaticClassID@VTimeZone@icu_53@@SAPEAXXZ" PURGE="0" COMMENT="" />
    <EXPORT ORDINAL="2230" NAME="?getStaticClassID@Win32DateFormat@icu_53@@SAPEAXXZ" PURGE="0" COMMENT="" />
    <EXPORT ORDINAL="2231" NAME="?getStaticClassID@Win32NumberFormat@icu_53@@SAPEAXXZ" PURGE="0" COMMENT="" />
    <EXPORT ORDINAL="2232" NAME="?getStrength@CollationSettings@icu_53@@QEBAHXZ" PURGE="0" COMMENT="" />
    <EXPORT ORDINAL="2233" NAME="?getStrength@CollationSettings@icu_53@@SAHH@Z" PURGE="0" COMMENT="" />
    <EXPORT ORDINAL="2234" NAME="?getStrength@Collator@icu_53@@UEBA?AW4ECollationStrength@12@XZ" PURGE="0" COMMENT="" />
    <EXPORT ORDINAL="2235" NAME="?getString@Formattable@icu_53@@QEAAAEAVUnicodeString@2@AEAW4UErrorCode@@@Z" PURGE="0" COMMENT="" />
    <EXPORT ORDINAL="2236" NAME="?getString@Formattable@icu_53@@QEAAAEAVUnicodeString@2@XZ" PURGE="0" COMMENT="" />
    <EXPORT ORDINAL="2237" NAME="?getString@Formattable@icu_53@@QEBAAEAVUnicodeString@2@AEAV32@@Z" PURGE="0" COMMENT="" />
    <EXPORT ORDINAL="2238" NAME="?getString@Formattable@icu_53@@QEBAAEAVUnicodeString@2@AEAV32@AEAW4UErrorCode@@@Z" PURGE="0" COMMENT="" />
    <EXPORT ORDINAL="2239" NAME="?getString@Formattable@icu_53@@QEBAAEBVUnicodeString@2@AEAW4UErrorCode@@@Z" PURGE="0" COMMENT="" />
    <EXPORT ORDINAL="2240" NAME="?getString@Formattable@icu_53@@QEBAAEBVUnicodeString@2@XZ" PURGE="0" COMMENT="" />
    <EXPORT ORDINAL="2241" NAME="?getSubtype@MeasureUnit@icu_53@@QEBAPEBDXZ" PURGE="0" COMMENT="" />
    <EXPORT ORDINAL="2242" NAME="?getSunLongitude@CalendarAstronomer@icu_53@@QEAANXZ" PURGE="0" COMMENT="" />
    <EXPORT ORDINAL="2243" NAME="?getSunLongitude@CalendarAstronomer@icu_53@@QEAAXNAEAN0@Z" PURGE="0" COMMENT="" />
    <EXPORT ORDINAL="2244" NAME="?getSunPosition@CalendarAstronomer@icu_53@@QEAAAEAVEquatorial@12@AEAV312@@Z" PURGE="0" COMMENT="" />
    <EXPORT ORDINAL="2245" NAME="?getSunRiseSet@CalendarAstronomer@icu_53@@QEAANC@Z" PURGE="0" COMMENT="" />
    <EXPORT ORDINAL="2246" NAME="?getSunTime@CalendarAstronomer@icu_53@@QEAANNC@Z" PURGE="0" COMMENT="" />
    <EXPORT ORDINAL="2247" NAME="?getSupportedIDs@SimpleNumberFormatFactory@icu_53@@UEBAPEBVUnicodeString@2@AEAHAEAW4UErrorCode@@@Z" PURGE="0" COMMENT="" />
    <EXPORT ORDINAL="2248" NAME="?getSymbol@DecimalFormatSymbols@icu_53@@QEBA?AVUnicodeString@2@W4ENumberFormatSymbol@12@@Z" PURGE="0" COMMENT="" />
    <EXPORT ORDINAL="2249" NAME="?getTZDataVersion@TimeZone@icu_53@@SAPEBDAEAW4UErrorCode@@@Z" PURGE="0" COMMENT="" />
    <EXPORT ORDINAL="2250" NAME="?getTZURL@VTimeZone@icu_53@@QEBACAEAVUnicodeString@2@@Z" PURGE="0" COMMENT="" />
    <EXPORT ORDINAL="2251" NAME="?getTable@CollationFastLatinBuilder@icu_53@@QEBAPEBGXZ" PURGE="0" COMMENT="" />
    <EXPORT ORDINAL="2252" NAME="?getTailoredSet@Collator@icu_53@@UEBAPEAVUnicodeSet@2@AEAW4UErrorCode@@@Z" PURGE="0" COMMENT="" />
    <EXPORT ORDINAL="2253" NAME="?getTailoredSet@RuleBasedCollator@icu_53@@UEBAPEAVUnicodeSet@2@AEAW4UErrorCode@@@Z" PURGE="0" COMMENT="" />
    <EXPORT ORDINAL="2254" NAME="?getTargetSet@CompoundTransliterator@icu_53@@UEBAAEAVUnicodeSet@2@AEAV32@@Z" PURGE="0" COMMENT="" />
    <EXPORT ORDINAL="2255" NAME="?getTargetSet@Transliterator@icu_53@@UEBAAEAVUnicodeSet@2@AEAV32@@Z" PURGE="0" COMMENT="" />
    <EXPORT ORDINAL="2256" NAME="?getTertiaries@CollationFastLatin@icu_53@@CAIICI@Z" PURGE="0" COMMENT="" />
    <EXPORT ORDINAL="2257" NAME="?getTertiaryAfter@CollationRootElements@icu_53@@QEBAIHII@Z" PURGE="0" COMMENT="" />
    <EXPORT ORDINAL="2258" NAME="?getTertiaryBefore@CollationRootElements@icu_53@@QEBAIIII@Z" PURGE="0" COMMENT="" />
    <EXPORT ORDINAL="2259" NAME="?getTertiaryBoundary@CollationRootElements@icu_53@@QEBAIXZ" PURGE="0" COMMENT="" />
    <EXPORT ORDINAL="2260" NAME="?getTertiaryMask@CollationSettings@icu_53@@SAIH@Z" PURGE="0" COMMENT="" />
    <EXPORT ORDINAL="2261" NAME="?getText@SearchIterator@icu_53@@QEBAAEBVUnicodeString@2@XZ" PURGE="0" COMMENT="" />
    <EXPORT ORDINAL="2262" NAME="?getThreeBytePrimaryForOffsetData@Collation@icu_53@@SAIH_J@Z" PURGE="0" COMMENT="" />
    <EXPORT ORDINAL="2263" NAME="?getTime@Calendar@icu_53@@QEBANAEAW4UErrorCode@@@Z" PURGE="0" COMMENT="" />
    <EXPORT ORDINAL="2264" NAME="?getTime@CalendarAstronomer@icu_53@@QEAANXZ" PURGE="0" COMMENT="" />
    <EXPORT ORDINAL="2265" NAME="?getTime@TimeZoneTransition@icu_53@@QEBANXZ" PURGE="0" COMMENT="" />
    <EXPORT ORDINAL="2266" NAME="?getTimeInMillis@Calendar@icu_53@@IEBANAEAW4UErrorCode@@@Z" PURGE="0" COMMENT="" />
    <EXPORT ORDINAL="2267" NAME="?getTimeLimit@RegexMatcher@icu_53@@UEBAHXZ" PURGE="0" COMMENT="" />
    <EXPORT ORDINAL="2268" NAME="?getTimeRuleType@DateTimeRule@icu_53@@QEBA?AW4TimeRuleType@12@XZ" PURGE="0" COMMENT="" />
    <EXPORT ORDINAL="2269" NAME="?getTimeType@TimeArrayTimeZoneRule@icu_53@@QEBA?AW4TimeRuleType@DateTimeRule@2@XZ" PURGE="0" COMMENT="" />
    <EXPORT ORDINAL="2270" NAME="?getTimeType@TimeZoneFormat@icu_53@@CA?AW4UTimeZoneFormatTimeType@@W4UTimeZoneNameType@@@Z" PURGE="0" COMMENT="" />
    <EXPORT ORDINAL="2271" NAME="?getTimeUnit@TimeUnitAmount@icu_53@@QEBAAEBVTimeUnit@2@XZ" PURGE="0" COMMENT="" />
    <EXPORT ORDINAL="2272" NAME="?getTimeUnitField@TimeUnit@icu_53@@QEBA?AW4UTimeUnitFields@12@XZ" PURGE="0" COMMENT="" />
    <EXPORT ORDINAL="2273" NAME="?getTimeUnitField@TimeUnitAmount@icu_53@@QEBA?AW4UTimeUnitFields@TimeUnit@2@XZ" PURGE="0" COMMENT="" />
    <EXPORT ORDINAL="2274" NAME="?getTimeUnitName@TimeUnitFormat@icu_53@@CAPEBDW4UTimeUnitFields@TimeUnit@2@AEAW4UErrorCode@@@Z" PURGE="0" COMMENT="" />
    <EXPORT ORDINAL="2275" NAME="?getTimeZone@Calendar@icu_53@@QEBAAEBVTimeZone@2@XZ" PURGE="0" COMMENT="" />
    <EXPORT ORDINAL="2276" NAME="?getTimeZone@DateFormat@icu_53@@UEBAAEBVTimeZone@2@XZ" PURGE="0" COMMENT="" />
    <EXPORT ORDINAL="2277" NAME="?getTimeZone@DateIntervalFormat@icu_53@@UEBAAEBVTimeZone@2@XZ" PURGE="0" COMMENT="" />
    <EXPORT ORDINAL="2278" NAME="?getTimeZoneFormat@SimpleDateFormat@icu_53@@UEBAPEBVTimeZoneFormat@2@XZ" PURGE="0" COMMENT="" />
    <EXPORT ORDINAL="2279" NAME="?getTimeZoneGenericNames@TimeZoneFormat@icu_53@@AEBAPEBVTimeZoneGenericNames@2@AEAW4UErrorCode@@@Z" PURGE="0" COMMENT="" />
    <EXPORT ORDINAL="2280" NAME="?getTimeZoneID@TimeZoneFormat@icu_53@@AEBAAEAVUnicodeString@2@PEBVMatchInfoCollection@TimeZoneNames@2@HAEAV32@@Z" PURGE="0" COMMENT="" />
    <EXPORT ORDINAL="2281" NAME="?getTimeZoneIDAt@MatchInfoCollection@TimeZoneNames@icu_53@@QEBACHAEAVUnicodeString@3@@Z" PURGE="0" COMMENT="" />
    <EXPORT ORDINAL="2282" NAME="?getTimeZoneNames@TimeZoneFormat@icu_53@@QEBAPEBVTimeZoneNames@2@XZ" PURGE="0" COMMENT="" />
    <EXPORT ORDINAL="2283" NAME="?getTimeZoneRules@OlsonTimeZone@icu_53@@UEBAXAEAPEBVInitialTimeZoneRule@2@QEAPEBVTimeZoneRule@2@AEAHAEAW4UErrorCode@@@Z" PURGE="0" COMMENT="" />
    <EXPORT ORDINAL="2284" NAME="?getTimeZoneRules@RuleBasedTimeZone@icu_53@@UEBAXAEAPEBVInitialTimeZoneRule@2@QEAPEBVTimeZoneRule@2@AEAHAEAW4UErrorCode@@@Z" PURGE="0" COMMENT="" />
    <EXPORT ORDINAL="2285" NAME="?getTimeZoneRules@SimpleTimeZone@icu_53@@UEBAXAEAPEBVInitialTimeZoneRule@2@QEAPEBVTimeZoneRule@2@AEAHAEAW4UErrorCode@@@Z" PURGE="0" COMMENT="" />
    <EXPORT ORDINAL="2286" NAME="?getTimeZoneRules@VTimeZone@icu_53@@UEBAXAEAPEBVInitialTimeZoneRule@2@QEAPEBVTimeZoneRule@2@AEAHAEAW4UErrorCode@@@Z" PURGE="0" COMMENT="" />
    <EXPORT ORDINAL="2287" NAME="?getTimeZoneRulesAfter@BasicTimeZone@icu_53@@IEBAXNAEAPEAVInitialTimeZoneRule@2@AEAPEAVUVector@2@AEAW4UErrorCode@@@Z" PURGE="0" COMMENT="" />
    <EXPORT ORDINAL="2288" NAME="?getTo@TimeZoneTransition@icu_53@@QEBAPEBVTimeZoneRule@2@XZ" PURGE="0" COMMENT="" />
    <EXPORT ORDINAL="2289" NAME="?getTopBitNumber@DateTimePatternGenerator@icu_53@@AEAAHH@Z" PURGE="0" COMMENT="" />
    <EXPORT ORDINAL="2290" NAME="?getTransitionTime@RuleBasedTimeZone@icu_53@@AEBANPEAUTransition@2@CHH@Z" PURGE="0" COMMENT="" />
    <EXPORT ORDINAL="2291" NAME="?getTransliterator@CompoundTransliterator@icu_53@@UEBAAEBVTransliterator@2@H@Z" PURGE="0" COMMENT="" />
    <EXPORT ORDINAL="2292" NAME="?getType@ChineseCalendar@icu_53@@UEBAPEBDXZ" PURGE="0" COMMENT="" />
    <EXPORT ORDINAL="2293" NAME="?getType@Formattable@icu_53@@QEBA?AW4Type@12@XZ" PURGE="0" COMMENT="" />
    <EXPORT ORDINAL="2294" NAME="?getType@GregorianCalendar@icu_53@@UEBAPEBDXZ" PURGE="0" COMMENT="" />
    <EXPORT ORDINAL="2295" NAME="?getType@HebrewCalendar@icu_53@@UEBAPEBDXZ" PURGE="0" COMMENT="" />
    <EXPORT ORDINAL="2296" NAME="?getType@IslamicCalendar@icu_53@@UEBAPEBDXZ" PURGE="0" COMMENT="" />
    <EXPORT ORDINAL="2297" NAME="?getType@MeasureUnit@icu_53@@QEBAPEBDXZ" PURGE="0" COMMENT="" />
    <EXPORT ORDINAL="2298" NAME="?getType@Region@icu_53@@QEBA?AW4URegionType@@XZ" PURGE="0" COMMENT="" />
    <EXPORT ORDINAL="2299" NAME="?getUCAVersion@CollationTailoring@icu_53@@QEBAHXZ" PURGE="0" COMMENT="" />
    <EXPORT ORDINAL="2300" NAME="?getUTC@TimeArrayTimeZoneRule@icu_53@@AEBANNHH@Z" PURGE="0" COMMENT="" />
    <EXPORT ORDINAL="2301" NAME="?getUnderflowLabel@AlphabeticIndex@icu_53@@UEBAAEBVUnicodeString@2@XZ" PURGE="0" COMMENT="" />
    <EXPORT ORDINAL="2302" NAME="?getUniqueKeywordValue@PluralRules@icu_53@@QEAANAEBVUnicodeString@2@@Z" PURGE="0" COMMENT="" />
    <EXPORT ORDINAL="2303" NAME="?getUnit@Measure@icu_53@@QEBAAEBVMeasureUnit@2@XZ" PURGE="0" COMMENT="" />
    <EXPORT ORDINAL="2304" NAME="?getUnknown@TimeZone@icu_53@@SAAEBV12@XZ" PURGE="0" COMMENT="" />
    <EXPORT ORDINAL="2305" NAME="?getVariableTop@RuleBasedCollator@icu_53@@UEBAIAEAW4UErrorCode@@@Z" PURGE="0" COMMENT="" />
    <EXPORT ORDINAL="2306" NAME="?getVersion@RuleBasedCollator@icu_53@@UEBAXQEAE@Z" PURGE="0" COMMENT="" />
    <EXPORT ORDINAL="2307" NAME="?getVisibleFractionDigitCount@FixedDecimal@icu_53@@QEBAHXZ" PURGE="0" COMMENT="" />
    <EXPORT ORDINAL="2308" NAME="?getWeekdays@DateFormatSymbols@icu_53@@QEBAPEBVUnicodeString@2@AEAH@Z" PURGE="0" COMMENT="" />
    <EXPORT ORDINAL="2309" NAME="?getWeekdays@DateFormatSymbols@icu_53@@QEBAPEBVUnicodeString@2@AEAHW4DtContextType@12@W4DtWidthType@12@@Z" PURGE="0" COMMENT="" />
    <EXPORT ORDINAL="2310" NAME="?getWeekendTransition@Calendar@icu_53@@UEBAHW4UCalendarDaysOfWeek@@AEAW4UErrorCode@@@Z" PURGE="0" COMMENT="" />
    <EXPORT ORDINAL="2311" NAME="?getWeightRanges@CollationWeights@icu_53@@AEAACII@Z" PURGE="0" COMMENT="" />
    <EXPORT ORDINAL="2312" NAME="?getWindowsID@TimeZone@icu_53@@SAAEAVUnicodeString@2@AEBV32@AEAV32@AEAW4UErrorCode@@@Z" PURGE="0" COMMENT="" />
    <EXPORT ORDINAL="2313" NAME="?getZoneIdByMetazone@ZoneMeta@icu_53@@SAAEAVUnicodeString@2@AEBV32@0AEAV32@@Z" PURGE="0" COMMENT="" />
    <EXPORT ORDINAL="2314" NAME="?getZoneStrings@DateFormatSymbols@icu_53@@QEBAPEAPEBVUnicodeString@2@AEAH0@Z" PURGE="0" COMMENT="" />
    <EXPORT ORDINAL="2315" NAME="?greater@Collator@icu_53@@QEBACAEBVUnicodeString@2@0@Z" PURGE="0" COMMENT="" />
    <EXPORT ORDINAL="2316" NAME="?greaterOrEqual@Collator@icu_53@@QEBACAEBVUnicodeString@2@0@Z" PURGE="0" COMMENT="" />
    <EXPORT ORDINAL="2317" NAME="?group@RegexMatcher@icu_53@@UEBA?AVUnicodeString@2@AEAW4UErrorCode@@@Z" PURGE="0" COMMENT="" />
    <EXPORT ORDINAL="2318" NAME="?group@RegexMatcher@icu_53@@UEBA?AVUnicodeString@2@HAEAW4UErrorCode@@@Z" PURGE="0" COMMENT="" />
    <EXPORT ORDINAL="2319" NAME="?group@RegexMatcher@icu_53@@UEBAPEAUUText@@HPEAU3@AEAW4UErrorCode@@@Z" PURGE="0" COMMENT="" />
    <EXPORT ORDINAL="2320" NAME="?group@RegexMatcher@icu_53@@UEBAPEAUUText@@HPEAU3@AEA_JAEAW4UErrorCode@@@Z" PURGE="0" COMMENT="" />
    <EXPORT ORDINAL="2321" NAME="?group@RegexMatcher@icu_53@@UEBAPEAUUText@@PEAU3@AEA_JAEAW4UErrorCode@@@Z" PURGE="0" COMMENT="" />
    <EXPORT ORDINAL="2322" NAME="?groupCount@RegexMatcher@icu_53@@UEBAHXZ" PURGE="0" COMMENT="" />
    <EXPORT ORDINAL="2323" NAME="?growNodes@TextTrieMap@icu_53@@AEAACXZ" PURGE="0" COMMENT="" />
    <EXPORT ORDINAL="2324" NAME="?hackTimes@DateTimePatternGenerator@icu_53@@AEAAXAEBVUnicodeString@2@AEAW4UErrorCode@@@Z" PURGE="0" COMMENT="" />
    <EXPORT ORDINAL="2325" NAME="?handleChanged@DecimalFormat@icu_53@@AEAAXXZ" PURGE="0" COMMENT="" />
    <EXPORT ORDINAL="2326" NAME="?handleComputeFields@Calendar@icu_53@@MEAAXHAEAW4UErrorCode@@@Z" PURGE="0" COMMENT="" />
    <EXPORT ORDINAL="2327" NAME="?handleComputeFields@ChineseCalendar@icu_53@@MEAAXHAEAW4UErrorCode@@@Z" PURGE="0" COMMENT="" />
    <EXPORT ORDINAL="2328" NAME="?handleComputeFields@GregorianCalendar@icu_53@@MEAAXHAEAW4UErrorCode@@@Z" PURGE="0" COMMENT="" />
    <EXPORT ORDINAL="2329" NAME="?handleComputeFields@HebrewCalendar@icu_53@@MEAAXHAEAW4UErrorCode@@@Z" PURGE="0" COMMENT="" />
    <EXPORT ORDINAL="2330" NAME="?handleComputeFields@IslamicCalendar@icu_53@@MEAAXHAEAW4UErrorCode@@@Z" PURGE="0" COMMENT="" />
    <EXPORT ORDINAL="2331" NAME="?handleComputeJulianDay@Calendar@icu_53@@MEAAHW4UCalendarDateFields@@@Z" PURGE="0" COMMENT="" />
    <EXPORT ORDINAL="2332" NAME="?handleComputeJulianDay@GregorianCalendar@icu_53@@MEAAHW4UCalendarDateFields@@@Z" PURGE="0" COMMENT="" />
    <EXPORT ORDINAL="2333" NAME="?handleComputeMonthStart@CECalendar@icu_53@@MEBAHHHC@Z" PURGE="0" COMMENT="" />
    <EXPORT ORDINAL="2334" NAME="?handleComputeMonthStart@ChineseCalendar@icu_53@@MEBAHHHC@Z" PURGE="0" COMMENT="" />
    <EXPORT ORDINAL="2335" NAME="?handleComputeMonthStart@GregorianCalendar@icu_53@@MEBAHHHC@Z" PURGE="0" COMMENT="" />
    <EXPORT ORDINAL="2336" NAME="?handleComputeMonthStart@HebrewCalendar@icu_53@@MEBAHHHC@Z" PURGE="0" COMMENT="" />
    <EXPORT ORDINAL="2337" NAME="?handleComputeMonthStart@IslamicCalendar@icu_53@@MEBAHHHC@Z" PURGE="0" COMMENT="" />
    <EXPORT ORDINAL="2338" NAME="?handleGetExtendedYear@ChineseCalendar@icu_53@@MEAAHXZ" PURGE="0" COMMENT="" />
    <EXPORT ORDINAL="2339" NAME="?handleGetExtendedYear@GregorianCalendar@icu_53@@MEAAHXZ" PURGE="0" COMMENT="" />
    <EXPORT ORDINAL="2340" NAME="?handleGetExtendedYear@HebrewCalendar@icu_53@@MEAAHXZ" PURGE="0" COMMENT="" />
    <EXPORT ORDINAL="2341" NAME="?handleGetExtendedYear@IslamicCalendar@icu_53@@MEAAHXZ" PURGE="0" COMMENT="" />
    <EXPORT ORDINAL="2342" NAME="?handleGetExtendedYearFromWeekFields@Calendar@icu_53@@MEAAHHH@Z" PURGE="0" COMMENT="" />
    <EXPORT ORDINAL="2343" NAME="?handleGetExtendedYearFromWeekFields@GregorianCalendar@icu_53@@MEAAHHH@Z" PURGE="0" COMMENT="" />
    <EXPORT ORDINAL="2344" NAME="?handleGetLimit@CECalendar@icu_53@@MEBAHW4UCalendarDateFields@@W4ELimitType@Calendar@2@@Z" PURGE="0" COMMENT="" />
    <EXPORT ORDINAL="2345" NAME="?handleGetLimit@ChineseCalendar@icu_53@@MEBAHW4UCalendarDateFields@@W4ELimitType@Calendar@2@@Z" PURGE="0" COMMENT="" />
    <EXPORT ORDINAL="2346" NAME="?handleGetLimit@GregorianCalendar@icu_53@@MEBAHW4UCalendarDateFields@@W4ELimitType@Calendar@2@@Z" PURGE="0" COMMENT="" />
    <EXPORT ORDINAL="2347" NAME="?handleGetLimit@HebrewCalendar@icu_53@@MEBAHW4UCalendarDateFields@@W4ELimitType@Calendar@2@@Z" PURGE="0" COMMENT="" />
    <EXPORT ORDINAL="2348" NAME="?handleGetLimit@IslamicCalendar@icu_53@@MEBAHW4UCalendarDateFields@@W4ELimitType@Calendar@2@@Z" PURGE="0" COMMENT="" />
    <EXPORT ORDINAL="2349" NAME="?handleGetMonthLength@Calendar@icu_53@@MEBAHHH@Z" PURGE="0" COMMENT="" />
    <EXPORT ORDINAL="2350" NAME="?handleGetMonthLength@ChineseCalendar@icu_53@@MEBAHHH@Z" PURGE="0" COMMENT="" />
    <EXPORT ORDINAL="2351" NAME="?handleGetMonthLength@GregorianCalendar@icu_53@@MEBAHHH@Z" PURGE="0" COMMENT="" />
    <EXPORT ORDINAL="2352" NAME="?handleGetMonthLength@HebrewCalendar@icu_53@@MEBAHHH@Z" PURGE="0" COMMENT="" />
    <EXPORT ORDINAL="2353" NAME="?handleGetMonthLength@IslamicCalendar@icu_53@@MEBAHHH@Z" PURGE="0" COMMENT="" />
    <EXPORT ORDINAL="2354" NAME="?handleGetSourceSet@CompoundTransliterator@icu_53@@MEBAXAEAVUnicodeSet@2@@Z" PURGE="0" COMMENT="" />
    <EXPORT ORDINAL="2355" NAME="?handleGetSourceSet@Transliterator@icu_53@@UEBAXAEAVUnicodeSet@2@@Z" PURGE="0" COMMENT="" />
    <EXPORT ORDINAL="2356" NAME="?handleGetTrailSurrogate@CollationIterator@icu_53@@MEAA_WXZ" PURGE="0" COMMENT="" />
    <EXPORT ORDINAL="2357" NAME="?handleGetTrailSurrogate@FCDUIterCollationIterator@icu_53@@MEAA_WXZ" PURGE="0" COMMENT="" />
    <EXPORT ORDINAL="2358" NAME="?handleGetTrailSurrogate@FCDUTF8CollationIterator@icu_53@@MEAA_WXZ" PURGE="0" COMMENT="" />
    <EXPORT ORDINAL="2359" NAME="?handleGetTrailSurrogate@UIterCollationIterator@icu_53@@MEAA_WXZ" PURGE="0" COMMENT="" />
    <EXPORT ORDINAL="2360" NAME="?handleGetTrailSurrogate@UTF16CollationIterator@icu_53@@MEAA_WXZ" PURGE="0" COMMENT="" />
    <EXPORT ORDINAL="2361" NAME="?handleGetYearLength@Calendar@icu_53@@MEBAHH@Z" PURGE="0" COMMENT="" />
    <EXPORT ORDINAL="2362" NAME="?handleGetYearLength@GregorianCalendar@icu_53@@MEBAHH@Z" PURGE="0" COMMENT="" />
    <EXPORT ORDINAL="2363" NAME="?handleGetYearLength@HebrewCalendar@icu_53@@MEBAHH@Z" PURGE="0" COMMENT="" />
    <EXPORT ORDINAL="2364" NAME="?handleGetYearLength@IslamicCalendar@icu_53@@MEBAHH@Z" PURGE="0" COMMENT="" />
    <EXPORT ORDINAL="2365" NAME="?handleNext@StringSearch@icu_53@@MEAAHHAEAW4UErrorCode@@@Z" PURGE="0" COMMENT="" />
    <EXPORT ORDINAL="2366" NAME="?handleNextCE32@CollationIterator@icu_53@@MEAAIAEAHAEAW4UErrorCode@@@Z" PURGE="0" COMMENT="" />
    <EXPORT ORDINAL="2367" NAME="?handleNextCE32@FCDUIterCollationIterator@icu_53@@MEAAIAEAHAEAW4UErrorCode@@@Z" PURGE="0" COMMENT="" />
    <EXPORT ORDINAL="2368" NAME="?handleNextCE32@FCDUTF16CollationIterator@icu_53@@MEAAIAEAHAEAW4UErrorCode@@@Z" PURGE="0" COMMENT="" />
    <EXPORT ORDINAL="2369" NAME="?handleNextCE32@FCDUTF8CollationIterator@icu_53@@MEAAIAEAHAEAW4UErrorCode@@@Z" PURGE="0" COMMENT="" />
    <EXPORT ORDINAL="2370" NAME="?handleNextCE32@UIterCollationIterator@icu_53@@MEAAIAEAHAEAW4UErrorCode@@@Z" PURGE="0" COMMENT="" />
    <EXPORT ORDINAL="2371" NAME="?handleNextCE32@UTF16CollationIterator@icu_53@@MEAAIAEAHAEAW4UErrorCode@@@Z" PURGE="0" COMMENT="" />
    <EXPORT ORDINAL="2372" NAME="?handleNextCE32@UTF8CollationIterator@icu_53@@MEAAIAEAHAEAW4UErrorCode@@@Z" PURGE="0" COMMENT="" />
    <EXPORT ORDINAL="2373" NAME="?handlePrev@StringSearch@icu_53@@MEAAHHAEAW4UErrorCode@@@Z" PURGE="0" COMMENT="" />
    <EXPORT ORDINAL="2374" NAME="?handleTransliterate@CompoundTransliterator@icu_53@@MEBAXAEAVReplaceable@2@AEAUUTransPosition@@C@Z" PURGE="0" COMMENT="" />
    <EXPORT ORDINAL="2375" NAME="?hasAnchoringBounds@RegexMatcher@icu_53@@UEBACXZ" PURGE="0" COMMENT="" />
    <EXPORT ORDINAL="2376" NAME="?hasBackwardSecondary@CollationSettings@icu_53@@QEBACXZ" PURGE="0" COMMENT="" />
    <EXPORT ORDINAL="2377" NAME="?hasCE32Tag@Collation@icu_53@@SACIH@Z" PURGE="0" COMMENT="" />
    <EXPORT ORDINAL="2378" NAME="?hasEquivalentTransitions@BasicTimeZone@icu_53@@UEBACAEBV12@NNCAEAW4UErrorCode@@@Z" PURGE="0" COMMENT="" />
    <EXPORT ORDINAL="2379" NAME="?hasLccc@CollationFCD@icu_53@@SACH@Z" PURGE="0" COMMENT="" />
    <EXPORT ORDINAL="2380" NAME="?hasMappings@CollationDataBuilder@icu_53@@QEBACXZ" PURGE="0" COMMENT="" />
    <EXPORT ORDINAL="2381" NAME="?hasNoMajorSolarTerm@ChineseCalendar@icu_53@@EEBACH@Z" PURGE="0" COMMENT="" />
    <EXPORT ORDINAL="2382" NAME="?hasSameRules@OlsonTimeZone@icu_53@@UEBACAEBVTimeZone@2@@Z" PURGE="0" COMMENT="" />
    <EXPORT ORDINAL="2383" NAME="?hasSameRules@RuleBasedTimeZone@icu_53@@UEBACAEBVTimeZone@2@@Z" PURGE="0" COMMENT="" />
    <EXPORT ORDINAL="2384" NAME="?hasSameRules@SimpleTimeZone@icu_53@@UEBACAEBVTimeZone@2@@Z" PURGE="0" COMMENT="" />
    <EXPORT ORDINAL="2385" NAME="?hasSameRules@TimeZone@icu_53@@UEBACAEBV12@@Z" PURGE="0" COMMENT="" />
    <EXPORT ORDINAL="2386" NAME="?hasSameRules@VTimeZone@icu_53@@UEBACAEBVTimeZone@2@@Z" PURGE="0" COMMENT="" />
    <EXPORT ORDINAL="2387" NAME="?hasTccc@CollationFCD@icu_53@@SACH@Z" PURGE="0" COMMENT="" />
    <EXPORT ORDINAL="2388" NAME="?hasTransparentBounds@RegexMatcher@icu_53@@UEBACXZ" PURGE="0" COMMENT="" />
    <EXPORT ORDINAL="2389" NAME="?hashCode@CollationKey@icu_53@@QEBAHXZ" PURGE="0" COMMENT="" />
    <EXPORT ORDINAL="2390" NAME="?hashCode@CollationSettings@icu_53@@QEBAHXZ" PURGE="0" COMMENT="" />
    <EXPORT ORDINAL="2391" NAME="?hashCode@RuleBasedCollator@icu_53@@UEBAHXZ" PURGE="0" COMMENT="" />
    <EXPORT ORDINAL="2392" NAME="?hashCode@ScriptSet@icu_53@@QEBAHXZ" PURGE="0" COMMENT="" />
    <EXPORT ORDINAL="2393" NAME="?haveDefaultCentury@CECalendar@icu_53@@MEBACXZ" PURGE="0" COMMENT="" />
    <EXPORT ORDINAL="2394" NAME="?haveDefaultCentury@ChineseCalendar@icu_53@@MEBACXZ" PURGE="0" COMMENT="" />
    <EXPORT ORDINAL="2395" NAME="?haveDefaultCentury@GregorianCalendar@icu_53@@UEBACXZ" PURGE="0" COMMENT="" />
    <EXPORT ORDINAL="2396" NAME="?haveDefaultCentury@HebrewCalendar@icu_53@@MEBACXZ" PURGE="0" COMMENT="" />
    <EXPORT ORDINAL="2397" NAME="?haveDefaultCentury@IslamicCalendar@icu_53@@MEBACXZ" PURGE="0" COMMENT="" />
    <EXPORT ORDINAL="2398" NAME="?hitEnd@RegexMatcher@icu_53@@UEBACXZ" PURGE="0" COMMENT="" />
    <EXPORT ORDINAL="2399" NAME="?ignorePrefix@CollationBuilder@icu_53@@AEBACAEBVUnicodeString@2@AEAW4UErrorCode@@@Z" PURGE="0" COMMENT="" />
    <EXPORT ORDINAL="2400" NAME="?ignoreString@CollationBuilder@icu_53@@AEBACAEBVUnicodeString@2@AEAW4UErrorCode@@@Z" PURGE="0" COMMENT="" />
    <EXPORT ORDINAL="2401" NAME="?inDaylightTime@CECalendar@icu_53@@MEBACAEAW4UErrorCode@@@Z" PURGE="0" COMMENT="" />
    <EXPORT ORDINAL="2402" NAME="?inDaylightTime@ChineseCalendar@icu_53@@MEBACAEAW4UErrorCode@@@Z" PURGE="0" COMMENT="" />
    <EXPORT ORDINAL="2403" NAME="?inDaylightTime@GregorianCalendar@icu_53@@UEBACAEAW4UErrorCode@@@Z" PURGE="0" COMMENT="" />
    <EXPORT ORDINAL="2404" NAME="?inDaylightTime@HebrewCalendar@icu_53@@MEBACAEAW4UErrorCode@@@Z" PURGE="0" COMMENT="" />
    <EXPORT ORDINAL="2405" NAME="?inDaylightTime@IslamicCalendar@icu_53@@MEBACAEAW4UErrorCode@@@Z" PURGE="0" COMMENT="" />
    <EXPORT ORDINAL="2406" NAME="?inDaylightTime@OlsonTimeZone@icu_53@@UEBACNAEAW4UErrorCode@@@Z" PURGE="0" COMMENT="" />
    <EXPORT ORDINAL="2407" NAME="?inDaylightTime@RuleBasedTimeZone@icu_53@@UEBACNAEAW4UErrorCode@@@Z" PURGE="0" COMMENT="" />
    <EXPORT ORDINAL="2408" NAME="?inDaylightTime@SimpleTimeZone@icu_53@@UEBACNAEAW4UErrorCode@@@Z" PURGE="0" COMMENT="" />
    <EXPORT ORDINAL="2409" NAME="?inDaylightTime@VTimeZone@icu_53@@UEBACNAEAW4UErrorCode@@@Z" PURGE="0" COMMENT="" />
    <EXPORT ORDINAL="2410" NAME="?inSameGroup@CollationFastLatinBuilder@icu_53@@AEBACII@Z" PURGE="0" COMMENT="" />
    <EXPORT ORDINAL="2411" NAME="?incThreeBytePrimaryByOffset@Collation@icu_53@@SAIICH@Z" PURGE="0" COMMENT="" />
    <EXPORT ORDINAL="2412" NAME="?incTwoBytePrimaryByOffset@Collation@icu_53@@SAIICH@Z" PURGE="0" COMMENT="" />
    <EXPORT ORDINAL="2413" NAME="?incWeight@CollationWeights@icu_53@@AEBAIIH@Z" PURGE="0" COMMENT="" />
    <EXPORT ORDINAL="2414" NAME="?incWeightByOffset@CollationWeights@icu_53@@AEBAIIHH@Z" PURGE="0" COMMENT="" />
    <EXPORT ORDINAL="2415" NAME="?indexFromCE32@Collation@icu_53@@SAHI@Z" PURGE="0" COMMENT="" />
    <EXPORT ORDINAL="2416" NAME="?indexFromTempCE32@CollationBuilder@icu_53@@CAHI@Z" PURGE="0" COMMENT="" />
    <EXPORT ORDINAL="2417" NAME="?indexFromTempCE@CollationBuilder@icu_53@@CAH_J@Z" PURGE="0" COMMENT="" />
    <EXPORT ORDINAL="2418" NAME="?init2@RegexMatcher@icu_53@@AEAAXPEAUUText@@AEAW4UErrorCode@@@Z" PURGE="0" COMMENT="" />
    <EXPORT ORDINAL="2419" NAME="?init@AlphabeticIndex@icu_53@@AEAAXPEBVLocale@2@AEAW4UErrorCode@@@Z" PURGE="0" COMMENT="" />
    <EXPORT ORDINAL="2420" NAME="?init@CollationBaseDataBuilder@icu_53@@QEAAXAEAW4UErrorCode@@@Z" PURGE="0" COMMENT="" />
    <EXPORT ORDINAL="2421" NAME="?init@CompoundTransliterator@icu_53@@AEAAXAEAVUVector@2@W4UTransDirection@@CAEAW4UErrorCode@@@Z" PURGE="0" COMMENT="" />
    <EXPORT ORDINAL="2422" NAME="?init@CompoundTransliterator@icu_53@@AEAAXAEBVUnicodeString@2@W4UTransDirection@@CAEAW4UErrorCode@@@Z" PURGE="0" COMMENT="" />
    <EXPORT ORDINAL="2423" NAME="?init@DecimalFormat@icu_53@@AEAAXXZ" PURGE="0" COMMENT="" />
    <EXPORT ORDINAL="2424" NAME="?init@FixedDecimal@icu_53@@QEAAXN@Z" PURGE="0" COMMENT="" />
    <EXPORT ORDINAL="2425" NAME="?init@FixedDecimal@icu_53@@QEAAXNH_J@Z" PURGE="0" COMMENT="" />
    <EXPORT ORDINAL="2426" NAME="?init@Formattable@icu_53@@AEAAXXZ" PURGE="0" COMMENT="" />
    <EXPORT ORDINAL="2427" NAME="?init@PluralFormat@icu_53@@AEAAXPEBVPluralRules@2@W4UPluralType@@AEAW4UErrorCode@@@Z" PURGE="0" COMMENT="" />
    <EXPORT ORDINAL="2428" NAME="?init@RegexMatcher@icu_53@@AEAAXAEAW4UErrorCode@@@Z" PURGE="0" COMMENT="" />
    <EXPORT ORDINAL="2429" NAME="?init@RegexPattern@icu_53@@AEAAXXZ" PURGE="0" COMMENT="" />
    <EXPORT ORDINAL="2430" NAME="?init@RelativeDateTimeFormatter@icu_53@@AEAAXAEBVLocale@2@PEAVNumberFormat@2@AEAW4UErrorCode@@@Z" PURGE="0" COMMENT="" />
    <EXPORT ORDINAL="2431" NAME="?init@RuleBasedNumberFormat@icu_53@@AEAAXAEBVUnicodeString@2@PEAVLocalizationInfo@2@AEAUUParseError@@AEAW4UErrorCode@@@Z" PURGE="0" COMMENT="" />
    <EXPORT ORDINAL="2432" NAME="?initBuckets@AlphabeticIndex@icu_53@@AEAAXAEAW4UErrorCode@@@Z" PURGE="0" COMMENT="" />
    <EXPORT ORDINAL="2433" NAME="?initCapitalizationContextInfo@RuleBasedNumberFormat@icu_53@@AEAAXAEBVLocale@2@@Z" PURGE="0" COMMENT="" />
    <EXPORT ORDINAL="2434" NAME="?initCurrency@MeasureUnit@icu_53@@IEAAXPEBD@Z" PURGE="0" COMMENT="" />
    <EXPORT ORDINAL="2435" NAME="?initData@DateTimePatternGenerator@icu_53@@AEAAXAEBVLocale@2@AEAW4UErrorCode@@@Z" PURGE="0" COMMENT="" />
    <EXPORT ORDINAL="2436" NAME="?initDataMembers@TimeUnitFormat@icu_53@@AEAAXAEAW4UErrorCode@@@Z" PURGE="0" COMMENT="" />
    <EXPORT ORDINAL="2437" NAME="?initDefaultRuleSet@RuleBasedNumberFormat@icu_53@@AEAAXXZ" PURGE="0" COMMENT="" />
    <EXPORT ORDINAL="2438" NAME="?initForPrimary@CollationWeights@icu_53@@QEAAXC@Z" PURGE="0" COMMENT="" />
    <EXPORT ORDINAL="2439" NAME="?initForSecondary@CollationWeights@icu_53@@QEAAXXZ" PURGE="0" COMMENT="" />
    <EXPORT ORDINAL="2440" NAME="?initForTailoring@CollationDataBuilder@icu_53@@QEAAXPEBUCollationData@2@AEAW4UErrorCode@@@Z" PURGE="0" COMMENT="" />
    <EXPORT ORDINAL="2441" NAME="?initForTertiary@CollationWeights@icu_53@@QEAAXXZ" PURGE="0" COMMENT="" />
    <EXPORT ORDINAL="2442" NAME="?initGMTOffsetPatterns@TimeZoneFormat@icu_53@@AEAAXAEAW4UErrorCode@@@Z" PURGE="0" COMMENT="" />
    <EXPORT ORDINAL="2443" NAME="?initGMTPattern@TimeZoneFormat@icu_53@@AEAAXAEBVUnicodeString@2@AEAW4UErrorCode@@@Z" PURGE="0" COMMENT="" />
    <EXPORT ORDINAL="2444" NAME="?initHanRanges@CollationBaseDataBuilder@icu_53@@QEAAXQEBHHAEAW4UErrorCode@@@Z" PURGE="0" COMMENT="" />
    <EXPORT ORDINAL="2445" NAME="?initHash@CurrencyPluralInfo@icu_53@@AEAAPEAVHashtable@2@AEAW4UErrorCode@@@Z" PURGE="0" COMMENT="" />
    <EXPORT ORDINAL="2446" NAME="?initHash@DateIntervalInfo@icu_53@@AEAAPEAVHashtable@2@AEAW4UErrorCode@@@Z" PURGE="0" COMMENT="" />
    <EXPORT ORDINAL="2447" NAME="?initHash@TimeUnitFormat@icu_53@@AEAAPEAVHashtable@2@AEAW4UErrorCode@@@Z" PURGE="0" COMMENT="" />
    <EXPORT ORDINAL="2448" NAME="?initHashForAffix@DecimalFormat@icu_53@@AEAAPEAVHashtable@2@AEAW4UErrorCode@@@Z" PURGE="0" COMMENT="" />
    <EXPORT ORDINAL="2449" NAME="?initHashForAffixPattern@DecimalFormat@icu_53@@AEAAPEAVHashtable@2@AEAW4UErrorCode@@@Z" PURGE="0" COMMENT="" />
    <EXPORT ORDINAL="2450" NAME="?initHashtable@DateTimePatternGenerator@icu_53@@AEAAXAEAW4UErrorCode@@@Z" PURGE="0" COMMENT="" />
    <EXPORT ORDINAL="2451" NAME="?initLabels@AlphabeticIndex@icu_53@@AEBAXAEAVUVector@2@AEAW4UErrorCode@@@Z" PURGE="0" COMMENT="" />
    <EXPORT ORDINAL="2452" NAME="?initMaxExpansions@RuleBasedCollator@icu_53@@AEBACAEAW4UErrorCode@@@Z" PURGE="0" COMMENT="" />
    <EXPORT ORDINAL="2453" NAME="?initMeasureFormat@MeasureFormat@icu_53@@IEAAXAEBVLocale@2@W4UMeasureFormatWidth@@PEAVNumberFormat@2@AEAW4UErrorCode@@@Z" PURGE="0" COMMENT="" />
    <EXPORT ORDINAL="2454" NAME="?initNumberFormatters@SimpleDateFormat@icu_53@@AEAAXAEBVLocale@2@AEAW4UErrorCode@@@Z" PURGE="0" COMMENT="" />
    <EXPORT ORDINAL="2455" NAME="?initStartTimes@TimeArrayTimeZoneRule@icu_53@@AEAACQEBNHAEAW4UErrorCode@@@Z" PURGE="0" COMMENT="" />
    <EXPORT ORDINAL="2456" NAME="?initTime@MeasureUnit@icu_53@@IEAAXPEBD@Z" PURGE="0" COMMENT="" />
    <EXPORT ORDINAL="2457" NAME="?initTransitionRules@OlsonTimeZone@icu_53@@QEAAXAEAW4UErrorCode@@@Z" PURGE="0" COMMENT="" />
    <EXPORT ORDINAL="2458" NAME="?initTransitionRules@SimpleTimeZone@icu_53@@AEAAXAEAW4UErrorCode@@@Z" PURGE="0" COMMENT="" />
    <EXPORT ORDINAL="2459" NAME="?initZoneStringsArray@DateFormatSymbols@icu_53@@AEAAXXZ" PURGE="0" COMMENT="" />
    <EXPORT ORDINAL="2460" NAME="?initialDstOffset@OlsonTimeZone@icu_53@@AEBAHXZ" PURGE="0" COMMENT="" />
    <EXPORT ORDINAL="2461" NAME="?initialRawOffset@OlsonTimeZone@icu_53@@AEBAHXZ" PURGE="0" COMMENT="" />
    <EXPORT ORDINAL="2462" NAME="?initialize@CurrencyPluralInfo@icu_53@@AEAAXAEBVLocale@2@AEAW4UErrorCode@@@Z" PURGE="0" COMMENT="" />
    <EXPORT ORDINAL="2463" NAME="?initialize@DecimalFormatSymbols@icu_53@@AEAAXAEBVLocale@2@AEAW4UErrorCode@@C@Z" PURGE="0" COMMENT="" />
    <EXPORT ORDINAL="2464" NAME="?initialize@DecimalFormatSymbols@icu_53@@AEAAXXZ" PURGE="0" COMMENT="" />
    <EXPORT ORDINAL="2465" NAME="?initialize@SimpleDateFormat@icu_53@@AEAAXAEBVLocale@2@AEAW4UErrorCode@@@Z" PURGE="0" COMMENT="" />
    <EXPORT ORDINAL="2466" NAME="?initializeBooleanAttributes@SimpleDateFormat@icu_53@@AEAAXXZ" PURGE="0" COMMENT="" />
    <EXPORT ORDINAL="2467" NAME="?initializeCalendar@SimpleDateFormat@icu_53@@AEAAPEAVCalendar@2@PEAVTimeZone@2@AEBVLocale@2@AEAW4UErrorCode@@@Z" PURGE="0" COMMENT="" />
    <EXPORT ORDINAL="2468" NAME="?initializeData@DateFormatSymbols@icu_53@@AEAAXAEBVLocale@2@PEBDAEAW4UErrorCode@@C@Z" PURGE="0" COMMENT="" />
    <EXPORT ORDINAL="2469" NAME="?initializeData@DateIntervalInfo@icu_53@@AEAAXAEBVLocale@2@AEAW4UErrorCode@@@Z" PURGE="0" COMMENT="" />
    <EXPORT ORDINAL="2470" NAME="?initializeDefaultCentury@SimpleDateFormat@icu_53@@AEAAXXZ" PURGE="0" COMMENT="" />
    <EXPORT ORDINAL="2471" NAME="?initializePattern@DateIntervalFormat@icu_53@@AEAAXAEAW4UErrorCode@@@Z" PURGE="0" COMMENT="" />
    <EXPORT ORDINAL="2472" NAME="?initializeRegistry@Transliterator@icu_53@@CACAEAW4UErrorCode@@@Z" PURGE="0" COMMENT="" />
    <EXPORT ORDINAL="2473" NAME="?initializeSymbols@SimpleDateFormat@icu_53@@AEAAXAEBVLocale@2@PEAVCalendar@2@AEAW4UErrorCode@@@Z" PURGE="0" COMMENT="" />
    <EXPORT ORDINAL="2474" NAME="?initializeSystemDefaultCentury@IslamicCalendar@icu_53@@CAXXZ" PURGE="0" COMMENT="" />
    <EXPORT ORDINAL="2475" NAME="?input@RegexMatcher@icu_53@@UEBAAEBVUnicodeString@2@XZ" PURGE="0" COMMENT="" />
    <EXPORT ORDINAL="2476" NAME="?inputText@RegexMatcher@icu_53@@UEBAPEAUUText@@XZ" PURGE="0" COMMENT="" />
    <EXPORT ORDINAL="2477" NAME="?insertNodeBetween@CollationBuilder@icu_53@@AEAAHHH_JAEAW4UErrorCode@@@Z" PURGE="0" COMMENT="" />
    <EXPORT ORDINAL="2478" NAME="?insertTailoredNodeAfter@CollationBuilder@icu_53@@AEAAHHHAEAW4UErrorCode@@@Z" PURGE="0" COMMENT="" />
    <EXPORT ORDINAL="2479" NAME="?integerToken@Transliterator@icu_53@@SA?ATToken@12@H@Z" PURGE="0" COMMENT="" />
    <EXPORT ORDINAL="2480" NAME="?internalAddContractions@RuleBasedCollator@icu_53@@QEBAXHAEAVUnicodeSet@2@AEAW4UErrorCode@@@Z" PURGE="0" COMMENT="" />
    <EXPORT ORDINAL="2481" NAME="?internalBuildTailoring@RuleBasedCollator@icu_53@@QEAAXAEBVUnicodeString@2@HW4UColAttributeValue@@PEAUUParseError@@PEAV32@AEAW4UErrorCode@@@Z" PURGE="0" COMMENT="" />
    <EXPORT ORDINAL="2482" NAME="?internalClear@DigitList@icu_53@@AEAAXXZ" PURGE="0" COMMENT="" />
    <EXPORT ORDINAL="2483" NAME="?internalCompareUTF8@Collator@icu_53@@UEBA?AW4UCollationResult@@PEBDH0HAEAW4UErrorCode@@@Z" PURGE="0" COMMENT="" />
    <EXPORT ORDINAL="2484" NAME="?internalCompareUTF8@RuleBasedCollator@icu_53@@UEBA?AW4UCollationResult@@PEBDH0HAEAW4UErrorCode@@@Z" PURGE="0" COMMENT="" />
    <EXPORT ORDINAL="2485" NAME="?internalCreateInstance@NumberFormat@icu_53@@SAPEAV12@AEBVLocale@2@W4UNumberFormatStyle@@AEAW4UErrorCode@@@Z" PURGE="0" COMMENT="" />
    <EXPORT ORDINAL="2486" NAME="?internalForLocale@PluralRules@icu_53@@SAPEAV12@AEBVLocale@2@W4UPluralType@@AEAW4UErrorCode@@@Z" PURGE="0" COMMENT="" />
    <EXPORT ORDINAL="2487" NAME="?internalGet@Calendar@icu_53@@IEBAHW4EDateFields@12@@Z" PURGE="0" COMMENT="" />
    <EXPORT ORDINAL="2488" NAME="?internalGet@Calendar@icu_53@@IEBAHW4UCalendarDateFields@@@Z" PURGE="0" COMMENT="" />
    <EXPORT ORDINAL="2489" NAME="?internalGet@Calendar@icu_53@@IEBAHW4UCalendarDateFields@@H@Z" PURGE="0" COMMENT="" />
    <EXPORT ORDINAL="2490" NAME="?internalGetCEs@RuleBasedCollator@icu_53@@QEBAXAEBVUnicodeString@2@AEAVUVector64@2@AEAW4UErrorCode@@@Z" PURGE="0" COMMENT="" />
    <EXPORT ORDINAL="2491" NAME="?internalGetCharString@Formattable@icu_53@@QEAAPEAVCharString@2@AEAW4UErrorCode@@@Z" PURGE="0" COMMENT="" />
    <EXPORT ORDINAL="2492" NAME="?internalGetContractionsAndExpansions@RuleBasedCollator@icu_53@@QEBAXPEAVUnicodeSet@2@0CAEAW4UErrorCode@@@Z" PURGE="0" COMMENT="" />
    <EXPORT ORDINAL="2493" NAME="?internalGetDefaultCenturyStart@ChineseCalendar@icu_53@@AEBANXZ" PURGE="0" COMMENT="" />
    <EXPORT ORDINAL="2494" NAME="?internalGetDefaultCenturyStartYear@ChineseCalendar@icu_53@@AEBAHXZ" PURGE="0" COMMENT="" />
    <EXPORT ORDINAL="2495" NAME="?internalGetEra@GregorianCalendar@icu_53@@MEBAHXZ" PURGE="0" COMMENT="" />
    <EXPORT ORDINAL="2496" NAME="?internalGetLocaleID@RuleBasedCollator@icu_53@@QEBAPEBDW4ULocDataLocaleType@@AEAW4UErrorCode@@@Z" PURGE="0" COMMENT="" />
    <EXPORT ORDINAL="2497" NAME="?internalGetShortDefinitionString@Collator@icu_53@@UEBAHPEBDPEADHAEAW4UErrorCode@@@Z" PURGE="0" COMMENT="" />
    <EXPORT ORDINAL="2498" NAME="?internalGetShortDefinitionString@RuleBasedCollator@icu_53@@UEBAHPEBDPEADHAEAW4UErrorCode@@@Z" PURGE="0" COMMENT="" />
    <EXPORT ORDINAL="2499" NAME="?internalGetTime@Calendar@icu_53@@IEBANXZ" PURGE="0" COMMENT="" />
    <EXPORT ORDINAL="2500" NAME="?internalNextSortKeyPart@Collator@icu_53@@UEBAHPEAUUCharIterator@@QEAIPEAEHAEAW4UErrorCode@@@Z" PURGE="0" COMMENT="" />
    <EXPORT ORDINAL="2501" NAME="?internalNextSortKeyPart@RuleBasedCollator@icu_53@@UEBAHPEAUUCharIterator@@QEAIPEAEHAEAW4UErrorCode@@@Z" PURGE="0" COMMENT="" />
    <EXPORT ORDINAL="2502" NAME="?internalResetBucketIterator@AlphabeticIndex@icu_53@@AEAAXXZ" PURGE="0" COMMENT="" />
    <EXPORT ORDINAL="2503" NAME="?internalSet@Calendar@icu_53@@IEAAXW4EDateFields@12@H@Z" PURGE="0" COMMENT="" />
    <EXPORT ORDINAL="2504" NAME="?internalSet@Calendar@icu_53@@IEAAXW4UCalendarDateFields@@H@Z" PURGE="0" COMMENT="" />
    <EXPORT ORDINAL="2505" NAME="?internalSetDouble@DigitList@icu_53@@AEAAXN@Z" PURGE="0" COMMENT="" />
    <EXPORT ORDINAL="2506" NAME="?internalSetInt64@DigitList@icu_53@@AEAAX_J@Z" PURGE="0" COMMENT="" />
    <EXPORT ORDINAL="2507" NAME="?internalSetTime@Calendar@icu_53@@IEAAXN@Z" PURGE="0" COMMENT="" />
    <EXPORT ORDINAL="2508" NAME="?intersect@ScriptSet@icu_53@@QEAAAEAV12@AEBV12@@Z" PURGE="0" COMMENT="" />
    <EXPORT ORDINAL="2509" NAME="?intersect@ScriptSet@icu_53@@QEAAAEAV12@W4UScriptCode@@AEAW4UErrorCode@@@Z" PURGE="0" COMMENT="" />
    <EXPORT ORDINAL="2510" NAME="?intersects@ScriptSet@icu_53@@QEBACAEBV12@@Z" PURGE="0" COMMENT="" />
    <EXPORT ORDINAL="2511" NAME="?isAcceptable@CollationDataReader@icu_53@@SACPEAXPEBD1PEBUUDataInfo@@@Z" PURGE="0" COMMENT="" />
    <EXPORT ORDINAL="2512" NAME="?isAfterNonNumericField@SimpleDateFormat@icu_53@@CACAEBVUnicodeString@2@H@Z" PURGE="0" COMMENT="" />
    <EXPORT ORDINAL="2513" NAME="?isAlgorithmic@NumberingSystem@icu_53@@QEBACXZ" PURGE="0" COMMENT="" />
    <EXPORT ORDINAL="2514" NAME="?isAssigned@CollationDataBuilder@icu_53@@QEBACH@Z" PURGE="0" COMMENT="" />
    <EXPORT ORDINAL="2515" NAME="?isAssignedCE32@Collation@icu_53@@SACI@Z" PURGE="0" COMMENT="" />
    <EXPORT ORDINAL="2516" NAME="?isAtNumericField@SimpleDateFormat@icu_53@@CACAEBVUnicodeString@2@H@Z" PURGE="0" COMMENT="" />
    <EXPORT ORDINAL="2517" NAME="?isAvailableFormatSet@DateTimePatternGenerator@icu_53@@AEBACAEBVUnicodeString@2@@Z" PURGE="0" COMMENT="" />
    <EXPORT ORDINAL="2518" NAME="?isBogus@CollationKey@icu_53@@QEBACXZ" PURGE="0" COMMENT="" />
    <EXPORT ORDINAL="2519" NAME="?isBogus@CollationTailoring@icu_53@@QEAACXZ" PURGE="0" COMMENT="" />
    <EXPORT ORDINAL="2520" NAME="?isBuilderContextCE32@CollationDataBuilder@icu_53@@KACI@Z" PURGE="0" COMMENT="" />
    <EXPORT ORDINAL="2521" NAME="?isCalendarLenient@DateFormat@icu_53@@UEBACXZ" PURGE="0" COMMENT="" />
    <EXPORT ORDINAL="2522" NAME="?isCanonicalItem@DateTimePatternGenerator@icu_53@@AEBACAEBVUnicodeString@2@@Z" PURGE="0" COMMENT="" />
    <EXPORT ORDINAL="2523" NAME="?isChunkWordBoundary@RegexMatcher@icu_53@@AEAACH@Z" PURGE="0" COMMENT="" />
    <EXPORT ORDINAL="2524" NAME="?isCivil@IslamicCalendar@icu_53@@QEAACXZ" PURGE="0" COMMENT="" />
    <EXPORT ORDINAL="2525" NAME="?isCompressibleLeadByte@CollationBaseDataBuilder@icu_53@@UEBACI@Z" PURGE="0" COMMENT="" />
    <EXPORT ORDINAL="2526" NAME="?isCompressibleLeadByte@CollationData@icu_53@@QEBACI@Z" PURGE="0" COMMENT="" />
    <EXPORT ORDINAL="2527" NAME="?isCompressibleLeadByte@CollationDataBuilder@icu_53@@UEBACI@Z" PURGE="0" COMMENT="" />
    <EXPORT ORDINAL="2528" NAME="?isCompressiblePrimary@CollationData@icu_53@@QEBACI@Z" PURGE="0" COMMENT="" />
    <EXPORT ORDINAL="2529" NAME="?isCompressiblePrimary@CollationDataBuilder@icu_53@@QEBACI@Z" PURGE="0" COMMENT="" />
    <EXPORT ORDINAL="2530" NAME="?isContractionCE32@Collation@icu_53@@SACI@Z" PURGE="0" COMMENT="" />
    <EXPORT ORDINAL="2531" NAME="?isContractionCharCE@CollationFastLatinBuilder@icu_53@@CAC_J@Z" PURGE="0" COMMENT="" />
    <EXPORT ORDINAL="2532" NAME="?isDecimalSeparatorAlwaysShown@DecimalFormat@icu_53@@QEBACXZ" PURGE="0" COMMENT="" />
    <EXPORT ORDINAL="2533" NAME="?isDigit@CollationData@icu_53@@QEBACH@Z" PURGE="0" COMMENT="" />
    <EXPORT ORDINAL="2534" NAME="?isEmpty@TextTrieMap@icu_53@@QEBAHXZ" PURGE="0" COMMENT="" />
    <EXPORT ORDINAL="2535" NAME="?isEndOfPrimaryRange@CollationRootElements@icu_53@@CACI@Z" PURGE="0" COMMENT="" />
    <EXPORT ORDINAL="2536" NAME="?isEquivalentTo@AnnualTimeZoneRule@icu_53@@UEBACAEBVTimeZoneRule@2@@Z" PURGE="0" COMMENT="" />
    <EXPORT ORDINAL="2537" NAME="?isEquivalentTo@Calendar@icu_53@@UEBACAEBV12@@Z" PURGE="0" COMMENT="" />
    <EXPORT ORDINAL="2538" NAME="?isEquivalentTo@GregorianCalendar@icu_53@@UEBACAEBVCalendar@2@@Z" PURGE="0" COMMENT="" />
    <EXPORT ORDINAL="2539" NAME="?isEquivalentTo@InitialTimeZoneRule@icu_53@@UEBACAEBVTimeZoneRule@2@@Z" PURGE="0" COMMENT="" />
    <EXPORT ORDINAL="2540" NAME="?isEquivalentTo@TimeArrayTimeZoneRule@icu_53@@UEBACAEBVTimeZoneRule@2@@Z" PURGE="0" COMMENT="" />
    <EXPORT ORDINAL="2541" NAME="?isEquivalentTo@TimeZoneRule@icu_53@@UEBACAEBV12@@Z" PURGE="0" COMMENT="" />
    <EXPORT ORDINAL="2542" NAME="?isExponentSignAlwaysShown@DecimalFormat@icu_53@@UEBACXZ" PURGE="0" COMMENT="" />
    <EXPORT ORDINAL="2543" NAME="?isFCD16OfTibetanCompositeVowel@CollationFCD@icu_53@@SACG@Z" PURGE="0" COMMENT="" />
    <EXPORT ORDINAL="2544" NAME="?isFCD@CollationBuilder@icu_53@@AEBACAEBVUnicodeString@2@AEAW4UErrorCode@@@Z" PURGE="0" COMMENT="" />
    <EXPORT ORDINAL="2545" NAME="?isFieldUnitIgnored@SimpleDateFormat@icu_53@@QEBACW4UCalendarDateFields@@@Z" PURGE="0" COMMENT="" />
    <EXPORT ORDINAL="2546" NAME="?isFieldUnitIgnored@SimpleDateFormat@icu_53@@SACAEBVUnicodeString@2@W4UCalendarDateFields@@@Z" PURGE="0" COMMENT="" />
    <EXPORT ORDINAL="2547" NAME="?isGroupingPosition@DecimalFormat@icu_53@@AEBACH@Z" PURGE="0" COMMENT="" />
    <EXPORT ORDINAL="2548" NAME="?isGroupingUsed@NumberFormat@icu_53@@QEBACXZ" PURGE="0" COMMENT="" />
    <EXPORT ORDINAL="2549" NAME="?isIgnorable@CollationElementIterator@icu_53@@SACH@Z" PURGE="0" COMMENT="" />
    <EXPORT ORDINAL="2550" NAME="?isInfinite@DigitList@icu_53@@QEBACXZ" PURGE="0" COMMENT="" />
    <EXPORT ORDINAL="2551" NAME="?isKeyword@PluralRules@icu_53@@QEBACAEBVUnicodeString@2@@Z" PURGE="0" COMMENT="" />
    <EXPORT ORDINAL="2552" NAME="?isLeapMonthBetween@ChineseCalendar@icu_53@@EEBACHH@Z" PURGE="0" COMMENT="" />
    <EXPORT ORDINAL="2553" NAME="?isLeapYear@GregorianCalendar@icu_53@@QEBACH@Z" PURGE="0" COMMENT="" />
    <EXPORT ORDINAL="2554" NAME="?isLeapYear@HebrewCalendar@icu_53@@SACH@Z" PURGE="0" COMMENT="" />
    <EXPORT ORDINAL="2555" NAME="?isLenient@Calendar@icu_53@@QEBACXZ" PURGE="0" COMMENT="" />
    <EXPORT ORDINAL="2556" NAME="?isLenient@DateFormat@icu_53@@UEBACXZ" PURGE="0" COMMENT="" />
    <EXPORT ORDINAL="2557" NAME="?isLenient@NumberFormat@icu_53@@UEBACXZ" PURGE="0" COMMENT="" />
    <EXPORT ORDINAL="2558" NAME="?isLenient@RuleBasedNumberFormat@icu_53@@UEBACXZ" PURGE="0" COMMENT="" />
    <EXPORT ORDINAL="2559" NAME="?isLongPrimaryCE32@Collation@icu_53@@SACI@Z" PURGE="0" COMMENT="" />
    <EXPORT ORDINAL="2560" NAME="?isNaN@DigitList@icu_53@@QEBACXZ" PURGE="0" COMMENT="" />
    <EXPORT ORDINAL="2561" NAME="?isNumeric@CollationSettings@icu_53@@QEBACXZ" PURGE="0" COMMENT="" />
    <EXPORT ORDINAL="2562" NAME="?isNumeric@Formattable@icu_53@@QEBACXZ" PURGE="0" COMMENT="" />
    <EXPORT ORDINAL="2563" NAME="?isNumeric@SimpleDateFormat@icu_53@@CAC_WH@Z" PURGE="0" COMMENT="" />
    <EXPORT ORDINAL="2564" NAME="?isNumericField@DateFormatSymbols@icu_53@@CACW4UDateFormatField@@H@Z" PURGE="0" COMMENT="" />
    <EXPORT ORDINAL="2565" NAME="?isNumericPatternChar@DateFormatSymbols@icu_53@@CAC_WH@Z" PURGE="0" COMMENT="" />
    <EXPORT ORDINAL="2566" NAME="?isParseIntegerOnly@NumberFormat@icu_53@@QEBACXZ" PURGE="0" COMMENT="" />
    <EXPORT ORDINAL="2567" NAME="?isPositive@DigitList@icu_53@@QEBACXZ" PURGE="0" COMMENT="" />
    <EXPORT ORDINAL="2568" NAME="?isPrefixCE32@Collation@icu_53@@SACI@Z" PURGE="0" COMMENT="" />
    <EXPORT ORDINAL="2569" NAME="?isScientificNotation@DecimalFormat@icu_53@@UEBACXZ" PURGE="0" COMMENT="" />
    <EXPORT ORDINAL="2570" NAME="?isSelfContainedCE32@Collation@icu_53@@SACI@Z" PURGE="0" COMMENT="" />
    <EXPORT ORDINAL="2571" NAME="?isSet@Calendar@icu_53@@QEBACW4UCalendarDateFields@@@Z" PURGE="0" COMMENT="" />
    <EXPORT ORDINAL="2572" NAME="?isSimpleOrLongCE32@Collation@icu_53@@SACI@Z" PURGE="0" COMMENT="" />
    <EXPORT ORDINAL="2573" NAME="?isSpecialCE32@Collation@icu_53@@SACI@Z" PURGE="0" COMMENT="" />
    <EXPORT ORDINAL="2574" NAME="?isStyleSupported@NumberFormat@icu_53@@CACW4UNumberFormatStyle@@@Z" PURGE="0" COMMENT="" />
    <EXPORT ORDINAL="2575" NAME="?isSyntaxChar@CollationRuleParser@icu_53@@CACH@Z" PURGE="0" COMMENT="" />
    <EXPORT ORDINAL="2576" NAME="?isTailoredNode@CollationBuilder@icu_53@@CAC_J@Z" PURGE="0" COMMENT="" />
    <EXPORT ORDINAL="2577" NAME="?isTempCE32@CollationBuilder@icu_53@@CACI@Z" PURGE="0" COMMENT="" />
    <EXPORT ORDINAL="2578" NAME="?isTempCE@CollationBuilder@icu_53@@CAC_J@Z" PURGE="0" COMMENT="" />
    <EXPORT ORDINAL="2579" NAME="?isTertiaryWithCaseBits@CollationSettings@icu_53@@SACH@Z" PURGE="0" COMMENT="" />
    <EXPORT ORDINAL="2580" NAME="?isUWordBoundary@RegexMatcher@icu_53@@AEAAC_J@Z" PURGE="0" COMMENT="" />
    <EXPORT ORDINAL="2581" NAME="?isUnsafe@RuleBasedCollator@icu_53@@AEBACH@Z" PURGE="0" COMMENT="" />
    <EXPORT ORDINAL="2582" NAME="?isUnsafeBackward@CollationData@icu_53@@QEBACHC@Z" PURGE="0" COMMENT="" />
    <EXPORT ORDINAL="2583" NAME="?isValid@QuantityFormatter@icu_53@@QEBACXZ" PURGE="0" COMMENT="" />
    <EXPORT ORDINAL="2584" NAME="?isValidDigitString@NumberingSystem@icu_53@@CACAEBVUnicodeString@2@@Z" PURGE="0" COMMENT="" />
    <EXPORT ORDINAL="2585" NAME="?isValidEnum@?$EnumSet@W4UDateFormatBooleanAttribute@@$0A@$03@icu_53@@QEBACW4UDateFormatBooleanAttribute@@@Z" PURGE="0" COMMENT="" />
    <EXPORT ORDINAL="2586" NAME="?isValidEnum@?$EnumSet@W4UNumberFormatAttribute@@$0BAAA@$0BAAC@@icu_53@@QEBACW4UNumberFormatAttribute@@@Z" PURGE="0" COMMENT="" />
    <EXPORT ORDINAL="2587" NAME="?isValidValue@?$EnumSet@W4UDateFormatBooleanAttribute@@$0A@$03@icu_53@@QEBACH@Z" PURGE="0" COMMENT="" />
    <EXPORT ORDINAL="2588" NAME="?isValidValue@?$EnumSet@W4UNumberFormatAttribute@@$0BAAA@$0BAAC@@icu_53@@QEBACH@Z" PURGE="0" COMMENT="" />
    <EXPORT ORDINAL="2589" NAME="?isWeekend@Calendar@icu_53@@UEBACNAEAW4UErrorCode@@@Z" PURGE="0" COMMENT="" />
    <EXPORT ORDINAL="2590" NAME="?isWeekend@Calendar@icu_53@@UEBACXZ" PURGE="0" COMMENT="" />
    <EXPORT ORDINAL="2591" NAME="?isWordBoundary@RegexMatcher@icu_53@@AEAAC_J@Z" PURGE="0" COMMENT="" />
    <EXPORT ORDINAL="2592" NAME="?isZero@DigitList@icu_53@@QEBACXZ" PURGE="0" COMMENT="" />
    <EXPORT ORDINAL="2593" NAME="?jamoCpFromIndex@CollationDataBuilder@icu_53@@KAHH@Z" PURGE="0" COMMENT="" />
    <EXPORT ORDINAL="2594" NAME="?jdToCE@CECalendar@icu_53@@KAXHHAEAH00@Z" PURGE="0" COMMENT="" />
    <EXPORT ORDINAL="2595" NAME="?joinIDs@CompoundTransliterator@icu_53@@AEAA?AVUnicodeString@2@QEBQEAVTransliterator@2@H@Z" PURGE="0" COMMENT="" />
    <EXPORT ORDINAL="2596" NAME="?julianDayToDayOfWeek@Calendar@icu_53@@KAEN@Z" PURGE="0" COMMENT="" />
    <EXPORT ORDINAL="2597" NAME="?julianDayToMillis@GregorianCalendar@icu_53@@CANN@Z" PURGE="0" COMMENT="" />
    <EXPORT ORDINAL="2598" NAME="?kDOWPrecedence@Calendar@icu_53@@1QAY1M@7$$CBHA" PURGE="-1" COMMENT="" />
    <EXPORT ORDINAL="2599" NAME="?kDatePrecedence@Calendar@icu_53@@1QAY1M@7$$CBHA" PURGE="-1" COMMENT="" />
    <EXPORT ORDINAL="2600" NAME="?kDoubleFractionDigits@DecimalFormat@icu_53@@1HB" PURGE="-1" COMMENT="" />
    <EXPORT ORDINAL="2601" NAME="?kDoubleIntegerDigits@DecimalFormat@icu_53@@1HB" PURGE="-1" COMMENT="" />
    <EXPORT ORDINAL="2602" NAME="?kMaxScientificIntegerDigits@DecimalFormat@icu_53@@1HB" PURGE="-1" COMMENT="" />
    <EXPORT ORDINAL="2603" NAME="?kYearPrecedence@Calendar@icu_53@@1QAY1M@7$$CBHA" PURGE="-1" COMMENT="" />
    <EXPORT ORDINAL="2604" NAME="?last@SearchIterator@icu_53@@QEAAHAEAW4UErrorCode@@@Z" PURGE="0" COMMENT="" />
    <EXPORT ORDINAL="2605" NAME="?lastCEWithPrimaryBefore@CollationRootElements@icu_53@@QEBA_JI@Z" PURGE="0" COMMENT="" />
    <EXPORT ORDINAL="2606" NAME="?latinCE0FromCE32@Collation@icu_53@@SA_JI@Z" PURGE="0" COMMENT="" />
    <EXPORT ORDINAL="2607" NAME="?latinCE1FromCE32@Collation@icu_53@@SA_JI@Z" PURGE="0" COMMENT="" />
    <EXPORT ORDINAL="2608" NAME="?lcccBits@CollationFCD@icu_53@@0QBIB" PURGE="-1" COMMENT="" />
    <EXPORT ORDINAL="2609" NAME="?lcccIndex@CollationFCD@icu_53@@0QBEB" PURGE="-1" COMMENT="" />
    <EXPORT ORDINAL="2610" NAME="?lengthFromCE32@Collation@icu_53@@SAHI@Z" PURGE="0" COMMENT="" />
    <EXPORT ORDINAL="2611" NAME="?lengthOfTable@CollationFastLatinBuilder@icu_53@@QEBAHXZ" PURGE="0" COMMENT="" />
    <EXPORT ORDINAL="2612" NAME="?lengthOfWeight@CollationWeights@icu_53@@SAHI@Z" PURGE="0" COMMENT="" />
    <EXPORT ORDINAL="2613" NAME="?lengthenRange@CollationWeights@icu_53@@AEBAXAEAUWeightRange@12@@Z" PURGE="0" COMMENT="" />
    <EXPORT ORDINAL="2614" NAME="?load@CollationRoot@icu_53@@CAXAEAW4UErrorCode@@@Z" PURGE="0" COMMENT="" />
    <EXPORT ORDINAL="2615" NAME="?load@VTimeZone@icu_53@@AEAAXAEAVVTZReader@2@AEAW4UErrorCode@@@Z" PURGE="0" COMMENT="" />
    <EXPORT ORDINAL="2616" NAME="?loadGroups@CollationFastLatinBuilder@icu_53@@AEAACAEBUCollationData@2@AEAW4UErrorCode@@@Z" PURGE="0" COMMENT="" />
    <EXPORT ORDINAL="2617" NAME="?loadInstance@GenderInfo@icu_53@@CAPEBV12@AEBVLocale@2@AEAW4UErrorCode@@@Z" PURGE="0" COMMENT="" />
    <EXPORT ORDINAL="2618" NAME="?loadRegionData@Region@icu_53@@CAXXZ" PURGE="0" COMMENT="" />
    <EXPORT ORDINAL="2619" NAME="?loadRule@TimeZone@icu_53@@KAPEAUUResourceBundle@@PEBU3@AEBVUnicodeString@2@PEAU3@AEAW4UErrorCode@@@Z" PURGE="0" COMMENT="" />
    <EXPORT ORDINAL="2620" NAME="?lookingAt@RegexMatcher@icu_53@@UEAACAEAW4UErrorCode@@@Z" PURGE="0" COMMENT="" />
    <EXPORT ORDINAL="2621" NAME="?lookingAt@RegexMatcher@icu_53@@UEAAC_JAEAW4UErrorCode@@@Z" PURGE="0" COMMENT="" />
    <EXPORT ORDINAL="2622" NAME="?lookup@CollationFastLatin@icu_53@@CAIPEBGH@Z" PURGE="0" COMMENT="" />
    <EXPORT ORDINAL="2623" NAME="?lookupUTF8@CollationFastLatin@icu_53@@CAIPEBGHPEBEAEAHH@Z" PURGE="0" COMMENT="" />
    <EXPORT ORDINAL="2624" NAME="?lookupUTF8Unsafe@CollationFastLatin@icu_53@@CAIPEBGHPEBEAEAH@Z" PURGE="0" COMMENT="" />
    <EXPORT ORDINAL="2625" NAME="?lstToUT@CalendarAstronomer@icu_53@@QEAANN@Z" PURGE="0" COMMENT="" />
    <EXPORT ORDINAL="2626" NAME="?majorSolarTerm@ChineseCalendar@icu_53@@EEBAHH@Z" PURGE="0" COMMENT="" />
    <EXPORT ORDINAL="2627" NAME="?makeBaseVersion@CollationTailoring@icu_53@@SAXQEBEQEAE@Z" PURGE="0" COMMENT="" />
    <EXPORT ORDINAL="2628" NAME="?makeBuilderContextCE32@CollationDataBuilder@icu_53@@KAIH@Z" PURGE="0" COMMENT="" />
    <EXPORT ORDINAL="2629" NAME="?makeCE32FromTagAndIndex@Collation@icu_53@@SAIHH@Z" PURGE="0" COMMENT="" />
    <EXPORT ORDINAL="2630" NAME="?makeCE32FromTagIndexAndLength@Collation@icu_53@@SAIHHH@Z" PURGE="0" COMMENT="" />
    <EXPORT ORDINAL="2631" NAME="?makeCE@Collation@icu_53@@SA_JI@Z" PURGE="0" COMMENT="" />
    <EXPORT ORDINAL="2632" NAME="?makeCE@Collation@icu_53@@SA_JIIII@Z" PURGE="0" COMMENT="" />
    <EXPORT ORDINAL="2633" NAME="?makeInstance@Collator@icu_53@@CAPEAV12@AEBVLocale@2@AEAW4UErrorCode@@@Z" PURGE="0" COMMENT="" />
    <EXPORT ORDINAL="2634" NAME="?makeInstance@NumberFormat@icu_53@@CAPEAV12@AEBVLocale@2@W4UNumberFormatStyle@@AEAW4UErrorCode@@@Z" PURGE="0" COMMENT="" />
    <EXPORT ORDINAL="2635" NAME="?makeInstance@NumberFormat@icu_53@@KAPEAV12@AEBVLocale@2@W4UNumberFormatStyle@@CAEAW4UErrorCode@@@Z" PURGE="0" COMMENT="" />
    <EXPORT ORDINAL="2636" NAME="?makeLongPrimaryCE32@Collation@icu_53@@SAII@Z" PURGE="0" COMMENT="" />
    <EXPORT ORDINAL="2637" NAME="?makeLongSecondaryCE32@Collation@icu_53@@SAII@Z" PURGE="0" COMMENT="" />
    <EXPORT ORDINAL="2638" NAME="?makeReorderTable@CollationData@icu_53@@QEBAXPEBHHQEAEAEAW4UErrorCode@@@Z" PURGE="0" COMMENT="" />
    <EXPORT ORDINAL="2639" NAME="?makeTailoredCEs@CollationBuilder@icu_53@@AEAAXAEAW4UErrorCode@@@Z" PURGE="0" COMMENT="" />
    <EXPORT ORDINAL="2640" NAME="?match@DecimalFormat@icu_53@@CAHAEBVUnicodeString@2@H0@Z" PURGE="0" COMMENT="" />
    <EXPORT ORDINAL="2641" NAME="?match@DecimalFormat@icu_53@@CAHAEBVUnicodeString@2@HH@Z" PURGE="0" COMMENT="" />
    <EXPORT ORDINAL="2642" NAME="?matchDecimal@DecimalFormat@icu_53@@CACHCHPEBVUnicodeSet@2@H@Z" PURGE="0" COMMENT="" />
    <EXPORT ORDINAL="2643" NAME="?matchGrouping@DecimalFormat@icu_53@@CACHCHPEBVUnicodeSet@2@H0H@Z" PURGE="0" COMMENT="" />
    <EXPORT ORDINAL="2644" NAME="?matchLiterals@SimpleDateFormat@icu_53@@CACAEBVUnicodeString@2@AEAH01CC@Z" PURGE="0" COMMENT="" />
    <EXPORT ORDINAL="2645" NAME="?matchQuarterString@SimpleDateFormat@icu_53@@AEBAHAEBVUnicodeString@2@HW4UCalendarDateFields@@PEBV32@HAEAVCalendar@2@@Z" PURGE="0" COMMENT="" />
    <EXPORT ORDINAL="2646" NAME="?matchString@SimpleDateFormat@icu_53@@AEBAHAEBVUnicodeString@2@HW4UCalendarDateFields@@PEBV32@H2AEAVCalendar@2@@Z" PURGE="0" COMMENT="" />
    <EXPORT ORDINAL="2647" NAME="?matchStringUntilLimitPart@ChoiceFormat@icu_53@@CAHAEBVMessagePattern@2@HHAEBVUnicodeString@2@H@Z" PURGE="0" COMMENT="" />
    <EXPORT ORDINAL="2648" NAME="?matchSymbol@DecimalFormat@icu_53@@CACAEBVUnicodeString@2@HH0PEAVUnicodeSet@2@H@Z" PURGE="0" COMMENT="" />
    <EXPORT ORDINAL="2649" NAME="?matcher@RegexPattern@icu_53@@UEBAPEAVRegexMatcher@2@AEAW4UErrorCode@@@Z" PURGE="0" COMMENT="" />
    <EXPORT ORDINAL="2650" NAME="?matcher@RegexPattern@icu_53@@UEBAPEAVRegexMatcher@2@AEBVUnicodeString@2@AEAW4UErrorCode@@@Z" PURGE="0" COMMENT="" />
    <EXPORT ORDINAL="2651" NAME="?matches@MatchInfoCollection@TimeZoneNames@icu_53@@AEAAPEAVUVector@3@AEAW4UErrorCode@@@Z" PURGE="0" COMMENT="" />
    <EXPORT ORDINAL="2652" NAME="?matches@RegexMatcher@icu_53@@UEAACAEAW4UErrorCode@@@Z" PURGE="0" COMMENT="" />
    <EXPORT ORDINAL="2653" NAME="?matches@RegexMatcher@icu_53@@UEAAC_JAEAW4UErrorCode@@@Z" PURGE="0" COMMENT="" />
    <EXPORT ORDINAL="2654" NAME="?matches@RegexPattern@icu_53@@SACAEBVUnicodeString@2@0AEAUUParseError@@AEAW4UErrorCode@@@Z" PURGE="0" COMMENT="" />
    <EXPORT ORDINAL="2655" NAME="?matches@RegexPattern@icu_53@@SACPEAUUText@@0AEAUUParseError@@AEAW4UErrorCode@@@Z" PURGE="0" COMMENT="" />
    <EXPORT ORDINAL="2656" NAME="?mayHaveLccc@CollationFCD@icu_53@@SACH@Z" PURGE="0" COMMENT="" />
    <EXPORT ORDINAL="2657" NAME="?maybeSetPrimaryRange@CollationDataBuilder@icu_53@@QEAACHHIHAEAW4UErrorCode@@@Z" PURGE="0" COMMENT="" />
    <EXPORT ORDINAL="2658" NAME="?maybeTibetanCompositeVowel@CollationFCD@icu_53@@SACH@Z" PURGE="0" COMMENT="" />
    <EXPORT ORDINAL="2659" NAME="?mergeCompositeIntoString@CollationBuilder@icu_53@@AEBACAEBVUnicodeString@2@HH0AEAV32@1AEAW4UErrorCode@@@Z" PURGE="0" COMMENT="" />
    <EXPORT ORDINAL="2660" NAME="?millisToDays@ChineseCalendar@icu_53@@AEBANN@Z" PURGE="0" COMMENT="" />
    <EXPORT ORDINAL="2661" NAME="?millisToJulianDay@GregorianCalendar@icu_53@@CANN@Z" PURGE="0" COMMENT="" />
    <EXPORT ORDINAL="2662" NAME="?monthLength@GregorianCalendar@icu_53@@MEBAHH@Z" PURGE="0" COMMENT="" />
    <EXPORT ORDINAL="2663" NAME="?monthLength@GregorianCalendar@icu_53@@MEBAHHH@Z" PURGE="0" COMMENT="" />
    <EXPORT ORDINAL="2664" NAME="?monthStart@IslamicCalendar@icu_53@@AEBAHHH@Z" PURGE="0" COMMENT="" />
    <EXPORT ORDINAL="2665" NAME="?monthsInYear@HebrewCalendar@icu_53@@CAHH@Z" PURGE="0" COMMENT="" />
    <EXPORT ORDINAL="2666" NAME="?moonAge@IslamicCalendar@icu_53@@CANNAEAW4UErrorCode@@@Z" PURGE="0" COMMENT="" />
    <EXPORT ORDINAL="2667" NAME="?mult@DigitList@icu_53@@QEAAXAEBV12@AEAW4UErrorCode@@@Z" PURGE="0" COMMENT="" />
    <EXPORT ORDINAL="2668" NAME="?newMoonNear@ChineseCalendar@icu_53@@EEBAHNC@Z" PURGE="0" COMMENT="" />
    <EXPORT ORDINAL="2669" NAME="?newYear@ChineseCalendar@icu_53@@EEBAHH@Z" PURGE="0" COMMENT="" />
    <EXPORT ORDINAL="2670" NAME="?newerField@Calendar@icu_53@@IEBA?AW4UCalendarDateFields@@W43@0@Z" PURGE="0" COMMENT="" />
    <EXPORT ORDINAL="2671" NAME="?newestStamp@Calendar@icu_53@@IEBAHW4UCalendarDateFields@@0H@Z" PURGE="0" COMMENT="" />
    <EXPORT ORDINAL="2672" NAME="?next@CollationElementIterator@icu_53@@QEAAHAEAW4UErrorCode@@@Z" PURGE="0" COMMENT="" />
    <EXPORT ORDINAL="2673" NAME="?next@FieldPositionIterator@icu_53@@QEAACAEAVFieldPosition@2@@Z" PURGE="0" COMMENT="" />
    <EXPORT ORDINAL="2674" NAME="?next@PluralAvailableLocalesEnumeration@icu_53@@UEAAPEBDPEAHAEAW4UErrorCode@@@Z" PURGE="0" COMMENT="" />
    <EXPORT ORDINAL="2675" NAME="?next@SearchIterator@icu_53@@QEAAHAEAW4UErrorCode@@@Z" PURGE="0" COMMENT="" />
    <EXPORT ORDINAL="2676" NAME="?nextBucket@AlphabeticIndex@icu_53@@UEAACAEAW4UErrorCode@@@Z" PURGE="0" COMMENT="" />
    <EXPORT ORDINAL="2677" NAME="?nextCE32FromContraction@CollationIterator@icu_53@@AEAAIPEBUCollationData@2@IPEB_WIHAEAW4UErrorCode@@@Z" PURGE="0" COMMENT="" />
    <EXPORT ORDINAL="2678" NAME="?nextCE32FromDiscontiguousContraction@CollationIterator@icu_53@@AEAAIPEBUCollationData@2@AEAVUCharsTrie@2@IHHAEAW4UErrorCode@@@Z" PURGE="0" COMMENT="" />
    <EXPORT ORDINAL="2679" NAME="?nextCE@CollationIterator@icu_53@@QEAA_JAEAW4UErrorCode@@@Z" PURGE="0" COMMENT="" />
    <EXPORT ORDINAL="2680" NAME="?nextCEFromCE32@CollationIterator@icu_53@@AEAA_JPEBUCollationData@2@HIAEAW4UErrorCode@@@Z" PURGE="0" COMMENT="" />
    <EXPORT ORDINAL="2681" NAME="?nextCodePoint@FCDUIterCollationIterator@icu_53@@UEAAHAEAW4UErrorCode@@@Z" PURGE="0" COMMENT="" />
    <EXPORT ORDINAL="2682" NAME="?nextCodePoint@FCDUTF16CollationIterator@icu_53@@UEAAHAEAW4UErrorCode@@@Z" PURGE="0" COMMENT="" />
    <EXPORT ORDINAL="2683" NAME="?nextCodePoint@FCDUTF8CollationIterator@icu_53@@UEAAHAEAW4UErrorCode@@@Z" PURGE="0" COMMENT="" />
    <EXPORT ORDINAL="2684" NAME="?nextCodePoint@UIterCollationIterator@icu_53@@UEAAHAEAW4UErrorCode@@@Z" PURGE="0" COMMENT="" />
    <EXPORT ORDINAL="2685" NAME="?nextCodePoint@UTF16CollationIterator@icu_53@@UEAAHAEAW4UErrorCode@@@Z" PURGE="0" COMMENT="" />
    <EXPORT ORDINAL="2686" NAME="?nextCodePoint@UTF8CollationIterator@icu_53@@UEAAHAEAW4UErrorCode@@@Z" PURGE="0" COMMENT="" />
    <EXPORT ORDINAL="2687" NAME="?nextHasLccc@FCDUTF8CollationIterator@icu_53@@AEBACXZ" PURGE="0" COMMENT="" />
    <EXPORT ORDINAL="2688" NAME="?nextIndexFromNode@CollationBuilder@icu_53@@CAH_J@Z" PURGE="0" COMMENT="" />
    <EXPORT ORDINAL="2689" NAME="?nextPair@CollationFastLatin@icu_53@@CAIPEBGHIPEB_WPEBEAEAH3@Z" PURGE="0" COMMENT="" />
    <EXPORT ORDINAL="2690" NAME="?nextRecord@AlphabeticIndex@icu_53@@UEAACAEAW4UErrorCode@@@Z" PURGE="0" COMMENT="" />
    <EXPORT ORDINAL="2691" NAME="?nextSegment@FCDUIterCollationIterator@icu_53@@AEAACAEAW4UErrorCode@@@Z" PURGE="0" COMMENT="" />
    <EXPORT ORDINAL="2692" NAME="?nextSegment@FCDUTF16CollationIterator@icu_53@@AEAACAEAW4UErrorCode@@@Z" PURGE="0" COMMENT="" />
    <EXPORT ORDINAL="2693" NAME="?nextSegment@FCDUTF8CollationIterator@icu_53@@AEAACAEAW4UErrorCode@@@Z" PURGE="0" COMMENT="" />
    <EXPORT ORDINAL="2694" NAME="?nextSetBit@ScriptSet@icu_53@@QEBAHH@Z" PURGE="0" COMMENT="" />
    <EXPORT ORDINAL="2695" NAME="?nextSkippedCodePoint@CollationIterator@icu_53@@AEAAHAEAW4UErrorCode@@@Z" PURGE="0" COMMENT="" />
    <EXPORT ORDINAL="2696" NAME="?nextTopLevelArgStart@MessageFormat@icu_53@@AEBAHH@Z" PURGE="0" COMMENT="" />
    <EXPORT ORDINAL="2697" NAME="?nextWeight@CollationWeights@icu_53@@QEAAIXZ" PURGE="0" COMMENT="" />
    <EXPORT ORDINAL="2698" NAME="?nodeFromNextIndex@CollationBuilder@icu_53@@CA_JH@Z" PURGE="0" COMMENT="" />
    <EXPORT ORDINAL="2699" NAME="?nodeFromPreviousIndex@CollationBuilder@icu_53@@CA_JH@Z" PURGE="0" COMMENT="" />
    <EXPORT ORDINAL="2700" NAME="?nodeFromStrength@CollationBuilder@icu_53@@CA_JH@Z" PURGE="0" COMMENT="" />
    <EXPORT ORDINAL="2701" NAME="?nodeFromWeight16@CollationBuilder@icu_53@@CA_JI@Z" PURGE="0" COMMENT="" />
    <EXPORT ORDINAL="2702" NAME="?nodeFromWeight32@CollationBuilder@icu_53@@CA_JI@Z" PURGE="0" COMMENT="" />
    <EXPORT ORDINAL="2703" NAME="?nodeHasAnyBefore@CollationBuilder@icu_53@@CAC_J@Z" PURGE="0" COMMENT="" />
    <EXPORT ORDINAL="2704" NAME="?nodeHasBefore2@CollationBuilder@icu_53@@CAC_J@Z" PURGE="0" COMMENT="" />
    <EXPORT ORDINAL="2705" NAME="?nodeHasBefore3@CollationBuilder@icu_53@@CAC_J@Z" PURGE="0" COMMENT="" />
    <EXPORT ORDINAL="2706" NAME="?normalize@FCDUIterCollationIterator@icu_53@@AEAACAEBVUnicodeString@2@AEAW4UErrorCode@@@Z" PURGE="0" COMMENT="" />
    <EXPORT ORDINAL="2707" NAME="?normalize@FCDUTF16CollationIterator@icu_53@@AEAACPEB_W0AEAW4UErrorCode@@@Z" PURGE="0" COMMENT="" />
    <EXPORT ORDINAL="2708" NAME="?normalize@FCDUTF8CollationIterator@icu_53@@AEAACAEBVUnicodeString@2@AEAW4UErrorCode@@@Z" PURGE="0" COMMENT="" />
    <EXPORT ORDINAL="2709" NAME="?normalizeDir@CollationElementIterator@icu_53@@AEBACXZ" PURGE="0" COMMENT="" />
    <EXPORT ORDINAL="2710" NAME="?offsetMonth@ChineseCalendar@icu_53@@EEAAXHHH@Z" PURGE="0" COMMENT="" />
    <EXPORT ORDINAL="2711" NAME="?optimize@CollationBuilder@icu_53@@EEAAXAEBVUnicodeSet@2@AEAPEBDAEAW4UErrorCode@@@Z" PURGE="0" COMMENT="" />
    <EXPORT ORDINAL="2712" NAME="?optimize@CollationDataBuilder@icu_53@@QEAAXAEBVUnicodeSet@2@AEAW4UErrorCode@@@Z" PURGE="0" COMMENT="" />
    <EXPORT ORDINAL="2713" NAME="?optimize@Sink@CollationRuleParser@icu_53@@UEAAXAEBVUnicodeSet@3@AEAPEBDAEAW4UErrorCode@@@Z" PURGE="0" COMMENT="" />
    <EXPORT ORDINAL="2714" NAME="?orphanFilter@Transliterator@icu_53@@QEAAPEAVUnicodeFilter@2@XZ" PURGE="0" COMMENT="" />
    <EXPORT ORDINAL="2715" NAME="?orphanOrClone@?$MaybeStackHeaderAndArray@UdecNumber@@D$0CI@@icu_53@@QEAAPEAUdecNumber@@HAEAH@Z" PURGE="0" COMMENT="" />
    <EXPORT ORDINAL="2716" NAME="?orphanTimeZone@Calendar@icu_53@@QEAAPEAVTimeZone@2@XZ" PURGE="0" COMMENT="" />
    <EXPORT ORDINAL="2717" NAME="?parse@ChoiceFormat@icu_53@@UEBAXAEBVUnicodeString@2@AEAVFormattable@2@AEAVParsePosition@2@@Z" PURGE="0" COMMENT="" />
    <EXPORT ORDINAL="2718" NAME="?parse@CollationRuleParser@icu_53@@AEAAXAEBVUnicodeString@2@AEAW4UErrorCode@@@Z" PURGE="0" COMMENT="" />
    <EXPORT ORDINAL="2719" NAME="?parse@CollationRuleParser@icu_53@@QEAAXAEBVUnicodeString@2@AEAUCollationSettings@2@PEAUUParseError@@AEAW4UErrorCode@@@Z" PURGE="0" COMMENT="" />
    <EXPORT ORDINAL="2720" NAME="?parse@CompactDecimalFormat@icu_53@@UEBAXAEBVUnicodeString@2@AEAVFormattable@2@AEAVParsePosition@2@@Z" PURGE="0" COMMENT="" />
    <EXPORT ORDINAL="2721" NAME="?parse@CompactDecimalFormat@icu_53@@UEBAXAEBVUnicodeString@2@AEAVFormattable@2@AEAW4UErrorCode@@@Z" PURGE="0" COMMENT="" />
    <EXPORT ORDINAL="2722" NAME="?parse@DateFormat@icu_53@@QEBANAEBVUnicodeString@2@AEAVParsePosition@2@@Z" PURGE="0" COMMENT="" />
    <EXPORT ORDINAL="2723" NAME="?parse@DateFormat@icu_53@@UEBANAEBVUnicodeString@2@AEAW4UErrorCode@@@Z" PURGE="0" COMMENT="" />
    <EXPORT ORDINAL="2724" NAME="?parse@DecimalFormat@icu_53@@AEBAXAEBVUnicodeString@2@AEAVFormattable@2@AEAVParsePosition@2@PEA_W@Z" PURGE="0" COMMENT="" />
    <EXPORT ORDINAL="2725" NAME="?parse@DecimalFormat@icu_53@@UEBAXAEBVUnicodeString@2@AEAVFormattable@2@AEAVParsePosition@2@@Z" PURGE="0" COMMENT="" />
    <EXPORT ORDINAL="2726" NAME="?parse@MessageFormat@icu_53@@AEBAPEAVFormattable@2@HAEBVUnicodeString@2@AEAVParsePosition@2@AEAHAEAW4UErrorCode@@@Z" PURGE="0" COMMENT="" />
    <EXPORT ORDINAL="2727" NAME="?parse@MessageFormat@icu_53@@UEBAPEAVFormattable@2@AEBVUnicodeString@2@AEAHAEAW4UErrorCode@@@Z" PURGE="0" COMMENT="" />
    <EXPORT ORDINAL="2728" NAME="?parse@MessageFormat@icu_53@@UEBAPEAVFormattable@2@AEBVUnicodeString@2@AEAVParsePosition@2@AEAH@Z" PURGE="0" COMMENT="" />
    <EXPORT ORDINAL="2729" NAME="?parse@NumberFormat@icu_53@@UEBAXAEBVUnicodeString@2@AEAVFormattable@2@AEAW4UErrorCode@@@Z" PURGE="0" COMMENT="" />
    <EXPORT ORDINAL="2730" NAME="?parse@RuleBasedNumberFormat@icu_53@@UEBAXAEBVUnicodeString@2@AEAVFormattable@2@AEAVParsePosition@2@@Z" PURGE="0" COMMENT="" />
    <EXPORT ORDINAL="2731" NAME="?parse@SimpleDateFormat@icu_53@@UEBAXAEBVUnicodeString@2@AEAVCalendar@2@AEAVParsePosition@2@@Z" PURGE="0" COMMENT="" />
    <EXPORT ORDINAL="2732" NAME="?parse@TimeZoneFormat@icu_53@@QEBAPEAVTimeZone@2@W4UTimeZoneFormatStyle@@AEBVUnicodeString@2@AEAVParsePosition@2@PEAW4UTimeZoneFormatTimeType@@@Z" PURGE="0" COMMENT="" />
    <EXPORT ORDINAL="2733" NAME="?parse@TimeZoneFormat@icu_53@@UEBAPEAVTimeZone@2@W4UTimeZoneFormatStyle@@AEBVUnicodeString@2@AEAVParsePosition@2@HPEAW4UTimeZoneFormatTimeType@@@Z" PURGE="0" COMMENT="" />
    <EXPORT ORDINAL="2734" NAME="?parse@VTimeZone@icu_53@@AEAAXAEAW4UErrorCode@@@Z" PURGE="0" COMMENT="" />
    <EXPORT ORDINAL="2735" NAME="?parseAbuttingAsciiOffsetFields@TimeZoneFormat@icu_53@@CAHAEBVUnicodeString@2@AEAVParsePosition@2@W4OffsetFields@12@2C@Z" PURGE="0" COMMENT="" />
    <EXPORT ORDINAL="2736" NAME="?parseAbuttingOffsetFields@TimeZoneFormat@icu_53@@AEBAHAEBVUnicodeString@2@HAEAH@Z" PURGE="0" COMMENT="" />
    <EXPORT ORDINAL="2737" NAME="?parseAmbiguousDatesAsAfter@SimpleDateFormat@icu_53@@AEAAXNAEAW4UErrorCode@@@Z" PURGE="0" COMMENT="" />
    <EXPORT ORDINAL="2738" NAME="?parseAndBuild@CollationBuilder@icu_53@@QEAAPEAUCollationTailoring@2@AEBVUnicodeString@2@QEBEPEAVImporter@CollationRuleParser@2@PEAUUParseError@@AEAW4UErrorCode@@@Z" PURGE="0" COMMENT="" />
    <EXPORT ORDINAL="2739" NAME="?parseArgument@ChoiceFormat@icu_53@@CANAEBVMessagePattern@2@HAEBVUnicodeString@2@AEAVParsePosition@2@@Z" PURGE="0" COMMENT="" />
    <EXPORT ORDINAL="2740" NAME="?parseAsciiOffsetFields@TimeZoneFormat@icu_53@@CAHAEBVUnicodeString@2@AEAVParsePosition@2@_WW4OffsetFields@12@3@Z" PURGE="0" COMMENT="" />
    <EXPORT ORDINAL="2741" NAME="?parseCurrency@CompactDecimalFormat@icu_53@@UEBAPEAVCurrencyAmount@2@AEBVUnicodeString@2@AEAVParsePosition@2@@Z" PURGE="0" COMMENT="" />
    <EXPORT ORDINAL="2742" NAME="?parseCurrency@DecimalFormat@icu_53@@UEBAPEAVCurrencyAmount@2@AEBVUnicodeString@2@AEAVParsePosition@2@@Z" PURGE="0" COMMENT="" />
    <EXPORT ORDINAL="2743" NAME="?parseCurrency@NumberFormat@icu_53@@UEBAPEAVCurrencyAmount@2@AEBVUnicodeString@2@AEAVParsePosition@2@@Z" PURGE="0" COMMENT="" />
    <EXPORT ORDINAL="2744" NAME="?parseCustomID@TimeZone@icu_53@@CACAEBVUnicodeString@2@AEAH111@Z" PURGE="0" COMMENT="" />
    <EXPORT ORDINAL="2745" NAME="?parseDefaultOffsetFields@TimeZoneFormat@icu_53@@AEBAHAEBVUnicodeString@2@H_WAEAH@Z" PURGE="0" COMMENT="" />
    <EXPORT ORDINAL="2746" NAME="?parseExemplarLocation@TimeZoneFormat@icu_53@@AEBAAEAVUnicodeString@2@AEBV32@AEAVParsePosition@2@AEAV32@@Z" PURGE="0" COMMENT="" />
    <EXPORT ORDINAL="2747" NAME="?parseForCurrency@DecimalFormat@icu_53@@AEBACAEBVUnicodeString@2@AEAVParsePosition@2@AEAVDigitList@2@PEACPEA_W@Z" PURGE="0" COMMENT="" />
    <EXPORT ORDINAL="2748" NAME="?parseInt@SimpleDateFormat@icu_53@@AEBAXAEBVUnicodeString@2@AEAVFormattable@2@AEAVParsePosition@2@CPEAVNumberFormat@2@@Z" PURGE="0" COMMENT="" />
    <EXPORT ORDINAL="2749" NAME="?parseInt@SimpleDateFormat@icu_53@@AEBAXAEBVUnicodeString@2@AEAVFormattable@2@HAEAVParsePosition@2@CPEAVNumberFormat@2@@Z" PURGE="0" COMMENT="" />
    <EXPORT ORDINAL="2750" NAME="?parseObject@DateFormat@icu_53@@UEBAXAEBVUnicodeString@2@AEAVFormattable@2@AEAVParsePosition@2@@Z" PURGE="0" COMMENT="" />
    <EXPORT ORDINAL="2751" NAME="?parseObject@DateIntervalFormat@icu_53@@UEBAXAEBVUnicodeString@2@AEAVFormattable@2@AEAVParsePosition@2@@Z" PURGE="0" COMMENT="" />
    <EXPORT ORDINAL="2752" NAME="?parseObject@DummyFormat@MessageFormat@icu_53@@UEBAXAEBVUnicodeString@3@AEAVFormattable@3@AEAVParsePosition@3@@Z" PURGE="0" COMMENT="" />
    <EXPORT ORDINAL="2753" NAME="?parseObject@Format@icu_53@@QEBAXAEBVUnicodeString@2@AEAVFormattable@2@AEAW4UErrorCode@@@Z" PURGE="0" COMMENT="" />
    <EXPORT ORDINAL="2754" NAME="?parseObject@MeasureFormat@icu_53@@UEBAXAEBVUnicodeString@2@AEAVFormattable@2@AEAVParsePosition@2@@Z" PURGE="0" COMMENT="" />
    <EXPORT ORDINAL="2755" NAME="?parseObject@MessageFormat@icu_53@@UEBAXAEBVUnicodeString@2@AEAVFormattable@2@AEAVParsePosition@2@@Z" PURGE="0" COMMENT="" />
    <EXPORT ORDINAL="2756" NAME="?parseObject@NumberFormat@icu_53@@UEBAXAEBVUnicodeString@2@AEAVFormattable@2@AEAVParsePosition@2@@Z" PURGE="0" COMMENT="" />
    <EXPORT ORDINAL="2757" NAME="?parseObject@PluralFormat@icu_53@@UEBAXAEBVUnicodeString@2@AEAVFormattable@2@AEAVParsePosition@2@@Z" PURGE="0" COMMENT="" />
    <EXPORT ORDINAL="2758" NAME="?parseObject@SelectFormat@icu_53@@UEBAXAEBVUnicodeString@2@AEAVFormattable@2@AEAVParsePosition@2@@Z" PURGE="0" COMMENT="" />
    <EXPORT ORDINAL="2759" NAME="?parseObject@TimeUnitFormat@icu_53@@UEBAXAEBVUnicodeString@2@AEAVFormattable@2@AEAVParsePosition@2@@Z" PURGE="0" COMMENT="" />
    <EXPORT ORDINAL="2760" NAME="?parseObject@TimeZoneFormat@icu_53@@UEBAXAEBVUnicodeString@2@AEAVFormattable@2@AEAVParsePosition@2@@Z" PURGE="0" COMMENT="" />
    <EXPORT ORDINAL="2761" NAME="?parseOffsetDefaultLocalizedGMT@TimeZoneFormat@icu_53@@AEBAHAEBVUnicodeString@2@HAEAH@Z" PURGE="0" COMMENT="" />
    <EXPORT ORDINAL="2762" NAME="?parseOffsetFieldWithLocalizedDigits@TimeZoneFormat@icu_53@@AEBAHAEBVUnicodeString@2@HEEGGAEAH@Z" PURGE="0" COMMENT="" />
    <EXPORT ORDINAL="2763" NAME="?parseOffsetFields@TimeZoneFormat@icu_53@@AEBAHAEBVUnicodeString@2@HCAEAH@Z" PURGE="0" COMMENT="" />
    <EXPORT ORDINAL="2764" NAME="?parseOffsetFieldsWithPattern@TimeZoneFormat@icu_53@@AEBAHAEBVUnicodeString@2@HPEAVUVector@2@CAEAH22@Z" PURGE="0" COMMENT="" />
    <EXPORT ORDINAL="2765" NAME="?parseOffsetISO8601@TimeZoneFormat@icu_53@@AEBAHAEBVUnicodeString@2@AEAVParsePosition@2@CPEAC@Z" PURGE="0" COMMENT="" />
    <EXPORT ORDINAL="2766" NAME="?parseOffsetISO8601@TimeZoneFormat@icu_53@@QEBAHAEBVUnicodeString@2@AEAVParsePosition@2@@Z" PURGE="0" COMMENT="" />
    <EXPORT ORDINAL="2767" NAME="?parseOffsetLocalizedGMT@TimeZoneFormat@icu_53@@AEBAHAEBVUnicodeString@2@AEAVParsePosition@2@CPEAC@Z" PURGE="0" COMMENT="" />
    <EXPORT ORDINAL="2768" NAME="?parseOffsetLocalizedGMT@TimeZoneFormat@icu_53@@QEBAHAEBVUnicodeString@2@AEAVParsePosition@2@@Z" PURGE="0" COMMENT="" />
    <EXPORT ORDINAL="2769" NAME="?parseOffsetLocalizedGMTPattern@TimeZoneFormat@icu_53@@AEBAHAEBVUnicodeString@2@HCAEAH@Z" PURGE="0" COMMENT="" />
    <EXPORT ORDINAL="2770" NAME="?parseOffsetPattern@TimeZoneFormat@icu_53@@CAPEAVUVector@2@AEBVUnicodeString@2@W4OffsetFields@12@AEAW4UErrorCode@@@Z" PURGE="0" COMMENT="" />
    <EXPORT ORDINAL="2771" NAME="?parseOffsetShortLocalizedGMT@TimeZoneFormat@icu_53@@QEBAHAEBVUnicodeString@2@AEAVParsePosition@2@@Z" PURGE="0" COMMENT="" />
    <EXPORT ORDINAL="2772" NAME="?parseRelationOperator@CollationRuleParser@icu_53@@AEAAHAEAW4UErrorCode@@@Z" PURGE="0" COMMENT="" />
    <EXPORT ORDINAL="2773" NAME="?parseRelationStrings@CollationRuleParser@icu_53@@AEAAXHHAEAW4UErrorCode@@@Z" PURGE="0" COMMENT="" />
    <EXPORT ORDINAL="2774" NAME="?parseReordering@CollationRuleParser@icu_53@@AEAAXAEBVUnicodeString@2@AEAW4UErrorCode@@@Z" PURGE="0" COMMENT="" />
    <EXPORT ORDINAL="2775" NAME="?parseResetAndPosition@CollationRuleParser@icu_53@@AEAAHAEAW4UErrorCode@@@Z" PURGE="0" COMMENT="" />
    <EXPORT ORDINAL="2776" NAME="?parseRuleChain@CollationRuleParser@icu_53@@AEAAXAEAW4UErrorCode@@@Z" PURGE="0" COMMENT="" />
    <EXPORT ORDINAL="2777" NAME="?parseScripts@ScriptSet@icu_53@@QEAAAEAV12@AEBVUnicodeString@2@AEAW4UErrorCode@@@Z" PURGE="0" COMMENT="" />
    <EXPORT ORDINAL="2778" NAME="?parseSetting@CollationRuleParser@icu_53@@AEAAXAEAW4UErrorCode@@@Z" PURGE="0" COMMENT="" />
    <EXPORT ORDINAL="2779" NAME="?parseShortZoneID@TimeZoneFormat@icu_53@@AEBAAEAVUnicodeString@2@AEBV32@AEAVParsePosition@2@AEAV32@@Z" PURGE="0" COMMENT="" />
    <EXPORT ORDINAL="2780" NAME="?parseSingleLocalizedDigit@TimeZoneFormat@icu_53@@AEBAHAEBVUnicodeString@2@HAEAH@Z" PURGE="0" COMMENT="" />
    <EXPORT ORDINAL="2781" NAME="?parseSkeleton@DateIntervalInfo@icu_53@@CAXAEBVUnicodeString@2@PEAH@Z" PURGE="0" COMMENT="" />
    <EXPORT ORDINAL="2782" NAME="?parseSpecialPosition@CollationRuleParser@icu_53@@AEAAHHAEAVUnicodeString@2@AEAW4UErrorCode@@@Z" PURGE="0" COMMENT="" />
    <EXPORT ORDINAL="2783" NAME="?parseStarredCharacters@CollationRuleParser@icu_53@@AEAAXHHAEAW4UErrorCode@@@Z" PURGE="0" COMMENT="" />
    <EXPORT ORDINAL="2784" NAME="?parseString@CollationRuleParser@icu_53@@AEAAHHAEAVUnicodeString@2@AEAW4UErrorCode@@@Z" PURGE="0" COMMENT="" />
    <EXPORT ORDINAL="2785" NAME="?parseTailoringString@CollationRuleParser@icu_53@@AEAAHHAEAVUnicodeString@2@AEAW4UErrorCode@@@Z" PURGE="0" COMMENT="" />
    <EXPORT ORDINAL="2786" NAME="?parseUnicodeSet@CollationRuleParser@icu_53@@AEAAHHAEAVUnicodeSet@2@AEAW4UErrorCode@@@Z" PURGE="0" COMMENT="" />
    <EXPORT ORDINAL="2787" NAME="?parseZoneID@TimeZoneFormat@icu_53@@AEBAAEAVUnicodeString@2@AEBV32@AEAVParsePosition@2@AEAV32@@Z" PURGE="0" COMMENT="" />
    <EXPORT ORDINAL="2788" NAME="?pattern@RegexMatcher@icu_53@@UEBAAEBVRegexPattern@2@XZ" PURGE="0" COMMENT="" />
    <EXPORT ORDINAL="2789" NAME="?pattern@RegexPattern@icu_53@@UEBA?AVUnicodeString@2@XZ" PURGE="0" COMMENT="" />
    <EXPORT ORDINAL="2790" NAME="?patternText@RegexPattern@icu_53@@UEBAPEAUUText@@AEAW4UErrorCode@@@Z" PURGE="0" COMMENT="" />
    <EXPORT ORDINAL="2791" NAME="?pinDayOfMonth@GregorianCalendar@icu_53@@IEAAXXZ" PURGE="0" COMMENT="" />
    <EXPORT ORDINAL="2792" NAME="?pinField@Calendar@icu_53@@MEAAXW4UCalendarDateFields@@AEAW4UErrorCode@@@Z" PURGE="0" COMMENT="" />
    <EXPORT ORDINAL="2793" NAME="?pointerToken@Transliterator@icu_53@@SA?ATToken@12@PEAX@Z" PURGE="0" COMMENT="" />
    <EXPORT ORDINAL="2794" NAME="?preceding@SearchIterator@icu_53@@QEAAHHAEAW4UErrorCode@@@Z" PURGE="0" COMMENT="" />
    <EXPORT ORDINAL="2795" NAME="?precision@DecimalFormat@icu_53@@AEBAHXZ" PURGE="0" COMMENT="" />
    <EXPORT ORDINAL="2796" NAME="?prepareGetActual@Calendar@icu_53@@MEAAXW4UCalendarDateFields@@CAEAW4UErrorCode@@@Z" PURGE="0" COMMENT="" />
    <EXPORT ORDINAL="2797" NAME="?previous@CollationElementIterator@icu_53@@QEAAHAEAW4UErrorCode@@@Z" PURGE="0" COMMENT="" />
    <EXPORT ORDINAL="2798" NAME="?previous@SearchIterator@icu_53@@QEAAHAEAW4UErrorCode@@@Z" PURGE="0" COMMENT="" />
    <EXPORT ORDINAL="2799" NAME="?previousCE@CollationIterator@icu_53@@QEAA_JAEAVUVector32@2@AEAW4UErrorCode@@@Z" PURGE="0" COMMENT="" />
    <EXPORT ORDINAL="2800" NAME="?previousCEUnsafe@CollationIterator@icu_53@@AEAA_JHAEAVUVector32@2@AEAW4UErrorCode@@@Z" PURGE="0" COMMENT="" />
    <EXPORT ORDINAL="2801" NAME="?previousCodePoint@FCDUIterCollationIterator@icu_53@@UEAAHAEAW4UErrorCode@@@Z" PURGE="0" COMMENT="" />
    <EXPORT ORDINAL="2802" NAME="?previousCodePoint@FCDUTF16CollationIterator@icu_53@@UEAAHAEAW4UErrorCode@@@Z" PURGE="0" COMMENT="" />
    <EXPORT ORDINAL="2803" NAME="?previousCodePoint@FCDUTF8CollationIterator@icu_53@@UEAAHAEAW4UErrorCode@@@Z" PURGE="0" COMMENT="" />
    <EXPORT ORDINAL="2804" NAME="?previousCodePoint@UIterCollationIterator@icu_53@@UEAAHAEAW4UErrorCode@@@Z" PURGE="0" COMMENT="" />
    <EXPORT ORDINAL="2805" NAME="?previousCodePoint@UTF16CollationIterator@icu_53@@UEAAHAEAW4UErrorCode@@@Z" PURGE="0" COMMENT="" />
    <EXPORT ORDINAL="2806" NAME="?previousCodePoint@UTF8CollationIterator@icu_53@@UEAAHAEAW4UErrorCode@@@Z" PURGE="0" COMMENT="" />
    <EXPORT ORDINAL="2807" NAME="?previousHasTccc@FCDUTF8CollationIterator@icu_53@@AEBACXZ" PURGE="0" COMMENT="" />
    <EXPORT ORDINAL="2808" NAME="?previousIndexFromNode@CollationBuilder@icu_53@@CAH_J@Z" PURGE="0" COMMENT="" />
    <EXPORT ORDINAL="2809" NAME="?previousSegment@FCDUIterCollationIterator@icu_53@@AEAACAEAW4UErrorCode@@@Z" PURGE="0" COMMENT="" />
    <EXPORT ORDINAL="2810" NAME="?previousSegment@FCDUTF16CollationIterator@icu_53@@AEAACAEAW4UErrorCode@@@Z" PURGE="0" COMMENT="" />
    <EXPORT ORDINAL="2811" NAME="?previousSegment@FCDUTF8CollationIterator@icu_53@@AEAACAEAW4UErrorCode@@@Z" PURGE="0" COMMENT="" />
    <EXPORT ORDINAL="2812" NAME="?primaryFromLongPrimaryCE32@Collation@icu_53@@SAII@Z" PURGE="0" COMMENT="" />
    <EXPORT ORDINAL="2813" NAME="?primaryOrder@CollationElementIterator@icu_53@@SAHH@Z" PURGE="0" COMMENT="" />
    <EXPORT ORDINAL="2814" NAME="?processOverrideString@SimpleDateFormat@icu_53@@AEAAXAEBVLocale@2@AEBVUnicodeString@2@CAEAW4UErrorCode@@@Z" PURGE="0" COMMENT="" />
    <EXPORT ORDINAL="2815" NAME="?put@TextTrieMap@icu_53@@QEAAXAEBVUnicodeString@2@PEAXAEAVZNStringPool@2@AEAW4UErrorCode@@@Z" PURGE="0" COMMENT="" />
    <EXPORT ORDINAL="2816" NAME="?put@TextTrieMap@icu_53@@QEAAXPEB_WPEAXAEAW4UErrorCode@@@Z" PURGE="0" COMMENT="" />
    <EXPORT ORDINAL="2817" NAME="?putImpl@TextTrieMap@icu_53@@AEAAXAEBVUnicodeString@2@PEAXAEAW4UErrorCode@@@Z" PURGE="0" COMMENT="" />
    <EXPORT ORDINAL="2818" NAME="?quickInit@FixedDecimal@icu_53@@QEAACN@Z" PURGE="0" COMMENT="" />
    <EXPORT ORDINAL="2819" NAME="?rawOffsetAt@OlsonTimeZone@icu_53@@AEBAHF@Z" PURGE="0" COMMENT="" />
    <EXPORT ORDINAL="2820" NAME="?rbcFromUCollator@RuleBasedCollator@icu_53@@SAPEAV12@PEAUUCollator@@@Z" PURGE="0" COMMENT="" />
    <EXPORT ORDINAL="2821" NAME="?rbcFromUCollator@RuleBasedCollator@icu_53@@SAPEBV12@PEBUUCollator@@@Z" PURGE="0" COMMENT="" />
    <EXPORT ORDINAL="2822" NAME="?read@CollationDataReader@icu_53@@SAXPEBUCollationTailoring@2@PEBEHAEAU32@AEAW4UErrorCode@@@Z" PURGE="0" COMMENT="" />
    <EXPORT ORDINAL="2823" NAME="?readCE32@CollationData@icu_53@@SAIPEB_W@Z" PURGE="0" COMMENT="" />
    <EXPORT ORDINAL="2824" NAME="?readFromCurrentLocale@TimeUnitFormat@icu_53@@AEAAXW4UTimeUnitFormatStyle@@PEBDAEBVUVector@2@AEAW4UErrorCode@@@Z" PURGE="0" COMMENT="" />
    <EXPORT ORDINAL="2825" NAME="?readWords@CollationRuleParser@icu_53@@AEBAHHAEAVUnicodeString@2@@Z" PURGE="0" COMMENT="" />
    <EXPORT ORDINAL="2826" NAME="?reallocate@CollationKey@icu_53@@AEAAPEAEHH@Z" PURGE="0" COMMENT="" />
    <EXPORT ORDINAL="2827" NAME="?recalculateStamp@Calendar@icu_53@@AEAAXXZ" PURGE="0" COMMENT="" />
    <EXPORT ORDINAL="2828" NAME="?reduce@DigitList@icu_53@@QEAAXXZ" PURGE="0" COMMENT="" />
    <EXPORT ORDINAL="2829" NAME="?refreshInputText@RegexMatcher@icu_53@@UEAAAEAV12@PEAUUText@@AEAW4UErrorCode@@@Z" PURGE="0" COMMENT="" />
    <EXPORT ORDINAL="2830" NAME="?region@RegexMatcher@icu_53@@UEAAAEAV12@_J00AEAW4UErrorCode@@@Z" PURGE="0" COMMENT="" />
    <EXPORT ORDINAL="2831" NAME="?region@RegexMatcher@icu_53@@UEAAAEAV12@_J0AEAW4UErrorCode@@@Z" PURGE="0" COMMENT="" />
    <EXPORT ORDINAL="2832" NAME="?regionEnd64@RegexMatcher@icu_53@@UEBA_JXZ" PURGE="0" COMMENT="" />
    <EXPORT ORDINAL="2833" NAME="?regionEnd@RegexMatcher@icu_53@@UEBAHXZ" PURGE="0" COMMENT="" />
    <EXPORT ORDINAL="2834" NAME="?regionStart64@RegexMatcher@icu_53@@UEBA_JXZ" PURGE="0" COMMENT="" />
    <EXPORT ORDINAL="2835" NAME="?regionStart@RegexMatcher@icu_53@@UEBAHXZ" PURGE="0" COMMENT="" />
    <EXPORT ORDINAL="2836" NAME="?registerAlias@Transliterator@icu_53@@SAXAEBVUnicodeString@2@0@Z" PURGE="0" COMMENT="" />
    <EXPORT ORDINAL="2837" NAME="?registerFactory@Calendar@icu_53@@SAPEBXPEAVICUServiceFactory@2@AEAW4UErrorCode@@@Z" PURGE="0" COMMENT="" />
    <EXPORT ORDINAL="2838" NAME="?registerFactory@Collator@icu_53@@SAPEBXPEAVCollatorFactory@2@AEAW4UErrorCode@@@Z" PURGE="0" COMMENT="" />
    <EXPORT ORDINAL="2839" NAME="?registerFactory@NumberFormat@icu_53@@SAPEBXPEAVNumberFormatFactory@2@AEAW4UErrorCode@@@Z" PURGE="0" COMMENT="" />
    <EXPORT ORDINAL="2840" NAME="?registerFactory@Transliterator@icu_53@@SAXAEBVUnicodeString@2@P6APEAV12@0TToken@12@@Z1@Z" PURGE="0" COMMENT="" />
    <EXPORT ORDINAL="2841" NAME="?registerInstance@Collator@icu_53@@SAPEBXPEAV12@AEBVLocale@2@AEAW4UErrorCode@@@Z" PURGE="0" COMMENT="" />
    <EXPORT ORDINAL="2842" NAME="?registerInstance@Transliterator@icu_53@@SAXPEAV12@@Z" PURGE="0" COMMENT="" />
    <EXPORT ORDINAL="2843" NAME="?releaseMemory@?$MaybeStackHeaderAndArray@UdecNumber@@D$0CI@@icu_53@@AEAAXXZ" PURGE="0" COMMENT="" />
    <EXPORT ORDINAL="2844" NAME="?remove@?$EnumSet@W4UDateFormatBooleanAttribute@@$0A@$03@icu_53@@QEAAXW4UDateFormatBooleanAttribute@@@Z" PURGE="0" COMMENT="" />
    <EXPORT ORDINAL="2845" NAME="?remove@?$EnumSet@W4UNumberFormatAttribute@@$0BAAA@$0BAAC@@icu_53@@QEAAXW4UNumberFormatAttribute@@@Z" PURGE="0" COMMENT="" />
    <EXPORT ORDINAL="2846" NAME="?reorder@Collation@icu_53@@SAIQEBEI@Z" PURGE="0" COMMENT="" />
    <EXPORT ORDINAL="2847" NAME="?replaceAll@RegexMatcher@icu_53@@UEAA?AVUnicodeString@2@AEBV32@AEAW4UErrorCode@@@Z" PURGE="0" COMMENT="" />
    <EXPORT ORDINAL="2848" NAME="?replaceAll@RegexMatcher@icu_53@@UEAAPEAUUText@@PEAU3@0AEAW4UErrorCode@@@Z" PURGE="0" COMMENT="" />
    <EXPORT ORDINAL="2849" NAME="?replaceFieldTypes@DateTimePatternGenerator@icu_53@@QEAA?AVUnicodeString@2@AEBV32@0AEAW4UErrorCode@@@Z" PURGE="0" COMMENT="" />
    <EXPORT ORDINAL="2850" NAME="?replaceFieldTypes@DateTimePatternGenerator@icu_53@@QEAA?AVUnicodeString@2@AEBV32@0W4UDateTimePatternMatchOptions@@AEAW4UErrorCode@@@Z" PURGE="0" COMMENT="" />
    <EXPORT ORDINAL="2851" NAME="?replaceFirst@RegexMatcher@icu_53@@UEAA?AVUnicodeString@2@AEBV32@AEAW4UErrorCode@@@Z" PURGE="0" COMMENT="" />
    <EXPORT ORDINAL="2852" NAME="?replaceFirst@RegexMatcher@icu_53@@UEAAPEAUUText@@PEAU3@0AEAW4UErrorCode@@@Z" PURGE="0" COMMENT="" />
    <EXPORT ORDINAL="2853" NAME="?requireEnd@RegexMatcher@icu_53@@UEBACXZ" PURGE="0" COMMENT="" />
    <EXPORT ORDINAL="2854" NAME="?reset@CollationElementIterator@icu_53@@QEAAXXZ" PURGE="0" COMMENT="" />
    <EXPORT ORDINAL="2855" NAME="?reset@CollationIterator@icu_53@@IEAAXXZ" PURGE="0" COMMENT="" />
    <EXPORT ORDINAL="2856" NAME="?reset@CollationKey@icu_53@@AEAAAEAV12@XZ" PURGE="0" COMMENT="" />
    <EXPORT ORDINAL="2857" NAME="?reset@PluralAvailableLocalesEnumeration@icu_53@@UEAAXAEAW4UErrorCode@@@Z" PURGE="0" COMMENT="" />
    <EXPORT ORDINAL="2858" NAME="?reset@PluralSelectorAdapter@PluralFormat@icu_53@@QEAAXXZ" PURGE="0" COMMENT="" />
    <EXPORT ORDINAL="2859" NAME="?reset@PluralSelectorProvider@MessageFormat@icu_53@@QEAAXXZ" PURGE="0" COMMENT="" />
    <EXPORT ORDINAL="2860" NAME="?reset@QuantityFormatter@icu_53@@QEAAXXZ" PURGE="0" COMMENT="" />
    <EXPORT ORDINAL="2861" NAME="?reset@RegexMatcher@icu_53@@UEAAAEAV12@AEBVUnicodeString@2@@Z" PURGE="0" COMMENT="" />
    <EXPORT ORDINAL="2862" NAME="?reset@RegexMatcher@icu_53@@UEAAAEAV12@PEAUUText@@@Z" PURGE="0" COMMENT="" />
    <EXPORT ORDINAL="2863" NAME="?reset@RegexMatcher@icu_53@@UEAAAEAV12@XZ" PURGE="0" COMMENT="" />
    <EXPORT ORDINAL="2864" NAME="?reset@RegexMatcher@icu_53@@UEAAAEAV12@_JAEAW4UErrorCode@@@Z" PURGE="0" COMMENT="" />
    <EXPORT ORDINAL="2865" NAME="?reset@ScriptSet@icu_53@@QEAAAEAV12@W4UScriptCode@@AEAW4UErrorCode@@@Z" PURGE="0" COMMENT="" />
    <EXPORT ORDINAL="2866" NAME="?reset@SearchIterator@icu_53@@UEAAXXZ" PURGE="0" COMMENT="" />
    <EXPORT ORDINAL="2867" NAME="?reset@StringSearch@icu_53@@UEAAXXZ" PURGE="0" COMMENT="" />
    <EXPORT ORDINAL="2868" NAME="?resetAll@ScriptSet@icu_53@@QEAAAEAV12@XZ" PURGE="0" COMMENT="" />
    <EXPORT ORDINAL="2869" NAME="?resetBucketIterator@AlphabeticIndex@icu_53@@UEAAAEAV12@AEAW4UErrorCode@@@Z" PURGE="0" COMMENT="" />
    <EXPORT ORDINAL="2870" NAME="?resetCEs@CollationFastLatinBuilder@icu_53@@AEAAXXZ" PURGE="0" COMMENT="" />
    <EXPORT ORDINAL="2871" NAME="?resetPattern@MessageFormat@icu_53@@AEAAXXZ" PURGE="0" COMMENT="" />
    <EXPORT ORDINAL="2872" NAME="?resetPreserveRegion@RegexMatcher@icu_53@@QEAAXXZ" PURGE="0" COMMENT="" />
    <EXPORT ORDINAL="2873" NAME="?resetRecordIterator@AlphabeticIndex@icu_53@@UEAAAEAV12@XZ" PURGE="0" COMMENT="" />
    <EXPORT ORDINAL="2874" NAME="?resetReordering@CollationSettings@icu_53@@QEAAXXZ" PURGE="0" COMMENT="" />
    <EXPORT ORDINAL="2875" NAME="?resetStack@RegexMatcher@icu_53@@AEAAPEAUREStackFrame@2@XZ" PURGE="0" COMMENT="" />
    <EXPORT ORDINAL="2876" NAME="?resetToOffset@FCDUIterCollationIterator@icu_53@@UEAAXH@Z" PURGE="0" COMMENT="" />
    <EXPORT ORDINAL="2877" NAME="?resetToOffset@FCDUTF16CollationIterator@icu_53@@UEAAXH@Z" PURGE="0" COMMENT="" />
    <EXPORT ORDINAL="2878" NAME="?resetToOffset@FCDUTF8CollationIterator@icu_53@@UEAAXH@Z" PURGE="0" COMMENT="" />
    <EXPORT ORDINAL="2879" NAME="?resetToOffset@UIterCollationIterator@icu_53@@UEAAXH@Z" PURGE="0" COMMENT="" />
    <EXPORT ORDINAL="2880" NAME="?resetToOffset@UTF16CollationIterator@icu_53@@UEAAXH@Z" PURGE="0" COMMENT="" />
    <EXPORT ORDINAL="2881" NAME="?resetToOffset@UTF8CollationIterator@icu_53@@UEAAXH@Z" PURGE="0" COMMENT="" />
    <EXPORT ORDINAL="2882" NAME="?resize@?$MaybeStackHeaderAndArray@UdecNumber@@D$0CI@@icu_53@@QEAAPEAUdecNumber@@HH@Z" PURGE="0" COMMENT="" />
    <EXPORT ORDINAL="2883" NAME="?resolveFields@Calendar@icu_53@@IEAA?AW4UCalendarDateFields@@PEAY1M@7$$CBH@Z" PURGE="0" COMMENT="" />
    <EXPORT ORDINAL="2884" NAME="?riseOrSet@CalendarAstronomer@icu_53@@QEAANAEAVCoordFunc@12@CNNN@Z" PURGE="0" COMMENT="" />
    <EXPORT ORDINAL="2885" NAME="?roll@Calendar@icu_53@@QEAAXW4EDateFields@12@CAEAW4UErrorCode@@@Z" PURGE="0" COMMENT="" />
    <EXPORT ORDINAL="2886" NAME="?roll@Calendar@icu_53@@QEAAXW4UCalendarDateFields@@CAEAW4UErrorCode@@@Z" PURGE="0" COMMENT="" />
    <EXPORT ORDINAL="2887" NAME="?roll@Calendar@icu_53@@UEAAXW4EDateFields@12@HAEAW4UErrorCode@@@Z" PURGE="0" COMMENT="" />
    <EXPORT ORDINAL="2888" NAME="?roll@Calendar@icu_53@@UEAAXW4UCalendarDateFields@@HAEAW4UErrorCode@@@Z" PURGE="0" COMMENT="" />
    <EXPORT ORDINAL="2889" NAME="?roll@ChineseCalendar@icu_53@@UEAAXW4EDateFields@Calendar@2@HAEAW4UErrorCode@@@Z" PURGE="0" COMMENT="" />
    <EXPORT ORDINAL="2890" NAME="?roll@ChineseCalendar@icu_53@@UEAAXW4UCalendarDateFields@@HAEAW4UErrorCode@@@Z" PURGE="0" COMMENT="" />
    <EXPORT ORDINAL="2891" NAME="?roll@GregorianCalendar@icu_53@@UEAAXW4EDateFields@Calendar@2@HAEAW4UErrorCode@@@Z" PURGE="0" COMMENT="" />
    <EXPORT ORDINAL="2892" NAME="?roll@GregorianCalendar@icu_53@@UEAAXW4UCalendarDateFields@@HAEAW4UErrorCode@@@Z" PURGE="0" COMMENT="" />
    <EXPORT ORDINAL="2893" NAME="?roll@HebrewCalendar@icu_53@@UEAAXW4EDateFields@Calendar@2@HAEAW4UErrorCode@@@Z" PURGE="0" COMMENT="" />
    <EXPORT ORDINAL="2894" NAME="?roll@HebrewCalendar@icu_53@@UEAAXW4UCalendarDateFields@@HAEAW4UErrorCode@@@Z" PURGE="0" COMMENT="" />
    <EXPORT ORDINAL="2895" NAME="?round@DigitList@icu_53@@QEAAXH@Z" PURGE="0" COMMENT="" />
    <EXPORT ORDINAL="2896" NAME="?roundFixedPoint@DigitList@icu_53@@QEAAXH@Z" PURGE="0" COMMENT="" />
    <EXPORT ORDINAL="2897" NAME="?rulesForKeyword@PluralRules@icu_53@@AEBAPEAVRuleChain@2@AEBVUnicodeString@2@@Z" PURGE="0" COMMENT="" />
    <EXPORT ORDINAL="2898" NAME="?safeClone@Collator@icu_53@@UEBAPEAV12@XZ" PURGE="0" COMMENT="" />
    <EXPORT ORDINAL="2899" NAME="?safeClone@StringSearch@icu_53@@UEBAPEAVSearchIterator@2@XZ" PURGE="0" COMMENT="" />
    <EXPORT ORDINAL="2900" NAME="?sameCEs@CollationBuilder@icu_53@@CACQEB_JH0H@Z" PURGE="0" COMMENT="" />
    <EXPORT ORDINAL="2901" NAME="?search@TextTrieMap@icu_53@@AEBAXPEAUCharacterNode@2@AEBVUnicodeString@2@HHPEAVTextTrieMapSearchResultHandler@2@AEAW4UErrorCode@@@Z" PURGE="0" COMMENT="" />
    <EXPORT ORDINAL="2902" NAME="?search@TextTrieMap@icu_53@@QEBAXAEBVUnicodeString@2@HPEAVTextTrieMapSearchResultHandler@2@AEAW4UErrorCode@@@Z" PURGE="0" COMMENT="" />
    <EXPORT ORDINAL="2903" NAME="?searchInLocaleChain@TimeUnitFormat@icu_53@@AEAAXW4UTimeUnitFormatStyle@@PEBD1W4UTimeUnitFields@TimeUnit@2@AEBVUnicodeString@2@1PEAVHashtable@2@AEAW4UErrorCode@@@Z" PURGE="0" COMMENT="" />
    <EXPORT ORDINAL="2904" NAME="?secondaryOrder@CollationElementIterator@icu_53@@SAHH@Z" PURGE="0" COMMENT="" />
    <EXPORT ORDINAL="2905" NAME="?select@PluralRules@icu_53@@QEBA?AVUnicodeString@2@AEBVFixedDecimal@2@@Z" PURGE="0" COMMENT="" />
    <EXPORT ORDINAL="2906" NAME="?select@PluralRules@icu_53@@QEBA?AVUnicodeString@2@H@Z" PURGE="0" COMMENT="" />
    <EXPORT ORDINAL="2907" NAME="?select@PluralRules@icu_53@@QEBA?AVUnicodeString@2@N@Z" PURGE="0" COMMENT="" />
    <EXPORT ORDINAL="2908" NAME="?select@PluralSelectorAdapter@PluralFormat@icu_53@@UEBA?AVUnicodeString@3@PEAXNAEAW4UErrorCode@@@Z" PURGE="0" COMMENT="" />
    <EXPORT ORDINAL="2909" NAME="?select@PluralSelectorProvider@MessageFormat@icu_53@@UEBA?AVUnicodeString@3@PEAXNAEAW4UErrorCode@@@Z" PURGE="0" COMMENT="" />
    <EXPORT ORDINAL="2910" NAME="?separated@AlphabeticIndex@icu_53@@CA?AVUnicodeString@2@AEBV32@@Z" PURGE="0" COMMENT="" />
    <EXPORT ORDINAL="2911" NAME="?set2DigitYearStart@SimpleDateFormat@icu_53@@UEAAXNAEAW4UErrorCode@@@Z" PURGE="0" COMMENT="" />
    <EXPORT ORDINAL="2912" NAME="?set@?$EnumSet@W4UDateFormatBooleanAttribute@@$0A@$03@icu_53@@QEAAXW4UDateFormatBooleanAttribute@@H@Z" PURGE="0" COMMENT="" />
    <EXPORT ORDINAL="2913" NAME="?set@?$EnumSet@W4UNumberFormatAttribute@@$0BAAA@$0BAAC@@icu_53@@QEAAXW4UNumberFormatAttribute@@H@Z" PURGE="0" COMMENT="" />
    <EXPORT ORDINAL="2914" NAME="?set@Calendar@icu_53@@QEAAXHHH@Z" PURGE="0" COMMENT="" />
    <EXPORT ORDINAL="2915" NAME="?set@Calendar@icu_53@@QEAAXHHHHH@Z" PURGE="0" COMMENT="" />
    <EXPORT ORDINAL="2916" NAME="?set@Calendar@icu_53@@QEAAXHHHHHH@Z" PURGE="0" COMMENT="" />
    <EXPORT ORDINAL="2917" NAME="?set@Calendar@icu_53@@QEAAXW4UCalendarDateFields@@H@Z" PURGE="0" COMMENT="" />
    <EXPORT ORDINAL="2918" NAME="?set@DigitList@icu_53@@QEAAXAEBVStringPiece@2@AEAW4UErrorCode@@I@Z" PURGE="0" COMMENT="" />
    <EXPORT ORDINAL="2919" NAME="?set@DigitList@icu_53@@QEAAXH@Z" PURGE="0" COMMENT="" />
    <EXPORT ORDINAL="2920" NAME="?set@DigitList@icu_53@@QEAAXN@Z" PURGE="0" COMMENT="" />
    <EXPORT ORDINAL="2921" NAME="?set@DigitList@icu_53@@QEAAX_J@Z" PURGE="0" COMMENT="" />
    <EXPORT ORDINAL="2922" NAME="?set@Ecliptic@CalendarAstronomer@icu_53@@QEAAXNN@Z" PURGE="0" COMMENT="" />
    <EXPORT ORDINAL="2923" NAME="?set@Equatorial@CalendarAstronomer@icu_53@@QEAAXNN@Z" PURGE="0" COMMENT="" />
    <EXPORT ORDINAL="2924" NAME="?set@Horizon@CalendarAstronomer@icu_53@@QEAAXNN@Z" PURGE="0" COMMENT="" />
    <EXPORT ORDINAL="2925" NAME="?set@MoonAge@CalendarAstronomer@icu_53@@QEAAXN@Z" PURGE="0" COMMENT="" />
    <EXPORT ORDINAL="2926" NAME="?set@ScriptSet@icu_53@@QEAAAEAV12@W4UScriptCode@@AEAW4UErrorCode@@@Z" PURGE="0" COMMENT="" />
    <EXPORT ORDINAL="2927" NAME="?setAlgorithmic@NumberingSystem@icu_53@@AEAAXC@Z" PURGE="0" COMMENT="" />
    <EXPORT ORDINAL="2928" NAME="?setAll@ScriptSet@icu_53@@QEAAAEAV12@XZ" PURGE="0" COMMENT="" />
    <EXPORT ORDINAL="2929" NAME="?setAlternateHandling@CollationSettings@icu_53@@QEAAXW4UColAttributeValue@@HAEAW4UErrorCode@@@Z" PURGE="0" COMMENT="" />
    <EXPORT ORDINAL="2930" NAME="?setAmPmStrings@DateFormatSymbols@icu_53@@QEAAXPEBVUnicodeString@2@H@Z" PURGE="0" COMMENT="" />
    <EXPORT ORDINAL="2931" NAME="?setAppendItemFormat@DateTimePatternGenerator@icu_53@@QEAAXW4UDateTimePatternField@@AEBVUnicodeString@2@@Z" PURGE="0" COMMENT="" />
    <EXPORT ORDINAL="2932" NAME="?setAppendItemName@DateTimePatternGenerator@icu_53@@QEAAXW4UDateTimePatternField@@AEBVUnicodeString@2@@Z" PURGE="0" COMMENT="" />
    <EXPORT ORDINAL="2933" NAME="?setArgStartFormat@MessageFormat@icu_53@@AEAAXHPEAVFormat@2@AEAW4UErrorCode@@@Z" PURGE="0" COMMENT="" />
    <EXPORT ORDINAL="2934" NAME="?setArray@Formattable@icu_53@@QEAAXPEBV12@H@Z" PURGE="0" COMMENT="" />
    <EXPORT ORDINAL="2935" NAME="?setAttribute@DecimalFormat@icu_53@@UEAAAEAV12@W4UNumberFormatAttribute@@HAEAW4UErrorCode@@@Z" PURGE="0" COMMENT="" />
    <EXPORT ORDINAL="2936" NAME="?setAttribute@RuleBasedCollator@icu_53@@UEAAXW4UColAttribute@@W4UColAttributeValue@@AEAW4UErrorCode@@@Z" PURGE="0" COMMENT="" />
    <EXPORT ORDINAL="2937" NAME="?setAttribute@SearchIterator@icu_53@@QEAAXW4USearchAttribute@@W4USearchAttributeValue@@AEAW4UErrorCode@@@Z" PURGE="0" COMMENT="" />
    <EXPORT ORDINAL="2938" NAME="?setAttributeDefault@RuleBasedCollator@icu_53@@AEAAXH@Z" PURGE="0" COMMENT="" />
    <EXPORT ORDINAL="2939" NAME="?setAttributeExplicitly@RuleBasedCollator@icu_53@@AEAAXH@Z" PURGE="0" COMMENT="" />
    <EXPORT ORDINAL="2940" NAME="?setAvailableFormat@DateTimePatternGenerator@icu_53@@AEAAXAEBVUnicodeString@2@AEAW4UErrorCode@@@Z" PURGE="0" COMMENT="" />
    <EXPORT ORDINAL="2941" NAME="?setBeginIndex@FieldPosition@icu_53@@QEAAXH@Z" PURGE="0" COMMENT="" />
    <EXPORT ORDINAL="2942" NAME="?setBooleanAttribute@DateFormat@icu_53@@UEAAAEAV12@W4UDateFormatBooleanAttribute@@CAEAW4UErrorCode@@@Z" PURGE="0" COMMENT="" />
    <EXPORT ORDINAL="2943" NAME="?setBreakIterator@SearchIterator@icu_53@@QEAAXPEAVBreakIterator@2@AEAW4UErrorCode@@@Z" PURGE="0" COMMENT="" />
    <EXPORT ORDINAL="2944" NAME="?setCalculationType@IslamicCalendar@icu_53@@QEAAXW4ECalculationType@12@AEAW4UErrorCode@@@Z" PURGE="0" COMMENT="" />
    <EXPORT ORDINAL="2945" NAME="?setCalendar@DateFormat@icu_53@@UEAAXAEBVCalendar@2@@Z" PURGE="0" COMMENT="" />
    <EXPORT ORDINAL="2946" NAME="?setCalendarLenient@DateFormat@icu_53@@UEAAXC@Z" PURGE="0" COMMENT="" />
    <EXPORT ORDINAL="2947" NAME="?setCaseBits@CollationBuilder@icu_53@@AEAAXAEBVUnicodeString@2@AEAPEBDAEAW4UErrorCode@@@Z" PURGE="0" COMMENT="" />
    <EXPORT ORDINAL="2948" NAME="?setCaseFirst@CollationSettings@icu_53@@QEAAXW4UColAttributeValue@@HAEAW4UErrorCode@@@Z" PURGE="0" COMMENT="" />
    <EXPORT ORDINAL="2949" NAME="?setChoices@ChoiceFormat@icu_53@@EEAAXPEBNPEBCPEBVUnicodeString@2@HAEAW4UErrorCode@@@Z" PURGE="0" COMMENT="" />
    <EXPORT ORDINAL="2950" NAME="?setChoices@ChoiceFormat@icu_53@@UEAAXPEBNPEBCPEBVUnicodeString@2@H@Z" PURGE="0" COMMENT="" />
    <EXPORT ORDINAL="2951" NAME="?setChoices@ChoiceFormat@icu_53@@UEAAXPEBNPEBVUnicodeString@2@H@Z" PURGE="0" COMMENT="" />
    <EXPORT ORDINAL="2952" NAME="?setCollator@StringSearch@icu_53@@QEAAXPEAVRuleBasedCollator@2@AEAW4UErrorCode@@@Z" PURGE="0" COMMENT="" />
    <EXPORT ORDINAL="2953" NAME="?setCompressibleLeadByte@CollationBaseDataBuilder@icu_53@@QEAAXI@Z" PURGE="0" COMMENT="" />
    <EXPORT ORDINAL="2954" NAME="?setContext@DateFormat@icu_53@@UEAAXW4UDisplayContext@@AEAW4UErrorCode@@@Z" PURGE="0" COMMENT="" />
    <EXPORT ORDINAL="2955" NAME="?setContext@DecimalFormat@icu_53@@UEAAXW4UDisplayContext@@AEAW4UErrorCode@@@Z" PURGE="0" COMMENT="" />
    <EXPORT ORDINAL="2956" NAME="?setContext@NumberFormat@icu_53@@UEAAXW4UDisplayContext@@AEAW4UErrorCode@@@Z" PURGE="0" COMMENT="" />
    <EXPORT ORDINAL="2957" NAME="?setContext@RuleBasedNumberFormat@icu_53@@UEAAXW4UDisplayContext@@AEAW4UErrorCode@@@Z" PURGE="0" COMMENT="" />
    <EXPORT ORDINAL="2958" NAME="?setContext@SimpleDateFormat@icu_53@@UEAAXW4UDisplayContext@@AEAW4UErrorCode@@@Z" PURGE="0" COMMENT="" />
    <EXPORT ORDINAL="2959" NAME="?setCount@DigitList@icu_53@@QEAAXH@Z" PURGE="0" COMMENT="" />
    <EXPORT ORDINAL="2960" NAME="?setCurrency@DecimalFormat@icu_53@@UEAAXPEB_W@Z" PURGE="0" COMMENT="" />
    <EXPORT ORDINAL="2961" NAME="?setCurrency@DecimalFormat@icu_53@@UEAAXPEB_WAEAW4UErrorCode@@@Z" PURGE="0" COMMENT="" />
    <EXPORT ORDINAL="2962" NAME="?setCurrency@NumberFormat@icu_53@@UEAAXPEB_WAEAW4UErrorCode@@@Z" PURGE="0" COMMENT="" />
    <EXPORT ORDINAL="2963" NAME="?setCurrencyForSymbols@DecimalFormat@icu_53@@AEAAXXZ" PURGE="0" COMMENT="" />
    <EXPORT ORDINAL="2964" NAME="?setCurrencyInternally@DecimalFormat@icu_53@@EEAAXPEB_WAEAW4UErrorCode@@@Z" PURGE="0" COMMENT="" />
    <EXPORT ORDINAL="2965" NAME="?setCurrencyPluralInfo@DecimalFormat@icu_53@@UEAAXAEBVCurrencyPluralInfo@2@@Z" PURGE="0" COMMENT="" />
    <EXPORT ORDINAL="2966" NAME="?setCurrencyPluralPattern@CurrencyPluralInfo@icu_53@@QEAAXAEBVUnicodeString@2@0AEAW4UErrorCode@@@Z" PURGE="0" COMMENT="" />
    <EXPORT ORDINAL="2967" NAME="?setCurrentCE@CollationIterator@icu_53@@QEAAX_J@Z" PURGE="0" COMMENT="" />
    <EXPORT ORDINAL="2968" NAME="?setCustomArgStartFormat@MessageFormat@icu_53@@AEAAXHPEAVFormat@2@AEAW4UErrorCode@@@Z" PURGE="0" COMMENT="" />
    <EXPORT ORDINAL="2969" NAME="?setDSTSavings@SimpleTimeZone@icu_53@@QEAAXHAEAW4UErrorCode@@@Z" PURGE="0" COMMENT="" />
    <EXPORT ORDINAL="2970" NAME="?setData@FieldPositionIterator@icu_53@@AEAAXPEAVUVector32@2@AEAW4UErrorCode@@@Z" PURGE="0" COMMENT="" />
    <EXPORT ORDINAL="2971" NAME="?setDate@CalendarAstronomer@icu_53@@QEAAXN@Z" PURGE="0" COMMENT="" />
    <EXPORT ORDINAL="2972" NAME="?setDate@Formattable@icu_53@@QEAAXN@Z" PURGE="0" COMMENT="" />
    <EXPORT ORDINAL="2973" NAME="?setDateFormatSymbols@SimpleDateFormat@icu_53@@UEAAXAEBVDateFormatSymbols@2@@Z" PURGE="0" COMMENT="" />
    <EXPORT ORDINAL="2974" NAME="?setDateIntervalInfo@DateIntervalFormat@icu_53@@QEAAXAEBVDateIntervalInfo@2@AEAW4UErrorCode@@@Z" PURGE="0" COMMENT="" />
    <EXPORT ORDINAL="2975" NAME="?setDateTimeFormat@DateTimePatternGenerator@icu_53@@QEAAXAEBVUnicodeString@2@@Z" PURGE="0" COMMENT="" />
    <EXPORT ORDINAL="2976" NAME="?setDateTimeFromCalendar@DateTimePatternGenerator@icu_53@@AEAAXAEBVLocale@2@AEAW4UErrorCode@@@Z" PURGE="0" COMMENT="" />
    <EXPORT ORDINAL="2977" NAME="?setDecimal@DateTimePatternGenerator@icu_53@@QEAAXAEBVUnicodeString@2@@Z" PURGE="0" COMMENT="" />
    <EXPORT ORDINAL="2978" NAME="?setDecimalAt@DigitList@icu_53@@QEAAXH@Z" PURGE="0" COMMENT="" />
    <EXPORT ORDINAL="2979" NAME="?setDecimalFormatSymbols@DecimalFormat@icu_53@@UEAAXAEBVDecimalFormatSymbols@2@@Z" PURGE="0" COMMENT="" />
    <EXPORT ORDINAL="2980" NAME="?setDecimalFormatSymbols@RuleBasedNumberFormat@icu_53@@UEAAXAEBVDecimalFormatSymbols@2@@Z" PURGE="0" COMMENT="" />
    <EXPORT ORDINAL="2981" NAME="?setDecimalNumber@Formattable@icu_53@@QEAAXAEBVStringPiece@2@AEAW4UErrorCode@@@Z" PURGE="0" COMMENT="" />
    <EXPORT ORDINAL="2982" NAME="?setDecimalSeparatorAlwaysShown@DecimalFormat@icu_53@@UEAAXC@Z" PURGE="0" COMMENT="" />
    <EXPORT ORDINAL="2983" NAME="?setDecimalSymbols@DateTimePatternGenerator@icu_53@@AEAAXAEBVLocale@2@AEAW4UErrorCode@@@Z" PURGE="0" COMMENT="" />
    <EXPORT ORDINAL="2984" NAME="?setDefault@TimeZone@icu_53@@SAXAEBV12@@Z" PURGE="0" COMMENT="" />
    <EXPORT ORDINAL="2985" NAME="?setDefaultParseOptions@TimeZoneFormat@icu_53@@QEAAXI@Z" PURGE="0" COMMENT="" />
    <EXPORT ORDINAL="2986" NAME="?setDefaultRuleSet@RuleBasedNumberFormat@icu_53@@UEAAXAEBVUnicodeString@2@AEAW4UErrorCode@@@Z" PURGE="0" COMMENT="" />
    <EXPORT ORDINAL="2987" NAME="?setDesc@NumberingSystem@icu_53@@AEAAXVUnicodeString@2@@Z" PURGE="0" COMMENT="" />
    <EXPORT ORDINAL="2988" NAME="?setDigit@DigitList@icu_53@@QEAAXHD@Z" PURGE="0" COMMENT="" />
    <EXPORT ORDINAL="2989" NAME="?setDigitTags@CollationDataBuilder@icu_53@@IEAAXAEAW4UErrorCode@@@Z" PURGE="0" COMMENT="" />
    <EXPORT ORDINAL="2990" NAME="?setDouble@Formattable@icu_53@@QEAAXN@Z" PURGE="0" COMMENT="" />
    <EXPORT ORDINAL="2991" NAME="?setEndIndex@FieldPosition@icu_53@@QEAAXH@Z" PURGE="0" COMMENT="" />
    <EXPORT ORDINAL="2992" NAME="?setEndRule@SimpleTimeZone@icu_53@@QEAAXHHHAEAW4UErrorCode@@@Z" PURGE="0" COMMENT="" />
    <EXPORT ORDINAL="2993" NAME="?setEndRule@SimpleTimeZone@icu_53@@QEAAXHHHHAEAW4UErrorCode@@@Z" PURGE="0" COMMENT="" />
    <EXPORT ORDINAL="2994" NAME="?setEndRule@SimpleTimeZone@icu_53@@QEAAXHHHHCAEAW4UErrorCode@@@Z" PURGE="0" COMMENT="" />
    <EXPORT ORDINAL="2995" NAME="?setEndRule@SimpleTimeZone@icu_53@@QEAAXHHHHW4TimeMode@12@AEAW4UErrorCode@@@Z" PURGE="0" COMMENT="" />
    <EXPORT ORDINAL="2996" NAME="?setEndRule@SimpleTimeZone@icu_53@@QEAAXHHHHW4TimeMode@12@CAEAW4UErrorCode@@@Z" PURGE="0" COMMENT="" />
    <EXPORT ORDINAL="2997" NAME="?setEndRule@SimpleTimeZone@icu_53@@QEAAXHHHW4TimeMode@12@AEAW4UErrorCode@@@Z" PURGE="0" COMMENT="" />
    <EXPORT ORDINAL="2998" NAME="?setEraNames@DateFormatSymbols@icu_53@@QEAAXPEBVUnicodeString@2@H@Z" PURGE="0" COMMENT="" />
    <EXPORT ORDINAL="2999" NAME="?setEras@DateFormatSymbols@icu_53@@QEAAXPEBVUnicodeString@2@H@Z" PURGE="0" COMMENT="" />
    <EXPORT ORDINAL="3000" NAME="?setErrorContext@CollationRuleParser@icu_53@@AEAAXXZ" PURGE="0" COMMENT="" />
    <EXPORT ORDINAL="3001" NAME="?setExponentSignAlwaysShown@DecimalFormat@icu_53@@UEAAXC@Z" PURGE="0" COMMENT="" />
    <EXPORT ORDINAL="3002" NAME="?setFallbackIntervalPattern@DateIntervalInfo@icu_53@@QEAAXAEBVUnicodeString@2@AEAW4UErrorCode@@@Z" PURGE="0" COMMENT="" />
    <EXPORT ORDINAL="3003" NAME="?setFallbackPattern@DateIntervalFormat@icu_53@@AEAAXW4UCalendarDateFields@@AEBVUnicodeString@2@AEAW4UErrorCode@@@Z" PURGE="0" COMMENT="" />
    <EXPORT ORDINAL="3004" NAME="?setFastLatinOptions@RuleBasedCollator@icu_53@@AEBAXAEAUCollationSettings@2@@Z" PURGE="0" COMMENT="" />
    <EXPORT ORDINAL="3005" NAME="?setField@FieldPosition@icu_53@@QEAAXH@Z" PURGE="0" COMMENT="" />
    <EXPORT ORDINAL="3006" NAME="?setFindProgressCallback@RegexMatcher@icu_53@@UEAAXP6ACPEBX_J@Z0AEAW4UErrorCode@@@Z" PURGE="0" COMMENT="" />
    <EXPORT ORDINAL="3007" NAME="?setFirstDayOfWeek@Calendar@icu_53@@QEAAXW4UCalendarDaysOfWeek@@@Z" PURGE="0" COMMENT="" />
    <EXPORT ORDINAL="3008" NAME="?setFlag@CollationSettings@icu_53@@QEAAXHW4UColAttributeValue@@HAEAW4UErrorCode@@@Z" PURGE="0" COMMENT="" />
    <EXPORT ORDINAL="3009" NAME="?setFormat@MessageFormat@icu_53@@UEAAXAEBVUnicodeString@2@AEBVFormat@2@AEAW4UErrorCode@@@Z" PURGE="0" COMMENT="" />
    <EXPORT ORDINAL="3010" NAME="?setFormat@MessageFormat@icu_53@@UEAAXHAEBVFormat@2@@Z" PURGE="0" COMMENT="" />
    <EXPORT ORDINAL="3011" NAME="?setFormatWidth@DecimalFormat@icu_53@@UEAAXH@Z" PURGE="0" COMMENT="" />
    <EXPORT ORDINAL="3012" NAME="?setFormats@MessageFormat@icu_53@@UEAAXPEAPEBVFormat@2@H@Z" PURGE="0" COMMENT="" />
    <EXPORT ORDINAL="3013" NAME="?setFrom@TimeZoneTransition@icu_53@@QEAAXAEBVTimeZoneRule@2@@Z" PURGE="0" COMMENT="" />
    <EXPORT ORDINAL="3014" NAME="?setGMTOffsetDigits@TimeZoneFormat@icu_53@@QEAAXAEBVUnicodeString@2@AEAW4UErrorCode@@@Z" PURGE="0" COMMENT="" />
    <EXPORT ORDINAL="3015" NAME="?setGMTOffsetPattern@TimeZoneFormat@icu_53@@QEAAXW4UTimeZoneFormatGMTOffsetPatternType@@AEBVUnicodeString@2@AEAW4UErrorCode@@@Z" PURGE="0" COMMENT="" />
    <EXPORT ORDINAL="3016" NAME="?setGMTPattern@TimeZoneFormat@icu_53@@QEAAXAEBVUnicodeString@2@AEAW4UErrorCode@@@Z" PURGE="0" COMMENT="" />
    <EXPORT ORDINAL="3017" NAME="?setGMTZeroFormat@TimeZoneFormat@icu_53@@QEAAXAEBVUnicodeString@2@AEAW4UErrorCode@@@Z" PURGE="0" COMMENT="" />
    <EXPORT ORDINAL="3018" NAME="?setGregorianChange@GregorianCalendar@icu_53@@QEAAXNAEAW4UErrorCode@@@Z" PURGE="0" COMMENT="" />
    <EXPORT ORDINAL="3019" NAME="?setGroupingSize@DecimalFormat@icu_53@@UEAAXH@Z" PURGE="0" COMMENT="" />
    <EXPORT ORDINAL="3020" NAME="?setGroupingUsed@DecimalFormat@icu_53@@UEAAXC@Z" PURGE="0" COMMENT="" />
    <EXPORT ORDINAL="3021" NAME="?setGroupingUsed@NumberFormat@icu_53@@UEAAXC@Z" PURGE="0" COMMENT="" />
    <EXPORT ORDINAL="3022" NAME="?setID@TimeZone@icu_53@@QEAAXAEBVUnicodeString@2@@Z" PURGE="0" COMMENT="" />
    <EXPORT ORDINAL="3023" NAME="?setID@Transliterator@icu_53@@IEAAXAEBVUnicodeString@2@@Z" PURGE="0" COMMENT="" />
    <EXPORT ORDINAL="3024" NAME="?setIdentifier@IdentifierInfo@icu_53@@QEAAAEAV12@AEBVUnicodeString@2@AEAW4UErrorCode@@@Z" PURGE="0" COMMENT="" />
    <EXPORT ORDINAL="3025" NAME="?setIdentifierProfile@IdentifierInfo@icu_53@@QEAAAEAV12@AEBVUnicodeSet@2@@Z" PURGE="0" COMMENT="" />
    <EXPORT ORDINAL="3026" NAME="?setImporter@CollationRuleParser@icu_53@@QEAAXPEAVImporter@12@@Z" PURGE="0" COMMENT="" />
    <EXPORT ORDINAL="3027" NAME="?setInflowLabel@AlphabeticIndex@icu_53@@UEAAAEAV12@AEBVUnicodeString@2@AEAW4UErrorCode@@@Z" PURGE="0" COMMENT="" />
    <EXPORT ORDINAL="3028" NAME="?setInt64@Formattable@icu_53@@QEAAX_J@Z" PURGE="0" COMMENT="" />
    <EXPORT ORDINAL="3029" NAME="?setInteger@DigitList@icu_53@@QEAAX_J@Z" PURGE="0" COMMENT="" />
    <EXPORT ORDINAL="3030" NAME="?setIntervalPattern@DateIntervalFormat@icu_53@@AEAACW4UCalendarDateFields@@PEBVUnicodeString@2@1CPEAV42@2@Z" PURGE="0" COMMENT="" />
    <EXPORT ORDINAL="3031" NAME="?setIntervalPattern@DateIntervalFormat@icu_53@@AEAAXW4UCalendarDateFields@@AEBVUnicodeString@2@@Z" PURGE="0" COMMENT="" />
    <EXPORT ORDINAL="3032" NAME="?setIntervalPattern@DateIntervalFormat@icu_53@@AEAAXW4UCalendarDateFields@@AEBVUnicodeString@2@C@Z" PURGE="0" COMMENT="" />
    <EXPORT ORDINAL="3033" NAME="?setIntervalPattern@DateIntervalInfo@icu_53@@QEAAXAEBVUnicodeString@2@W4UCalendarDateFields@@0AEAW4UErrorCode@@@Z" PURGE="0" COMMENT="" />
    <EXPORT ORDINAL="3034" NAME="?setIntervalPatternInternally@DateIntervalInfo@icu_53@@AEAAXAEBVUnicodeString@2@W4UCalendarDateFields@@0AEAW4UErrorCode@@@Z" PURGE="0" COMMENT="" />
    <EXPORT ORDINAL="3035" NAME="?setJulianDay@CalendarAstronomer@icu_53@@QEAAXN@Z" PURGE="0" COMMENT="" />
    <EXPORT ORDINAL="3036" NAME="?setLastModified@VTimeZone@icu_53@@QEAAXN@Z" PURGE="0" COMMENT="" />
    <EXPORT ORDINAL="3037" NAME="?setLeadSurrogates@CollationDataBuilder@icu_53@@IEAAXAEAW4UErrorCode@@@Z" PURGE="0" COMMENT="" />
    <EXPORT ORDINAL="3038" NAME="?setLength@CollationKey@icu_53@@AEAAXH@Z" PURGE="0" COMMENT="" />
    <EXPORT ORDINAL="3039" NAME="?setLenient@Calendar@icu_53@@QEAAXC@Z" PURGE="0" COMMENT="" />
    <EXPORT ORDINAL="3040" NAME="?setLenient@DateFormat@icu_53@@UEAAXC@Z" PURGE="0" COMMENT="" />
    <EXPORT ORDINAL="3041" NAME="?setLenient@NumberFormat@icu_53@@UEAAXC@Z" PURGE="0" COMMENT="" />
    <EXPORT ORDINAL="3042" NAME="?setLenient@RuleBasedNumberFormat@icu_53@@UEAAXC@Z" PURGE="0" COMMENT="" />
    <EXPORT ORDINAL="3043" NAME="?setLocalPatternChars@DateFormatSymbols@icu_53@@QEAAXAEBVUnicodeString@2@@Z" PURGE="0" COMMENT="" />
    <EXPORT ORDINAL="3044" NAME="?setLocale@CurrencyPluralInfo@icu_53@@QEAAXAEBVLocale@2@AEAW4UErrorCode@@@Z" PURGE="0" COMMENT="" />
    <EXPORT ORDINAL="3045" NAME="?setLocale@MessageFormat@icu_53@@UEAAXAEBVLocale@2@@Z" PURGE="0" COMMENT="" />
    <EXPORT ORDINAL="3046" NAME="?setLocale@PluralFormat@icu_53@@QEAAXAEBVLocale@2@AEAW4UErrorCode@@@Z" PURGE="0" COMMENT="" />
    <EXPORT ORDINAL="3047" NAME="?setLocale@TimeUnitFormat@icu_53@@QEAAXAEBVLocale@2@AEAW4UErrorCode@@@Z" PURGE="0" COMMENT="" />
    <EXPORT ORDINAL="3048" NAME="?setLocaleIDs@Format@icu_53@@IEAAXPEBD0@Z" PURGE="0" COMMENT="" />
    <EXPORT ORDINAL="3049" NAME="?setLocales@Collator@icu_53@@UEAAXAEBVLocale@2@00@Z" PURGE="0" COMMENT="" />
    <EXPORT ORDINAL="3050" NAME="?setLocales@RuleBasedCollator@icu_53@@MEAAXAEBVLocale@2@00@Z" PURGE="0" COMMENT="" />
    <EXPORT ORDINAL="3051" NAME="?setLong@Formattable@icu_53@@QEAAXH@Z" PURGE="0" COMMENT="" />
    <EXPORT ORDINAL="3052" NAME="?setMatchCallback@RegexMatcher@icu_53@@UEAAXP6ACPEBXH@Z0AEAW4UErrorCode@@@Z" PURGE="0" COMMENT="" />
    <EXPORT ORDINAL="3053" NAME="?setMatchLength@SearchIterator@icu_53@@MEAAXH@Z" PURGE="0" COMMENT="" />
    <EXPORT ORDINAL="3054" NAME="?setMatchNotFound@SearchIterator@icu_53@@IEAAXXZ" PURGE="0" COMMENT="" />
    <EXPORT ORDINAL="3055" NAME="?setMatchStart@SearchIterator@icu_53@@MEAAXH@Z" PURGE="0" COMMENT="" />
    <EXPORT ORDINAL="3056" NAME="?setMaxLabelCount@AlphabeticIndex@icu_53@@UEAAAEAV12@HAEAW4UErrorCode@@@Z" PURGE="0" COMMENT="" />
    <EXPORT ORDINAL="3057" NAME="?setMaxVariable@CollationSettings@icu_53@@QEAAXHHAEAW4UErrorCode@@@Z" PURGE="0" COMMENT="" />
    <EXPORT ORDINAL="3058" NAME="?setMaxVariable@Collator@icu_53@@UEAAAEAV12@W4UColReorderCode@@AEAW4UErrorCode@@@Z" PURGE="0" COMMENT="" />
    <EXPORT ORDINAL="3059" NAME="?setMaxVariable@RuleBasedCollator@icu_53@@UEAAAEAVCollator@2@W4UColReorderCode@@AEAW4UErrorCode@@@Z" PURGE="0" COMMENT="" />
    <EXPORT ORDINAL="3060" NAME="?setMaximumContextLength@Transliterator@icu_53@@IEAAXH@Z" PURGE="0" COMMENT="" />
    <EXPORT ORDINAL="3061" NAME="?setMaximumFractionDigits@DecimalFormat@icu_53@@UEAAXH@Z" PURGE="0" COMMENT="" />
    <EXPORT ORDINAL="3062" NAME="?setMaximumFractionDigits@NumberFormat@icu_53@@UEAAXH@Z" PURGE="0" COMMENT="" />
    <EXPORT ORDINAL="3063" NAME="?setMaximumIntegerDigits@DecimalFormat@icu_53@@UEAAXH@Z" PURGE="0" COMMENT="" />
    <EXPORT ORDINAL="3064" NAME="?setMaximumIntegerDigits@NumberFormat@icu_53@@UEAAXH@Z" PURGE="0" COMMENT="" />
    <EXPORT ORDINAL="3065" NAME="?setMaximumSignificantDigits@DecimalFormat@icu_53@@QEAAXH@Z" PURGE="0" COMMENT="" />
    <EXPORT ORDINAL="3066" NAME="?setMeasureFormatLocale@MeasureFormat@icu_53@@IEAACAEBVLocale@2@AEAW4UErrorCode@@@Z" PURGE="0" COMMENT="" />
    <EXPORT ORDINAL="3067" NAME="?setMinimalDaysInFirstWeek@Calendar@icu_53@@QEAAXE@Z" PURGE="0" COMMENT="" />
    <EXPORT ORDINAL="3068" NAME="?setMinimumExponentDigits@DecimalFormat@icu_53@@UEAAXC@Z" PURGE="0" COMMENT="" />
    <EXPORT ORDINAL="3069" NAME="?setMinimumFractionDigits@DecimalFormat@icu_53@@UEAAXH@Z" PURGE="0" COMMENT="" />
    <EXPORT ORDINAL="3070" NAME="?setMinimumFractionDigits@NumberFormat@icu_53@@UEAAXH@Z" PURGE="0" COMMENT="" />
    <EXPORT ORDINAL="3071" NAME="?setMinimumIntegerDigits@DecimalFormat@icu_53@@UEAAXH@Z" PURGE="0" COMMENT="" />
    <EXPORT ORDINAL="3072" NAME="?setMinimumIntegerDigits@NumberFormat@icu_53@@UEAAXH@Z" PURGE="0" COMMENT="" />
    <EXPORT ORDINAL="3073" NAME="?setMinimumSignificantDigits@DecimalFormat@icu_53@@QEAAXH@Z" PURGE="0" COMMENT="" />
    <EXPORT ORDINAL="3074" NAME="?setMonths@DateFormatSymbols@icu_53@@QEAAXPEBVUnicodeString@2@H@Z" PURGE="0" COMMENT="" />
    <EXPORT ORDINAL="3075" NAME="?setMonths@DateFormatSymbols@icu_53@@QEAAXPEBVUnicodeString@2@HW4DtContextType@12@W4DtWidthType@12@@Z" PURGE="0" COMMENT="" />
    <EXPORT ORDINAL="3076" NAME="?setMultiplier@DecimalFormat@icu_53@@UEAAXH@Z" PURGE="0" COMMENT="" />
    <EXPORT ORDINAL="3077" NAME="?setName@NumberingSystem@icu_53@@AEAAXPEBD@Z" PURGE="0" COMMENT="" />
    <EXPORT ORDINAL="3078" NAME="?setNarrowEras@DateFormatSymbols@icu_53@@QEAAXPEBVUnicodeString@2@H@Z" PURGE="0" COMMENT="" />
    <EXPORT ORDINAL="3079" NAME="?setNegativePrefix@DecimalFormat@icu_53@@UEAAXAEBVUnicodeString@2@@Z" PURGE="0" COMMENT="" />
    <EXPORT ORDINAL="3080" NAME="?setNegativeSuffix@DecimalFormat@icu_53@@UEAAXAEBVUnicodeString@2@@Z" PURGE="0" COMMENT="" />
    <EXPORT ORDINAL="3081" NAME="?setNumberFormat@DateFormat@icu_53@@UEAAXAEBVNumberFormat@2@@Z" PURGE="0" COMMENT="" />
    <EXPORT ORDINAL="3082" NAME="?setNumberFormat@PluralFormat@icu_53@@QEAAXPEBVNumberFormat@2@AEAW4UErrorCode@@@Z" PURGE="0" COMMENT="" />
    <EXPORT ORDINAL="3083" NAME="?setNumberFormat@TimeUnitFormat@icu_53@@QEAAXAEBVNumberFormat@2@AEAW4UErrorCode@@@Z" PURGE="0" COMMENT="" />
    <EXPORT ORDINAL="3084" NAME="?setNumericPrimary@CollationBaseDataBuilder@icu_53@@QEAAXI@Z" PURGE="0" COMMENT="" />
    <EXPORT ORDINAL="3085" NAME="?setOffset@CollationElementIterator@icu_53@@QEAAXHAEAW4UErrorCode@@@Z" PURGE="0" COMMENT="" />
    <EXPORT ORDINAL="3086" NAME="?setOffset@StringSearch@icu_53@@UEAAXHAEAW4UErrorCode@@@Z" PURGE="0" COMMENT="" />
    <EXPORT ORDINAL="3087" NAME="?setOverflowLabel@AlphabeticIndex@icu_53@@UEAAAEAV12@AEBVUnicodeString@2@AEAW4UErrorCode@@@Z" PURGE="0" COMMENT="" />
    <EXPORT ORDINAL="3088" NAME="?setPadCharacter@DecimalFormat@icu_53@@UEAAXAEBVUnicodeString@2@@Z" PURGE="0" COMMENT="" />
    <EXPORT ORDINAL="3089" NAME="?setPadPosition@DecimalFormat@icu_53@@UEAAXW4EPadPosition@12@@Z" PURGE="0" COMMENT="" />
    <EXPORT ORDINAL="3090" NAME="?setParseAllInput@DecimalFormat@icu_53@@QEAAXW4UNumberFormatAttributeValue@@@Z" PURGE="0" COMMENT="" />
    <EXPORT ORDINAL="3091" NAME="?setParseError@CollationRuleParser@icu_53@@AEAAXPEBDAEAW4UErrorCode@@@Z" PURGE="0" COMMENT="" />
    <EXPORT ORDINAL="3092" NAME="?setParseIntegerOnly@DecimalFormat@icu_53@@UEAAXC@Z" PURGE="0" COMMENT="" />
    <EXPORT ORDINAL="3093" NAME="?setParseIntegerOnly@NumberFormat@icu_53@@UEAAXC@Z" PURGE="0" COMMENT="" />
    <EXPORT ORDINAL="3094" NAME="?setPattern@StringSearch@icu_53@@QEAAXAEBVUnicodeString@2@AEAW4UErrorCode@@@Z" PURGE="0" COMMENT="" />
    <EXPORT ORDINAL="3095" NAME="?setPatternForCurrencySpacing@DecimalFormatSymbols@icu_53@@QEAAXW4UCurrencySpacing@@CAEBVUnicodeString@2@@Z" PURGE="0" COMMENT="" />
    <EXPORT ORDINAL="3096" NAME="?setPatternInfo@DateIntervalFormat@icu_53@@AEAAXW4UCalendarDateFields@@PEBVUnicodeString@2@1C@Z" PURGE="0" COMMENT="" />
    <EXPORT ORDINAL="3097" NAME="?setPluralRules@CurrencyPluralInfo@icu_53@@QEAAXAEBVUnicodeString@2@AEAW4UErrorCode@@@Z" PURGE="0" COMMENT="" />
    <EXPORT ORDINAL="3098" NAME="?setPositive@DigitList@icu_53@@QEAAXC@Z" PURGE="0" COMMENT="" />
    <EXPORT ORDINAL="3099" NAME="?setPositivePrefix@DecimalFormat@icu_53@@UEAAXAEBVUnicodeString@2@@Z" PURGE="0" COMMENT="" />
    <EXPORT ORDINAL="3100" NAME="?setPositiveSuffix@DecimalFormat@icu_53@@UEAAXAEBVUnicodeString@2@@Z" PURGE="0" COMMENT="" />
    <EXPORT ORDINAL="3101" NAME="?setPrimaryRangeAndReturnNext@CollationDataBuilder@icu_53@@QEAAIHHIHAEAW4UErrorCode@@@Z" PURGE="0" COMMENT="" />
    <EXPORT ORDINAL="3102" NAME="?setQuarters@DateFormatSymbols@icu_53@@QEAAXPEBVUnicodeString@2@HW4DtContextType@12@W4DtWidthType@12@@Z" PURGE="0" COMMENT="" />
    <EXPORT ORDINAL="3103" NAME="?setRadix@NumberingSystem@icu_53@@AEAAXH@Z" PURGE="0" COMMENT="" />
    <EXPORT ORDINAL="3104" NAME="?setRawOffset@OlsonTimeZone@icu_53@@UEAAXH@Z" PURGE="0" COMMENT="" />
    <EXPORT ORDINAL="3105" NAME="?setRawOffset@RuleBasedTimeZone@icu_53@@UEAAXH@Z" PURGE="0" COMMENT="" />
    <EXPORT ORDINAL="3106" NAME="?setRawOffset@SimpleTimeZone@icu_53@@UEAAXH@Z" PURGE="0" COMMENT="" />
    <EXPORT ORDINAL="3107" NAME="?setRawOffset@VTimeZone@icu_53@@UEAAXH@Z" PURGE="0" COMMENT="" />
    <EXPORT ORDINAL="3108" NAME="?setRelatedYear@Calendar@icu_53@@UEAAXH@Z" PURGE="0" COMMENT="" />
    <EXPORT ORDINAL="3109" NAME="?setReorderCodes@Collator@icu_53@@UEAAXPEBHHAEAW4UErrorCode@@@Z" PURGE="0" COMMENT="" />
    <EXPORT ORDINAL="3110" NAME="?setReorderCodes@RuleBasedCollator@icu_53@@UEAAXPEBHHAEAW4UErrorCode@@@Z" PURGE="0" COMMENT="" />
    <EXPORT ORDINAL="3111" NAME="?setReordering@CollationSettings@icu_53@@QEAACPEBHHQEBE@Z" PURGE="0" COMMENT="" />
    <EXPORT ORDINAL="3112" NAME="?setRepeatedWallTimeOption@Calendar@icu_53@@QEAAXW4UCalendarWallTimeOption@@@Z" PURGE="0" COMMENT="" />
    <EXPORT ORDINAL="3113" NAME="?setRoundingIncrement@DecimalFormat@icu_53@@UEAAXN@Z" PURGE="0" COMMENT="" />
    <EXPORT ORDINAL="3114" NAME="?setRoundingMode@DecimalFormat@icu_53@@UEAAXW4ERoundingMode@12@@Z" PURGE="0" COMMENT="" />
    <EXPORT ORDINAL="3115" NAME="?setRoundingMode@DigitList@icu_53@@QEAAXW4ERoundingMode@DecimalFormat@2@@Z" PURGE="0" COMMENT="" />
    <EXPORT ORDINAL="3116" NAME="?setScientificNotation@DecimalFormat@icu_53@@UEAAXC@Z" PURGE="0" COMMENT="" />
    <EXPORT ORDINAL="3117" NAME="?setSecondaryGroupingSize@DecimalFormat@icu_53@@UEAAXH@Z" PURGE="0" COMMENT="" />
    <EXPORT ORDINAL="3118" NAME="?setSeparateDateTimePtn@DateIntervalFormat@icu_53@@AEAACAEBVUnicodeString@2@0@Z" PURGE="0" COMMENT="" />
    <EXPORT ORDINAL="3119" NAME="?setShortMonths@DateFormatSymbols@icu_53@@QEAAXPEBVUnicodeString@2@H@Z" PURGE="0" COMMENT="" />
    <EXPORT ORDINAL="3120" NAME="?setShortWeekdays@DateFormatSymbols@icu_53@@QEAAXPEBVUnicodeString@2@H@Z" PURGE="0" COMMENT="" />
    <EXPORT ORDINAL="3121" NAME="?setSignificantDigitsUsed@DecimalFormat@icu_53@@QEAAXC@Z" PURGE="0" COMMENT="" />
    <EXPORT ORDINAL="3122" NAME="?setSink@CollationRuleParser@icu_53@@QEAAXPEAVSink@12@@Z" PURGE="0" COMMENT="" />
    <EXPORT ORDINAL="3123" NAME="?setSkippedWallTimeOption@Calendar@icu_53@@QEAAXW4UCalendarWallTimeOption@@@Z" PURGE="0" COMMENT="" />
    <EXPORT ORDINAL="3124" NAME="?setStackLimit@RegexMatcher@icu_53@@UEAAXHAEAW4UErrorCode@@@Z" PURGE="0" COMMENT="" />
    <EXPORT ORDINAL="3125" NAME="?setStartRule@SimpleTimeZone@icu_53@@QEAAXHHHAEAW4UErrorCode@@@Z" PURGE="0" COMMENT="" />
    <EXPORT ORDINAL="3126" NAME="?setStartRule@SimpleTimeZone@icu_53@@QEAAXHHHHAEAW4UErrorCode@@@Z" PURGE="0" COMMENT="" />
    <EXPORT ORDINAL="3127" NAME="?setStartRule@SimpleTimeZone@icu_53@@QEAAXHHHHCAEAW4UErrorCode@@@Z" PURGE="0" COMMENT="" />
    <EXPORT ORDINAL="3128" NAME="?setStartRule@SimpleTimeZone@icu_53@@QEAAXHHHHW4TimeMode@12@AEAW4UErrorCode@@@Z" PURGE="0" COMMENT="" />
    <EXPORT ORDINAL="3129" NAME="?setStartRule@SimpleTimeZone@icu_53@@QEAAXHHHHW4TimeMode@12@CAEAW4UErrorCode@@@Z" PURGE="0" COMMENT="" />
    <EXPORT ORDINAL="3130" NAME="?setStartRule@SimpleTimeZone@icu_53@@QEAAXHHHW4TimeMode@12@AEAW4UErrorCode@@@Z" PURGE="0" COMMENT="" />
    <EXPORT ORDINAL="3131" NAME="?setStartYear@SimpleTimeZone@icu_53@@QEAAXH@Z" PURGE="0" COMMENT="" />
    <EXPORT ORDINAL="3132" NAME="?setStrength@CollationSettings@icu_53@@QEAAXHHAEAW4UErrorCode@@@Z" PURGE="0" COMMENT="" />
    <EXPORT ORDINAL="3133" NAME="?setStrength@Collator@icu_53@@UEAAXW4ECollationStrength@12@@Z" PURGE="0" COMMENT="" />
    <EXPORT ORDINAL="3134" NAME="?setString@Formattable@icu_53@@QEAAXAEBVUnicodeString@2@@Z" PURGE="0" COMMENT="" />
    <EXPORT ORDINAL="3135" NAME="?setSymbol@DecimalFormatSymbols@icu_53@@QEAAXW4ENumberFormatSymbol@12@AEBVUnicodeString@2@C@Z" PURGE="0" COMMENT="" />
    <EXPORT ORDINAL="3136" NAME="?setTZURL@VTimeZone@icu_53@@QEAAXAEBVUnicodeString@2@@Z" PURGE="0" COMMENT="" />
    <EXPORT ORDINAL="3137" NAME="?setText@CollationElementIterator@icu_53@@QEAAXAEAVCharacterIterator@2@AEAW4UErrorCode@@@Z" PURGE="0" COMMENT="" />
    <EXPORT ORDINAL="3138" NAME="?setText@CollationElementIterator@icu_53@@QEAAXAEBVUnicodeString@2@AEAW4UErrorCode@@@Z" PURGE="0" COMMENT="" />
    <EXPORT ORDINAL="3139" NAME="?setText@SearchIterator@icu_53@@UEAAXAEAVCharacterIterator@2@AEAW4UErrorCode@@@Z" PURGE="0" COMMENT="" />
    <EXPORT ORDINAL="3140" NAME="?setText@SearchIterator@icu_53@@UEAAXAEBVUnicodeString@2@AEAW4UErrorCode@@@Z" PURGE="0" COMMENT="" />
    <EXPORT ORDINAL="3141" NAME="?setText@StringSearch@icu_53@@UEAAXAEAVCharacterIterator@2@AEAW4UErrorCode@@@Z" PURGE="0" COMMENT="" />
    <EXPORT ORDINAL="3142" NAME="?setText@StringSearch@icu_53@@UEAAXAEBVUnicodeString@2@AEAW4UErrorCode@@@Z" PURGE="0" COMMENT="" />
    <EXPORT ORDINAL="3143" NAME="?setText@UTF16CollationIterator@icu_53@@QEAAXPEB_W0@Z" PURGE="0" COMMENT="" />
    <EXPORT ORDINAL="3144" NAME="?setTime@Calendar@icu_53@@QEAAXNAEAW4UErrorCode@@@Z" PURGE="0" COMMENT="" />
    <EXPORT ORDINAL="3145" NAME="?setTime@CalendarAstronomer@icu_53@@QEAAXN@Z" PURGE="0" COMMENT="" />
    <EXPORT ORDINAL="3146" NAME="?setTime@TimeZoneTransition@icu_53@@QEAAXN@Z" PURGE="0" COMMENT="" />
    <EXPORT ORDINAL="3147" NAME="?setTimeInMillis@Calendar@icu_53@@IEAAXNAEAW4UErrorCode@@@Z" PURGE="0" COMMENT="" />
    <EXPORT ORDINAL="3148" NAME="?setTimeLimit@RegexMatcher@icu_53@@UEAAXHAEAW4UErrorCode@@@Z" PURGE="0" COMMENT="" />
    <EXPORT ORDINAL="3149" NAME="?setTimeZone@Calendar@icu_53@@QEAAXAEBVTimeZone@2@@Z" PURGE="0" COMMENT="" />
    <EXPORT ORDINAL="3150" NAME="?setTimeZone@DateFormat@icu_53@@UEAAXAEBVTimeZone@2@@Z" PURGE="0" COMMENT="" />
    <EXPORT ORDINAL="3151" NAME="?setTimeZone@DateIntervalFormat@icu_53@@UEAAXAEBVTimeZone@2@@Z" PURGE="0" COMMENT="" />
    <EXPORT ORDINAL="3152" NAME="?setTimeZoneFormat@SimpleDateFormat@icu_53@@UEAAXAEBVTimeZoneFormat@2@@Z" PURGE="0" COMMENT="" />
    <EXPORT ORDINAL="3153" NAME="?setTimeZoneNames@TimeZoneFormat@icu_53@@QEAAXAEBVTimeZoneNames@2@@Z" PURGE="0" COMMENT="" />
    <EXPORT ORDINAL="3154" NAME="?setTo@MeasureUnit@icu_53@@AEAAXHH@Z" PURGE="0" COMMENT="" />
    <EXPORT ORDINAL="3155" NAME="?setTo@TimeZoneTransition@icu_53@@QEAAXAEBVTimeZoneRule@2@@Z" PURGE="0" COMMENT="" />
    <EXPORT ORDINAL="3156" NAME="?setToBogus@CollationKey@icu_53@@AEAAAEAV12@XZ" PURGE="0" COMMENT="" />
    <EXPORT ORDINAL="3157" NAME="?setToZero@DigitList@icu_53@@QEAAXXZ" PURGE="0" COMMENT="" />
    <EXPORT ORDINAL="3158" NAME="?setTrace@RegexMatcher@icu_53@@QEAAXC@Z" PURGE="0" COMMENT="" />
    <EXPORT ORDINAL="3159" NAME="?setTransliterators@CompoundTransliterator@icu_53@@QEAAXQEBQEAVTransliterator@2@H@Z" PURGE="0" COMMENT="" />
    <EXPORT ORDINAL="3160" NAME="?setUnderflowLabel@AlphabeticIndex@icu_53@@UEAAAEAV12@AEBVUnicodeString@2@AEAW4UErrorCode@@@Z" PURGE="0" COMMENT="" />
    <EXPORT ORDINAL="3161" NAME="?setVariableTop@RuleBasedCollator@icu_53@@UEAAIAEBVUnicodeString@2@AEAW4UErrorCode@@@Z" PURGE="0" COMMENT="" />
    <EXPORT ORDINAL="3162" NAME="?setVariableTop@RuleBasedCollator@icu_53@@UEAAIPEB_WHAEAW4UErrorCode@@@Z" PURGE="0" COMMENT="" />
    <EXPORT ORDINAL="3163" NAME="?setVariableTop@RuleBasedCollator@icu_53@@UEAAXIAEAW4UErrorCode@@@Z" PURGE="0" COMMENT="" />
    <EXPORT ORDINAL="3164" NAME="?setVersion@CollationTailoring@icu_53@@QEAAXQEBE0@Z" PURGE="0" COMMENT="" />
    <EXPORT ORDINAL="3165" NAME="?setWeekData@Calendar@icu_53@@AEAAXAEBVLocale@2@PEBDAEAW4UErrorCode@@@Z" PURGE="0" COMMENT="" />
    <EXPORT ORDINAL="3166" NAME="?setWeekdays@DateFormatSymbols@icu_53@@QEAAXPEBVUnicodeString@2@H@Z" PURGE="0" COMMENT="" />
    <EXPORT ORDINAL="3167" NAME="?setWeekdays@DateFormatSymbols@icu_53@@QEAAXPEBVUnicodeString@2@HW4DtContextType@12@W4DtWidthType@12@@Z" PURGE="0" COMMENT="" />
    <EXPORT ORDINAL="3168" NAME="?setZoneStrings@DateFormatSymbols@icu_53@@QEAAXPEBQEBVUnicodeString@2@HH@Z" PURGE="0" COMMENT="" />
    <EXPORT ORDINAL="3169" NAME="?setup@TimeUnitFormat@icu_53@@AEAAXAEAW4UErrorCode@@@Z" PURGE="0" COMMENT="" />
    <EXPORT ORDINAL="3170" NAME="?setupCurrencyAffixPatterns@DecimalFormat@icu_53@@AEAAXAEAW4UErrorCode@@@Z" PURGE="0" COMMENT="" />
    <EXPORT ORDINAL="3171" NAME="?setupCurrencyAffixes@DecimalFormat@icu_53@@AEAAXAEBVUnicodeString@2@CCAEAW4UErrorCode@@@Z" PURGE="0" COMMENT="" />
    <EXPORT ORDINAL="3172" NAME="?setupCurrencyPluralPattern@CurrencyPluralInfo@icu_53@@AEAAXAEBVLocale@2@AEAW4UErrorCode@@@Z" PURGE="0" COMMENT="" />
    <EXPORT ORDINAL="3173" NAME="?size@MatchInfoCollection@TimeZoneNames@icu_53@@QEBAHXZ" PURGE="0" COMMENT="" />
    <EXPORT ORDINAL="3174" NAME="?skipBidiMarks@DecimalFormat@icu_53@@CAHAEBVUnicodeString@2@H@Z" PURGE="0" COMMENT="" />
    <EXPORT ORDINAL="3175" NAME="?skipComment@CollationRuleParser@icu_53@@AEBAHH@Z" PURGE="0" COMMENT="" />
    <EXPORT ORDINAL="3176" NAME="?skipPadding@DecimalFormat@icu_53@@AEBAHAEBVUnicodeString@2@H@Z" PURGE="0" COMMENT="" />
    <EXPORT ORDINAL="3177" NAME="?skipPatternWhiteSpace@DecimalFormat@icu_53@@CAHAEBVUnicodeString@2@H@Z" PURGE="0" COMMENT="" />
    <EXPORT ORDINAL="3178" NAME="?skipPatternWhiteSpace@SimpleDateFormat@icu_53@@AEBAHAEBVUnicodeString@2@H@Z" PURGE="0" COMMENT="" />
    <EXPORT ORDINAL="3179" NAME="?skipUWhiteSpace@DecimalFormat@icu_53@@CAHAEBVUnicodeString@2@H@Z" PURGE="0" COMMENT="" />
    <EXPORT ORDINAL="3180" NAME="?skipUWhiteSpace@SimpleDateFormat@icu_53@@AEBAHAEBVUnicodeString@2@H@Z" PURGE="0" COMMENT="" />
    <EXPORT ORDINAL="3181" NAME="?skipUWhiteSpaceAndMarks@DecimalFormat@icu_53@@CAHAEBVUnicodeString@2@H@Z" PURGE="0" COMMENT="" />
    <EXPORT ORDINAL="3182" NAME="?skipWhiteSpace@CollationRuleParser@icu_53@@AEBAHH@Z" PURGE="0" COMMENT="" />
    <EXPORT ORDINAL="3183" NAME="?sortsTertiaryUpperCaseFirst@CollationSettings@icu_53@@SACH@Z" PURGE="0" COMMENT="" />
    <EXPORT ORDINAL="3184" NAME="?split@RegexMatcher@icu_53@@UEAAHAEBVUnicodeString@2@QEAV32@HAEAW4UErrorCode@@@Z" PURGE="0" COMMENT="" />
    <EXPORT ORDINAL="3185" NAME="?split@RegexMatcher@icu_53@@UEAAHPEAUUText@@QEAPEAU3@HAEAW4UErrorCode@@@Z" PURGE="0" COMMENT="" />
    <EXPORT ORDINAL="3186" NAME="?split@RegexPattern@icu_53@@UEBAHAEBVUnicodeString@2@QEAV32@HAEAW4UErrorCode@@@Z" PURGE="0" COMMENT="" />
    <EXPORT ORDINAL="3187" NAME="?split@RegexPattern@icu_53@@UEBAHPEAUUText@@QEAPEAU3@HAEAW4UErrorCode@@@Z" PURGE="0" COMMENT="" />
    <EXPORT ORDINAL="3188" NAME="?splitPatternInto2Part@DateIntervalFormat@icu_53@@CAHAEBVUnicodeString@2@@Z" PURGE="0" COMMENT="" />
    <EXPORT ORDINAL="3189" NAME="?start64@RegexMatcher@icu_53@@UEBA_JAEAW4UErrorCode@@@Z" PURGE="0" COMMENT="" />
    <EXPORT ORDINAL="3190" NAME="?start64@RegexMatcher@icu_53@@UEBA_JHAEAW4UErrorCode@@@Z" PURGE="0" COMMENT="" />
    <EXPORT ORDINAL="3191" NAME="?start@RegexMatcher@icu_53@@UEBAHAEAW4UErrorCode@@@Z" PURGE="0" COMMENT="" />
    <EXPORT ORDINAL="3192" NAME="?start@RegexMatcher@icu_53@@UEBAHHAEAW4UErrorCode@@@Z" PURGE="0" COMMENT="" />
    <EXPORT ORDINAL="3193" NAME="?startOfYear@HebrewCalendar@icu_53@@CAHHAEAW4UErrorCode@@@Z" PURGE="0" COMMENT="" />
    <EXPORT ORDINAL="3194" NAME="?strengthFromNode@CollationBuilder@icu_53@@CAH_J@Z" PURGE="0" COMMENT="" />
    <EXPORT ORDINAL="3195" NAME="?strengthFromTempCE@CollationBuilder@icu_53@@CAH_J@Z" PURGE="0" COMMENT="" />
    <EXPORT ORDINAL="3196" NAME="?strengthOrder@CollationElementIterator@icu_53@@QEBAHH@Z" PURGE="0" COMMENT="" />
    <EXPORT ORDINAL="3197" NAME="?stringNumeric@DateIntervalInfo@icu_53@@CACHHD@Z" PURGE="0" COMMENT="" />
    <EXPORT ORDINAL="3198" NAME="?stripWhitespace@RuleBasedNumberFormat@icu_53@@AEAAXAEAVUnicodeString@2@@Z" PURGE="0" COMMENT="" />
    <EXPORT ORDINAL="3199" NAME="?subFormat@SimpleDateFormat@icu_53@@AEBAXAEAVUnicodeString@2@_WHW4UDisplayContext@@HAEAVFieldPositionHandler@2@AEAVCalendar@2@AEAW4UErrorCode@@@Z" PURGE="0" COMMENT="" />
    <EXPORT ORDINAL="3200" NAME="?subParse@SimpleDateFormat@icu_53@@AEBAHAEBVUnicodeString@2@AEAH_WHCCQEAC1AEAVCalendar@2@HPEAVMessageFormat@2@PEAW4UTimeZoneFormatTimeType@@@Z" PURGE="0" COMMENT="" />
    <EXPORT ORDINAL="3201" NAME="?subformat@DecimalFormat@icu_53@@AEBAAEAVUnicodeString@2@AEAV32@AEAVFieldPositionHandler@2@AEAVDigitList@2@CAEAW4UErrorCode@@@Z" PURGE="0" COMMENT="" />
    <EXPORT ORDINAL="3202" NAME="?subparse@DecimalFormat@icu_53@@AEBACAEBVUnicodeString@2@PEBV32@111CCAEAVParsePosition@2@AEAVDigitList@2@PEACPEA_W@Z" PURGE="0" COMMENT="" />
    <EXPORT ORDINAL="3203" NAME="?suppressContractions@CollationBuilder@icu_53@@EEAAXAEBVUnicodeSet@2@AEAPEBDAEAW4UErrorCode@@@Z" PURGE="0" COMMENT="" />
    <EXPORT ORDINAL="3204" NAME="?suppressContractions@CollationDataBuilder@icu_53@@QEAAXAEBVUnicodeSet@2@AEAW4UErrorCode@@@Z" PURGE="0" COMMENT="" />
    <EXPORT ORDINAL="3205" NAME="?suppressContractions@Sink@CollationRuleParser@icu_53@@UEAAXAEBVUnicodeSet@3@AEAPEBDAEAW4UErrorCode@@@Z" PURGE="0" COMMENT="" />
    <EXPORT ORDINAL="3206" NAME="?switchToBackward@FCDUIterCollationIterator@icu_53@@AEAAXXZ" PURGE="0" COMMENT="" />
    <EXPORT ORDINAL="3207" NAME="?switchToBackward@FCDUTF16CollationIterator@icu_53@@AEAAXXZ" PURGE="0" COMMENT="" />
    <EXPORT ORDINAL="3208" NAME="?switchToBackward@FCDUTF8CollationIterator@icu_53@@AEAAXXZ" PURGE="0" COMMENT="" />
    <EXPORT ORDINAL="3209" NAME="?switchToForward@FCDUIterCollationIterator@icu_53@@AEAAXXZ" PURGE="0" COMMENT="" />
    <EXPORT ORDINAL="3210" NAME="?switchToForward@FCDUTF16CollationIterator@icu_53@@AEAAXXZ" PURGE="0" COMMENT="" />
    <EXPORT ORDINAL="3211" NAME="?switchToForward@FCDUTF8CollationIterator@icu_53@@AEAAXXZ" PURGE="0" COMMENT="" />
    <EXPORT ORDINAL="3212" NAME="?synodicMonthsBetween@ChineseCalendar@icu_53@@EEBAHHH@Z" PURGE="0" COMMENT="" />
    <EXPORT ORDINAL="3213" NAME="?syntaxError@Format@icu_53@@KAXAEBVUnicodeString@2@HAEAUUParseError@@@Z" PURGE="0" COMMENT="" />
    <EXPORT ORDINAL="3214" NAME="?tagFromCE32@Collation@icu_53@@SAHI@Z" PURGE="0" COMMENT="" />
    <EXPORT ORDINAL="3215" NAME="?tcccBits@CollationFCD@icu_53@@0QBIB" PURGE="-1" COMMENT="" />
    <EXPORT ORDINAL="3216" NAME="?tcccIndex@CollationFCD@icu_53@@0QBEB" PURGE="-1" COMMENT="" />
    <EXPORT ORDINAL="3217" NAME="?tempCEFromIndexAndStrength@CollationBuilder@icu_53@@CA_JHH@Z" PURGE="0" COMMENT="" />
    <EXPORT ORDINAL="3218" NAME="?tertiaryOrder@CollationElementIterator@icu_53@@SAHH@Z" PURGE="0" COMMENT="" />
    <EXPORT ORDINAL="3219" NAME="?test@ScriptSet@icu_53@@QEBACW4UScriptCode@@AEAW4UErrorCode@@@Z" PURGE="0" COMMENT="" />
    <EXPORT ORDINAL="3220" NAME="?timeOfAngle@CalendarAstronomer@icu_53@@QEAANAEAVAngleFunc@12@NNNC@Z" PURGE="0" COMMENT="" />
    <EXPORT ORDINAL="3221" NAME="?toCodePoints@TimeZoneFormat@icu_53@@CACAEBVUnicodeString@2@PEAHH@Z" PURGE="0" COMMENT="" />
    <EXPORT ORDINAL="3222" NAME="?toIntegralValue@DigitList@icu_53@@QEAAXXZ" PURGE="0" COMMENT="" />
    <EXPORT ORDINAL="3223" NAME="?toLocalizedPattern@DecimalFormat@icu_53@@UEBAAEAVUnicodeString@2@AEAV32@@Z" PURGE="0" COMMENT="" />
    <EXPORT ORDINAL="3224" NAME="?toLocalizedPattern@SimpleDateFormat@icu_53@@UEBAAEAVUnicodeString@2@AEAV32@AEAW4UErrorCode@@@Z" PURGE="0" COMMENT="" />
    <EXPORT ORDINAL="3225" NAME="?toPattern@ChoiceFormat@icu_53@@UEBAAEAVUnicodeString@2@AEAV32@@Z" PURGE="0" COMMENT="" />
    <EXPORT ORDINAL="3226" NAME="?toPattern@DecimalFormat@icu_53@@AEBAAEAVUnicodeString@2@AEAV32@C@Z" PURGE="0" COMMENT="" />
    <EXPORT ORDINAL="3227" NAME="?toPattern@DecimalFormat@icu_53@@UEBAAEAVUnicodeString@2@AEAV32@@Z" PURGE="0" COMMENT="" />
    <EXPORT ORDINAL="3228" NAME="?toPattern@MessageFormat@icu_53@@UEBAAEAVUnicodeString@2@AEAV32@@Z" PURGE="0" COMMENT="" />
    <EXPORT ORDINAL="3229" NAME="?toPattern@PluralFormat@icu_53@@QEAAAEAVUnicodeString@2@AEAV32@@Z" PURGE="0" COMMENT="" />
    <EXPORT ORDINAL="3230" NAME="?toPattern@SelectFormat@icu_53@@QEAAAEAVUnicodeString@2@AEAV32@@Z" PURGE="0" COMMENT="" />
    <EXPORT ORDINAL="3231" NAME="?toPattern@SimpleDateFormat@icu_53@@UEBAAEAVUnicodeString@2@AEAV32@@Z" PURGE="0" COMMENT="" />
    <EXPORT ORDINAL="3232" NAME="?toRules@CompoundTransliterator@icu_53@@UEBAAEAVUnicodeString@2@AEAV32@C@Z" PURGE="0" COMMENT="" />
    <EXPORT ORDINAL="3233" NAME="?toRules@Transliterator@icu_53@@UEBAAEAVUnicodeString@2@AEAV32@C@Z" PURGE="0" COMMENT="" />
    <EXPORT ORDINAL="3234" NAME="?toString@Ecliptic@CalendarAstronomer@icu_53@@QEBA?AVUnicodeString@3@XZ" PURGE="0" COMMENT="" />
    <EXPORT ORDINAL="3235" NAME="?toString@Equatorial@CalendarAstronomer@icu_53@@QEBA?AVUnicodeString@3@XZ" PURGE="0" COMMENT="" />
    <EXPORT ORDINAL="3236" NAME="?toString@Horizon@CalendarAstronomer@icu_53@@QEBA?AVUnicodeString@3@XZ" PURGE="0" COMMENT="" />
    <EXPORT ORDINAL="3237" NAME="?toUCollationElements@CollationElementIterator@icu_53@@QEAAPEAUUCollationElements@@XZ" PURGE="0" COMMENT="" />
    <EXPORT ORDINAL="3238" NAME="?toUCollationElements@CollationElementIterator@icu_53@@QEBAPEBUUCollationElements@@XZ" PURGE="0" COMMENT="" />
    <EXPORT ORDINAL="3239" NAME="?toUCollator@Collator@icu_53@@QEAAPEAUUCollator@@XZ" PURGE="0" COMMENT="" />
    <EXPORT ORDINAL="3240" NAME="?toUCollator@Collator@icu_53@@QEBAPEBUUCollator@@XZ" PURGE="0" COMMENT="" />
    <EXPORT ORDINAL="3241" NAME="?toUFormattable@Formattable@icu_53@@QEAAPEAPEAXXZ" PURGE="0" COMMENT="" />
    <EXPORT ORDINAL="3242" NAME="?toUFormattable@Formattable@icu_53@@QEBAPEBQEAXXZ" PURGE="0" COMMENT="" />
    <EXPORT ORDINAL="3243" NAME="?transitionCount@OlsonTimeZone@icu_53@@AEBAFXZ" PURGE="0" COMMENT="" />
    <EXPORT ORDINAL="3244" NAME="?transitionTime@OlsonTimeZone@icu_53@@AEBANF@Z" PURGE="0" COMMENT="" />
    <EXPORT ORDINAL="3245" NAME="?transitionTimeInSeconds@OlsonTimeZone@icu_53@@AEBA_JF@Z" PURGE="0" COMMENT="" />
    <EXPORT ORDINAL="3246" NAME="?translatePattern@SimpleDateFormat@icu_53@@CAXAEBVUnicodeString@2@AEAV32@00AEAW4UErrorCode@@@Z" PURGE="0" COMMENT="" />
    <EXPORT ORDINAL="3247" NAME="?transliterate@Transliterator@icu_53@@UEBAHAEAVReplaceable@2@HH@Z" PURGE="0" COMMENT="" />
    <EXPORT ORDINAL="3248" NAME="?transliterate@Transliterator@icu_53@@UEBAXAEAVReplaceable@2@@Z" PURGE="0" COMMENT="" />
    <EXPORT ORDINAL="3249" NAME="?transliterate@Transliterator@icu_53@@UEBAXAEAVReplaceable@2@AEAUUTransPosition@@AEAW4UErrorCode@@@Z" PURGE="0" COMMENT="" />
    <EXPORT ORDINAL="3250" NAME="?transliterate@Transliterator@icu_53@@UEBAXAEAVReplaceable@2@AEAUUTransPosition@@AEBVUnicodeString@2@AEAW4UErrorCode@@@Z" PURGE="0" COMMENT="" />
    <EXPORT ORDINAL="3251" NAME="?transliterate@Transliterator@icu_53@@UEBAXAEAVReplaceable@2@AEAUUTransPosition@@HAEAW4UErrorCode@@@Z" PURGE="0" COMMENT="" />
    <EXPORT ORDINAL="3252" NAME="?trim@DigitList@icu_53@@QEAAXXZ" PURGE="0" COMMENT="" />
    <EXPORT ORDINAL="3253" NAME="?trimMarksFromAffix@DecimalFormat@icu_53@@CAAEAVUnicodeString@2@AEBV32@AEAV32@@Z" PURGE="0" COMMENT="" />
    <EXPORT ORDINAL="3254" NAME="?trueMonthStart@IslamicCalendar@icu_53@@AEBAHH@Z" PURGE="0" COMMENT="" />
    <EXPORT ORDINAL="3255" NAME="?truncateOffsetPattern@TimeZoneFormat@icu_53@@CAAEAVUnicodeString@2@AEBV32@AEAV32@AEAW4UErrorCode@@@Z" PURGE="0" COMMENT="" />
    <EXPORT ORDINAL="3256" NAME="?tzFormat@SimpleDateFormat@icu_53@@AEBAPEAVTimeZoneFormat@2@XZ" PURGE="0" COMMENT="" />
    <EXPORT ORDINAL="3257" NAME="?unassignedCEFromCodePoint@Collation@icu_53@@SA_JH@Z" PURGE="0" COMMENT="" />
    <EXPORT ORDINAL="3258" NAME="?unassignedPrimaryFromCodePoint@Collation@icu_53@@SAIH@Z" PURGE="0" COMMENT="" />
    <EXPORT ORDINAL="3259" NAME="?unquote@TimeZoneFormat@icu_53@@CAAEAVUnicodeString@2@AEBV32@AEAV32@@Z" PURGE="0" COMMENT="" />
    <EXPORT ORDINAL="3260" NAME="?unregister@Calendar@icu_53@@SACPEBXAEAW4UErrorCode@@@Z" PURGE="0" COMMENT="" />
    <EXPORT ORDINAL="3261" NAME="?unregister@Collator@icu_53@@SACPEBXAEAW4UErrorCode@@@Z" PURGE="0" COMMENT="" />
    <EXPORT ORDINAL="3262" NAME="?unregister@NumberFormat@icu_53@@SACPEBXAEAW4UErrorCode@@@Z" PURGE="0" COMMENT="" />
    <EXPORT ORDINAL="3263" NAME="?unregister@Transliterator@icu_53@@SAXAEBVUnicodeString@2@@Z" PURGE="0" COMMENT="" />
    <EXPORT ORDINAL="3264" NAME="?updateMetaData@MessageFormat@icu_53@@AEBAPEAVFieldPosition@2@AEAVAppendableWrapper@2@HPEAV32@PEBVFormattable@2@@Z" PURGE="0" COMMENT="" />
    <EXPORT ORDINAL="3265" NAME="?updateTime@Calendar@icu_53@@AEAAXAEAW4UErrorCode@@@Z" PURGE="0" COMMENT="" />
    <EXPORT ORDINAL="3266" NAME="?useAnchoringBounds@RegexMatcher@icu_53@@UEAAAEAV12@C@Z" PURGE="0" COMMENT="" />
    <EXPORT ORDINAL="3267" NAME="?useDaylightTime@OlsonTimeZone@icu_53@@UEBACXZ" PURGE="0" COMMENT="" />
    <EXPORT ORDINAL="3268" NAME="?useDaylightTime@RuleBasedTimeZone@icu_53@@UEBACXZ" PURGE="0" COMMENT="" />
    <EXPORT ORDINAL="3269" NAME="?useDaylightTime@SimpleTimeZone@icu_53@@UEBACXZ" PURGE="0" COMMENT="" />
    <EXPORT ORDINAL="3270" NAME="?useDaylightTime@VTimeZone@icu_53@@UEBACXZ" PURGE="0" COMMENT="" />
    <EXPORT ORDINAL="3271" NAME="?useTransparentBounds@RegexMatcher@icu_53@@UEAAAEAV12@C@Z" PURGE="0" COMMENT="" />
    <EXPORT ORDINAL="3272" NAME="?usesNamedArguments@MessageFormat@icu_53@@QEBACXZ" PURGE="0" COMMENT="" />
    <EXPORT ORDINAL="3273" NAME="?uspoof_getSkeletonUnicodeString_53@@YAAEAVUnicodeString@icu_53@@PEBUUSpoofChecker@@IAEBV12@AEAV12@PEAW4UErrorCode@@@Z" PURGE="0" COMMENT="" />
    <EXPORT ORDINAL="3274" NAME="?validateField@Calendar@icu_53@@AEAAXW4UCalendarDateFields@@HHAEAW4UErrorCode@@@Z" PURGE="0" COMMENT="" />
    <EXPORT ORDINAL="3275" NAME="?validateField@Calendar@icu_53@@MEAAXW4UCalendarDateFields@@AEAW4UErrorCode@@@Z" PURGE="0" COMMENT="" />
    <EXPORT ORDINAL="3276" NAME="?validateField@HebrewCalendar@icu_53@@MEAAXW4UCalendarDateFields@@AEAW4UErrorCode@@@Z" PURGE="0" COMMENT="" />
    <EXPORT ORDINAL="3277" NAME="?validateFields@Calendar@icu_53@@AEAAXAEAW4UErrorCode@@@Z" PURGE="0" COMMENT="" />
    <EXPORT ORDINAL="3278" NAME="?validateFields@GregorianCalendar@icu_53@@AEBACXZ" PURGE="0" COMMENT="" />
    <EXPORT ORDINAL="3279" NAME="?visible@CollatorFactory@icu_53@@UEBACXZ" PURGE="0" COMMENT="" />
    <EXPORT ORDINAL="3280" NAME="?visible@SimpleNumberFormatFactory@icu_53@@UEBACXZ" PURGE="0" COMMENT="" />
    <EXPORT ORDINAL="3281" NAME="?weekNumber@Calendar@icu_53@@IEAAHHH@Z" PURGE="0" COMMENT="" />
    <EXPORT ORDINAL="3282" NAME="?weekNumber@Calendar@icu_53@@IEAAHHHH@Z" PURGE="0" COMMENT="" />
    <EXPORT ORDINAL="3283" NAME="?weight16FromNode@CollationBuilder@icu_53@@CAI_J@Z" PURGE="0" COMMENT="" />
    <EXPORT ORDINAL="3284" NAME="?weight32FromNode@CollationBuilder@icu_53@@CAI_J@Z" PURGE="0" COMMENT="" />
    <EXPORT ORDINAL="3285" NAME="?winterSolstice@ChineseCalendar@icu_53@@EEBAHH@Z" PURGE="0" COMMENT="" />
    <EXPORT ORDINAL="3286" NAME="?write@CollationDataWriter@icu_53@@CAHCQEBEAEBUCollationData@2@AEBUCollationSettings@2@PEBXHQEAHPEAEHAEAW4UErrorCode@@@Z" PURGE="0" COMMENT="" />
    <EXPORT ORDINAL="3287" NAME="?write@VTimeZone@icu_53@@AEBAXAEAVVTZWriter@2@AEAW4UErrorCode@@@Z" PURGE="0" COMMENT="" />
    <EXPORT ORDINAL="3288" NAME="?write@VTimeZone@icu_53@@AEBAXNAEAVVTZWriter@2@AEAW4UErrorCode@@@Z" PURGE="0" COMMENT="" />
    <EXPORT ORDINAL="3289" NAME="?write@VTimeZone@icu_53@@QEBAXAEAVUnicodeString@2@AEAW4UErrorCode@@@Z" PURGE="0" COMMENT="" />
    <EXPORT ORDINAL="3290" NAME="?write@VTimeZone@icu_53@@QEBAXNAEAVUnicodeString@2@AEAW4UErrorCode@@@Z" PURGE="0" COMMENT="" />
    <EXPORT ORDINAL="3291" NAME="?writeBase@CollationDataWriter@icu_53@@SAHAEBUCollationData@2@AEBUCollationSettings@2@PEBXHQEAHPEAEHAEAW4UErrorCode@@@Z" PURGE="0" COMMENT="" />
    <EXPORT ORDINAL="3292" NAME="?writeFinalRule@VTimeZone@icu_53@@AEBAXAEAVVTZWriter@2@CPEBVAnnualTimeZoneRule@2@HHNAEAW4UErrorCode@@@Z" PURGE="0" COMMENT="" />
    <EXPORT ORDINAL="3293" NAME="?writeFooter@VTimeZone@icu_53@@AEBAXAEAVVTZWriter@2@AEAW4UErrorCode@@@Z" PURGE="0" COMMENT="" />
    <EXPORT ORDINAL="3294" NAME="?writeHeaders@VTimeZone@icu_53@@AEBAXAEAVVTZWriter@2@AEAW4UErrorCode@@@Z" PURGE="0" COMMENT="" />
    <EXPORT ORDINAL="3295" NAME="?writeIdenticalLevel@RuleBasedCollator@icu_53@@AEBAXPEB_W0AEAVSortKeyByteSink@2@AEAW4UErrorCode@@@Z" PURGE="0" COMMENT="" />
    <EXPORT ORDINAL="3296" NAME="?writeRootElementsRange@CollationBaseDataBuilder@icu_53@@AEAAHIIHAEAVUVector32@2@AEAW4UErrorCode@@@Z" PURGE="0" COMMENT="" />
    <EXPORT ORDINAL="3297" NAME="?writeSimple@VTimeZone@icu_53@@AEBAXNAEAVVTZWriter@2@AEAW4UErrorCode@@@Z" PURGE="0" COMMENT="" />
    <EXPORT ORDINAL="3298" NAME="?writeSimple@VTimeZone@icu_53@@QEBAXNAEAVUnicodeString@2@AEAW4UErrorCode@@@Z" PURGE="0" COMMENT="" />
    <EXPORT ORDINAL="3299" NAME="?writeSortKey@RuleBasedCollator@icu_53@@AEBAXPEB_WHAEAVSortKeyByteSink@2@AEAW4UErrorCode@@@Z" PURGE="0" COMMENT="" />
    <EXPORT ORDINAL="3300" NAME="?writeSortKeyUpToQuaternary@CollationKeys@icu_53@@SAXAEAVCollationIterator@2@PEBCAEBUCollationSettings@2@AEAVSortKeyByteSink@2@W4Level@Collation@2@AEAVLevelCallback@12@CAEAW4UErrorCode@@@Z" PURGE="0" COMMENT="" />
    <EXPORT ORDINAL="3301" NAME="?writeTailoring@CollationDataWriter@icu_53@@SAHAEBUCollationTailoring@2@AEBUCollationSettings@2@QEAHPEAEHAEAW4UErrorCode@@@Z" PURGE="0" COMMENT="" />
    <EXPORT ORDINAL="3302" NAME="?writeZone@VTimeZone@icu_53@@AEBAXAEAVVTZWriter@2@AEAVBasicTimeZone@2@PEAVUVector@2@AEAW4UErrorCode@@@Z" PURGE="0" COMMENT="" />
    <EXPORT ORDINAL="3303" NAME="?writeZonePropsByDOM@VTimeZone@icu_53@@AEBAXAEAVVTZWriter@2@CAEBVUnicodeString@2@HHHHNNAEAW4UErrorCode@@@Z" PURGE="0" COMMENT="" />
    <EXPORT ORDINAL="3304" NAME="?writeZonePropsByDOW@VTimeZone@icu_53@@AEBAXAEAVVTZWriter@2@CAEBVUnicodeString@2@HHHHHNNAEAW4UErrorCode@@@Z" PURGE="0" COMMENT="" />
    <EXPORT ORDINAL="3305" NAME="?writeZonePropsByDOW_GEQ_DOM@VTimeZone@icu_53@@AEBAXAEAVVTZWriter@2@CAEBVUnicodeString@2@HHHHHNNAEAW4UErrorCode@@@Z" PURGE="0" COMMENT="" />
    <EXPORT ORDINAL="3306" NAME="?writeZonePropsByDOW_GEQ_DOM_sub@VTimeZone@icu_53@@AEBAXAEAVVTZWriter@2@HHHHNHAEAW4UErrorCode@@@Z" PURGE="0" COMMENT="" />
    <EXPORT ORDINAL="3307" NAME="?writeZonePropsByDOW_LEQ_DOM@VTimeZone@icu_53@@AEBAXAEAVVTZWriter@2@CAEBVUnicodeString@2@HHHHHNNAEAW4UErrorCode@@@Z" PURGE="0" COMMENT="" />
    <EXPORT ORDINAL="3308" NAME="?writeZonePropsByTime@VTimeZone@icu_53@@AEBAXAEAVVTZWriter@2@CAEBVUnicodeString@2@HHNCAEAW4UErrorCode@@@Z" PURGE="0" COMMENT="" />
    <EXPORT ORDINAL="3309" NAME="?yearLength@GregorianCalendar@icu_53@@IEBAHH@Z" PURGE="0" COMMENT="" />
    <EXPORT ORDINAL="3310" NAME="?yearLength@GregorianCalendar@icu_53@@IEBAHXZ" PURGE="0" COMMENT="" />
    <EXPORT ORDINAL="3311" NAME="?yearStart@IslamicCalendar@icu_53@@AEBAHH@Z" PURGE="0" COMMENT="" />
    <EXPORT ORDINAL="3312" NAME="?yearType@HebrewCalendar@icu_53@@AEBAHH@Z" PURGE="0" COMMENT="" />
    <EXPORT ORDINAL="3313" NAME="?zap@RegexPattern@icu_53@@AEAAXXZ" PURGE="0" COMMENT="" />
    <EXPORT ORDINAL="3314" NAME="?zeroPaddingNumber@SimpleDateFormat@icu_53@@AEBAXPEAVNumberFormat@2@AEAVUnicodeString@2@HHH@Z" PURGE="0" COMMENT="" />
    <EXPORT ORDINAL="3315" NAME="?zoneOffsetAt@OlsonTimeZone@icu_53@@AEBAHF@Z" PURGE="0" COMMENT="" />
    <EXPORT ORDINAL="3316" NAME="izrule_clone_53" PURGE="0" COMMENT="" />
    <EXPORT ORDINAL="3317" NAME="izrule_close_53" PURGE="0" COMMENT="" />
    <EXPORT ORDINAL="3318" NAME="izrule_equals_53" PURGE="0" COMMENT="" />
    <EXPORT ORDINAL="3319" NAME="izrule_getDSTSavings_53" PURGE="0" COMMENT="" />
    <EXPORT ORDINAL="3320" NAME="izrule_getDynamicClassID_53" PURGE="0" COMMENT="" />
    <EXPORT ORDINAL="3321" NAME="izrule_getFinalStart_53" PURGE="0" COMMENT="" />
    <EXPORT ORDINAL="3322" NAME="izrule_getFirstStart_53" PURGE="0" COMMENT="" />
    <EXPORT ORDINAL="3323" NAME="izrule_getName_53" PURGE="0" COMMENT="" />
    <EXPORT ORDINAL="3324" NAME="izrule_getNextStart_53" PURGE="0" COMMENT="" />
    <EXPORT ORDINAL="3325" NAME="izrule_getPreviousStart_53" PURGE="0" COMMENT="" />
    <EXPORT ORDINAL="3326" NAME="izrule_getRawOffset_53" PURGE="0" COMMENT="" />
    <EXPORT ORDINAL="3327" NAME="izrule_getStaticClassID_53" PURGE="0" COMMENT="" />
    <EXPORT ORDINAL="3328" NAME="izrule_isEquivalentTo_53" PURGE="0" COMMENT="" />
    <EXPORT ORDINAL="3329" NAME="izrule_open_53" PURGE="0" COMMENT="" />
    <EXPORT ORDINAL="3330" NAME="u_formatMessageWithError_53" PURGE="0" COMMENT="" />
    <EXPORT ORDINAL="3331" NAME="u_formatMessage_53" PURGE="0" COMMENT="" />
    <EXPORT ORDINAL="3332" NAME="u_parseMessageWithError_53" PURGE="0" COMMENT="" />
    <EXPORT ORDINAL="3333" NAME="u_parseMessage_53" PURGE="0" COMMENT="" />
    <EXPORT ORDINAL="3334" NAME="u_vformatMessageWithError_53" PURGE="0" COMMENT="" />
    <EXPORT ORDINAL="3335" NAME="u_vformatMessage_53" PURGE="0" COMMENT="" />
    <EXPORT ORDINAL="3336" NAME="u_vparseMessageWithError_53" PURGE="0" COMMENT="" />
    <EXPORT ORDINAL="3337" NAME="u_vparseMessage_53" PURGE="0" COMMENT="" />
    <EXPORT ORDINAL="3338" NAME="ucal_add_53" PURGE="0" COMMENT="" />
    <EXPORT ORDINAL="3339" NAME="ucal_clearField_53" PURGE="0" COMMENT="" />
    <EXPORT ORDINAL="3340" NAME="ucal_clear_53" PURGE="0" COMMENT="" />
    <EXPORT ORDINAL="3341" NAME="ucal_clone_53" PURGE="0" COMMENT="" />
    <EXPORT ORDINAL="3342" NAME="ucal_close_53" PURGE="0" COMMENT="" />
    <EXPORT ORDINAL="3343" NAME="ucal_countAvailable_53" PURGE="0" COMMENT="" />
    <EXPORT ORDINAL="3344" NAME="ucal_equivalentTo_53" PURGE="0" COMMENT="" />
    <EXPORT ORDINAL="3345" NAME="ucal_getAttribute_53" PURGE="0" COMMENT="" />
    <EXPORT ORDINAL="3346" NAME="ucal_getAvailable_53" PURGE="0" COMMENT="" />
    <EXPORT ORDINAL="3347" NAME="ucal_getCanonicalTimeZoneID_53" PURGE="0" COMMENT="" />
    <EXPORT ORDINAL="3348" NAME="ucal_getDSTSavings_53" PURGE="0" COMMENT="" />
    <EXPORT ORDINAL="3349" NAME="ucal_getDayOfWeekType_53" PURGE="0" COMMENT="" />
    <EXPORT ORDINAL="3350" NAME="ucal_getDefaultTimeZone_53" PURGE="0" COMMENT="" />
    <EXPORT ORDINAL="3351" NAME="ucal_getFieldDifference_53" PURGE="0" COMMENT="" />
    <EXPORT ORDINAL="3352" NAME="ucal_getGregorianChange_53" PURGE="0" COMMENT="" />
    <EXPORT ORDINAL="3353" NAME="ucal_getKeywordValuesForLocale_53" PURGE="0" COMMENT="" />
    <EXPORT ORDINAL="3354" NAME="ucal_getLimit_53" PURGE="0" COMMENT="" />
    <EXPORT ORDINAL="3355" NAME="ucal_getLocaleByType_53" PURGE="0" COMMENT="" />
    <EXPORT ORDINAL="3356" NAME="ucal_getMillis_53" PURGE="0" COMMENT="" />
    <EXPORT ORDINAL="3357" NAME="ucal_getNow_53" PURGE="0" COMMENT="" />
    <EXPORT ORDINAL="3358" NAME="ucal_getTZDataVersion_53" PURGE="0" COMMENT="" />
    <EXPORT ORDINAL="3359" NAME="ucal_getTimeZoneDisplayName_53" PURGE="0" COMMENT="" />
    <EXPORT ORDINAL="3360" NAME="ucal_getTimeZoneIDForWindowsID_53" PURGE="0" COMMENT="" />
    <EXPORT ORDINAL="3361" NAME="ucal_getTimeZoneID_53" PURGE="0" COMMENT="" />
    <EXPORT ORDINAL="3362" NAME="ucal_getTimeZoneTransitionDate_53" PURGE="0" COMMENT="" />
    <EXPORT ORDINAL="3363" NAME="ucal_getType_53" PURGE="0" COMMENT="" />
    <EXPORT ORDINAL="3364" NAME="ucal_getWeekendTransition_53" PURGE="0" COMMENT="" />
    <EXPORT ORDINAL="3365" NAME="ucal_getWindowsTimeZoneID_53" PURGE="0" COMMENT="" />
    <EXPORT ORDINAL="3366" NAME="ucal_get_53" PURGE="0" COMMENT="" />
    <EXPORT ORDINAL="3367" NAME="ucal_inDaylightTime_53" PURGE="0" COMMENT="" />
    <EXPORT ORDINAL="3368" NAME="ucal_isSet_53" PURGE="0" COMMENT="" />
    <EXPORT ORDINAL="3369" NAME="ucal_isWeekend_53" PURGE="0" COMMENT="" />
    <EXPORT ORDINAL="3370" NAME="ucal_openCountryTimeZones_53" PURGE="0" COMMENT="" />
    <EXPORT ORDINAL="3371" NAME="ucal_openTimeZoneIDEnumeration_53" PURGE="0" COMMENT="" />
    <EXPORT ORDINAL="3372" NAME="ucal_openTimeZones_53" PURGE="0" COMMENT="" />
    <EXPORT ORDINAL="3373" NAME="ucal_open_53" PURGE="0" COMMENT="" />
    <EXPORT ORDINAL="3374" NAME="ucal_roll_53" PURGE="0" COMMENT="" />
    <EXPORT ORDINAL="3375" NAME="ucal_setAttribute_53" PURGE="0" COMMENT="" />
    <EXPORT ORDINAL="3376" NAME="ucal_setDateTime_53" PURGE="0" COMMENT="" />
    <EXPORT ORDINAL="3377" NAME="ucal_setDate_53" PURGE="0" COMMENT="" />
    <EXPORT ORDINAL="3378" NAME="ucal_setDefaultTimeZone_53" PURGE="0" COMMENT="" />
    <EXPORT ORDINAL="3379" NAME="ucal_setGregorianChange_53" PURGE="0" COMMENT="" />
    <EXPORT ORDINAL="3380" NAME="ucal_setMillis_53" PURGE="0" COMMENT="" />
    <EXPORT ORDINAL="3381" NAME="ucal_setTimeZone_53" PURGE="0" COMMENT="" />
    <EXPORT ORDINAL="3382" NAME="ucal_set_53" PURGE="0" COMMENT="" />
    <EXPORT ORDINAL="3383" NAME="ucol_cloneBinary_53" PURGE="0" COMMENT="" />
    <EXPORT ORDINAL="3384" NAME="ucol_closeElements_53" PURGE="0" COMMENT="" />
    <EXPORT ORDINAL="3385" NAME="ucol_close_53" PURGE="0" COMMENT="" />
    <EXPORT ORDINAL="3386" NAME="ucol_countAvailable_53" PURGE="0" COMMENT="" />
    <EXPORT ORDINAL="3387" NAME="ucol_equal_53" PURGE="0" COMMENT="" />
    <EXPORT ORDINAL="3388" NAME="ucol_equals_53" PURGE="0" COMMENT="" />
    <EXPORT ORDINAL="3389" NAME="ucol_getAttribute_53" PURGE="0" COMMENT="" />
    <EXPORT ORDINAL="3390" NAME="ucol_getAvailable_53" PURGE="0" COMMENT="" />
    <EXPORT ORDINAL="3391" NAME="ucol_getBound_53" PURGE="0" COMMENT="" />
    <EXPORT ORDINAL="3392" NAME="ucol_getContractionsAndExpansions_53" PURGE="0" COMMENT="" />
    <EXPORT ORDINAL="3393" NAME="ucol_getContractions_53" PURGE="0" COMMENT="" />
    <EXPORT ORDINAL="3394" NAME="ucol_getDisplayName_53" PURGE="0" COMMENT="" />
    <EXPORT ORDINAL="3395" NAME="ucol_getEquivalentReorderCodes_53" PURGE="0" COMMENT="" />
    <EXPORT ORDINAL="3396" NAME="ucol_getFunctionalEquivalent_53" PURGE="0" COMMENT="" />
    <EXPORT ORDINAL="3397" NAME="ucol_getKeywordValuesForLocale_53" PURGE="0" COMMENT="" />
    <EXPORT ORDINAL="3398" NAME="ucol_getKeywordValues_53" PURGE="0" COMMENT="" />
    <EXPORT ORDINAL="3399" NAME="ucol_getKeywords_53" PURGE="0" COMMENT="" />
    <EXPORT ORDINAL="3400" NAME="ucol_getLocaleByType_53" PURGE="0" COMMENT="" />
    <EXPORT ORDINAL="3401" NAME="ucol_getLocale_53" PURGE="0" COMMENT="" />
    <EXPORT ORDINAL="3402" NAME="ucol_getMaxExpansion_53" PURGE="0" COMMENT="" />
    <EXPORT ORDINAL="3403" NAME="ucol_getMaxVariable_53" PURGE="0" COMMENT="" />
    <EXPORT ORDINAL="3404" NAME="ucol_getOffset_53" PURGE="0" COMMENT="" />
    <EXPORT ORDINAL="3405" NAME="ucol_getReorderCodes_53" PURGE="0" COMMENT="" />
    <EXPORT ORDINAL="3406" NAME="ucol_getRulesEx_53" PURGE="0" COMMENT="" />
    <EXPORT ORDINAL="3407" NAME="ucol_getRules_53" PURGE="0" COMMENT="" />
    <EXPORT ORDINAL="3408" NAME="ucol_getShortDefinitionString_53" PURGE="0" COMMENT="" />
    <EXPORT ORDINAL="3409" NAME="ucol_getSortKey_53" PURGE="0" COMMENT="" />
    <EXPORT ORDINAL="3410" NAME="ucol_getStrength_53" PURGE="0" COMMENT="" />
    <EXPORT ORDINAL="3411" NAME="ucol_getTailoredSet_53" PURGE="0" COMMENT="" />
    <EXPORT ORDINAL="3412" NAME="ucol_getUCAVersion_53" PURGE="0" COMMENT="" />
    <EXPORT ORDINAL="3413" NAME="ucol_getUnsafeSet_53" PURGE="0" COMMENT="" />
    <EXPORT ORDINAL="3414" NAME="ucol_getVariableTop_53" PURGE="0" COMMENT="" />
    <EXPORT ORDINAL="3415" NAME="ucol_getVersion_53" PURGE="0" COMMENT="" />
    <EXPORT ORDINAL="3416" NAME="ucol_greaterOrEqual_53" PURGE="0" COMMENT="" />
    <EXPORT ORDINAL="3417" NAME="ucol_greater_53" PURGE="0" COMMENT="" />
    <EXPORT ORDINAL="3418" NAME="ucol_keyHashCode_53" PURGE="0" COMMENT="" />
    <EXPORT ORDINAL="3419" NAME="ucol_mergeSortkeys_53" PURGE="0" COMMENT="" />
    <EXPORT ORDINAL="3420" NAME="ucol_nextSortKeyPart_53" PURGE="0" COMMENT="" />
    <EXPORT ORDINAL="3421" NAME="ucol_next_53" PURGE="0" COMMENT="" />
    <EXPORT ORDINAL="3422" NAME="ucol_normalizeShortDefinitionString_53" PURGE="0" COMMENT="" />
    <EXPORT ORDINAL="3423" NAME="ucol_openAvailableLocales_53" PURGE="0" COMMENT="" />
    <EXPORT ORDINAL="3424" NAME="ucol_openBinary_53" PURGE="0" COMMENT="" />
    <EXPORT ORDINAL="3425" NAME="ucol_openElements_53" PURGE="0" COMMENT="" />
    <EXPORT ORDINAL="3426" NAME="ucol_openFromShortString_53" PURGE="0" COMMENT="" />
    <EXPORT ORDINAL="3427" NAME="ucol_openRules_53" PURGE="0" COMMENT="" />
    <EXPORT ORDINAL="3428" NAME="ucol_open_53" PURGE="0" COMMENT="" />
    <EXPORT ORDINAL="3429" NAME="ucol_prepareShortStringOpen_53" PURGE="0" COMMENT="" />
    <EXPORT ORDINAL="3430" NAME="ucol_previous_53" PURGE="0" COMMENT="" />
    <EXPORT ORDINAL="3431" NAME="ucol_primaryOrder_53" PURGE="0" COMMENT="" />
    <EXPORT ORDINAL="3432" NAME="ucol_reset_53" PURGE="0" COMMENT="" />
    <EXPORT ORDINAL="3433" NAME="ucol_restoreVariableTop_53" PURGE="0" COMMENT="" />
    <EXPORT ORDINAL="3434" NAME="ucol_safeClone_53" PURGE="0" COMMENT="" />
    <EXPORT ORDINAL="3435" NAME="ucol_secondaryOrder_53" PURGE="0" COMMENT="" />
    <EXPORT ORDINAL="3436" NAME="ucol_setAttribute_53" PURGE="0" COMMENT="" />
    <EXPORT ORDINAL="3437" NAME="ucol_setMaxVariable_53" PURGE="0" COMMENT="" />
    <EXPORT ORDINAL="3438" NAME="ucol_setOffset_53" PURGE="0" COMMENT="" />
    <EXPORT ORDINAL="3439" NAME="ucol_setReorderCodes_53" PURGE="0" COMMENT="" />
    <EXPORT ORDINAL="3440" NAME="ucol_setStrength_53" PURGE="0" COMMENT="" />
    <EXPORT ORDINAL="3441" NAME="ucol_setText_53" PURGE="0" COMMENT="" />
    <EXPORT ORDINAL="3442" NAME="ucol_setVariableTop_53" PURGE="0" COMMENT="" />
    <EXPORT ORDINAL="3443" NAME="ucol_strcollIter_53" PURGE="0" COMMENT="" />
    <EXPORT ORDINAL="3444" NAME="ucol_strcollUTF8_53" PURGE="0" COMMENT="" />
    <EXPORT ORDINAL="3445" NAME="ucol_strcoll_53" PURGE="0" COMMENT="" />
    <EXPORT ORDINAL="3446" NAME="ucol_tertiaryOrder_53" PURGE="0" COMMENT="" />
    <EXPORT ORDINAL="3447" NAME="ucsdet_close_53" PURGE="0" COMMENT="" />
    <EXPORT ORDINAL="3448" NAME="ucsdet_detectAll_53" PURGE="0" COMMENT="" />
    <EXPORT ORDINAL="3449" NAME="ucsdet_detect_53" PURGE="0" COMMENT="" />
    <EXPORT ORDINAL="3450" NAME="ucsdet_enableInputFilter_53" PURGE="0" COMMENT="" />
    <EXPORT ORDINAL="3451" NAME="ucsdet_getAllDetectableCharsets_53" PURGE="0" COMMENT="" />
    <EXPORT ORDINAL="3452" NAME="ucsdet_getConfidence_53" PURGE="0" COMMENT="" />
    <EXPORT ORDINAL="3453" NAME="ucsdet_getDetectableCharsets_53" PURGE="0" COMMENT="" />
    <EXPORT ORDINAL="3454" NAME="ucsdet_getLanguage_53" PURGE="0" COMMENT="" />
    <EXPORT ORDINAL="3455" NAME="ucsdet_getName_53" PURGE="0" COMMENT="" />
    <EXPORT ORDINAL="3456" NAME="ucsdet_getUChars_53" PURGE="0" COMMENT="" />
    <EXPORT ORDINAL="3457" NAME="ucsdet_isInputFilterEnabled_53" PURGE="0" COMMENT="" />
    <EXPORT ORDINAL="3458" NAME="ucsdet_open_53" PURGE="0" COMMENT="" />
    <EXPORT ORDINAL="3459" NAME="ucsdet_setDeclaredEncoding_53" PURGE="0" COMMENT="" />
    <EXPORT ORDINAL="3460" NAME="ucsdet_setDetectableCharset_53" PURGE="0" COMMENT="" />
    <EXPORT ORDINAL="3461" NAME="ucsdet_setText_53" PURGE="0" COMMENT="" />
    <EXPORT ORDINAL="3462" NAME="ucurr_countCurrencies_53" PURGE="0" COMMENT="" />
    <EXPORT ORDINAL="3463" NAME="ucurr_forLocaleAndDate_53" PURGE="0" COMMENT="" />
    <EXPORT ORDINAL="3464" NAME="ucurr_forLocale_53" PURGE="0" COMMENT="" />
    <EXPORT ORDINAL="3465" NAME="ucurr_getDefaultFractionDigits_53" PURGE="0" COMMENT="" />
    <EXPORT ORDINAL="3466" NAME="ucurr_getKeywordValuesForLocale_53" PURGE="0" COMMENT="" />
    <EXPORT ORDINAL="3467" NAME="ucurr_getName_53" PURGE="0" COMMENT="" />
    <EXPORT ORDINAL="3468" NAME="ucurr_getNumericCode_53" PURGE="0" COMMENT="" />
    <EXPORT ORDINAL="3469" NAME="ucurr_getPluralName_53" PURGE="0" COMMENT="" />
    <EXPORT ORDINAL="3470" NAME="ucurr_getRoundingIncrement_53" PURGE="0" COMMENT="" />
    <EXPORT ORDINAL="3471" NAME="ucurr_isAvailable_53" PURGE="0" COMMENT="" />
    <EXPORT ORDINAL="3472" NAME="ucurr_openISOCurrencies_53" PURGE="0" COMMENT="" />
    <EXPORT ORDINAL="3473" NAME="ucurr_register_53" PURGE="0" COMMENT="" />
    <EXPORT ORDINAL="3474" NAME="ucurr_unregister_53" PURGE="0" COMMENT="" />
    <EXPORT ORDINAL="3475" NAME="udat_applyPatternRelative_53" PURGE="0" COMMENT="" />
    <EXPORT ORDINAL="3476" NAME="udat_applyPattern_53" PURGE="0" COMMENT="" />
    <EXPORT ORDINAL="3477" NAME="udat_clone_53" PURGE="0" COMMENT="" />
    <EXPORT ORDINAL="3478" NAME="udat_close_53" PURGE="0" COMMENT="" />
    <EXPORT ORDINAL="3479" NAME="udat_countAvailable_53" PURGE="0" COMMENT="" />
    <EXPORT ORDINAL="3480" NAME="udat_countSymbols_53" PURGE="0" COMMENT="" />
    <EXPORT ORDINAL="3481" NAME="udat_format_53" PURGE="0" COMMENT="" />
    <EXPORT ORDINAL="3482" NAME="udat_get2DigitYearStart_53" PURGE="0" COMMENT="" />
    <EXPORT ORDINAL="3483" NAME="udat_getAvailable_53" PURGE="0" COMMENT="" />
    <EXPORT ORDINAL="3484" NAME="udat_getCalendar_53" PURGE="0" COMMENT="" />
    <EXPORT ORDINAL="3485" NAME="udat_getContext_53" PURGE="0" COMMENT="" />
    <EXPORT ORDINAL="3486" NAME="udat_getLocaleByType_53" PURGE="0" COMMENT="" />
    <EXPORT ORDINAL="3487" NAME="udat_getNumberFormat_53" PURGE="0" COMMENT="" />
    <EXPORT ORDINAL="3488" NAME="udat_getSymbols_53" PURGE="0" COMMENT="" />
    <EXPORT ORDINAL="3489" NAME="udat_isLenient_53" PURGE="0" COMMENT="" />
    <EXPORT ORDINAL="3490" NAME="udat_open_53" PURGE="0" COMMENT="" />
    <EXPORT ORDINAL="3491" NAME="udat_parseCalendar_53" PURGE="0" COMMENT="" />
    <EXPORT ORDINAL="3492" NAME="udat_parse_53" PURGE="0" COMMENT="" />
    <EXPORT ORDINAL="3493" NAME="udat_registerOpener_53" PURGE="0" COMMENT="" />
    <EXPORT ORDINAL="3494" NAME="udat_set2DigitYearStart_53" PURGE="0" COMMENT="" />
    <EXPORT ORDINAL="3495" NAME="udat_setCalendar_53" PURGE="0" COMMENT="" />
    <EXPORT ORDINAL="3496" NAME="udat_setContext_53" PURGE="0" COMMENT="" />
    <EXPORT ORDINAL="3497" NAME="udat_setLenient_53" PURGE="0" COMMENT="" />
    <EXPORT ORDINAL="3498" NAME="udat_setNumberFormat_53" PURGE="0" COMMENT="" />
    <EXPORT ORDINAL="3499" NAME="udat_setSymbols_53" PURGE="0" COMMENT="" />
    <EXPORT ORDINAL="3500" NAME="udat_toCalendarDateField_53" PURGE="0" COMMENT="" />
    <EXPORT ORDINAL="3501" NAME="udat_toPatternRelativeDate_53" PURGE="0" COMMENT="" />
    <EXPORT ORDINAL="3502" NAME="udat_toPatternRelativeTime_53" PURGE="0" COMMENT="" />
    <EXPORT ORDINAL="3503" NAME="udat_toPattern_53" PURGE="0" COMMENT="" />
    <EXPORT ORDINAL="3504" NAME="udat_unregisterOpener_53" PURGE="0" COMMENT="" />
    <EXPORT ORDINAL="3505" NAME="udatpg_addPattern_53" PURGE="0" COMMENT="" />
    <EXPORT ORDINAL="3506" NAME="udatpg_clone_53" PURGE="0" COMMENT="" />
    <EXPORT ORDINAL="3507" NAME="udatpg_close_53" PURGE="0" COMMENT="" />
    <EXPORT ORDINAL="3508" NAME="udatpg_getAppendItemFormat_53" PURGE="0" COMMENT="" />
    <EXPORT ORDINAL="3509" NAME="udatpg_getAppendItemName_53" PURGE="0" COMMENT="" />
    <EXPORT ORDINAL="3510" NAME="udatpg_getBaseSkeleton_53" PURGE="0" COMMENT="" />
    <EXPORT ORDINAL="3511" NAME="udatpg_getBestPatternWithOptions_53" PURGE="0" COMMENT="" />
    <EXPORT ORDINAL="3512" NAME="udatpg_getBestPattern_53" PURGE="0" COMMENT="" />
    <EXPORT ORDINAL="3513" NAME="udatpg_getDateTimeFormat_53" PURGE="0" COMMENT="" />
    <EXPORT ORDINAL="3514" NAME="udatpg_getDecimal_53" PURGE="0" COMMENT="" />
    <EXPORT ORDINAL="3515" NAME="udatpg_getPatternForSkeleton_53" PURGE="0" COMMENT="" />
    <EXPORT ORDINAL="3516" NAME="udatpg_getSkeleton_53" PURGE="0" COMMENT="" />
    <EXPORT ORDINAL="3517" NAME="udatpg_openBaseSkeletons_53" PURGE="0" COMMENT="" />
    <EXPORT ORDINAL="3518" NAME="udatpg_openEmpty_53" PURGE="0" COMMENT="" />
    <EXPORT ORDINAL="3519" NAME="udatpg_openSkeletons_53" PURGE="0" COMMENT="" />
    <EXPORT ORDINAL="3520" NAME="udatpg_open_53" PURGE="0" COMMENT="" />
    <EXPORT ORDINAL="3521" NAME="udatpg_replaceFieldTypesWithOptions_53" PURGE="0" COMMENT="" />
    <EXPORT ORDINAL="3522" NAME="udatpg_replaceFieldTypes_53" PURGE="0" COMMENT="" />
    <EXPORT ORDINAL="3523" NAME="udatpg_setAppendItemFormat_53" PURGE="0" COMMENT="" />
    <EXPORT ORDINAL="3524" NAME="udatpg_setAppendItemName_53" PURGE="0" COMMENT="" />
    <EXPORT ORDINAL="3525" NAME="udatpg_setDateTimeFormat_53" PURGE="0" COMMENT="" />
    <EXPORT ORDINAL="3526" NAME="udatpg_setDecimal_53" PURGE="0" COMMENT="" />
    <EXPORT ORDINAL="3527" NAME="udtitvfmt_close_53" PURGE="0" COMMENT="" />
    <EXPORT ORDINAL="3528" NAME="udtitvfmt_format_53" PURGE="0" COMMENT="" />
    <EXPORT ORDINAL="3529" NAME="udtitvfmt_open_53" PURGE="0" COMMENT="" />
    <EXPORT ORDINAL="3530" NAME="ufmt_close_53" PURGE="0" COMMENT="" />
    <EXPORT ORDINAL="3531" NAME="ufmt_getArrayItemByIndex_53" PURGE="0" COMMENT="" />
    <EXPORT ORDINAL="3532" NAME="ufmt_getArrayLength_53" PURGE="0" COMMENT="" />
    <EXPORT ORDINAL="3533" NAME="ufmt_getDate_53" PURGE="0" COMMENT="" />
    <EXPORT ORDINAL="3534" NAME="ufmt_getDecNumChars_53" PURGE="0" COMMENT="" />
    <EXPORT ORDINAL="3535" NAME="ufmt_getDouble_53" PURGE="0" COMMENT="" />
    <EXPORT ORDINAL="3536" NAME="ufmt_getInt64_53" PURGE="0" COMMENT="" />
    <EXPORT ORDINAL="3537" NAME="ufmt_getLong_53" PURGE="0" COMMENT="" />
    <EXPORT ORDINAL="3538" NAME="ufmt_getObject_53" PURGE="0" COMMENT="" />
    <EXPORT ORDINAL="3539" NAME="ufmt_getType_53" PURGE="0" COMMENT="" />
    <EXPORT ORDINAL="3540" NAME="ufmt_getUChars_53" PURGE="0" COMMENT="" />
    <EXPORT ORDINAL="3541" NAME="ufmt_isNumeric_53" PURGE="0" COMMENT="" />
    <EXPORT ORDINAL="3542" NAME="ufmt_open_53" PURGE="0" COMMENT="" />
    <EXPORT ORDINAL="3543" NAME="ugender_getInstance_53" PURGE="0" COMMENT="" />
    <EXPORT ORDINAL="3544" NAME="ugender_getListGender_53" PURGE="0" COMMENT="" />
    <EXPORT ORDINAL="3545" NAME="uhash_compareScriptSet_53" PURGE="0" COMMENT="" />
    <EXPORT ORDINAL="3546" NAME="uhash_deleteScriptSet_53" PURGE="0" COMMENT="" />
    <EXPORT ORDINAL="3547" NAME="uhash_equalsScriptSet_53" PURGE="0" COMMENT="" />
    <EXPORT ORDINAL="3548" NAME="uhash_hashScriptSet_53" PURGE="0" COMMENT="" />
    <EXPORT ORDINAL="3549" NAME="uldn_close_53" PURGE="0" COMMENT="" />
    <EXPORT ORDINAL="3550" NAME="uldn_getContext_53" PURGE="0" COMMENT="" />
    <EXPORT ORDINAL="3551" NAME="uldn_getDialectHandling_53" PURGE="0" COMMENT="" />
    <EXPORT ORDINAL="3552" NAME="uldn_getLocale_53" PURGE="0" COMMENT="" />
    <EXPORT ORDINAL="3553" NAME="uldn_keyDisplayName_53" PURGE="0" COMMENT="" />
    <EXPORT ORDINAL="3554" NAME="uldn_keyValueDisplayName_53" PURGE="0" COMMENT="" />
    <EXPORT ORDINAL="3555" NAME="uldn_languageDisplayName_53" PURGE="0" COMMENT="" />
    <EXPORT ORDINAL="3556" NAME="uldn_localeDisplayName_53" PURGE="0" COMMENT="" />
    <EXPORT ORDINAL="3557" NAME="uldn_openForContext_53" PURGE="0" COMMENT="" />
    <EXPORT ORDINAL="3558" NAME="uldn_open_53" PURGE="0" COMMENT="" />
    <EXPORT ORDINAL="3559" NAME="uldn_regionDisplayName_53" PURGE="0" COMMENT="" />
    <EXPORT ORDINAL="3560" NAME="uldn_scriptCodeDisplayName_53" PURGE="0" COMMENT="" />
    <EXPORT ORDINAL="3561" NAME="uldn_scriptDisplayName_53" PURGE="0" COMMENT="" />
    <EXPORT ORDINAL="3562" NAME="uldn_variantDisplayName_53" PURGE="0" COMMENT="" />
    <EXPORT ORDINAL="3563" NAME="ulocdata_close_53" PURGE="0" COMMENT="" />
    <EXPORT ORDINAL="3564" NAME="ulocdata_getCLDRVersion_53" PURGE="0" COMMENT="" />
    <EXPORT ORDINAL="3565" NAME="ulocdata_getDelimiter_53" PURGE="0" COMMENT="" />
    <EXPORT ORDINAL="3566" NAME="ulocdata_getExemplarSet_53" PURGE="0" COMMENT="" />
    <EXPORT ORDINAL="3567" NAME="ulocdata_getLocaleDisplayPattern_53" PURGE="0" COMMENT="" />
    <EXPORT ORDINAL="3568" NAME="ulocdata_getLocaleSeparator_53" PURGE="0" COMMENT="" />
    <EXPORT ORDINAL="3569" NAME="ulocdata_getMeasurementSystem_53" PURGE="0" COMMENT="" />
    <EXPORT ORDINAL="3570" NAME="ulocdata_getNoSubstitute_53" PURGE="0" COMMENT="" />
    <EXPORT ORDINAL="3571" NAME="ulocdata_getPaperSize_53" PURGE="0" COMMENT="" />
    <EXPORT ORDINAL="3572" NAME="ulocdata_open_53" PURGE="0" COMMENT="" />
    <EXPORT ORDINAL="3573" NAME="ulocdata_setNoSubstitute_53" PURGE="0" COMMENT="" />
    <EXPORT ORDINAL="3574" NAME="umsg_applyPattern_53" PURGE="0" COMMENT="" />
    <EXPORT ORDINAL="3575" NAME="umsg_autoQuoteApostrophe_53" PURGE="0" COMMENT="" />
    <EXPORT ORDINAL="3576" NAME="umsg_clone_53" PURGE="0" COMMENT="" />
    <EXPORT ORDINAL="3577" NAME="umsg_close_53" PURGE="0" COMMENT="" />
    <EXPORT ORDINAL="3578" NAME="umsg_format_53" PURGE="0" COMMENT="" />
    <EXPORT ORDINAL="3579" NAME="umsg_getLocale_53" PURGE="0" COMMENT="" />
    <EXPORT ORDINAL="3580" NAME="umsg_open_53" PURGE="0" COMMENT="" />
    <EXPORT ORDINAL="3581" NAME="umsg_parse_53" PURGE="0" COMMENT="" />
    <EXPORT ORDINAL="3582" NAME="umsg_setLocale_53" PURGE="0" COMMENT="" />
    <EXPORT ORDINAL="3583" NAME="umsg_toPattern_53" PURGE="0" COMMENT="" />
    <EXPORT ORDINAL="3584" NAME="umsg_vformat_53" PURGE="0" COMMENT="" />
    <EXPORT ORDINAL="3585" NAME="umsg_vparse_53" PURGE="0" COMMENT="" />
    <EXPORT ORDINAL="3586" NAME="unum_applyPattern_53" PURGE="0" COMMENT="" />
    <EXPORT ORDINAL="3587" NAME="unum_clone_53" PURGE="0" COMMENT="" />
    <EXPORT ORDINAL="3588" NAME="unum_close_53" PURGE="0" COMMENT="" />
    <EXPORT ORDINAL="3589" NAME="unum_countAvailable_53" PURGE="0" COMMENT="" />
    <EXPORT ORDINAL="3590" NAME="unum_formatDecimal_53" PURGE="0" COMMENT="" />
    <EXPORT ORDINAL="3591" NAME="unum_formatDoubleCurrency_53" PURGE="0" COMMENT="" />
    <EXPORT ORDINAL="3592" NAME="unum_formatDouble_53" PURGE="0" COMMENT="" />
    <EXPORT ORDINAL="3593" NAME="unum_formatInt64_53" PURGE="0" COMMENT="" />
    <EXPORT ORDINAL="3594" NAME="unum_formatUFormattable_53" PURGE="0" COMMENT="" />
    <EXPORT ORDINAL="3595" NAME="unum_format_53" PURGE="0" COMMENT="" />
    <EXPORT ORDINAL="3596" NAME="unum_getAttribute_53" PURGE="0" COMMENT="" />
    <EXPORT ORDINAL="3597" NAME="unum_getAvailable_53" PURGE="0" COMMENT="" />
    <EXPORT ORDINAL="3598" NAME="unum_getContext_53" PURGE="0" COMMENT="" />
    <EXPORT ORDINAL="3599" NAME="unum_getDoubleAttribute_53" PURGE="0" COMMENT="" />
    <EXPORT ORDINAL="3600" NAME="unum_getLocaleByType_53" PURGE="0" COMMENT="" />
    <EXPORT ORDINAL="3601" NAME="unum_getSymbol_53" PURGE="0" COMMENT="" />
    <EXPORT ORDINAL="3602" NAME="unum_getTextAttribute_53" PURGE="0" COMMENT="" />
    <EXPORT ORDINAL="3603" NAME="unum_open_53" PURGE="0" COMMENT="" />
    <EXPORT ORDINAL="3604" NAME="unum_parseDecimal_53" PURGE="0" COMMENT="" />
    <EXPORT ORDINAL="3605" NAME="unum_parseDoubleCurrency_53" PURGE="0" COMMENT="" />
    <EXPORT ORDINAL="3606" NAME="unum_parseDouble_53" PURGE="0" COMMENT="" />
    <EXPORT ORDINAL="3607" NAME="unum_parseInt64_53" PURGE="0" COMMENT="" />
    <EXPORT ORDINAL="3608" NAME="unum_parseToUFormattable_53" PURGE="0" COMMENT="" />
    <EXPORT ORDINAL="3609" NAME="unum_parse_53" PURGE="0" COMMENT="" />
    <EXPORT ORDINAL="3610" NAME="unum_setAttribute_53" PURGE="0" COMMENT="" />
    <EXPORT ORDINAL="3611" NAME="unum_setContext_53" PURGE="0" COMMENT="" />
    <EXPORT ORDINAL="3612" NAME="unum_setDoubleAttribute_53" PURGE="0" COMMENT="" />
    <EXPORT ORDINAL="3613" NAME="unum_setSymbol_53" PURGE="0" COMMENT="" />
    <EXPORT ORDINAL="3614" NAME="unum_setTextAttribute_53" PURGE="0" COMMENT="" />
    <EXPORT ORDINAL="3615" NAME="unum_toPattern_53" PURGE="0" COMMENT="" />
    <EXPORT ORDINAL="3616" NAME="unumsys_close_53" PURGE="0" COMMENT="" />
    <EXPORT ORDINAL="3617" NAME="unumsys_getDescription_53" PURGE="0" COMMENT="" />
    <EXPORT ORDINAL="3618" NAME="unumsys_getName_53" PURGE="0" COMMENT="" />
    <EXPORT ORDINAL="3619" NAME="unumsys_getRadix_53" PURGE="0" COMMENT="" />
    <EXPORT ORDINAL="3620" NAME="unumsys_isAlgorithmic_53" PURGE="0" COMMENT="" />
    <EXPORT ORDINAL="3621" NAME="unumsys_openAvailableNames_53" PURGE="0" COMMENT="" />
    <EXPORT ORDINAL="3622" NAME="unumsys_openByName_53" PURGE="0" COMMENT="" />
    <EXPORT ORDINAL="3623" NAME="unumsys_open_53" PURGE="0" COMMENT="" />
    <EXPORT ORDINAL="3624" NAME="uplrules_close_53" PURGE="0" COMMENT="" />
    <EXPORT ORDINAL="3625" NAME="uplrules_openForType_53" PURGE="0" COMMENT="" />
    <EXPORT ORDINAL="3626" NAME="uplrules_open_53" PURGE="0" COMMENT="" />
    <EXPORT ORDINAL="3627" NAME="uplrules_select_53" PURGE="0" COMMENT="" />
    <EXPORT ORDINAL="3628" NAME="uprv_decContextClearStatus_53" PURGE="0" COMMENT="" />
    <EXPORT ORDINAL="3629" NAME="uprv_decContextDefault_53" PURGE="0" COMMENT="" />
    <EXPORT ORDINAL="3630" NAME="uprv_decContextGetRounding_53" PURGE="0" COMMENT="" />
    <EXPORT ORDINAL="3631" NAME="uprv_decContextGetStatus_53" PURGE="0" COMMENT="" />
    <EXPORT ORDINAL="3632" NAME="uprv_decContextRestoreStatus_53" PURGE="0" COMMENT="" />
    <EXPORT ORDINAL="3633" NAME="uprv_decContextSaveStatus_53" PURGE="0" COMMENT="" />
    <EXPORT ORDINAL="3634" NAME="uprv_decContextSetRounding_53" PURGE="0" COMMENT="" />
    <EXPORT ORDINAL="3635" NAME="uprv_decContextSetStatusFromStringQuiet_53" PURGE="0" COMMENT="" />
    <EXPORT ORDINAL="3636" NAME="uprv_decContextSetStatusFromString_53" PURGE="0" COMMENT="" />
    <EXPORT ORDINAL="3637" NAME="uprv_decContextSetStatusQuiet_53" PURGE="0" COMMENT="" />
    <EXPORT ORDINAL="3638" NAME="uprv_decContextSetStatus_53" PURGE="0" COMMENT="" />
    <EXPORT ORDINAL="3639" NAME="uprv_decContextStatusToString_53" PURGE="0" COMMENT="" />
    <EXPORT ORDINAL="3640" NAME="uprv_decContextTestSavedStatus_53" PURGE="0" COMMENT="" />
    <EXPORT ORDINAL="3641" NAME="uprv_decContextTestStatus_53" PURGE="0" COMMENT="" />
    <EXPORT ORDINAL="3642" NAME="uprv_decContextZeroStatus_53" PURGE="0" COMMENT="" />
    <EXPORT ORDINAL="3643" NAME="uprv_decNumberAbs_53" PURGE="0" COMMENT="" />
    <EXPORT ORDINAL="3644" NAME="uprv_decNumberAdd_53" PURGE="0" COMMENT="" />
    <EXPORT ORDINAL="3645" NAME="uprv_decNumberAnd_53" PURGE="0" COMMENT="" />
    <EXPORT ORDINAL="3646" NAME="uprv_decNumberClassToString_53" PURGE="0" COMMENT="" />
    <EXPORT ORDINAL="3647" NAME="uprv_decNumberCompareSignal_53" PURGE="0" COMMENT="" />
    <EXPORT ORDINAL="3648" NAME="uprv_decNumberCompareTotalMag_53" PURGE="0" COMMENT="" />
    <EXPORT ORDINAL="3649" NAME="uprv_decNumberCompareTotal_53" PURGE="0" COMMENT="" />
    <EXPORT ORDINAL="3650" NAME="uprv_decNumberCompare_53" PURGE="0" COMMENT="" />
    <EXPORT ORDINAL="3651" NAME="uprv_decNumberCopyAbs_53" PURGE="0" COMMENT="" />
    <EXPORT ORDINAL="3652" NAME="uprv_decNumberCopyNegate_53" PURGE="0" COMMENT="" />
    <EXPORT ORDINAL="3653" NAME="uprv_decNumberCopySign_53" PURGE="0" COMMENT="" />
    <EXPORT ORDINAL="3654" NAME="uprv_decNumberCopy_53" PURGE="0" COMMENT="" />
    <EXPORT ORDINAL="3655" NAME="uprv_decNumberDivideInteger_53" PURGE="0" COMMENT="" />
    <EXPORT ORDINAL="3656" NAME="uprv_decNumberDivide_53" PURGE="0" COMMENT="" />
    <EXPORT ORDINAL="3657" NAME="uprv_decNumberExp_53" PURGE="0" COMMENT="" />
    <EXPORT ORDINAL="3658" NAME="uprv_decNumberFMA_53" PURGE="0" COMMENT="" />
    <EXPORT ORDINAL="3659" NAME="uprv_decNumberFromInt32_53" PURGE="0" COMMENT="" />
    <EXPORT ORDINAL="3660" NAME="uprv_decNumberFromString_53" PURGE="0" COMMENT="" />
    <EXPORT ORDINAL="3661" NAME="uprv_decNumberFromUInt32_53" PURGE="0" COMMENT="" />
    <EXPORT ORDINAL="3662" NAME="uprv_decNumberGetBCD_53" PURGE="0" COMMENT="" />
    <EXPORT ORDINAL="3663" NAME="uprv_decNumberInvert_53" PURGE="0" COMMENT="" />
    <EXPORT ORDINAL="3664" NAME="uprv_decNumberIsNormal_53" PURGE="0" COMMENT="" />
    <EXPORT ORDINAL="3665" NAME="uprv_decNumberIsSubnormal_53" PURGE="0" COMMENT="" />
    <EXPORT ORDINAL="3666" NAME="uprv_decNumberLn_53" PURGE="0" COMMENT="" />
    <EXPORT ORDINAL="3667" NAME="uprv_decNumberLog10_53" PURGE="0" COMMENT="" />
    <EXPORT ORDINAL="3668" NAME="uprv_decNumberLogB_53" PURGE="0" COMMENT="" />
    <EXPORT ORDINAL="3669" NAME="uprv_decNumberMaxMag_53" PURGE="0" COMMENT="" />
    <EXPORT ORDINAL="3670" NAME="uprv_decNumberMax_53" PURGE="0" COMMENT="" />
    <EXPORT ORDINAL="3671" NAME="uprv_decNumberMinMag_53" PURGE="0" COMMENT="" />
    <EXPORT ORDINAL="3672" NAME="uprv_decNumberMin_53" PURGE="0" COMMENT="" />
    <EXPORT ORDINAL="3673" NAME="uprv_decNumberMinus_53" PURGE="0" COMMENT="" />
    <EXPORT ORDINAL="3674" NAME="uprv_decNumberMultiply_53" PURGE="0" COMMENT="" />
    <EXPORT ORDINAL="3675" NAME="uprv_decNumberNextMinus_53" PURGE="0" COMMENT="" />
    <EXPORT ORDINAL="3676" NAME="uprv_decNumberNextPlus_53" PURGE="0" COMMENT="" />
    <EXPORT ORDINAL="3677" NAME="uprv_decNumberNextToward_53" PURGE="0" COMMENT="" />
    <EXPORT ORDINAL="3678" NAME="uprv_decNumberNormalize_53" PURGE="0" COMMENT="" />
    <EXPORT ORDINAL="3679" NAME="uprv_decNumberOr_53" PURGE="0" COMMENT="" />
    <EXPORT ORDINAL="3680" NAME="uprv_decNumberPlus_53" PURGE="0" COMMENT="" />
    <EXPORT ORDINAL="3681" NAME="uprv_decNumberPower_53" PURGE="0" COMMENT="" />
    <EXPORT ORDINAL="3682" NAME="uprv_decNumberQuantize_53" PURGE="0" COMMENT="" />
    <EXPORT ORDINAL="3683" NAME="uprv_decNumberReduce_53" PURGE="0" COMMENT="" />
    <EXPORT ORDINAL="3684" NAME="uprv_decNumberRemainderNear_53" PURGE="0" COMMENT="" />
    <EXPORT ORDINAL="3685" NAME="uprv_decNumberRemainder_53" PURGE="0" COMMENT="" />
    <EXPORT ORDINAL="3686" NAME="uprv_decNumberRescale_53" PURGE="0" COMMENT="" />
    <EXPORT ORDINAL="3687" NAME="uprv_decNumberRotate_53" PURGE="0" COMMENT="" />
    <EXPORT ORDINAL="3688" NAME="uprv_decNumberSameQuantum_53" PURGE="0" COMMENT="" />
    <EXPORT ORDINAL="3689" NAME="uprv_decNumberScaleB_53" PURGE="0" COMMENT="" />
    <EXPORT ORDINAL="3690" NAME="uprv_decNumberSetBCD_53" PURGE="0" COMMENT="" />
    <EXPORT ORDINAL="3691" NAME="uprv_decNumberShift_53" PURGE="0" COMMENT="" />
    <EXPORT ORDINAL="3692" NAME="uprv_decNumberSquareRoot_53" PURGE="0" COMMENT="" />
    <EXPORT ORDINAL="3693" NAME="uprv_decNumberSubtract_53" PURGE="0" COMMENT="" />
    <EXPORT ORDINAL="3694" NAME="uprv_decNumberToEngString_53" PURGE="0" COMMENT="" />
    <EXPORT ORDINAL="3695" NAME="uprv_decNumberToInt32_53" PURGE="0" COMMENT="" />
    <EXPORT ORDINAL="3696" NAME="uprv_decNumberToIntegralExact_53" PURGE="0" COMMENT="" />
    <EXPORT ORDINAL="3697" NAME="uprv_decNumberToIntegralValue_53" PURGE="0" COMMENT="" />
    <EXPORT ORDINAL="3698" NAME="uprv_decNumberToString_53" PURGE="0" COMMENT="" />
    <EXPORT ORDINAL="3699" NAME="uprv_decNumberToUInt32_53" PURGE="0" COMMENT="" />
    <EXPORT ORDINAL="3700" NAME="uprv_decNumberTrim_53" PURGE="0" COMMENT="" />
    <EXPORT ORDINAL="3701" NAME="uprv_decNumberVersion_53" PURGE="0" COMMENT="" />
    <EXPORT ORDINAL="3702" NAME="uprv_decNumberXor_53" PURGE="0" COMMENT="" />
    <EXPORT ORDINAL="3703" NAME="uprv_decNumberZero_53" PURGE="0" COMMENT="" />
    <EXPORT ORDINAL="3704" NAME="uprv_deleteConditionalCE32_53" PURGE="0" COMMENT="" />
    <EXPORT ORDINAL="3705" NAME="uprv_getWindowsTimeZoneInfo" PURGE="0" COMMENT="" />
    <EXPORT ORDINAL="3706" NAME="uregex_appendReplacementUText_53" PURGE="0" COMMENT="" />
    <EXPORT ORDINAL="3707" NAME="uregex_appendReplacement_53" PURGE="0" COMMENT="" />
    <EXPORT ORDINAL="3708" NAME="uregex_appendTailUText_53" PURGE="0" COMMENT="" />
    <EXPORT ORDINAL="3709" NAME="uregex_appendTail_53" PURGE="0" COMMENT="" />
    <EXPORT ORDINAL="3710" NAME="uregex_clone_53" PURGE="0" COMMENT="" />
    <EXPORT ORDINAL="3711" NAME="uregex_close_53" PURGE="0" COMMENT="" />
    <EXPORT ORDINAL="3712" NAME="uregex_end64_53" PURGE="0" COMMENT="" />
    <EXPORT ORDINAL="3713" NAME="uregex_end_53" PURGE="0" COMMENT="" />
    <EXPORT ORDINAL="3714" NAME="uregex_find64_53" PURGE="0" COMMENT="" />
    <EXPORT ORDINAL="3715" NAME="uregex_findNext_53" PURGE="0" COMMENT="" />
    <EXPORT ORDINAL="3716" NAME="uregex_find_53" PURGE="0" COMMENT="" />
    <EXPORT ORDINAL="3717" NAME="uregex_flags_53" PURGE="0" COMMENT="" />
    <EXPORT ORDINAL="3718" NAME="uregex_getFindProgressCallback_53" PURGE="0" COMMENT="" />
    <EXPORT ORDINAL="3719" NAME="uregex_getMatchCallback_53" PURGE="0" COMMENT="" />
    <EXPORT ORDINAL="3720" NAME="uregex_getStackLimit_53" PURGE="0" COMMENT="" />
    <EXPORT ORDINAL="3721" NAME="uregex_getText_53" PURGE="0" COMMENT="" />
    <EXPORT ORDINAL="3722" NAME="uregex_getTimeLimit_53" PURGE="0" COMMENT="" />
    <EXPORT ORDINAL="3723" NAME="uregex_getUText_53" PURGE="0" COMMENT="" />
    <EXPORT ORDINAL="3724" NAME="uregex_groupCount_53" PURGE="0" COMMENT="" />
    <EXPORT ORDINAL="3725" NAME="uregex_groupUTextDeep_53" PURGE="0" COMMENT="" />
    <EXPORT ORDINAL="3726" NAME="uregex_groupUText_53" PURGE="0" COMMENT="" />
    <EXPORT ORDINAL="3727" NAME="uregex_group_53" PURGE="0" COMMENT="" />
    <EXPORT ORDINAL="3728" NAME="uregex_hasAnchoringBounds_53" PURGE="0" COMMENT="" />
    <EXPORT ORDINAL="3729" NAME="uregex_hasTransparentBounds_53" PURGE="0" COMMENT="" />
    <EXPORT ORDINAL="3730" NAME="uregex_hitEnd_53" PURGE="0" COMMENT="" />
    <EXPORT ORDINAL="3731" NAME="uregex_lookingAt64_53" PURGE="0" COMMENT="" />
    <EXPORT ORDINAL="3732" NAME="uregex_lookingAt_53" PURGE="0" COMMENT="" />
    <EXPORT ORDINAL="3733" NAME="uregex_matches64_53" PURGE="0" COMMENT="" />
    <EXPORT ORDINAL="3734" NAME="uregex_matches_53" PURGE="0" COMMENT="" />
    <EXPORT ORDINAL="3735" NAME="uregex_openC_53" PURGE="0" COMMENT="" />
    <EXPORT ORDINAL="3736" NAME="uregex_openUText_53" PURGE="0" COMMENT="" />
    <EXPORT ORDINAL="3737" NAME="uregex_open_53" PURGE="0" COMMENT="" />
    <EXPORT ORDINAL="3738" NAME="uregex_patternUText_53" PURGE="0" COMMENT="" />
    <EXPORT ORDINAL="3739" NAME="uregex_pattern_53" PURGE="0" COMMENT="" />
    <EXPORT ORDINAL="3740" NAME="uregex_refreshUText_53" PURGE="0" COMMENT="" />
    <EXPORT ORDINAL="3741" NAME="uregex_regionEnd64_53" PURGE="0" COMMENT="" />
    <EXPORT ORDINAL="3742" NAME="uregex_regionEnd_53" PURGE="0" COMMENT="" />
    <EXPORT ORDINAL="3743" NAME="uregex_regionStart64_53" PURGE="0" COMMENT="" />
    <EXPORT ORDINAL="3744" NAME="uregex_regionStart_53" PURGE="0" COMMENT="" />
    <EXPORT ORDINAL="3745" NAME="uregex_replaceAllUText_53" PURGE="0" COMMENT="" />
    <EXPORT ORDINAL="3746" NAME="uregex_replaceAll_53" PURGE="0" COMMENT="" />
    <EXPORT ORDINAL="3747" NAME="uregex_replaceFirstUText_53" PURGE="0" COMMENT="" />
    <EXPORT ORDINAL="3748" NAME="uregex_replaceFirst_53" PURGE="0" COMMENT="" />
    <EXPORT ORDINAL="3749" NAME="uregex_requireEnd_53" PURGE="0" COMMENT="" />
    <EXPORT ORDINAL="3750" NAME="uregex_reset64_53" PURGE="0" COMMENT="" />
    <EXPORT ORDINAL="3751" NAME="uregex_reset_53" PURGE="0" COMMENT="" />
    <EXPORT ORDINAL="3752" NAME="uregex_setFindProgressCallback_53" PURGE="0" COMMENT="" />
    <EXPORT ORDINAL="3753" NAME="uregex_setMatchCallback_53" PURGE="0" COMMENT="" />
    <EXPORT ORDINAL="3754" NAME="uregex_setRegion64_53" PURGE="0" COMMENT="" />
    <EXPORT ORDINAL="3755" NAME="uregex_setRegionAndStart_53" PURGE="0" COMMENT="" />
    <EXPORT ORDINAL="3756" NAME="uregex_setRegion_53" PURGE="0" COMMENT="" />
    <EXPORT ORDINAL="3757" NAME="uregex_setStackLimit_53" PURGE="0" COMMENT="" />
    <EXPORT ORDINAL="3758" NAME="uregex_setText_53" PURGE="0" COMMENT="" />
    <EXPORT ORDINAL="3759" NAME="uregex_setTimeLimit_53" PURGE="0" COMMENT="" />
    <EXPORT ORDINAL="3760" NAME="uregex_setUText_53" PURGE="0" COMMENT="" />
    <EXPORT ORDINAL="3761" NAME="uregex_splitUText_53" PURGE="0" COMMENT="" />
    <EXPORT ORDINAL="3762" NAME="uregex_split_53" PURGE="0" COMMENT="" />
    <EXPORT ORDINAL="3763" NAME="uregex_start64_53" PURGE="0" COMMENT="" />
    <EXPORT ORDINAL="3764" NAME="uregex_start_53" PURGE="0" COMMENT="" />
    <EXPORT ORDINAL="3765" NAME="uregex_useAnchoringBounds_53" PURGE="0" COMMENT="" />
    <EXPORT ORDINAL="3766" NAME="uregex_useTransparentBounds_53" PURGE="0" COMMENT="" />
    <EXPORT ORDINAL="3767" NAME="uregion_areEqual_53" PURGE="0" COMMENT="" />
    <EXPORT ORDINAL="3768" NAME="uregion_contains_53" PURGE="0" COMMENT="" />
    <EXPORT ORDINAL="3769" NAME="uregion_getAvailable_53" PURGE="0" COMMENT="" />
    <EXPORT ORDINAL="3770" NAME="uregion_getContainedRegionsOfType_53" PURGE="0" COMMENT="" />
    <EXPORT ORDINAL="3771" NAME="uregion_getContainedRegions_53" PURGE="0" COMMENT="" />
    <EXPORT ORDINAL="3772" NAME="uregion_getContainingRegionOfType_53" PURGE="0" COMMENT="" />
    <EXPORT ORDINAL="3773" NAME="uregion_getContainingRegion_53" PURGE="0" COMMENT="" />
    <EXPORT ORDINAL="3774" NAME="uregion_getNumericCode_53" PURGE="0" COMMENT="" />
    <EXPORT ORDINAL="3775" NAME="uregion_getPreferredValues_53" PURGE="0" COMMENT="" />
    <EXPORT ORDINAL="3776" NAME="uregion_getRegionCode_53" PURGE="0" COMMENT="" />
    <EXPORT ORDINAL="3777" NAME="uregion_getRegionFromCode_53" PURGE="0" COMMENT="" />
    <EXPORT ORDINAL="3778" NAME="uregion_getRegionFromNumericCode_53" PURGE="0" COMMENT="" />
    <EXPORT ORDINAL="3779" NAME="uregion_getType_53" PURGE="0" COMMENT="" />
    <EXPORT ORDINAL="3780" NAME="usearch_close_53" PURGE="0" COMMENT="" />
    <EXPORT ORDINAL="3781" NAME="usearch_first_53" PURGE="0" COMMENT="" />
    <EXPORT ORDINAL="3782" NAME="usearch_following_53" PURGE="0" COMMENT="" />
    <EXPORT ORDINAL="3783" NAME="usearch_getAttribute_53" PURGE="0" COMMENT="" />
    <EXPORT ORDINAL="3784" NAME="usearch_getBreakIterator_53" PURGE="0" COMMENT="" />
    <EXPORT ORDINAL="3785" NAME="usearch_getCollator_53" PURGE="0" COMMENT="" />
    <EXPORT ORDINAL="3786" NAME="usearch_getMatchedLength_53" PURGE="0" COMMENT="" />
    <EXPORT ORDINAL="3787" NAME="usearch_getMatchedStart_53" PURGE="0" COMMENT="" />
    <EXPORT ORDINAL="3788" NAME="usearch_getMatchedText_53" PURGE="0" COMMENT="" />
    <EXPORT ORDINAL="3789" NAME="usearch_getOffset_53" PURGE="0" COMMENT="" />
    <EXPORT ORDINAL="3790" NAME="usearch_getPattern_53" PURGE="0" COMMENT="" />
    <EXPORT ORDINAL="3791" NAME="usearch_getText_53" PURGE="0" COMMENT="" />
    <EXPORT ORDINAL="3792" NAME="usearch_last_53" PURGE="0" COMMENT="" />
    <EXPORT ORDINAL="3793" NAME="usearch_next_53" PURGE="0" COMMENT="" />
    <EXPORT ORDINAL="3794" NAME="usearch_openFromCollator_53" PURGE="0" COMMENT="" />
    <EXPORT ORDINAL="3795" NAME="usearch_open_53" PURGE="0" COMMENT="" />
    <EXPORT ORDINAL="3796" NAME="usearch_preceding_53" PURGE="0" COMMENT="" />
    <EXPORT ORDINAL="3797" NAME="usearch_previous_53" PURGE="0" COMMENT="" />
    <EXPORT ORDINAL="3798" NAME="usearch_reset_53" PURGE="0" COMMENT="" />
    <EXPORT ORDINAL="3799" NAME="usearch_searchBackwards_53" PURGE="0" COMMENT="" />
    <EXPORT ORDINAL="3800" NAME="usearch_search_53" PURGE="0" COMMENT="" />
    <EXPORT ORDINAL="3801" NAME="usearch_setAttribute_53" PURGE="0" COMMENT="" />
    <EXPORT ORDINAL="3802" NAME="usearch_setBreakIterator_53" PURGE="0" COMMENT="" />
    <EXPORT ORDINAL="3803" NAME="usearch_setCollator_53" PURGE="0" COMMENT="" />
    <EXPORT ORDINAL="3804" NAME="usearch_setOffset_53" PURGE="0" COMMENT="" />
    <EXPORT ORDINAL="3805" NAME="usearch_setPattern_53" PURGE="0" COMMENT="" />
    <EXPORT ORDINAL="3806" NAME="usearch_setText_53" PURGE="0" COMMENT="" />
    <EXPORT ORDINAL="3807" NAME="uspoof_areConfusableUTF8_53" PURGE="0" COMMENT="" />
    <EXPORT ORDINAL="3808" NAME="uspoof_areConfusableUnicodeString_53" PURGE="0" COMMENT="" />
    <EXPORT ORDINAL="3809" NAME="uspoof_areConfusable_53" PURGE="0" COMMENT="" />
    <EXPORT ORDINAL="3810" NAME="uspoof_checkUTF8_53" PURGE="0" COMMENT="" />
    <EXPORT ORDINAL="3811" NAME="uspoof_checkUnicodeString_53" PURGE="0" COMMENT="" />
    <EXPORT ORDINAL="3812" NAME="uspoof_check_53" PURGE="0" COMMENT="" />
    <EXPORT ORDINAL="3813" NAME="uspoof_clone_53" PURGE="0" COMMENT="" />
    <EXPORT ORDINAL="3814" NAME="uspoof_close_53" PURGE="0" COMMENT="" />
    <EXPORT ORDINAL="3815" NAME="uspoof_getAllowedChars_53" PURGE="0" COMMENT="" />
    <EXPORT ORDINAL="3816" NAME="uspoof_getAllowedLocales_53" PURGE="0" COMMENT="" />
    <EXPORT ORDINAL="3817" NAME="uspoof_getAllowedUnicodeSet_53" PURGE="0" COMMENT="" />
    <EXPORT ORDINAL="3818" NAME="uspoof_getChecks_53" PURGE="0" COMMENT="" />
    <EXPORT ORDINAL="3819" NAME="uspoof_getInclusionSet_53" PURGE="0" COMMENT="" />
    <EXPORT ORDINAL="3820" NAME="uspoof_getInclusionUnicodeSet_53" PURGE="0" COMMENT="" />
    <EXPORT ORDINAL="3821" NAME="uspoof_getRecommendedSet_53" PURGE="0" COMMENT="" />
    <EXPORT ORDINAL="3822" NAME="uspoof_getRecommendedUnicodeSet_53" PURGE="0" COMMENT="" />
    <EXPORT ORDINAL="3823" NAME="uspoof_getRestrictionLevel_53" PURGE="0" COMMENT="" />
    <EXPORT ORDINAL="3824" NAME="uspoof_getSkeletonUTF8_53" PURGE="0" COMMENT="" />
    <EXPORT ORDINAL="3825" NAME="uspoof_getSkeleton_53" PURGE="0" COMMENT="" />
    <EXPORT ORDINAL="3826" NAME="uspoof_openFromSerialized_53" PURGE="0" COMMENT="" />
    <EXPORT ORDINAL="3827" NAME="uspoof_openFromSource_53" PURGE="0" COMMENT="" />
    <EXPORT ORDINAL="3828" NAME="uspoof_open_53" PURGE="0" COMMENT="" />
    <EXPORT ORDINAL="3829" NAME="uspoof_serialize_53" PURGE="0" COMMENT="" />
    <EXPORT ORDINAL="3830" NAME="uspoof_setAllowedChars_53" PURGE="0" COMMENT="" />
    <EXPORT ORDINAL="3831" NAME="uspoof_setAllowedLocales_53" PURGE="0" COMMENT="" />
    <EXPORT ORDINAL="3832" NAME="uspoof_setAllowedUnicodeSet_53" PURGE="0" COMMENT="" />
    <EXPORT ORDINAL="3833" NAME="uspoof_setChecks_53" PURGE="0" COMMENT="" />
    <EXPORT ORDINAL="3834" NAME="uspoof_setRestrictionLevel_53" PURGE="0" COMMENT="" />
    <EXPORT ORDINAL="3835" NAME="uspoof_swap_53" PURGE="0" COMMENT="" />
    <EXPORT ORDINAL="3836" NAME="utmscale_fromInt64_53" PURGE="0" COMMENT="" />
    <EXPORT ORDINAL="3837" NAME="utmscale_getTimeScaleValue_53" PURGE="0" COMMENT="" />
    <EXPORT ORDINAL="3838" NAME="utmscale_toInt64_53" PURGE="0" COMMENT="" />
    <EXPORT ORDINAL="3839" NAME="utrans_clone_53" PURGE="0" COMMENT="" />
    <EXPORT ORDINAL="3840" NAME="utrans_close_53" PURGE="0" COMMENT="" />
    <EXPORT ORDINAL="3841" NAME="utrans_countAvailableIDs_53" PURGE="0" COMMENT="" />
    <EXPORT ORDINAL="3842" NAME="utrans_getAvailableID_53" PURGE="0" COMMENT="" />
    <EXPORT ORDINAL="3843" NAME="utrans_getID_53" PURGE="0" COMMENT="" />
    <EXPORT ORDINAL="3844" NAME="utrans_getSourceSet_53" PURGE="0" COMMENT="" />
    <EXPORT ORDINAL="3845" NAME="utrans_getUnicodeID_53" PURGE="0" COMMENT="" />
    <EXPORT ORDINAL="3846" NAME="utrans_openIDs_53" PURGE="0" COMMENT="" />
    <EXPORT ORDINAL="3847" NAME="utrans_openInverse_53" PURGE="0" COMMENT="" />
    <EXPORT ORDINAL="3848" NAME="utrans_openU_53" PURGE="0" COMMENT="" />
    <EXPORT ORDINAL="3849" NAME="utrans_open_53" PURGE="0" COMMENT="" />
    <EXPORT ORDINAL="3850" NAME="utrans_register_53" PURGE="0" COMMENT="" />
    <EXPORT ORDINAL="3851" NAME="utrans_setFilter_53" PURGE="0" COMMENT="" />
    <EXPORT ORDINAL="3852" NAME="utrans_stripRules_53" PURGE="0" COMMENT="" />
    <EXPORT ORDINAL="3853" NAME="utrans_toRules_53" PURGE="0" COMMENT="" />
    <EXPORT ORDINAL="3854" NAME="utrans_transIncrementalUChars_53" PURGE="0" COMMENT="" />
    <EXPORT ORDINAL="3855" NAME="utrans_transIncremental_53" PURGE="0" COMMENT="" />
    <EXPORT ORDINAL="3856" NAME="utrans_transUChars_53" PURGE="0" COMMENT="" />
    <EXPORT ORDINAL="3857" NAME="utrans_trans_53" PURGE="0" COMMENT="" />
    <EXPORT ORDINAL="3858" NAME="utrans_unregisterID_53" PURGE="0" COMMENT="" />
    <EXPORT ORDINAL="3859" NAME="utrans_unregister_53" PURGE="0" COMMENT="" />
    <EXPORT ORDINAL="3860" NAME="vzone_clone_53" PURGE="0" COMMENT="" />
    <EXPORT ORDINAL="3861" NAME="vzone_close_53" PURGE="0" COMMENT="" />
    <EXPORT ORDINAL="3862" NAME="vzone_countTransitionRules_53" PURGE="0" COMMENT="" />
    <EXPORT ORDINAL="3863" NAME="vzone_equals_53" PURGE="0" COMMENT="" />
    <EXPORT ORDINAL="3864" NAME="vzone_getDynamicClassID_53" PURGE="0" COMMENT="" />
    <EXPORT ORDINAL="3865" NAME="vzone_getLastModified_53" PURGE="0" COMMENT="" />
    <EXPORT ORDINAL="3866" NAME="vzone_getNextTransition_53" PURGE="0" COMMENT="" />
    <EXPORT ORDINAL="3867" NAME="vzone_getOffset2_53" PURGE="0" COMMENT="" />
    <EXPORT ORDINAL="3868" NAME="vzone_getOffset3_53" PURGE="0" COMMENT="" />
    <EXPORT ORDINAL="3869" NAME="vzone_getOffset_53" PURGE="0" COMMENT="" />
    <EXPORT ORDINAL="3870" NAME="vzone_getPreviousTransition_53" PURGE="0" COMMENT="" />
    <EXPORT ORDINAL="3871" NAME="vzone_getRawOffset_53" PURGE="0" COMMENT="" />
    <EXPORT ORDINAL="3872" NAME="vzone_getStaticClassID_53" PURGE="0" COMMENT="" />
    <EXPORT ORDINAL="3873" NAME="vzone_getTZURL_53" PURGE="0" COMMENT="" />
    <EXPORT ORDINAL="3874" NAME="vzone_hasSameRules_53" PURGE="0" COMMENT="" />
    <EXPORT ORDINAL="3875" NAME="vzone_inDaylightTime_53" PURGE="0" COMMENT="" />
    <EXPORT ORDINAL="3876" NAME="vzone_openData_53" PURGE="0" COMMENT="" />
    <EXPORT ORDINAL="3877" NAME="vzone_openID_53" PURGE="0" COMMENT="" />
    <EXPORT ORDINAL="3878" NAME="vzone_setLastModified_53" PURGE="0" COMMENT="" />
    <EXPORT ORDINAL="3879" NAME="vzone_setRawOffset_53" PURGE="0" COMMENT="" />
    <EXPORT ORDINAL="3880" NAME="vzone_setTZURL_53" PURGE="0" COMMENT="" />
    <EXPORT ORDINAL="3881" NAME="vzone_useDaylightTime_53" PURGE="0" COMMENT="" />
    <EXPORT ORDINAL="3882" NAME="vzone_writeFromStart_53" PURGE="0" COMMENT="" />
    <EXPORT ORDINAL="3883" NAME="vzone_writeSimple_53" PURGE="0" COMMENT="" />
    <EXPORT ORDINAL="3884" NAME="vzone_write_53" PURGE="0" COMMENT="" />
    <EXPORT ORDINAL="3885" NAME="zrule_close_53" PURGE="0" COMMENT="" />
    <EXPORT ORDINAL="3886" NAME="zrule_equals_53" PURGE="0" COMMENT="" />
    <EXPORT ORDINAL="3887" NAME="zrule_getDSTSavings_53" PURGE="0" COMMENT="" />
    <EXPORT ORDINAL="3888" NAME="zrule_getName_53" PURGE="0" COMMENT="" />
    <EXPORT ORDINAL="3889" NAME="zrule_getRawOffset_53" PURGE="0" COMMENT="" />
    <EXPORT ORDINAL="3890" NAME="zrule_isEquivalentTo_53" PURGE="0" COMMENT="" />
    <EXPORT ORDINAL="3891" NAME="ztrans_adoptFrom_53" PURGE="0" COMMENT="" />
    <EXPORT ORDINAL="3892" NAME="ztrans_adoptTo_53" PURGE="0" COMMENT="" />
    <EXPORT ORDINAL="3893" NAME="ztrans_clone_53" PURGE="0" COMMENT="" />
    <EXPORT ORDINAL="3894" NAME="ztrans_close_53" PURGE="0" COMMENT="" />
    <EXPORT ORDINAL="3895" NAME="ztrans_equals_53" PURGE="0" COMMENT="" />
    <EXPORT ORDINAL="3896" NAME="ztrans_getDynamicClassID_53" PURGE="0" COMMENT="" />
    <EXPORT ORDINAL="3897" NAME="ztrans_getFrom_53" PURGE="0" COMMENT="" />
    <EXPORT ORDINAL="3898" NAME="ztrans_getStaticClassID_53" PURGE="0" COMMENT="" />
    <EXPORT ORDINAL="3899" NAME="ztrans_getTime_53" PURGE="0" COMMENT="" />
    <EXPORT ORDINAL="3900" NAME="ztrans_getTo_53" PURGE="0" COMMENT="" />
    <EXPORT ORDINAL="3901" NAME="ztrans_openEmpty_53" PURGE="0" COMMENT="" />
    <EXPORT ORDINAL="3902" NAME="ztrans_open_53" PURGE="0" COMMENT="" />
    <EXPORT ORDINAL="3903" NAME="ztrans_setFrom_53" PURGE="0" COMMENT="" />
    <EXPORT ORDINAL="3904" NAME="ztrans_setTime_53" PURGE="0" COMMENT="" />
    <EXPORT ORDINAL="3905" NAME="ztrans_setTo_53" PURGE="0" COMMENT="" />
</LIBRARY>

