<?xml version="1.0" encoding="UTF-8"?>
<LIBRARY NAME="libharfbuzz-0.dll" PATH="/DLLArchive/etc/libharfbuzz-0.dll" DATE="Sun May 21 08:55:06 CEST 2023" VERSION="">
    <EXPORT ORDINAL="1" NAME="_Z12hb_parse_intPPKcS0_Pib" PURGE="0" COMMENT="" />
    <EXPORT ORDINAL="2" NAME="_Z13hb_parse_uintPPKcS0_Pjbi" PURGE="0" COMMENT="" />
    <EXPORT ORDINAL="3" NAME="_Z15_hb_shapers_getv" PURGE="0" COMMENT="" />
    <EXPORT ORDINAL="4" NAME="_Z15hb_parse_doublePPKcS0_Pdb" PURGE="0" COMMENT="" />
    <EXPORT ORDINAL="5" NAME="_Z16_hb_options_initv" PURGE="0" COMMENT="" />
    <EXPORT ORDINAL="6" NAME="_Z17hb_ot_layout_kernPK18hb_ot_shape_plan_tP9hb_font_tP11hb_buffer_t" PURGE="0" COMMENT="" />
    <EXPORT ORDINAL="7" NAME="_Z18data_create_arabicPK18hb_ot_shape_plan_t" PURGE="0" COMMENT="" />
    <EXPORT ORDINAL="8" NAME="_Z19data_destroy_arabicPv" PURGE="-1" COMMENT="" />
    <EXPORT ORDINAL="9" NAME="_Z19hb_aat_layout_trackPK18hb_ot_shape_plan_tP9hb_font_tP11hb_buffer_t" PURGE="0" COMMENT="" />
    <EXPORT ORDINAL="10" NAME="_Z20find_syllables_indicP11hb_buffer_t" PURGE="0" COMMENT="" />
    <EXPORT ORDINAL="11" NAME="_Z20find_syllables_khmerP11hb_buffer_t" PURGE="0" COMMENT="" />
    <EXPORT ORDINAL="12" NAME="_Z21hb_syllabic_clear_varPK18hb_ot_shape_plan_tP9hb_font_tP11hb_buffer_t" PURGE="0" COMMENT="" />
    <EXPORT ORDINAL="13" NAME="_Z22_hb_ot_shape_normalizePK18hb_ot_shape_plan_tP11hb_buffer_tP9hb_font_t" PURGE="0" COMMENT="" />
    <EXPORT ORDINAL="14" NAME="_Z22find_syllables_myanmarP11hb_buffer_t" PURGE="0" COMMENT="" />
    <EXPORT ORDINAL="15" NAME="_Z22hb_aat_layout_positionPK18hb_ot_shape_plan_tP9hb_font_tP11hb_buffer_t" PURGE="0" COMMENT="" />
    <EXPORT ORDINAL="16" NAME="_Z23hb_indic_get_categoriesj" PURGE="0" COMMENT="" />
    <EXPORT ORDINAL="17" NAME="_Z23setup_masks_arabic_planPK19arabic_shape_plan_tP11hb_buffer_t11hb_script_t" PURGE="0" COMMENT="" />
    <EXPORT ORDINAL="18" NAME="_Z24hb_aat_layout_substitutePK18hb_ot_shape_plan_tP9hb_font_tP11hb_buffer_tPK12hb_feature_tj" PURGE="0" COMMENT="" />
    <EXPORT ORDINAL="19" NAME="_Z24hb_ot_layout_has_kerningP9hb_face_t" PURGE="0" COMMENT="" />
    <EXPORT ORDINAL="20" NAME="_Z25hb_aat_layout_compile_mapPK20hb_aat_map_builder_tP12hb_aat_map_t" PURGE="0" COMMENT="" />
    <EXPORT ORDINAL="21" NAME="_Z26_hb_ot_shape_fallback_kernPK18hb_ot_shape_plan_tP9hb_font_tP11hb_buffer_t" PURGE="0" COMMENT="" />
    <EXPORT ORDINAL="22" NAME="_Z26hb_paint_extents_get_funcsv" PURGE="0" COMMENT="" />
    <EXPORT ORDINAL="23" NAME="_Z27hb_ot_layout_position_startP9hb_font_tP11hb_buffer_t" PURGE="0" COMMENT="" />
    <EXPORT ORDINAL="24" NAME="_Z28_hb_ot_shape_fallback_spacesPK18hb_ot_shape_plan_tP9hb_font_tP11hb_buffer_t" PURGE="0" COMMENT="" />
    <EXPORT ORDINAL="25" NAME="_Z29hb_ot_layout_substitute_startP9hb_font_tP11hb_buffer_t" PURGE="0" COMMENT="" />
    <EXPORT ORDINAL="26" NAME="_Z30hb_ot_layout_has_cross_kerningP9hb_face_t" PURGE="0" COMMENT="" />
    <EXPORT ORDINAL="27" NAME="_Z30hb_ot_layout_substitute_lookupPN2OT21hb_ot_apply_context_tERKNS_6Layout9GSUB_impl11SubstLookupERKNS_33hb_ot_layout_lookup_accelerator_tE" PURGE="0" COMMENT="" />
    <EXPORT ORDINAL="28" NAME="_Z31hb_ot_layout_table_find_featureP9hb_face_tjjPj" PURGE="0" COMMENT="" />
    <EXPORT ORDINAL="29" NAME="_Z32_hb_ot_name_language_for_ms_codej" PURGE="0" COMMENT="" />
    <EXPORT ORDINAL="30" NAME="_Z32hb_ot_layout_has_machine_kerningP9hb_face_t" PURGE="0" COMMENT="" />
    <EXPORT ORDINAL="31" NAME="_Z33_hb_ot_name_language_for_mac_codej" PURGE="0" COMMENT="" />
    <EXPORT ORDINAL="32" NAME="_Z33hb_syllabic_insert_dotted_circlesP9hb_font_tP11hb_buffer_tjjii" PURGE="0" COMMENT="" />
    <EXPORT ORDINAL="33" NAME="_Z34_hb_ot_metrics_get_position_commonP9hb_font_t19hb_ot_metrics_tag_tPi" PURGE="0" COMMENT="" />
    <EXPORT ORDINAL="34" NAME="_Z34hb_aat_layout_find_feature_mappingj" PURGE="0" COMMENT="" />
    <EXPORT ORDINAL="35" NAME="_Z34hb_outline_recording_pen_get_funcsv" PURGE="0" COMMENT="" />
    <EXPORT ORDINAL="36" NAME="_Z35_glyf_get_advance_with_var_unscaledP9hb_font_tjb" PURGE="0" COMMENT="" />
    <EXPORT ORDINAL="37" NAME="_Z35_hb_ot_shape_fallback_mark_positionPK18hb_ot_shape_plan_tP9hb_font_tP11hb_buffer_tb" PURGE="0" COMMENT="" />
    <EXPORT ORDINAL="38" NAME="_Z35hb_aat_layout_remove_deleted_glyphsP11hb_buffer_t" PURGE="0" COMMENT="" />
    <EXPORT ORDINAL="39" NAME="_Z36hb_ot_layout_position_finish_offsetsP9hb_font_tP11hb_buffer_t" PURGE="0" COMMENT="" />
    <EXPORT ORDINAL="40" NAME="_Z37_hb_preprocess_text_vowel_constraintsPK18hb_ot_shape_plan_tP11hb_buffer_tP9hb_font_t" PURGE="0" COMMENT="" />
    <EXPORT ORDINAL="41" NAME="_Z37hb_ot_layout_position_finish_advancesP9hb_font_tP11hb_buffer_t" PURGE="0" COMMENT="" />
    <EXPORT ORDINAL="42" NAME="_Z39hb_aat_layout_zero_width_deleted_glyphsP11hb_buffer_t" PURGE="0" COMMENT="" />
    <EXPORT ORDINAL="43" NAME="_Z42_hb_unicode_is_emoji_Extended_Pictographicj" PURGE="0" COMMENT="" />
    <EXPORT ORDINAL="44" NAME="_Z43_glyf_get_leading_bearing_with_var_unscaledP9hb_font_tjbPi" PURGE="0" COMMENT="" />
    <EXPORT ORDINAL="45" NAME="_Z54_hb_ot_shape_fallback_mark_position_recategorize_marksPK18hb_ot_shape_plan_tP9hb_font_tP11hb_buffer_t" PURGE="0" COMMENT="" />
    <EXPORT ORDINAL="46" NAME="_Z7fprintfP6_iobufPKcz" PURGE="0" COMMENT="" />
    <EXPORT ORDINAL="47" NAME="_Z7hb_copyIRK12hb_hashmap_tIjjLb1EERS1_EvOT_OT0_" PURGE="0" COMMENT="" />
    <EXPORT ORDINAL="48" NAME="_Z8snprintfPcyPKcz" PURGE="0" COMMENT="" />
    <EXPORT ORDINAL="49" NAME="_ZN11hb_buffer_t11sync_so_farEv" PURGE="0" COMMENT="" />
    <EXPORT ORDINAL="50" NAME="_ZN11hb_buffer_t12clear_outputEv" PURGE="0" COMMENT="" />
    <EXPORT ORDINAL="51" NAME="_ZN11hb_buffer_t12delete_glyphEv" PURGE="0" COMMENT="" />
    <EXPORT ORDINAL="52" NAME="_ZN11hb_buffer_t12message_implEP9hb_font_tPKcPc" PURGE="0" COMMENT="" />
    <EXPORT ORDINAL="53" NAME="_ZN11hb_buffer_t13make_room_forEjj" PURGE="0" COMMENT="" />
    <EXPORT ORDINAL="54" NAME="_ZN11hb_buffer_t13reverse_rangeEjj" PURGE="0" COMMENT="" />
    <EXPORT ORDINAL="55" NAME="_ZN11hb_buffer_t13shift_forwardEj" PURGE="0" COMMENT="" />
    <EXPORT ORDINAL="56" NAME="_ZN11hb_buffer_t15clear_positionsEv" PURGE="0" COMMENT="" />
    <EXPORT ORDINAL="57" NAME="_ZN11hb_buffer_t16_set_glyph_flagsEjjjbb" PURGE="0" COMMENT="" />
    <EXPORT ORDINAL="58" NAME="_ZN11hb_buffer_t16unsafe_to_concatEjj" PURGE="0" COMMENT="" />
    <EXPORT ORDINAL="59" NAME="_ZN11hb_buffer_t18get_scratch_bufferEPj" PURGE="0" COMMENT="" />
    <EXPORT ORDINAL="60" NAME="_ZN11hb_buffer_t18merge_out_clustersEjj" PURGE="0" COMMENT="" />
    <EXPORT ORDINAL="61" NAME="_ZN11hb_buffer_t19merge_clusters_implEjj" PURGE="0" COMMENT="" />
    <EXPORT ORDINAL="62" NAME="_ZN11hb_buffer_t21delete_glyphs_inplaceEPFbPK15hb_glyph_info_tE" PURGE="0" COMMENT="" />
    <EXPORT ORDINAL="63" NAME="_ZN11hb_buffer_t22_infos_set_glyph_flagsEP15hb_glyph_info_tjjjj" PURGE="0" COMMENT="" />
    <EXPORT ORDINAL="64" NAME="_ZN11hb_buffer_t24guess_segment_propertiesEv" PURGE="0" COMMENT="" />
    <EXPORT ORDINAL="65" NAME="_ZN11hb_buffer_t31unsafe_to_concat_from_outbufferEjj" PURGE="0" COMMENT="" />
    <EXPORT ORDINAL="66" NAME="_ZN11hb_buffer_t3addEjj" PURGE="0" COMMENT="" />
    <EXPORT ORDINAL="67" NAME="_ZN11hb_buffer_t4sortEjjPFiPK15hb_glyph_info_tS2_E" PURGE="0" COMMENT="" />
    <EXPORT ORDINAL="68" NAME="_ZN11hb_buffer_t4syncEv" PURGE="0" COMMENT="" />
    <EXPORT ORDINAL="69" NAME="_ZN11hb_buffer_t5clearEv" PURGE="0" COMMENT="" />
    <EXPORT ORDINAL="70" NAME="_ZN11hb_buffer_t5enterEv" PURGE="0" COMMENT="" />
    <EXPORT ORDINAL="71" NAME="_ZN11hb_buffer_t5leaveEv" PURGE="0" COMMENT="" />
    <EXPORT ORDINAL="72" NAME="_ZN11hb_buffer_t5resetEv" PURGE="0" COMMENT="" />
    <EXPORT ORDINAL="73" NAME="_ZN11hb_buffer_t6verifyEPS_P9hb_font_tPK12hb_feature_tjPKPKc" PURGE="0" COMMENT="" />
    <EXPORT ORDINAL="74" NAME="_ZN11hb_buffer_t7enlargeEj" PURGE="0" COMMENT="" />
    <EXPORT ORDINAL="75" NAME="_ZN11hb_buffer_t7messageEP9hb_font_tPKcz" PURGE="0" COMMENT="" />
    <EXPORT ORDINAL="76" NAME="_ZN11hb_buffer_t7move_toEj" PURGE="0" COMMENT="" />
    <EXPORT ORDINAL="77" NAME="_ZN11hb_buffer_t7similarERKS_" PURGE="0" COMMENT="" />
    <EXPORT ORDINAL="78" NAME="_ZN11hb_buffer_t8add_infoERK15hb_glyph_info_t" PURGE="0" COMMENT="" />
    <EXPORT ORDINAL="79" NAME="_ZN11hb_buffer_t9set_masksEjjjj" PURGE="0" COMMENT="" />
    <EXPORT ORDINAL="80" NAME="_ZN11hb_ot_map_t12lookup_map_t3cmpEPKvS2_" PURGE="0" COMMENT="" />
    <EXPORT ORDINAL="81" NAME="_ZN11hb_vector_tI13hb_bit_page_tLb0EE6resizeEibb" PURGE="0" COMMENT="" />
    <EXPORT ORDINAL="82" NAME="_ZN11hb_vector_tI21hb_ms_feature_event_tLb0EE4pushEv" PURGE="0" COMMENT="" />
    <EXPORT ORDINAL="83" NAME="_ZN11hb_vector_tI8hb_set_tLb0EE3popEv" PURGE="0" COMMENT="" />
    <EXPORT ORDINAL="84" NAME="_ZN11hb_vector_tI8hb_set_tLb0EE4pushEv" PURGE="0" COMMENT="" />
    <EXPORT ORDINAL="85" NAME="_ZN11hb_vector_tI8hb_set_tLb0EE4tailEv" PURGE="0" COMMENT="" />
    <EXPORT ORDINAL="86" NAME="_ZN11hb_vector_tI8hb_set_tLb0EE6resizeEibb" PURGE="0" COMMENT="" />
    <EXPORT ORDINAL="87" NAME="_ZN11hb_vector_tIN11hb_ot_map_t11stage_map_tELb0EE4pushEv" PURGE="0" COMMENT="" />
    <EXPORT ORDINAL="88" NAME="_ZN11hb_vector_tIN11hb_ot_map_t13feature_map_tELb1EE4pushEv" PURGE="0" COMMENT="" />
    <EXPORT ORDINAL="89" NAME="_ZN11hb_vector_tIN19hb_ot_map_builder_t12stage_info_tELb0EE4pushEv" PURGE="0" COMMENT="" />
    <EXPORT ORDINAL="90" NAME="_ZN11hb_vector_tIN20hb_aat_map_builder_t15feature_event_tELb0EE4pushEv" PURGE="0" COMMENT="" />
    <EXPORT ORDINAL="91" NAME="_ZN11hb_vector_tIN20hb_aat_map_builder_t15feature_range_tELb1EE4pushEv" PURGE="0" COMMENT="" />
    <EXPORT ORDINAL="92" NAME="_ZN11hb_vector_tIN3CFF23cff1_font_dict_values_tELb0EE4pushEv" PURGE="0" COMMENT="" />
    <EXPORT ORDINAL="93" NAME="_ZN11hb_vector_tIN3CFF23cff2_font_dict_values_tELb0EE4pushEv" PURGE="0" COMMENT="" />
    <EXPORT ORDINAL="94" NAME="_ZN11hb_vector_tIN3CFF31cff1_private_dict_values_base_tINS0_10dict_val_tEEELb0EE6resizeEibb" PURGE="0" COMMENT="" />
    <EXPORT ORDINAL="95" NAME="_ZN11hb_vector_tIN3CFF31cff2_private_dict_values_base_tINS0_10dict_val_tEEELb0EE6resizeEibb" PURGE="0" COMMENT="" />
    <EXPORT ORDINAL="96" NAME="_ZN11hb_vector_tIS_IN12hb_aat_map_t13range_flags_tELb1EELb0EE6resizeEibb" PURGE="0" COMMENT="" />
    <EXPORT ORDINAL="97" NAME="_ZN12TextAnalysis12SetBidiLevelEjjhh" PURGE="0" COMMENT="" />
    <EXPORT ORDINAL="98" NAME="_ZN12TextAnalysis13GetLocaleNameEjPjPPKw" PURGE="0" COMMENT="" />
    <EXPORT ORDINAL="99" NAME="_ZN12TextAnalysis14QueryInterfaceERK5_GUIDPPv" PURGE="0" COMMENT="" />
    <EXPORT ORDINAL="100" NAME="_ZN12TextAnalysis17GetTextAtPositionEjPPKwPj" PURGE="0" COMMENT="" />
    <EXPORT ORDINAL="101" NAME="_ZN12TextAnalysis17SetScriptAnalysisEjjPK22DWRITE_SCRIPT_ANALYSIS" PURGE="0" COMMENT="" />
    <EXPORT ORDINAL="102" NAME="_ZN12TextAnalysis18SetLineBreakpointsEjjPK22DWRITE_LINE_BREAKPOINT" PURGE="0" COMMENT="" />
    <EXPORT ORDINAL="103" NAME="_ZN12TextAnalysis21GetNumberSubstitutionEjPjPP25IDWriteNumberSubstitution" PURGE="0" COMMENT="" />
    <EXPORT ORDINAL="104" NAME="_ZN12TextAnalysis21GetTextBeforePositionEjPPKwPj" PURGE="0" COMMENT="" />
    <EXPORT ORDINAL="105" NAME="_ZN12TextAnalysis21SetNumberSubstitutionEjjP25IDWriteNumberSubstitution" PURGE="0" COMMENT="" />
    <EXPORT ORDINAL="106" NAME="_ZN12TextAnalysis28GetParagraphReadingDirectionEv" PURGE="0" COMMENT="" />
    <EXPORT ORDINAL="107" NAME="_ZN12TextAnalysis6AddRefEv" PURGE="0" COMMENT="" />
    <EXPORT ORDINAL="108" NAME="_ZN12TextAnalysis7ReleaseEv" PURGE="0" COMMENT="" />
    <EXPORT ORDINAL="109" NAME="_ZN12hb_bit_set_t6resizeEjbb" PURGE="0" COMMENT="" />
    <EXPORT ORDINAL="110" NAME="_ZN12hb_bit_set_t7compactER11hb_vector_tIjLb0EEj" PURGE="0" COMMENT="" />
    <EXPORT ORDINAL="111" NAME="_ZN12hb_bit_set_t8page_forEjb" PURGE="0" COMMENT="" />
    <EXPORT ORDINAL="112" NAME="_ZN12hb_bit_set_t8process_EPF16hb_vector_size_tIyLj64EERKS1_S3_EbbRKS_" PURGE="0" COMMENT="" />
    <EXPORT ORDINAL="113" NAME="_ZN12hb_bit_set_t9add_rangeEjj" PURGE="0" COMMENT="" />
    <EXPORT ORDINAL="114" NAME="_ZN12hb_bit_set_t9del_pagesEii" PURGE="0" COMMENT="" />
    <EXPORT ORDINAL="115" NAME="_ZN12hb_bit_set_t9del_rangeEjj" PURGE="0" COMMENT="" />
    <EXPORT ORDINAL="116" NAME="_ZN12hb_hashmap_tIPKN22hb_serialize_context_t8object_tEjLb0EE4finiEv" PURGE="0" COMMENT="" />
    <EXPORT ORDINAL="117" NAME="_ZN12hb_hashmap_tIPKN22hb_serialize_context_t8object_tEjLb0EE6resizeEj" PURGE="0" COMMENT="" />
    <EXPORT ORDINAL="118" NAME="_ZN12hb_hashmap_tIj17face_table_info_tLb0EE6resizeEj" PURGE="0" COMMENT="" />
    <EXPORT ORDINAL="119" NAME="_ZN12hb_hashmap_tIj8hb_set_tLb0EE6resizeEj" PURGE="0" COMMENT="" />
    <EXPORT ORDINAL="120" NAME="_ZN12hb_hashmap_tIjN2hb10unique_ptrI8hb_set_tEELb0EE6resizeEj" PURGE="0" COMMENT="" />
    <EXPORT ORDINAL="121" NAME="_ZN12hb_hashmap_tIjjLb1EE6resizeEj" PURGE="0" COMMENT="" />
    <EXPORT ORDINAL="122" NAME="_ZN12hb_ot_face_t4finiEv" PURGE="0" COMMENT="" />
    <EXPORT ORDINAL="123" NAME="_ZN12hb_ot_face_t5init0EP9hb_face_t" PURGE="0" COMMENT="" />
    <EXPORT ORDINAL="124" NAME="_ZN12hb_outline_t8emboldenEffff" PURGE="0" COMMENT="" />
    <EXPORT ORDINAL="125" NAME="_ZN13hb_bit_page_t9add_rangeEjj" PURGE="0" COMMENT="" />
    <EXPORT ORDINAL="126" NAME="_ZN13hb_bit_page_t9del_rangeEjj" PURGE="0" COMMENT="" />
    <EXPORT ORDINAL="127" NAME="_ZN14hb_sparseset_tI23hb_bit_set_invertible_tED2Ev" PURGE="-1" COMMENT="" />
    <EXPORT ORDINAL="128" NAME="_ZN16hb_lazy_loader_tIN2OT17SVG_accelerator_tE21hb_face_lazy_loader_tIS1_Lj39EE9hb_face_tLj39ES1_E6createEPS4_" PURGE="0" COMMENT="" />
    <EXPORT ORDINAL="129" NAME="_ZN16hb_lazy_loader_tIN2OT18cff1_accelerator_tE21hb_face_lazy_loader_tIS1_Lj16EE9hb_face_tLj16ES1_E10do_destroyEPS1_" PURGE="0" COMMENT="" />
    <EXPORT ORDINAL="130" NAME="_ZN16hb_lazy_loader_tIN2OT18cff1_accelerator_tE21hb_face_lazy_loader_tIS1_Lj16EE9hb_face_tLj16ES1_E4finiEv" PURGE="0" COMMENT="" />
    <EXPORT ORDINAL="131" NAME="_ZN16hb_lazy_loader_tIN2OT18gvar_accelerator_tE21hb_face_lazy_loader_tIS1_Lj21EE9hb_face_tLj21ES1_E6createEPS4_" PURGE="0" COMMENT="" />
    <EXPORT ORDINAL="132" NAME="_ZN16hb_lazy_loader_tIN2OT18sbix_accelerator_tE21hb_face_lazy_loader_tIS1_Lj38EE9hb_face_tLj38ES1_E6createEPS4_" PURGE="0" COMMENT="" />
    <EXPORT ORDINAL="133" NAME="_ZN17cff1_path_param_t7line_toERKN3CFF7point_tE" PURGE="0" COMMENT="" />
    <EXPORT ORDINAL="134" NAME="_ZN17cff1_path_param_t7move_toERKN3CFF7point_tE" PURGE="0" COMMENT="" />
    <EXPORT ORDINAL="135" NAME="_ZN17cff1_path_param_t8cubic_toERKN3CFF7point_tES3_S3_" PURGE="0" COMMENT="" />
    <EXPORT ORDINAL="136" NAME="_ZN17hb_draw_session_t12quadratic_toEffff" PURGE="0" COMMENT="" />
    <EXPORT ORDINAL="137" NAME="_ZN17hb_draw_session_t8cubic_toEffffff" PURGE="0" COMMENT="" />
    <EXPORT ORDINAL="138" NAME="_ZN18hb_ot_shape_plan_t4finiEv" PURGE="0" COMMENT="" />
    <EXPORT ORDINAL="139" NAME="_ZN18hb_ot_shape_plan_t5init0EP9hb_face_tPK19hb_shape_plan_key_t" PURGE="0" COMMENT="" />
    <EXPORT ORDINAL="140" NAME="_ZN19hb_ot_map_builder_t11add_featureEj25hb_ot_map_feature_flags_tj" PURGE="0" COMMENT="" />
    <EXPORT ORDINAL="141" NAME="_ZN19hb_ot_map_builder_t11add_lookupsER11hb_ot_map_tjjjjbbbbj" PURGE="0" COMMENT="" />
    <EXPORT ORDINAL="142" NAME="_ZN19hb_ot_map_builder_t11has_featureEj" PURGE="0" COMMENT="" />
    <EXPORT ORDINAL="143" NAME="_ZN19hb_ot_map_builder_t14feature_info_t3cmpEPKvS2_" PURGE="0" COMMENT="" />
    <EXPORT ORDINAL="144" NAME="_ZN19hb_ot_map_builder_t7compileER11hb_ot_map_tRK22hb_ot_shape_plan_key_t" PURGE="0" COMMENT="" />
    <EXPORT ORDINAL="145" NAME="_ZN19hb_ot_map_builder_t9add_pauseEjPFbPK18hb_ot_shape_plan_tP9hb_font_tP11hb_buffer_tE" PURGE="0" COMMENT="" />
    <EXPORT ORDINAL="146" NAME="_ZN19hb_ot_map_builder_tC1EP9hb_face_tRK23hb_segment_properties_t" PURGE="0" COMMENT="" />
    <EXPORT ORDINAL="147" NAME="_ZN19hb_ot_map_builder_tC2EP9hb_face_tRK23hb_segment_properties_t" PURGE="0" COMMENT="" />
    <EXPORT ORDINAL="148" NAME="_ZN19hb_ot_map_builder_tD1Ev" PURGE="-1" COMMENT="" />
    <EXPORT ORDINAL="149" NAME="_ZN19hb_ot_map_builder_tD2Ev" PURGE="-1" COMMENT="" />
    <EXPORT ORDINAL="150" NAME="_ZN19hb_shape_plan_key_t19user_features_matchEPKS_" PURGE="0" COMMENT="" />
    <EXPORT ORDINAL="151" NAME="_ZN19hb_shape_plan_key_t4initEbP9hb_face_tPK23hb_segment_properties_tPK12hb_feature_tjPKijPKPKc" PURGE="0" COMMENT="" />
    <EXPORT ORDINAL="152" NAME="_ZN19hb_shape_plan_key_t5equalEPKS_" PURGE="0" COMMENT="" />
    <EXPORT ORDINAL="153" NAME="_ZN20DWriteFontFileLoader14QueryInterfaceERK5_GUIDPPv" PURGE="0" COMMENT="" />
    <EXPORT ORDINAL="154" NAME="_ZN20DWriteFontFileLoader19CreateStreamFromKeyEPKvjPP21IDWriteFontFileStream" PURGE="0" COMMENT="" />
    <EXPORT ORDINAL="155" NAME="_ZN20DWriteFontFileLoader6AddRefEv" PURGE="0" COMMENT="" />
    <EXPORT ORDINAL="156" NAME="_ZN20DWriteFontFileLoader7ReleaseEv" PURGE="0" COMMENT="" />
    <EXPORT ORDINAL="157" NAME="_ZN20DWriteFontFileLoaderD0Ev" PURGE="-1" COMMENT="" />
    <EXPORT ORDINAL="158" NAME="_ZN20DWriteFontFileLoaderD1Ev" PURGE="0" COMMENT="" />
    <EXPORT ORDINAL="159" NAME="_ZN20DWriteFontFileStream11GetFileSizeEPy" PURGE="0" COMMENT="" />
    <EXPORT ORDINAL="160" NAME="_ZN20DWriteFontFileStream14QueryInterfaceERK5_GUIDPPv" PURGE="0" COMMENT="" />
    <EXPORT ORDINAL="161" NAME="_ZN20DWriteFontFileStream16GetLastWriteTimeEPy" PURGE="0" COMMENT="" />
    <EXPORT ORDINAL="162" NAME="_ZN20DWriteFontFileStream16ReadFileFragmentEPPKvyyPPv" PURGE="0" COMMENT="" />
    <EXPORT ORDINAL="163" NAME="_ZN20DWriteFontFileStream19ReleaseFileFragmentEPv" PURGE="0" COMMENT="" />
    <EXPORT ORDINAL="164" NAME="_ZN20DWriteFontFileStream6AddRefEv" PURGE="0" COMMENT="" />
    <EXPORT ORDINAL="165" NAME="_ZN20DWriteFontFileStream7ReleaseEv" PURGE="0" COMMENT="" />
    <EXPORT ORDINAL="166" NAME="_ZN20DWriteFontFileStreamD0Ev" PURGE="-1" COMMENT="" />
    <EXPORT ORDINAL="167" NAME="_ZN20DWriteFontFileStreamD1Ev" PURGE="0" COMMENT="" />
    <EXPORT ORDINAL="168" NAME="_ZN20cff1_cs_opset_path_t12process_seacERN3CFF20cff1_cs_interp_env_tER17cff1_path_param_t" PURGE="0" COMMENT="" />
    <EXPORT ORDINAL="169" NAME="_ZN20hb_aat_map_builder_t11add_featureERK12hb_feature_t" PURGE="0" COMMENT="" />
    <EXPORT ORDINAL="170" NAME="_ZN20hb_aat_map_builder_t14feature_info_t3cmpEPKvS2_" PURGE="0" COMMENT="" />
    <EXPORT ORDINAL="171" NAME="_ZN20hb_aat_map_builder_t15feature_event_t3cmpEPKvS2_" PURGE="0" COMMENT="" />
    <EXPORT ORDINAL="172" NAME="_ZN20hb_aat_map_builder_t7compileER12hb_aat_map_t" PURGE="-1" COMMENT="" />
    <EXPORT ORDINAL="173" NAME="_ZN21hb_ms_feature_event_t3cmpEPKvS1_" PURGE="0" COMMENT="" />
    <EXPORT ORDINAL="174" NAME="_ZN21hb_ot_shape_planner_t7compileER18hb_ot_shape_plan_tRK22hb_ot_shape_plan_key_t" PURGE="0" COMMENT="" />
    <EXPORT ORDINAL="175" NAME="_ZN21hb_ot_shape_planner_tC1EP9hb_face_tRK23hb_segment_properties_t" PURGE="0" COMMENT="" />
    <EXPORT ORDINAL="176" NAME="_ZN21hb_ot_shape_planner_tC2EP9hb_face_tRK23hb_segment_properties_t" PURGE="0" COMMENT="" />
    <EXPORT ORDINAL="177" NAME="_ZN21hb_sanitize_context_t13sanitize_blobIN2OT16OpenTypeFontFileEEEP9hb_blob_tS4_" PURGE="0" COMMENT="" />
    <EXPORT ORDINAL="178" NAME="_ZN21hb_sanitize_context_t13sanitize_blobIN2OT3OS2EEEP9hb_blob_tS4_" PURGE="0" COMMENT="" />
    <EXPORT ORDINAL="179" NAME="_ZN21hb_sanitize_context_t13sanitize_blobIN2OT4GDEFEEEP9hb_blob_tS4_" PURGE="0" COMMENT="" />
    <EXPORT ORDINAL="180" NAME="_ZN21hb_sanitize_context_t13sanitize_blobIN2OT4MATHEEEP9hb_blob_tS4_" PURGE="0" COMMENT="" />
    <EXPORT ORDINAL="181" NAME="_ZN21hb_sanitize_context_t13sanitize_blobIN2OT4metaEEEP9hb_blob_tS4_" PURGE="0" COMMENT="" />
    <EXPORT ORDINAL="182" NAME="_ZN21hb_sanitize_context_t13sanitize_blobIN3AAT4featEEEP9hb_blob_tS4_" PURGE="0" COMMENT="" />
    <EXPORT ORDINAL="183" NAME="_ZN22hb_ms_active_feature_t3cmpEPKvS1_" PURGE="0" COMMENT="" />
    <EXPORT ORDINAL="184" NAME="_ZN22hb_serialize_context_t13resolve_linksEv" PURGE="0" COMMENT="" />
    <EXPORT ORDINAL="185" NAME="_ZN22hb_serialize_context_t19merge_virtual_linksEPKNS_8object_tEj" PURGE="0" COMMENT="" />
    <EXPORT ORDINAL="186" NAME="_ZN22hb_serialize_context_t21discard_stale_objectsEv" PURGE="0" COMMENT="" />
    <EXPORT ORDINAL="187" NAME="_ZN22hb_serialize_context_t4finiEv" PURGE="0" COMMENT="" />
    <EXPORT ORDINAL="188" NAME="_ZN22hb_serialize_context_t8pop_packEb" PURGE="0" COMMENT="" />
    <EXPORT ORDINAL="189" NAME="_ZN22hb_serialize_context_tD1Ev" PURGE="-1" COMMENT="" />
    <EXPORT ORDINAL="190" NAME="_ZN22hb_table_lazy_loader_tIN2OT3OS2ELj6ELb1EE6createEP9hb_face_t" PURGE="0" COMMENT="" />
    <EXPORT ORDINAL="191" NAME="_ZN22hb_table_lazy_loader_tIN2OT4hheaELj4ELb1EE6createEP9hb_face_t" PURGE="0" COMMENT="" />
    <EXPORT ORDINAL="192" NAME="_ZN22hb_table_lazy_loader_tIN2OT4kernELj23ELb1EE6createEP9hb_face_t" PURGE="0" COMMENT="" />
    <EXPORT ORDINAL="193" NAME="_ZN22hb_table_lazy_loader_tIN2OT4vheaELj11ELb1EE6createEP9hb_face_t" PURGE="0" COMMENT="" />
    <EXPORT ORDINAL="194" NAME="_ZN22hb_table_lazy_loader_tIN3AAT4ankrELj31ELb0EE6createEP9hb_face_t" PURGE="0" COMMENT="" />
    <EXPORT ORDINAL="195" NAME="_ZN22hb_table_lazy_loader_tIN3AAT4kerxELj30ELb0EE6createEP9hb_face_t" PURGE="0" COMMENT="" />
    <EXPORT ORDINAL="196" NAME="_ZN22hb_table_lazy_loader_tIN3AAT4mortELj29ELb0EE6createEP9hb_face_t" PURGE="0" COMMENT="" />
    <EXPORT ORDINAL="197" NAME="_ZN22hb_table_lazy_loader_tIN3AAT4morxELj28ELb0EE6createEP9hb_face_t" PURGE="0" COMMENT="" />
    <EXPORT ORDINAL="198" NAME="_ZN22hb_table_lazy_loader_tIN3AAT4trakELj32ELb0EE6createEP9hb_face_t" PURGE="0" COMMENT="" />
    <EXPORT ORDINAL="199" NAME="_ZN23cff1_cs_opset_extents_t12process_seacERN3CFF20cff1_cs_interp_env_tER20cff1_extents_param_t" PURGE="0" COMMENT="" />
    <EXPORT ORDINAL="200" NAME="_ZN23hb_bit_set_invertible_t3addEj" PURGE="0" COMMENT="" />
    <EXPORT ORDINAL="201" NAME="_ZN23hb_bit_set_invertible_t3setERKS_" PURGE="0" COMMENT="" />
    <EXPORT ORDINAL="202" NAME="_ZN23hb_bit_set_invertible_t6union_ERKS_" PURGE="0" COMMENT="" />
    <EXPORT ORDINAL="203" NAME="_ZN23hb_bit_set_invertible_t9add_arrayIN2OT11HBGlyphID16EEEvPKT_jj" PURGE="0" COMMENT="" />
    <EXPORT ORDINAL="204" NAME="_ZN24hb_shapers_lazy_loader_t6createEv" PURGE="0" COMMENT="" />
    <EXPORT ORDINAL="205" NAME="_ZN26hb_paint_extents_context_t9push_clipE12hb_extents_t" PURGE="0" COMMENT="" />
    <EXPORT ORDINAL="206" NAME="_ZN26hb_paint_extents_context_tC1Ev" PURGE="0" COMMENT="" />
    <EXPORT ORDINAL="207" NAME="_ZN2OT11TableRecord3cmpEPKvS2_" PURGE="0" COMMENT="" />
    <EXPORT ORDINAL="208" NAME="_ZN2OT18TupleVariationData13unpack_pointsERPKNS_7IntTypeIhLj1EEER11hb_vector_tIjLb0EES4_" PURGE="0" COMMENT="" />
    <EXPORT ORDINAL="209" NAME="_ZN2OT18glyf_accelerator_tC1EP9hb_face_t" PURGE="0" COMMENT="" />
    <EXPORT ORDINAL="210" NAME="_ZN2OT18hb_paint_context_t7recurseERKNS_5PaintE" PURGE="0" COMMENT="" />
    <EXPORT ORDINAL="211" NAME="_ZN2OT19CmapSubtableFormat413accelerator_t14get_glyph_funcEPKvjPj" PURGE="0" COMMENT="" />
    <EXPORT ORDINAL="212" NAME="_ZN2OT20hb_closure_context_t14is_lookup_doneEj" PURGE="0" COMMENT="" />
    <EXPORT ORDINAL="213" NAME="_ZN2OT20hb_closure_context_t5flushEv" PURGE="0" COMMENT="" />
    <EXPORT ORDINAL="214" NAME="_ZN2OT21hb_ot_apply_context_t10init_itersEv" PURGE="0" COMMENT="" />
    <EXPORT ORDINAL="215" NAME="_ZN2OT21hb_ot_apply_context_t13replace_glyphEj" PURGE="0" COMMENT="" />
    <EXPORT ORDINAL="216" NAME="_ZN2OT21hb_ot_apply_context_t16_set_glyph_classEjjbb" PURGE="0" COMMENT="" />
    <EXPORT ORDINAL="217" NAME="_ZN2OT21hb_ot_apply_context_t19skipping_iterator_t4nextEPj" PURGE="0" COMMENT="" />
    <EXPORT ORDINAL="218" NAME="_ZN2OT21hb_ot_apply_context_t19skipping_iterator_t4prevEPj" PURGE="0" COMMENT="" />
    <EXPORT ORDINAL="219" NAME="_ZN2OT21hb_ot_apply_context_t19skipping_iterator_t5resetEjj" PURGE="0" COMMENT="" />
    <EXPORT ORDINAL="220" NAME="_ZN2OT21hb_ot_apply_context_tC1EjP9hb_font_tP11hb_buffer_t" PURGE="0" COMMENT="" />
    <EXPORT ORDINAL="221" NAME="_ZN2OT22contour_point_vector_t6extendERK10hb_array_tINS_15contour_point_tEE" PURGE="0" COMMENT="" />
    <EXPORT ORDINAL="222" NAME="_ZN2OT33hb_accelerate_subtables_context_t13cache_func_toINS_14ContextFormat3EEEbPKvPNS_21hb_ot_apply_context_tEb" PURGE="0" COMMENT="" />
    <EXPORT ORDINAL="223" NAME="_ZN2OT33hb_accelerate_subtables_context_t13cache_func_toINS_16ContextFormat1_4INS_6Layout10SmallTypesEEEEEbPKvPNS_21hb_ot_apply_context_tEb" PURGE="0" COMMENT="" />
    <EXPORT ORDINAL="224" NAME="_ZN2OT33hb_accelerate_subtables_context_t13cache_func_toINS_16ContextFormat2_5INS_6Layout10SmallTypesEEEEEbPKvPNS_21hb_ot_apply_context_tEb" PURGE="0" COMMENT="" />
    <EXPORT ORDINAL="225" NAME="_ZN2OT33hb_accelerate_subtables_context_t13cache_func_toINS_19ChainContextFormat3EEEbPKvPNS_21hb_ot_apply_context_tEb" PURGE="0" COMMENT="" />
    <EXPORT ORDINAL="226" NAME="_ZN2OT33hb_accelerate_subtables_context_t13cache_func_toINS_21ChainContextFormat1_4INS_6Layout10SmallTypesEEEEEbPKvPNS_21hb_ot_apply_context_tEb" PURGE="0" COMMENT="" />
    <EXPORT ORDINAL="227" NAME="_ZN2OT33hb_accelerate_subtables_context_t13cache_func_toINS_21ChainContextFormat2_5INS_6Layout10SmallTypesEEEEEbPKvPNS_21hb_ot_apply_context_tEb" PURGE="0" COMMENT="" />
    <EXPORT ORDINAL="228" NAME="_ZN2OT33hb_accelerate_subtables_context_t13cache_func_toINS_6Layout9GPOS_impl16PairPosFormat1_3INS2_10SmallTypesEEEEEbPKvPNS_21hb_ot_apply_context_tEb" PURGE="0" COMMENT="" />
    <EXPORT ORDINAL="229" NAME="_ZN2OT33hb_accelerate_subtables_context_t13cache_func_toINS_6Layout9GPOS_impl16PairPosFormat2_4INS2_10SmallTypesEEEEEbPKvPNS_21hb_ot_apply_context_tEb" PURGE="0" COMMENT="" />
    <EXPORT ORDINAL="230" NAME="_ZN2OT33hb_accelerate_subtables_context_t13cache_func_toINS_6Layout9GPOS_impl16SinglePosFormat1EEEbPKvPNS_21hb_ot_apply_context_tEb" PURGE="0" COMMENT="" />
    <EXPORT ORDINAL="231" NAME="_ZN2OT33hb_accelerate_subtables_context_t13cache_func_toINS_6Layout9GPOS_impl16SinglePosFormat2EEEbPKvPNS_21hb_ot_apply_context_tEb" PURGE="0" COMMENT="" />
    <EXPORT ORDINAL="232" NAME="_ZN2OT33hb_accelerate_subtables_context_t13cache_func_toINS_6Layout9GPOS_impl17CursivePosFormat1EEEbPKvPNS_21hb_ot_apply_context_tEb" PURGE="0" COMMENT="" />
    <EXPORT ORDINAL="233" NAME="_ZN2OT33hb_accelerate_subtables_context_t13cache_func_toINS_6Layout9GPOS_impl19MarkLigPosFormat1_2INS2_10SmallTypesEEEEEbPKvPNS_21hb_ot_apply_context_tEb" PURGE="0" COMMENT="" />
    <EXPORT ORDINAL="234" NAME="_ZN2OT33hb_accelerate_subtables_context_t13cache_func_toINS_6Layout9GPOS_impl20MarkBasePosFormat1_2INS2_10SmallTypesEEEEEbPKvPNS_21hb_ot_apply_context_tEb" PURGE="0" COMMENT="" />
    <EXPORT ORDINAL="235" NAME="_ZN2OT33hb_accelerate_subtables_context_t13cache_func_toINS_6Layout9GPOS_impl20MarkMarkPosFormat1_2INS2_10SmallTypesEEEEEbPKvPNS_21hb_ot_apply_context_tEb" PURGE="0" COMMENT="" />
    <EXPORT ORDINAL="236" NAME="_ZN2OT33hb_accelerate_subtables_context_t13cache_func_toINS_6Layout9GSUB_impl20SingleSubstFormat1_3INS2_10SmallTypesEEEEEbPKvPNS_21hb_ot_apply_context_tEb" PURGE="0" COMMENT="" />
    <EXPORT ORDINAL="237" NAME="_ZN2OT33hb_accelerate_subtables_context_t13cache_func_toINS_6Layout9GSUB_impl20SingleSubstFormat2_4INS2_10SmallTypesEEEEEbPKvPNS_21hb_ot_apply_context_tEb" PURGE="0" COMMENT="" />
    <EXPORT ORDINAL="238" NAME="_ZN2OT33hb_accelerate_subtables_context_t13cache_func_toINS_6Layout9GSUB_impl22LigatureSubstFormat1_2INS2_10SmallTypesEEEEEbPKvPNS_21hb_ot_apply_context_tEb" PURGE="0" COMMENT="" />
    <EXPORT ORDINAL="239" NAME="_ZN2OT33hb_accelerate_subtables_context_t13cache_func_toINS_6Layout9GSUB_impl22MultipleSubstFormat1_2INS2_10SmallTypesEEEEEbPKvPNS_21hb_ot_apply_context_tEb" PURGE="0" COMMENT="" />
    <EXPORT ORDINAL="240" NAME="_ZN2OT33hb_accelerate_subtables_context_t13cache_func_toINS_6Layout9GSUB_impl23AlternateSubstFormat1_2INS2_10SmallTypesEEEEEbPKvPNS_21hb_ot_apply_context_tEb" PURGE="0" COMMENT="" />
    <EXPORT ORDINAL="241" NAME="_ZN2OT33hb_accelerate_subtables_context_t13cache_func_toINS_6Layout9GSUB_impl30ReverseChainSingleSubstFormat1EEEbPKvPNS_21hb_ot_apply_context_tEb" PURGE="0" COMMENT="" />
    <EXPORT ORDINAL="242" NAME="_ZN2OT33hb_accelerate_subtables_context_t15apply_cached_toINS_14ContextFormat3EEEbPKvPNS_21hb_ot_apply_context_tE" PURGE="0" COMMENT="" />
    <EXPORT ORDINAL="243" NAME="_ZN2OT33hb_accelerate_subtables_context_t15apply_cached_toINS_16ContextFormat1_4INS_6Layout10SmallTypesEEEEEbPKvPNS_21hb_ot_apply_context_tE" PURGE="0" COMMENT="" />
    <EXPORT ORDINAL="244" NAME="_ZN2OT33hb_accelerate_subtables_context_t15apply_cached_toINS_16ContextFormat2_5INS_6Layout10SmallTypesEEEEEbPKvPNS_21hb_ot_apply_context_tE" PURGE="0" COMMENT="" />
    <EXPORT ORDINAL="245" NAME="_ZN2OT33hb_accelerate_subtables_context_t15apply_cached_toINS_19ChainContextFormat3EEEbPKvPNS_21hb_ot_apply_context_tE" PURGE="0" COMMENT="" />
    <EXPORT ORDINAL="246" NAME="_ZN2OT33hb_accelerate_subtables_context_t15apply_cached_toINS_21ChainContextFormat1_4INS_6Layout10SmallTypesEEEEEbPKvPNS_21hb_ot_apply_context_tE" PURGE="0" COMMENT="" />
    <EXPORT ORDINAL="247" NAME="_ZN2OT33hb_accelerate_subtables_context_t15apply_cached_toINS_21ChainContextFormat2_5INS_6Layout10SmallTypesEEEEEbPKvPNS_21hb_ot_apply_context_tE" PURGE="0" COMMENT="" />
    <EXPORT ORDINAL="248" NAME="_ZN2OT33hb_accelerate_subtables_context_t15apply_cached_toINS_6Layout9GPOS_impl16PairPosFormat1_3INS2_10SmallTypesEEEEEbPKvPNS_21hb_ot_apply_context_tE" PURGE="0" COMMENT="" />
    <EXPORT ORDINAL="249" NAME="_ZN2OT33hb_accelerate_subtables_context_t15apply_cached_toINS_6Layout9GPOS_impl16PairPosFormat2_4INS2_10SmallTypesEEEEEbPKvPNS_21hb_ot_apply_context_tE" PURGE="0" COMMENT="" />
    <EXPORT ORDINAL="250" NAME="_ZN2OT33hb_accelerate_subtables_context_t15apply_cached_toINS_6Layout9GPOS_impl16SinglePosFormat1EEEbPKvPNS_21hb_ot_apply_context_tE" PURGE="0" COMMENT="" />
    <EXPORT ORDINAL="251" NAME="_ZN2OT33hb_accelerate_subtables_context_t15apply_cached_toINS_6Layout9GPOS_impl16SinglePosFormat2EEEbPKvPNS_21hb_ot_apply_context_tE" PURGE="0" COMMENT="" />
    <EXPORT ORDINAL="252" NAME="_ZN2OT33hb_accelerate_subtables_context_t15apply_cached_toINS_6Layout9GPOS_impl17CursivePosFormat1EEEbPKvPNS_21hb_ot_apply_context_tE" PURGE="0" COMMENT="" />
    <EXPORT ORDINAL="253" NAME="_ZN2OT33hb_accelerate_subtables_context_t15apply_cached_toINS_6Layout9GPOS_impl19MarkLigPosFormat1_2INS2_10SmallTypesEEEEEbPKvPNS_21hb_ot_apply_context_tE" PURGE="0" COMMENT="" />
    <EXPORT ORDINAL="254" NAME="_ZN2OT33hb_accelerate_subtables_context_t15apply_cached_toINS_6Layout9GPOS_impl20MarkBasePosFormat1_2INS2_10SmallTypesEEEEEbPKvPNS_21hb_ot_apply_context_tE" PURGE="0" COMMENT="" />
    <EXPORT ORDINAL="255" NAME="_ZN2OT33hb_accelerate_subtables_context_t15apply_cached_toINS_6Layout9GPOS_impl20MarkMarkPosFormat1_2INS2_10SmallTypesEEEEEbPKvPNS_21hb_ot_apply_context_tE" PURGE="0" COMMENT="" />
    <EXPORT ORDINAL="256" NAME="_ZN2OT33hb_accelerate_subtables_context_t15apply_cached_toINS_6Layout9GSUB_impl20SingleSubstFormat1_3INS2_10SmallTypesEEEEEbPKvPNS_21hb_ot_apply_context_tE" PURGE="0" COMMENT="" />
    <EXPORT ORDINAL="257" NAME="_ZN2OT33hb_accelerate_subtables_context_t15apply_cached_toINS_6Layout9GSUB_impl20SingleSubstFormat2_4INS2_10SmallTypesEEEEEbPKvPNS_21hb_ot_apply_context_tE" PURGE="0" COMMENT="" />
    <EXPORT ORDINAL="258" NAME="_ZN2OT33hb_accelerate_subtables_context_t15apply_cached_toINS_6Layout9GSUB_impl22LigatureSubstFormat1_2INS2_10SmallTypesEEEEEbPKvPNS_21hb_ot_apply_context_tE" PURGE="0" COMMENT="" />
    <EXPORT ORDINAL="259" NAME="_ZN2OT33hb_accelerate_subtables_context_t15apply_cached_toINS_6Layout9GSUB_impl22MultipleSubstFormat1_2INS2_10SmallTypesEEEEEbPKvPNS_21hb_ot_apply_context_tE" PURGE="0" COMMENT="" />
    <EXPORT ORDINAL="260" NAME="_ZN2OT33hb_accelerate_subtables_context_t15apply_cached_toINS_6Layout9GSUB_impl23AlternateSubstFormat1_2INS2_10SmallTypesEEEEEbPKvPNS_21hb_ot_apply_context_tE" PURGE="0" COMMENT="" />
    <EXPORT ORDINAL="261" NAME="_ZN2OT33hb_accelerate_subtables_context_t15apply_cached_toINS_6Layout9GSUB_impl30ReverseChainSingleSubstFormat1EEEbPKvPNS_21hb_ot_apply_context_tE" PURGE="0" COMMENT="" />
    <EXPORT ORDINAL="262" NAME="_ZN2OT33hb_accelerate_subtables_context_t8apply_toINS_14ContextFormat3EEEbPKvPNS_21hb_ot_apply_context_tE" PURGE="0" COMMENT="" />
    <EXPORT ORDINAL="263" NAME="_ZN2OT33hb_accelerate_subtables_context_t8apply_toINS_16ContextFormat1_4INS_6Layout10SmallTypesEEEEEbPKvPNS_21hb_ot_apply_context_tE" PURGE="0" COMMENT="" />
    <EXPORT ORDINAL="264" NAME="_ZN2OT33hb_accelerate_subtables_context_t8apply_toINS_16ContextFormat2_5INS_6Layout10SmallTypesEEEEEbPKvPNS_21hb_ot_apply_context_tE" PURGE="0" COMMENT="" />
    <EXPORT ORDINAL="265" NAME="_ZN2OT33hb_accelerate_subtables_context_t8apply_toINS_19ChainContextFormat3EEEbPKvPNS_21hb_ot_apply_context_tE" PURGE="0" COMMENT="" />
    <EXPORT ORDINAL="266" NAME="_ZN2OT33hb_accelerate_subtables_context_t8apply_toINS_21ChainContextFormat1_4INS_6Layout10SmallTypesEEEEEbPKvPNS_21hb_ot_apply_context_tE" PURGE="0" COMMENT="" />
    <EXPORT ORDINAL="267" NAME="_ZN2OT33hb_accelerate_subtables_context_t8apply_toINS_21ChainContextFormat2_5INS_6Layout10SmallTypesEEEEEbPKvPNS_21hb_ot_apply_context_tE" PURGE="0" COMMENT="" />
    <EXPORT ORDINAL="268" NAME="_ZN2OT33hb_accelerate_subtables_context_t8apply_toINS_6Layout9GPOS_impl16PairPosFormat1_3INS2_10SmallTypesEEEEEbPKvPNS_21hb_ot_apply_context_tE" PURGE="0" COMMENT="" />
    <EXPORT ORDINAL="269" NAME="_ZN2OT33hb_accelerate_subtables_context_t8apply_toINS_6Layout9GPOS_impl16PairPosFormat2_4INS2_10SmallTypesEEEEEbPKvPNS_21hb_ot_apply_context_tE" PURGE="0" COMMENT="" />
    <EXPORT ORDINAL="270" NAME="_ZN2OT33hb_accelerate_subtables_context_t8apply_toINS_6Layout9GPOS_impl16SinglePosFormat1EEEbPKvPNS_21hb_ot_apply_context_tE" PURGE="0" COMMENT="" />
    <EXPORT ORDINAL="271" NAME="_ZN2OT33hb_accelerate_subtables_context_t8apply_toINS_6Layout9GPOS_impl16SinglePosFormat2EEEbPKvPNS_21hb_ot_apply_context_tE" PURGE="0" COMMENT="" />
    <EXPORT ORDINAL="272" NAME="_ZN2OT33hb_accelerate_subtables_context_t8apply_toINS_6Layout9GPOS_impl17CursivePosFormat1EEEbPKvPNS_21hb_ot_apply_context_tE" PURGE="0" COMMENT="" />
    <EXPORT ORDINAL="273" NAME="_ZN2OT33hb_accelerate_subtables_context_t8apply_toINS_6Layout9GPOS_impl19MarkLigPosFormat1_2INS2_10SmallTypesEEEEEbPKvPNS_21hb_ot_apply_context_tE" PURGE="0" COMMENT="" />
    <EXPORT ORDINAL="274" NAME="_ZN2OT33hb_accelerate_subtables_context_t8apply_toINS_6Layout9GPOS_impl20MarkBasePosFormat1_2INS2_10SmallTypesEEEEEbPKvPNS_21hb_ot_apply_context_tE" PURGE="0" COMMENT="" />
    <EXPORT ORDINAL="275" NAME="_ZN2OT33hb_accelerate_subtables_context_t8apply_toINS_6Layout9GPOS_impl20MarkMarkPosFormat1_2INS2_10SmallTypesEEEEEbPKvPNS_21hb_ot_apply_context_tE" PURGE="0" COMMENT="" />
    <EXPORT ORDINAL="276" NAME="_ZN2OT33hb_accelerate_subtables_context_t8apply_toINS_6Layout9GSUB_impl20SingleSubstFormat1_3INS2_10SmallTypesEEEEEbPKvPNS_21hb_ot_apply_context_tE" PURGE="0" COMMENT="" />
    <EXPORT ORDINAL="277" NAME="_ZN2OT33hb_accelerate_subtables_context_t8apply_toINS_6Layout9GSUB_impl20SingleSubstFormat2_4INS2_10SmallTypesEEEEEbPKvPNS_21hb_ot_apply_context_tE" PURGE="0" COMMENT="" />
    <EXPORT ORDINAL="278" NAME="_ZN2OT33hb_accelerate_subtables_context_t8apply_toINS_6Layout9GSUB_impl22LigatureSubstFormat1_2INS2_10SmallTypesEEEEEbPKvPNS_21hb_ot_apply_context_tE" PURGE="0" COMMENT="" />
    <EXPORT ORDINAL="279" NAME="_ZN2OT33hb_accelerate_subtables_context_t8apply_toINS_6Layout9GSUB_impl22MultipleSubstFormat1_2INS2_10SmallTypesEEEEEbPKvPNS_21hb_ot_apply_context_tE" PURGE="0" COMMENT="" />
    <EXPORT ORDINAL="280" NAME="_ZN2OT33hb_accelerate_subtables_context_t8apply_toINS_6Layout9GSUB_impl23AlternateSubstFormat1_2INS2_10SmallTypesEEEEEbPKvPNS_21hb_ot_apply_context_tE" PURGE="0" COMMENT="" />
    <EXPORT ORDINAL="281" NAME="_ZN2OT33hb_accelerate_subtables_context_t8apply_toINS_6Layout9GSUB_impl30ReverseChainSingleSubstFormat1EEEbPKvPNS_21hb_ot_apply_context_tE" PURGE="0" COMMENT="" />
    <EXPORT ORDINAL="282" NAME="_ZN2OT33hb_ot_layout_lookup_accelerator_t6createINS_6Layout9GPOS_impl9PosLookupEEEPS0_RKT_" PURGE="0" COMMENT="" />
    <EXPORT ORDINAL="283" NAME="_ZN2OT33hb_ot_layout_lookup_accelerator_t6createINS_6Layout9GSUB_impl11SubstLookupEEEPS0_RKT_" PURGE="0" COMMENT="" />
    <EXPORT ORDINAL="284" NAME="_ZN2OT4CBDT13accelerator_tC2EP9hb_face_t" PURGE="0" COMMENT="" />
    <EXPORT ORDINAL="285" NAME="_ZN2OT4GDEF13accelerator_tC2EP9hb_face_t" PURGE="0" COMMENT="" />
    <EXPORT ORDINAL="286" NAME="_ZN2OT4cff113accelerator_t7gname_t3cmpEPKvS4_" PURGE="0" COMMENT="" />
    <EXPORT ORDINAL="287" NAME="_ZN2OT4cff119accelerator_templ_tIN3CFF25cff1_private_dict_opset_tENS2_31cff1_private_dict_values_base_tINS2_10dict_val_tEEEE4finiEv" PURGE="0" COMMENT="" />
    <EXPORT ORDINAL="288" NAME="_ZN2OT4cff119accelerator_templ_tIN3CFF25cff1_private_dict_opset_tENS2_31cff1_private_dict_values_base_tINS2_10dict_val_tEEEE4initEP9hb_face_t" PURGE="0" COMMENT="" />
    <EXPORT ORDINAL="289" NAME="_ZN2OT4cff129lookup_expert_charset_for_sidEj" PURGE="0" COMMENT="" />
    <EXPORT ORDINAL="290" NAME="_ZN2OT4cff131lookup_expert_charset_for_glyphEj" PURGE="0" COMMENT="" />
    <EXPORT ORDINAL="291" NAME="_ZN2OT4cff131lookup_expert_encoding_for_codeEj" PURGE="0" COMMENT="" />
    <EXPORT ORDINAL="292" NAME="_ZN2OT4cff132lookup_standard_encoding_for_sidEj" PURGE="0" COMMENT="" />
    <EXPORT ORDINAL="293" NAME="_ZN2OT4cff133lookup_standard_encoding_for_codeEj" PURGE="0" COMMENT="" />
    <EXPORT ORDINAL="294" NAME="_ZN2OT4cff136lookup_expert_subset_charset_for_sidEj" PURGE="0" COMMENT="" />
    <EXPORT ORDINAL="295" NAME="_ZN2OT4cff138lookup_expert_subset_charset_for_glyphEj" PURGE="0" COMMENT="" />
    <EXPORT ORDINAL="296" NAME="_ZN2OT4cff219accelerator_templ_tIN3CFF25cff2_private_dict_opset_tENS2_31cff2_private_dict_values_base_tINS2_10dict_val_tEEEEC2EP9hb_face_t" PURGE="0" COMMENT="" />
    <EXPORT ORDINAL="297" NAME="_ZN2OT4cff219accelerator_templ_tIN3CFF25cff2_private_dict_opset_tENS2_31cff2_private_dict_values_base_tINS2_10dict_val_tEEEED2Ev" PURGE="-1" COMMENT="" />
    <EXPORT ORDINAL="298" NAME="_ZN2OT4cmap13accelerator_t14get_glyph_fromINS_12CmapSubtableEEEbPKvjPj" PURGE="0" COMMENT="" />
    <EXPORT ORDINAL="299" NAME="_ZN2OT4cmap13accelerator_t14get_glyph_fromINS_20CmapSubtableFormat12EEEbPKvjPj" PURGE="0" COMMENT="" />
    <EXPORT ORDINAL="300" NAME="_ZN2OT4cmap13accelerator_tC2EP9hb_face_t" PURGE="0" COMMENT="" />
    <EXPORT ORDINAL="301" NAME="_ZN2OT4name13accelerator_tC2EP9hb_face_t" PURGE="0" COMMENT="" />
    <EXPORT ORDINAL="302" NAME="_ZN2OT4post13accelerator_t8cmp_gidsEPKvS3_Pv" PURGE="0" COMMENT="" />
    <EXPORT ORDINAL="303" NAME="_ZN2OT4post13accelerator_tC2EP9hb_face_t" PURGE="0" COMMENT="" />
    <EXPORT ORDINAL="304" NAME="_ZN2OT6Layout6Common8Coverage6iter_t8__next__Ev" PURGE="0" COMMENT="" />
    <EXPORT ORDINAL="305" NAME="_ZN2OT6Layout6Common8Coverage6iter_tC1ERKS2_" PURGE="0" COMMENT="" />
    <EXPORT ORDINAL="306" NAME="_ZN2OT6Layout9GPOS_impl9PosLookup21dispatch_recurse_funcINS_21hb_ot_apply_context_tEEENT_8return_tEPS5_j" PURGE="0" COMMENT="" />
    <EXPORT ORDINAL="307" NAME="_ZN2OT6Layout9GSUB_impl11SingleSubst9serializeI13hb_zip_iter_tI17hb_sorted_array_tINS_11HBGlyphID16EE10hb_array_tIS6_EELPv0EEEbP22hb_serialize_context_tT_" PURGE="0" COMMENT="" />
    <EXPORT ORDINAL="308" NAME="_ZN2OT6Layout9GSUB_impl11SubstLookup21dispatch_recurse_funcINS_21hb_ot_apply_context_tEEENT_8return_tEPS5_j" PURGE="0" COMMENT="" />
    <EXPORT ORDINAL="309" NAME="_ZN2OT6Layout9GSUB_impl11SubstLookup21dispatch_recurse_funcINS_27hb_collect_glyphs_context_tEEENT_8return_tEPS5_j" PURGE="0" COMMENT="" />
    <EXPORT ORDINAL="310" NAME="_ZN2OT6Layout9GSUB_impl11SubstLookup29dispatch_closure_recurse_funcEPNS_20hb_closure_context_tEjP8hb_set_tjj" PURGE="0" COMMENT="" />
    <EXPORT ORDINAL="311" NAME="_ZN2OT6Layout9GSUB_impl20SingleSubstFormat2_4INS0_10SmallTypesEE9serializeI13hb_zip_iter_tI17hb_sorted_array_tINS_11HBGlyphID16EE10hb_array_tIS8_EELPv0EEEbP22hb_serialize_context_tT_" PURGE="0" COMMENT="" />
    <EXPORT ORDINAL="312" NAME="_ZN2OT6Lookup9serializeEP22hb_serialize_context_tjjj" PURGE="0" COMMENT="" />
    <EXPORT ORDINAL="313" NAME="_ZN2OT7ArrayOfINS_11HBGlyphID16ENS_7IntTypeItLj2EEEE9serializeEP22hb_serialize_context_tjb" PURGE="0" COMMENT="" />
    <EXPORT ORDINAL="314" NAME="_ZN2OT7ArrayOfINS_6Layout6Common11RangeRecordINS1_10SmallTypesEEENS_7IntTypeItLj2EEEE9serializeEP22hb_serialize_context_tjb" PURGE="0" COMMENT="" />
    <EXPORT ORDINAL="315" NAME="_ZN2OT8GSUBGPOS13accelerator_tINS_6Layout4GPOSEEC2EP9hb_face_t" PURGE="0" COMMENT="" />
    <EXPORT ORDINAL="316" NAME="_ZN2OT8GSUBGPOS13accelerator_tINS_6Layout4GSUBEEC2EP9hb_face_t" PURGE="0" COMMENT="" />
    <EXPORT ORDINAL="317" NAME="_ZN2OT8OffsetToINS_6Layout6Common8CoverageENS_7IntTypeItLj2EEELb1EE19serialize_serializeIJR17hb_sorted_array_tIKNS_11HBGlyphID16EEEEEbP22hb_serialize_context_tDpOT_" PURGE="0" COMMENT="" />
    <EXPORT ORDINAL="318" NAME="_ZN2OT8hmtxvmtxINS_4hmtxENS_4hheaENS_4HVAREE13accelerator_tC2EP9hb_face_t" PURGE="0" COMMENT="" />
    <EXPORT ORDINAL="319" NAME="_ZN2OT8hmtxvmtxINS_4vmtxENS_4vheaENS_4VVAREE13accelerator_tC2EP9hb_face_t" PURGE="0" COMMENT="" />
    <EXPORT ORDINAL="320" NAME="_ZN2OT9ColorLineINS_10NoVariableEE17static_get_extendEP15hb_color_line_tPvS5_" PURGE="0" COMMENT="" />
    <EXPORT ORDINAL="321" NAME="_ZN2OT9ColorLineINS_10NoVariableEE22static_get_color_stopsEP15hb_color_line_tPvjPjP15hb_color_stop_tS5_" PURGE="0" COMMENT="" />
    <EXPORT ORDINAL="322" NAME="_ZN2OT9ColorLineINS_8VariableEE17static_get_extendEP15hb_color_line_tPvS5_" PURGE="0" COMMENT="" />
    <EXPORT ORDINAL="323" NAME="_ZN2OT9ColorLineINS_8VariableEE22static_get_color_stopsEP15hb_color_line_tPvjPjP15hb_color_stop_tS5_" PURGE="0" COMMENT="" />
    <EXPORT ORDINAL="324" NAME="_ZN2OT9glyf_impl14path_builder_t13consume_pointERKNS_15contour_point_tE" PURGE="0" COMMENT="" />
    <EXPORT ORDINAL="325" NAME="_ZN30hb_ft_font_funcs_lazy_loader_t6createEv" PURGE="0" COMMENT="" />
    <EXPORT ORDINAL="326" NAME="_ZN35hb_indic_would_substitute_feature_t4initEPK11hb_ot_map_tjb" PURGE="0" COMMENT="" />
    <EXPORT ORDINAL="327" NAME="_ZN3AAT16StateTableDriverINS_13ExtendedTypesENS_12Format1EntryILb1EE9EntryDataEE5driveINS_19KerxSubTableFormat1INS_18KerxSubTableHeaderEE16driver_context_tEEEvPT_PNS_22hb_aat_apply_context_tE" PURGE="0" COMMENT="" />
    <EXPORT ORDINAL="328" NAME="_ZN3AAT16StateTableDriverINS_13ExtendedTypesENS_13LigatureEntryILb1EE9EntryDataEE5driveINS_16LigatureSubtableIS1_E16driver_context_tEEEvPT_PNS_22hb_aat_apply_context_tE" PURGE="0" COMMENT="" />
    <EXPORT ORDINAL="329" NAME="_ZN3AAT16StateTableDriverINS_13ExtendedTypesENS_17InsertionSubtableIS1_E9EntryDataEE5driveINS3_16driver_context_tEEEvPT_PNS_22hb_aat_apply_context_tE" PURGE="0" COMMENT="" />
    <EXPORT ORDINAL="330" NAME="_ZN3AAT16StateTableDriverINS_13ExtendedTypesENS_18ContextualSubtableIS1_E9EntryDataEE5driveINS3_16driver_context_tEEEvPT_PNS_22hb_aat_apply_context_tE" PURGE="0" COMMENT="" />
    <EXPORT ORDINAL="331" NAME="_ZN3AAT16StateTableDriverINS_13ExtendedTypesENS_19KerxSubTableFormat4INS_18KerxSubTableHeaderEE9EntryDataEE5driveINS4_16driver_context_tEEEvPT_PNS_22hb_aat_apply_context_tE" PURGE="0" COMMENT="" />
    <EXPORT ORDINAL="332" NAME="_ZN3AAT16StateTableDriverINS_13ExtendedTypesEvE5driveINS_21RearrangementSubtableIS1_E16driver_context_tEEEvPT_PNS_22hb_aat_apply_context_tE" PURGE="0" COMMENT="" />
    <EXPORT ORDINAL="333" NAME="_ZN3AAT16StateTableDriverINS_13ObsoleteTypesENS_17InsertionSubtableIS1_E9EntryDataEE5driveINS3_16driver_context_tEEEvPT_PNS_22hb_aat_apply_context_tE" PURGE="0" COMMENT="" />
    <EXPORT ORDINAL="334" NAME="_ZN3AAT16StateTableDriverINS_13ObsoleteTypesENS_18ContextualSubtableIS1_E9EntryDataEE5driveINS3_16driver_context_tEEEvPT_PNS_22hb_aat_apply_context_tE" PURGE="0" COMMENT="" />
    <EXPORT ORDINAL="335" NAME="_ZN3AAT16StateTableDriverINS_13ObsoleteTypesEvE5driveINS_16LigatureSubtableIS1_E16driver_context_tEEEvPT_PNS_22hb_aat_apply_context_tE" PURGE="0" COMMENT="" />
    <EXPORT ORDINAL="336" NAME="_ZN3AAT16StateTableDriverINS_13ObsoleteTypesEvE5driveINS_19KerxSubTableFormat1IN2OT21KernAATSubTableHeaderEE16driver_context_tEEEvPT_PNS_22hb_aat_apply_context_tE" PURGE="0" COMMENT="" />
    <EXPORT ORDINAL="337" NAME="_ZN3AAT16StateTableDriverINS_13ObsoleteTypesEvE5driveINS_21RearrangementSubtableIS1_E16driver_context_tEEEvPT_PNS_22hb_aat_apply_context_tE" PURGE="0" COMMENT="" />
    <EXPORT ORDINAL="338" NAME="_ZN3AAT18ContextualSubtableINS_13ExtendedTypesEE16driver_context_t10transitionEPNS_16StateTableDriverIS1_NS2_9EntryDataEEERKNS_5EntryIS5_EE" PURGE="0" COMMENT="" />
    <EXPORT ORDINAL="339" NAME="_ZN3AAT22hb_aat_apply_context_t14set_ankr_tableEPKNS_4ankrE" PURGE="0" COMMENT="" />
    <EXPORT ORDINAL="340" NAME="_ZN3AAT22hb_aat_apply_context_tC1EPK18hb_ot_shape_plan_tP9hb_font_tP11hb_buffer_tP9hb_blob_t" PURGE="0" COMMENT="" />
    <EXPORT ORDINAL="341" NAME="_ZN3AAT22hb_aat_apply_context_tC2EPK18hb_ot_shape_plan_tP9hb_font_tP11hb_buffer_tP9hb_blob_t" PURGE="0" COMMENT="" />
    <EXPORT ORDINAL="342" NAME="_ZN3AAT22hb_aat_apply_context_tD1Ev" PURGE="0" COMMENT="" />
    <EXPORT ORDINAL="343" NAME="_ZN3AAT22hb_aat_apply_context_tD2Ev" PURGE="0" COMMENT="" />
    <EXPORT ORDINAL="344" NAME="_ZN3CFF10cs_opset_tINS_8number_tE20cff1_cs_opset_path_tNS_20cff1_cs_interp_env_tE17cff1_path_param_t22cff1_path_procs_path_tE10process_opEjRS3_RS4_" PURGE="0" COMMENT="" />
    <EXPORT ORDINAL="345" NAME="_ZN3CFF10cs_opset_tINS_8number_tE20cff2_cs_opset_path_tNS_20cff2_cs_interp_env_tIS1_EE17cff2_path_param_t22cff2_path_procs_path_tE10process_opEjRS4_RS5_" PURGE="0" COMMENT="" />
    <EXPORT ORDINAL="346" NAME="_ZN3CFF10cs_opset_tINS_8number_tE23cff1_cs_opset_extents_tNS_20cff1_cs_interp_env_tE20cff1_extents_param_t25cff1_path_procs_extents_tE10process_opEjRS3_RS4_" PURGE="0" COMMENT="" />
    <EXPORT ORDINAL="347" NAME="_ZN3CFF10cs_opset_tINS_8number_tE23cff2_cs_opset_extents_tNS_20cff2_cs_interp_env_tIS1_EE20cff2_extents_param_t25cff2_path_procs_extents_tE10process_opEjRS4_RS5_" PURGE="0" COMMENT="" />
    <EXPORT ORDINAL="348" NAME="_ZN3CFF11FDSelect3_4IN2OT7IntTypeItLj2EEENS2_IhLj1EEEE10_cmp_rangeEPKvS7_" PURGE="0" COMMENT="" />
    <EXPORT ORDINAL="349" NAME="_ZN3CFF12dict_opset_t10process_opEjRNS_12interp_env_tINS_8number_tEEE" PURGE="0" COMMENT="" />
    <EXPORT ORDINAL="350" NAME="_ZN3CFF12path_procs_tI22cff1_path_procs_path_tNS_20cff1_cs_interp_env_tE17cff1_path_param_tE10rcurvelineERS2_RS3_" PURGE="0" COMMENT="" />
    <EXPORT ORDINAL="351" NAME="_ZN3CFF12path_procs_tI22cff1_path_procs_path_tNS_20cff1_cs_interp_env_tE17cff1_path_param_tE10rlinecurveERS2_RS3_" PURGE="0" COMMENT="" />
    <EXPORT ORDINAL="352" NAME="_ZN3CFF12path_procs_tI22cff1_path_procs_path_tNS_20cff1_cs_interp_env_tE17cff1_path_param_tE4flexERS2_RS3_" PURGE="0" COMMENT="" />
    <EXPORT ORDINAL="353" NAME="_ZN3CFF12path_procs_tI22cff1_path_procs_path_tNS_20cff1_cs_interp_env_tE17cff1_path_param_tE5flex1ERS2_RS3_" PURGE="0" COMMENT="" />
    <EXPORT ORDINAL="354" NAME="_ZN3CFF12path_procs_tI22cff1_path_procs_path_tNS_20cff1_cs_interp_env_tE17cff1_path_param_tE5hflexERS2_RS3_" PURGE="0" COMMENT="" />
    <EXPORT ORDINAL="355" NAME="_ZN3CFF12path_procs_tI22cff1_path_procs_path_tNS_20cff1_cs_interp_env_tE17cff1_path_param_tE6hflex1ERS2_RS3_" PURGE="0" COMMENT="" />
    <EXPORT ORDINAL="356" NAME="_ZN3CFF12path_procs_tI22cff1_path_procs_path_tNS_20cff1_cs_interp_env_tE17cff1_path_param_tE9hvcurvetoERS2_RS3_" PURGE="0" COMMENT="" />
    <EXPORT ORDINAL="357" NAME="_ZN3CFF12path_procs_tI22cff1_path_procs_path_tNS_20cff1_cs_interp_env_tE17cff1_path_param_tE9vhcurvetoERS2_RS3_" PURGE="0" COMMENT="" />
    <EXPORT ORDINAL="358" NAME="_ZN3CFF12path_procs_tI22cff2_path_procs_path_tNS_20cff2_cs_interp_env_tINS_8number_tEEE17cff2_path_param_tE10rcurvelineERS4_RS5_" PURGE="0" COMMENT="" />
    <EXPORT ORDINAL="359" NAME="_ZN3CFF12path_procs_tI22cff2_path_procs_path_tNS_20cff2_cs_interp_env_tINS_8number_tEEE17cff2_path_param_tE10rlinecurveERS4_RS5_" PURGE="0" COMMENT="" />
    <EXPORT ORDINAL="360" NAME="_ZN3CFF12path_procs_tI22cff2_path_procs_path_tNS_20cff2_cs_interp_env_tINS_8number_tEEE17cff2_path_param_tE4flexERS4_RS5_" PURGE="0" COMMENT="" />
    <EXPORT ORDINAL="361" NAME="_ZN3CFF12path_procs_tI22cff2_path_procs_path_tNS_20cff2_cs_interp_env_tINS_8number_tEEE17cff2_path_param_tE5flex1ERS4_RS5_" PURGE="0" COMMENT="" />
    <EXPORT ORDINAL="362" NAME="_ZN3CFF12path_procs_tI22cff2_path_procs_path_tNS_20cff2_cs_interp_env_tINS_8number_tEEE17cff2_path_param_tE5hflexERS4_RS5_" PURGE="0" COMMENT="" />
    <EXPORT ORDINAL="363" NAME="_ZN3CFF12path_procs_tI22cff2_path_procs_path_tNS_20cff2_cs_interp_env_tINS_8number_tEEE17cff2_path_param_tE6hflex1ERS4_RS5_" PURGE="0" COMMENT="" />
    <EXPORT ORDINAL="364" NAME="_ZN3CFF12path_procs_tI22cff2_path_procs_path_tNS_20cff2_cs_interp_env_tINS_8number_tEEE17cff2_path_param_tE9hvcurvetoERS4_RS5_" PURGE="0" COMMENT="" />
    <EXPORT ORDINAL="365" NAME="_ZN3CFF12path_procs_tI22cff2_path_procs_path_tNS_20cff2_cs_interp_env_tINS_8number_tEEE17cff2_path_param_tE9vhcurvetoERS4_RS5_" PURGE="0" COMMENT="" />
    <EXPORT ORDINAL="366" NAME="_ZN3CFF12path_procs_tI25cff1_path_procs_extents_tNS_20cff1_cs_interp_env_tE20cff1_extents_param_tE10rcurvelineERS2_RS3_" PURGE="0" COMMENT="" />
    <EXPORT ORDINAL="367" NAME="_ZN3CFF12path_procs_tI25cff1_path_procs_extents_tNS_20cff1_cs_interp_env_tE20cff1_extents_param_tE10rlinecurveERS2_RS3_" PURGE="0" COMMENT="" />
    <EXPORT ORDINAL="368" NAME="_ZN3CFF12path_procs_tI25cff1_path_procs_extents_tNS_20cff1_cs_interp_env_tE20cff1_extents_param_tE4flexERS2_RS3_" PURGE="0" COMMENT="" />
    <EXPORT ORDINAL="369" NAME="_ZN3CFF12path_procs_tI25cff1_path_procs_extents_tNS_20cff1_cs_interp_env_tE20cff1_extents_param_tE5flex1ERS2_RS3_" PURGE="0" COMMENT="" />
    <EXPORT ORDINAL="370" NAME="_ZN3CFF12path_procs_tI25cff1_path_procs_extents_tNS_20cff1_cs_interp_env_tE20cff1_extents_param_tE5hflexERS2_RS3_" PURGE="0" COMMENT="" />
    <EXPORT ORDINAL="371" NAME="_ZN3CFF12path_procs_tI25cff1_path_procs_extents_tNS_20cff1_cs_interp_env_tE20cff1_extents_param_tE6hflex1ERS2_RS3_" PURGE="0" COMMENT="" />
    <EXPORT ORDINAL="372" NAME="_ZN3CFF12path_procs_tI25cff1_path_procs_extents_tNS_20cff1_cs_interp_env_tE20cff1_extents_param_tE7hlinetoERS2_RS3_" PURGE="0" COMMENT="" />
    <EXPORT ORDINAL="373" NAME="_ZN3CFF12path_procs_tI25cff1_path_procs_extents_tNS_20cff1_cs_interp_env_tE20cff1_extents_param_tE7vlinetoERS2_RS3_" PURGE="0" COMMENT="" />
    <EXPORT ORDINAL="374" NAME="_ZN3CFF12path_procs_tI25cff1_path_procs_extents_tNS_20cff1_cs_interp_env_tE20cff1_extents_param_tE9hvcurvetoERS2_RS3_" PURGE="0" COMMENT="" />
    <EXPORT ORDINAL="375" NAME="_ZN3CFF12path_procs_tI25cff1_path_procs_extents_tNS_20cff1_cs_interp_env_tE20cff1_extents_param_tE9rrcurvetoERS2_RS3_" PURGE="0" COMMENT="" />
    <EXPORT ORDINAL="376" NAME="_ZN3CFF12path_procs_tI25cff1_path_procs_extents_tNS_20cff1_cs_interp_env_tE20cff1_extents_param_tE9vhcurvetoERS2_RS3_" PURGE="0" COMMENT="" />
    <EXPORT ORDINAL="377" NAME="_ZN3CFF12path_procs_tI25cff2_path_procs_extents_tNS_20cff2_cs_interp_env_tINS_8number_tEEE20cff2_extents_param_tE10rcurvelineERS4_RS5_" PURGE="0" COMMENT="" />
    <EXPORT ORDINAL="378" NAME="_ZN3CFF12path_procs_tI25cff2_path_procs_extents_tNS_20cff2_cs_interp_env_tINS_8number_tEEE20cff2_extents_param_tE10rlinecurveERS4_RS5_" PURGE="0" COMMENT="" />
    <EXPORT ORDINAL="379" NAME="_ZN3CFF12path_procs_tI25cff2_path_procs_extents_tNS_20cff2_cs_interp_env_tINS_8number_tEEE20cff2_extents_param_tE4flexERS4_RS5_" PURGE="0" COMMENT="" />
    <EXPORT ORDINAL="380" NAME="_ZN3CFF12path_procs_tI25cff2_path_procs_extents_tNS_20cff2_cs_interp_env_tINS_8number_tEEE20cff2_extents_param_tE5flex1ERS4_RS5_" PURGE="0" COMMENT="" />
    <EXPORT ORDINAL="381" NAME="_ZN3CFF12path_procs_tI25cff2_path_procs_extents_tNS_20cff2_cs_interp_env_tINS_8number_tEEE20cff2_extents_param_tE5hflexERS4_RS5_" PURGE="0" COMMENT="" />
    <EXPORT ORDINAL="382" NAME="_ZN3CFF12path_procs_tI25cff2_path_procs_extents_tNS_20cff2_cs_interp_env_tINS_8number_tEEE20cff2_extents_param_tE6hflex1ERS4_RS5_" PURGE="0" COMMENT="" />
    <EXPORT ORDINAL="383" NAME="_ZN3CFF12path_procs_tI25cff2_path_procs_extents_tNS_20cff2_cs_interp_env_tINS_8number_tEEE20cff2_extents_param_tE7hlinetoERS4_RS5_" PURGE="0" COMMENT="" />
    <EXPORT ORDINAL="384" NAME="_ZN3CFF12path_procs_tI25cff2_path_procs_extents_tNS_20cff2_cs_interp_env_tINS_8number_tEEE20cff2_extents_param_tE7vlinetoERS4_RS5_" PURGE="0" COMMENT="" />
    <EXPORT ORDINAL="385" NAME="_ZN3CFF12path_procs_tI25cff2_path_procs_extents_tNS_20cff2_cs_interp_env_tINS_8number_tEEE20cff2_extents_param_tE9hvcurvetoERS4_RS5_" PURGE="0" COMMENT="" />
    <EXPORT ORDINAL="386" NAME="_ZN3CFF12path_procs_tI25cff2_path_procs_extents_tNS_20cff2_cs_interp_env_tINS_8number_tEEE20cff2_extents_param_tE9rrcurvetoERS4_RS5_" PURGE="0" COMMENT="" />
    <EXPORT ORDINAL="387" NAME="_ZN3CFF12path_procs_tI25cff2_path_procs_extents_tNS_20cff2_cs_interp_env_tINS_8number_tEEE20cff2_extents_param_tE9vhcurvetoERS4_RS5_" PURGE="0" COMMENT="" />
    <EXPORT ORDINAL="388" NAME="_ZN3CFF15cs_interp_env_tINS_8number_tENS_5SubrsIN2OT7IntTypeIjLj4EEEEEE9call_subrERKNS_14biased_subrs_tIS6_EENS_9cs_type_tE" PURGE="0" COMMENT="" />
    <EXPORT ORDINAL="389" NAME="_ZN3CFF15cs_interp_env_tINS_8number_tENS_5SubrsIN2OT7IntTypeItLj2EEEEEE9call_subrERKNS_14biased_subrs_tIS6_EENS_9cs_type_tE" PURGE="0" COMMENT="" />
    <EXPORT ORDINAL="390" NAME="_ZN3CFF15parsed_values_tINS_10dict_val_tEE6add_opEjRKNS_14byte_str_ref_tERKS1_" PURGE="0" COMMENT="" />
    <EXPORT ORDINAL="391" NAME="_ZN3CFF15parsed_values_tINS_19cff1_top_dict_val_tEE6add_opEjRKNS_14byte_str_ref_tERKS1_" PURGE="0" COMMENT="" />
    <EXPORT ORDINAL="392" NAME="_ZN3CFF15parsed_values_tINS_8op_str_tEE6add_opEjRKNS_14byte_str_ref_tERKS1_" PURGE="0" COMMENT="" />
    <EXPORT ORDINAL="393" NAME="_ZN3CFF18dict_interpreter_tINS_21cff2_top_dict_opset_tENS_22cff2_top_dict_values_tENS_12interp_env_tINS_8number_tEEEE9interpretERS2_" PURGE="0" COMMENT="" />
    <EXPORT ORDINAL="394" NAME="_ZN3CFF18dict_interpreter_tINS_22cff1_font_dict_opset_tENS_23cff1_font_dict_values_tENS_12interp_env_tINS_8number_tEEEE9interpretERS2_" PURGE="0" COMMENT="" />
    <EXPORT ORDINAL="395" NAME="_ZN3CFF18dict_interpreter_tINS_25cff1_private_dict_opset_tENS_31cff1_private_dict_values_base_tINS_10dict_val_tEEENS_12interp_env_tINS_8number_tEEEE9interpretERS4_" PURGE="0" COMMENT="" />
    <EXPORT ORDINAL="396" NAME="_ZN3CFF20cff2_cs_interp_env_tINS_8number_tEE13process_blendEv" PURGE="0" COMMENT="" />
    <EXPORT ORDINAL="397" NAME="_ZN3CFF20cff2_cs_interp_env_tINS_8number_tEEC1IKN2OT4cff213accelerator_tEEERK10hb_array_tIKhERT_jPKij" PURGE="0" COMMENT="" />
    <EXPORT ORDINAL="398" NAME="_ZN3CFF21cff1_top_dict_opset_t10process_opEjRNS_26cff1_top_dict_interp_env_tERNS_22cff1_top_dict_values_tE" PURGE="0" COMMENT="" />
    <EXPORT ORDINAL="399" NAME="_ZN3CFF7opset_tINS_8number_tEE10process_opEjRNS_12interp_env_tIS1_EE" PURGE="0" COMMENT="" />
    <EXPORT ORDINAL="400" NAME="_ZN9hb_blob_t17try_make_writableEv" PURGE="0" COMMENT="" />
    <EXPORT ORDINAL="401" NAME="_ZN9hb_blob_t25try_make_writable_inplaceEv" PURGE="0" COMMENT="" />
    <EXPORT ORDINAL="402" NAME="_ZN9hb_blob_t30try_make_writable_inplace_unixEv" PURGE="0" COMMENT="" />
    <EXPORT ORDINAL="403" NAME="_ZN9hb_font_t12has_func_setEj" PURGE="0" COMMENT="" />
    <EXPORT ORDINAL="404" NAME="_ZN9hb_font_t13mults_changedEv" PURGE="0" COMMENT="" />
    <EXPORT ORDINAL="405" NAME="_ZN9hb_font_t19scale_glyph_extentsEP18hb_glyph_extents_t" PURGE="0" COMMENT="" />
    <EXPORT ORDINAL="406" NAME="_ZN9hb_font_t30get_glyph_origin_for_directionEj14hb_direction_tPiS1_" PURGE="0" COMMENT="" />
    <EXPORT ORDINAL="407" NAME="_ZN9hb_font_t32get_glyph_v_origin_with_fallbackEjPiS0_" PURGE="0" COMMENT="" />
    <EXPORT ORDINAL="408" NAME="_ZN9hb_font_t34get_glyph_contour_point_for_originEjj14hb_direction_tPiS1_" PURGE="0" COMMENT="" />
    <EXPORT ORDINAL="409" NAME="_ZN9hb_font_t8has_funcEj" PURGE="0" COMMENT="" />
    <EXPORT ORDINAL="410" NAME="_ZN9hb_pool_tIN22hb_serialize_context_t8object_tELj32EE5allocEv" PURGE="0" COMMENT="" />
    <EXPORT ORDINAL="411" NAME="_ZNK11hb_ot_map_t10substituteEPK18hb_ot_shape_plan_tP9hb_font_tP11hb_buffer_t" PURGE="0" COMMENT="" />
    <EXPORT ORDINAL="412" NAME="_ZNK11hb_ot_map_t15collect_lookupsEjP8hb_set_t" PURGE="0" COMMENT="" />
    <EXPORT ORDINAL="413" NAME="_ZNK11hb_ot_map_t5applyI9GPOSProxyEEvRKT_PK18hb_ot_shape_plan_tP9hb_font_tP11hb_buffer_t" PURGE="0" COMMENT="" />
    <EXPORT ORDINAL="414" NAME="_ZNK11hb_ot_map_t5applyI9GSUBProxyEEvRKT_PK18hb_ot_shape_plan_tP9hb_font_tP11hb_buffer_t" PURGE="0" COMMENT="" />
    <EXPORT ORDINAL="415" NAME="_ZNK11hb_ot_map_t8positionEPK18hb_ot_shape_plan_tP9hb_font_tP11hb_buffer_t" PURGE="0" COMMENT="" />
    <EXPORT ORDINAL="416" NAME="_ZNK12hb_bit_set_t18next_many_invertedEjPjj" PURGE="0" COMMENT="" />
    <EXPORT ORDINAL="417" NAME="_ZNK12hb_bit_set_t3getEj" PURGE="0" COMMENT="" />
    <EXPORT ORDINAL="418" NAME="_ZNK12hb_bit_set_t4nextEPj" PURGE="0" COMMENT="" />
    <EXPORT ORDINAL="419" NAME="_ZNK12hb_bit_set_t8is_equalERKS_" PURGE="0" COMMENT="" />
    <EXPORT ORDINAL="420" NAME="_ZNK12hb_bit_set_t8previousEPj" PURGE="0" COMMENT="" />
    <EXPORT ORDINAL="421" NAME="_ZNK12hb_bit_set_t9is_subsetERKS_" PURGE="0" COMMENT="" />
    <EXPORT ORDINAL="422" NAME="_ZNK12hb_bit_set_t9next_manyEjPjj" PURGE="0" COMMENT="" />
    <EXPORT ORDINAL="423" NAME="_ZNK12hb_hashmap_tIj17face_table_info_tLb0EE6item_t7is_realEv" PURGE="0" COMMENT="" />
    <EXPORT ORDINAL="424" NAME="_ZNK12hb_hashmap_tIj17face_table_info_tLb0EE6item_t8get_pairEv" PURGE="0" COMMENT="" />
    <EXPORT ORDINAL="425" NAME="_ZNK12hb_hashmap_tIjjLb1EE6item_t7is_realEv" PURGE="0" COMMENT="" />
    <EXPORT ORDINAL="426" NAME="_ZNK12hb_hashmap_tIjjLb1EE6item_t8get_pairEv" PURGE="0" COMMENT="" />
    <EXPORT ORDINAL="427" NAME="_ZNK12hb_hashmap_tIjjLb1EE8is_equalERKS0_" PURGE="0" COMMENT="" />
    <EXPORT ORDINAL="428" NAME="_ZNK12hb_outline_t12control_areaEv" PURGE="0" COMMENT="" />
    <EXPORT ORDINAL="429" NAME="_ZNK12hb_outline_t6replayEP15hb_draw_funcs_tPv" PURGE="0" COMMENT="" />
    <EXPORT ORDINAL="430" NAME="_ZNK16hb_lazy_loader_tIN2OT18GPOS_accelerator_tE21hb_face_lazy_loader_tIS1_Lj26EE9hb_face_tLj26ES1_E10get_storedEv" PURGE="0" COMMENT="" />
    <EXPORT ORDINAL="431" NAME="_ZNK16hb_lazy_loader_tIN2OT18GSUB_accelerator_tE21hb_face_lazy_loader_tIS1_Lj25EE9hb_face_tLj25ES1_E10get_storedEv" PURGE="0" COMMENT="" />
    <EXPORT ORDINAL="432" NAME="_ZNK16hb_lazy_loader_tIN2OT18cff2_accelerator_tE21hb_face_lazy_loader_tIS1_Lj17EE9hb_face_tLj17ES1_E10get_storedEv" PURGE="0" COMMENT="" />
    <EXPORT ORDINAL="433" NAME="_ZNK16hb_lazy_loader_tIN2OT3OS2E22hb_table_lazy_loader_tIS1_Lj6ELb1EE9hb_face_tLj6E9hb_blob_tE3getEv" PURGE="0" COMMENT="" />
    <EXPORT ORDINAL="434" NAME="_ZNK16hb_lazy_loader_tIN2OT4COLRE22hb_table_lazy_loader_tIS1_Lj35ELb1EE9hb_face_tLj35E9hb_blob_tE3getEv" PURGE="0" COMMENT="" />
    <EXPORT ORDINAL="435" NAME="_ZNK16hb_lazy_loader_tIN2OT4CPALE22hb_table_lazy_loader_tIS1_Lj36ELb1EE9hb_face_tLj36E9hb_blob_tE3getEv" PURGE="0" COMMENT="" />
    <EXPORT ORDINAL="436" NAME="_ZNK16hb_lazy_loader_tIN2OT4MVARE22hb_table_lazy_loader_tIS1_Lj22ELb1EE9hb_face_tLj22E9hb_blob_tE3getEv" PURGE="0" COMMENT="" />
    <EXPORT ORDINAL="437" NAME="_ZNK16hb_lazy_loader_tIN2OT4avarE22hb_table_lazy_loader_tIS1_Lj19ELb1EE9hb_face_tLj19E9hb_blob_tE3getEv" PURGE="0" COMMENT="" />
    <EXPORT ORDINAL="438" NAME="_ZNK16hb_lazy_loader_tIN2OT4fvarE22hb_table_lazy_loader_tIS1_Lj18ELb1EE9hb_face_tLj18E9hb_blob_tE3getEv" PURGE="0" COMMENT="" />
    <EXPORT ORDINAL="439" NAME="_ZNK16hb_lazy_loader_tIN2OT4headE22hb_table_lazy_loader_tIS1_Lj1ELb1EE9hb_face_tLj1E9hb_blob_tE3getEv" PURGE="0" COMMENT="" />
    <EXPORT ORDINAL="440" NAME="_ZNK16hb_lazy_loader_tIN3AAT4featE22hb_table_lazy_loader_tIS1_Lj34ELb0EE9hb_face_tLj34E9hb_blob_tE3getEv" PURGE="0" COMMENT="" />
    <EXPORT ORDINAL="441" NAME="_ZNK18hb_ot_shape_plan_t10substituteEP9hb_font_tP11hb_buffer_t" PURGE="0" COMMENT="" />
    <EXPORT ORDINAL="442" NAME="_ZNK18hb_ot_shape_plan_t8positionEP9hb_font_tP11hb_buffer_t" PURGE="0" COMMENT="" />
    <EXPORT ORDINAL="443" NAME="_ZNK21hb_sanitize_context_t11check_rangeEPKvj" PURGE="0" COMMENT="" />
    <EXPORT ORDINAL="444" NAME="_ZNK23hb_bit_set_invertible_t14get_populationEv" PURGE="0" COMMENT="" />
    <EXPORT ORDINAL="445" NAME="_ZNK23hb_bit_set_invertible_t4nextEPj" PURGE="0" COMMENT="" />
    <EXPORT ORDINAL="446" NAME="_ZNK2OT10BaseScript8sanitizeEP21hb_sanitize_context_t" PURGE="0" COMMENT="" />
    <EXPORT ORDINAL="447" NAME="_ZNK2OT10PaintGlyph11paint_glyphEPNS_18hb_paint_context_tE" PURGE="-1" COMMENT="" />
    <EXPORT ORDINAL="448" NAME="_ZNK2OT10PaintScale11paint_glyphEPNS_18hb_paint_context_tEj" PURGE="0" COMMENT="" />
    <EXPORT ORDINAL="449" NAME="_ZNK2OT10SBIXStrike14get_glyph_blobEjP9hb_blob_tjPiS3_jPj" PURGE="0" COMMENT="" />
    <EXPORT ORDINAL="450" NAME="_ZNK2OT10avarV2Tail8sanitizeEP21hb_sanitize_context_tPKv" PURGE="0" COMMENT="" />
    <EXPORT ORDINAL="451" NAME="_ZNK2OT11SegmentMaps3mapEijj" PURGE="0" COMMENT="" />
    <EXPORT ORDINAL="452" NAME="_ZNK2OT12ChainContext8dispatchI21hb_sanitize_context_tJEEENT_8return_tEPS3_DpOT0_" PURGE="0" COMMENT="" />
    <EXPORT ORDINAL="453" NAME="_ZNK2OT12ChainContext8dispatchINS_24hb_would_apply_context_tEJEEENT_8return_tEPS3_DpOT0_" PURGE="0" COMMENT="" />
    <EXPORT ORDINAL="454" NAME="_ZNK2OT12ChainRuleSetINS_6Layout10SmallTypesEE11would_applyEPNS_24hb_would_apply_context_tERKNS_30ChainContextApplyLookupContextE" PURGE="0" COMMENT="" />
    <EXPORT ORDINAL="455" NAME="_ZNK2OT12ChainRuleSetINS_6Layout10SmallTypesEE5applyEPNS_21hb_ot_apply_context_tERKNS_30ChainContextApplyLookupContextE" PURGE="0" COMMENT="" />
    <EXPORT ORDINAL="456" NAME="_ZNK2OT12CmapSubtable8sanitizeEP21hb_sanitize_context_t" PURGE="0" COMMENT="" />
    <EXPORT ORDINAL="457" NAME="_ZNK2OT12CmapSubtable9get_glyphEjPj" PURGE="0" COMMENT="" />
    <EXPORT ORDINAL="458" NAME="_ZNK2OT12MathVariants16sanitize_offsetsEP21hb_sanitize_context_t" PURGE="0" COMMENT="" />
    <EXPORT ORDINAL="459" NAME="_ZNK2OT13MathGlyphInfo8sanitizeEP21hb_sanitize_context_t" PURGE="0" COMMENT="" />
    <EXPORT ORDINAL="460" NAME="_ZNK2OT13VarRegionList8evaluateEjPKijPf" PURGE="0" COMMENT="" />
    <EXPORT ORDINAL="461" NAME="_ZNK2OT14ClipBoxFormat212get_clip_boxERNS_11ClipBoxDataERKNS_17VarStoreInstancerE" PURGE="0" COMMENT="" />
    <EXPORT ORDINAL="462" NAME="_ZNK2OT14ContextFormat37closureEPNS_20hb_closure_context_tE" PURGE="0" COMMENT="" />
    <EXPORT ORDINAL="463" NAME="_ZNK2OT14GDEFVersion1_2INS_6Layout10SmallTypesEE8sanitizeEP21hb_sanitize_context_t" PURGE="0" COMMENT="" />
    <EXPORT ORDINAL="464" NAME="_ZNK2OT14PaintColrGlyph11paint_glyphEPNS_18hb_paint_context_tE" PURGE="0" COMMENT="" />
    <EXPORT ORDINAL="465" NAME="_ZNK2OT14PaintTransformINS_10NoVariableEE8sanitizeEP21hb_sanitize_context_t" PURGE="0" COMMENT="" />
    <EXPORT ORDINAL="466" NAME="_ZNK2OT14PaintTransformINS_8VariableEE8sanitizeEP21hb_sanitize_context_t" PURGE="0" COMMENT="" />
    <EXPORT ORDINAL="467" NAME="_ZNK2OT14PaintTranslate11paint_glyphEPNS_18hb_paint_context_tEj" PURGE="0" COMMENT="" />
    <EXPORT ORDINAL="468" NAME="_ZNK2OT14UnsizedArrayOfINS_14ResourceRecordEE8sanitizeIJRPKvEEEbP21hb_sanitize_context_tjDpOT_" PURGE="0" COMMENT="" />
    <EXPORT ORDINAL="469" NAME="_ZNK2OT14UnsizedArrayOfINS_19IndexSubtableRecordEE8sanitizeIJPKNS_18IndexSubtableArrayEEEEbP21hb_sanitize_context_tjDpOT_" PURGE="0" COMMENT="" />
    <EXPORT ORDINAL="470" NAME="_ZNK2OT14UnsizedArrayOfINS_8OffsetToINS_7ArrayOfIN3AAT6AnchorENS_7IntTypeIjLj4EEEEENS5_ItLj2EEELb0EEEE8sanitizeIJRPKvEEEbP21hb_sanitize_context_tjDpOT_" PURGE="0" COMMENT="" />
    <EXPORT ORDINAL="471" NAME="_ZNK2OT14UnsizedArrayOfINS_8OffsetToINS_9AxisValueENS_7IntTypeItLj2EEELb1EEEE8sanitizeIJPKNS_20AxisValueOffsetArrayEEEEbP21hb_sanitize_context_tjDpOT_" PURGE="0" COMMENT="" />
    <EXPORT ORDINAL="472" NAME="_ZNK2OT15MathValueRecord11get_x_valueEP9hb_font_tPKv" PURGE="0" COMMENT="" />
    <EXPORT ORDINAL="473" NAME="_ZNK2OT15MathValueRecord11get_y_valueEP9hb_font_tPKv" PURGE="0" COMMENT="" />
    <EXPORT ORDINAL="474" NAME="_ZNK2OT15MathValueRecord8sanitizeEP21hb_sanitize_context_tPKv" PURGE="0" COMMENT="" />
    <EXPORT ORDINAL="475" NAME="_ZNK2OT15PaintColrLayers11paint_glyphEPNS_18hb_paint_context_tE" PURGE="0" COMMENT="" />
    <EXPORT ORDINAL="476" NAME="_ZNK2OT16ContextFormat1_4INS_6Layout10SmallTypesEE7closureEPNS_20hb_closure_context_tE" PURGE="0" COMMENT="" />
    <EXPORT ORDINAL="477" NAME="_ZNK2OT16ContextFormat2_5INS_6Layout10SmallTypesEE7closureEPNS_20hb_closure_context_tE" PURGE="0" COMMENT="" />
    <EXPORT ORDINAL="478" NAME="_ZNK2OT16OpenTypeFontFile14get_face_countEv" PURGE="0" COMMENT="" />
    <EXPORT ORDINAL="479" NAME="_ZNK2OT16OpenTypeFontFile8get_faceEjPj" PURGE="0" COMMENT="" />
    <EXPORT ORDINAL="480" NAME="_ZNK2OT16OpenTypeFontFile8sanitizeEP21hb_sanitize_context_t" PURGE="0" COMMENT="" />
    <EXPORT ORDINAL="481" NAME="_ZNK2OT17ClassDefFormat2_4INS_6Layout10SmallTypesEE24intersected_class_glyphsEPK8hb_set_tjPS4_" PURGE="0" COMMENT="" />
    <EXPORT ORDINAL="482" NAME="_ZNK2OT17FeatureVariations15collect_lookupsEPK8hb_set_tPK12hb_hashmap_tIjPKNS_7FeatureELb0EEPS1_" PURGE="0" COMMENT="" />
    <EXPORT ORDINAL="483" NAME="_ZNK2OT17MathGlyphAssembly9get_partsE14hb_direction_tP9hb_font_tjPjP23hb_ot_math_glyph_part_tPi" PURGE="0" COMMENT="" />
    <EXPORT ORDINAL="484" NAME="_ZNK2OT17VarStoreInstancerclEjt" PURGE="0" COMMENT="" />
    <EXPORT ORDINAL="485" NAME="_ZNK2OT17hb_kern_machine_tI34hb_ot_shape_fallback_kern_driver_tE4kernEP9hb_font_tP11hb_buffer_tjb" PURGE="0" COMMENT="" />
    <EXPORT ORDINAL="486" NAME="_ZNK2OT17hb_kern_machine_tIN3AAT19KerxSubTableFormat0INS1_18KerxSubTableHeaderEE13accelerator_tEE4kernEP9hb_font_tP11hb_buffer_tjb" PURGE="0" COMMENT="" />
    <EXPORT ORDINAL="487" NAME="_ZNK2OT17hb_kern_machine_tIN3AAT19KerxSubTableFormat0INS_20KernOTSubTableHeaderEE13accelerator_tEE4kernEP9hb_font_tP11hb_buffer_tjb" PURGE="0" COMMENT="" />
    <EXPORT ORDINAL="488" NAME="_ZNK2OT17hb_kern_machine_tIN3AAT19KerxSubTableFormat0INS_21KernAATSubTableHeaderEE13accelerator_tEE4kernEP9hb_font_tP11hb_buffer_tjb" PURGE="0" COMMENT="" />
    <EXPORT ORDINAL="489" NAME="_ZNK2OT17hb_kern_machine_tIN3AAT19KerxSubTableFormat2INS1_18KerxSubTableHeaderEE13accelerator_tEE4kernEP9hb_font_tP11hb_buffer_tjb" PURGE="0" COMMENT="" />
    <EXPORT ORDINAL="490" NAME="_ZNK2OT17hb_kern_machine_tIN3AAT19KerxSubTableFormat2INS_20KernOTSubTableHeaderEE13accelerator_tEE4kernEP9hb_font_tP11hb_buffer_tjb" PURGE="0" COMMENT="" />
    <EXPORT ORDINAL="491" NAME="_ZNK2OT17hb_kern_machine_tIN3AAT19KerxSubTableFormat2INS_21KernAATSubTableHeaderEE13accelerator_tEE4kernEP9hb_font_tP11hb_buffer_tjb" PURGE="0" COMMENT="" />
    <EXPORT ORDINAL="492" NAME="_ZNK2OT17hb_kern_machine_tIN3AAT19KerxSubTableFormat6INS1_18KerxSubTableHeaderEE13accelerator_tEE4kernEP9hb_font_tP11hb_buffer_tjb" PURGE="0" COMMENT="" />
    <EXPORT ORDINAL="493" NAME="_ZNK2OT17hb_kern_machine_tINS_19KernSubTableFormat3INS_21KernAATSubTableHeaderEEEE4kernEP9hb_font_tP11hb_buffer_tjb" PURGE="0" COMMENT="" />
    <EXPORT ORDINAL="494" NAME="_ZNK2OT18GSUBGPOSVersion1_2INS_6Layout10SmallTypesEE8sanitizeINS1_9GPOS_impl9PosLookupEEEbP21hb_sanitize_context_t" PURGE="0" COMMENT="" />
    <EXPORT ORDINAL="495" NAME="_ZNK2OT18GSUBGPOSVersion1_2INS_6Layout10SmallTypesEE8sanitizeINS1_9GSUB_impl11SubstLookupEEEbP21hb_sanitize_context_t" PURGE="0" COMMENT="" />
    <EXPORT ORDINAL="496" NAME="_ZNK2OT18PaintSweepGradientINS_10NoVariableEE11paint_glyphEPNS_18hb_paint_context_tEj" PURGE="0" COMMENT="" />
    <EXPORT ORDINAL="497" NAME="_ZNK2OT18PaintSweepGradientINS_8VariableEE11paint_glyphEPNS_18hb_paint_context_tEj" PURGE="0" COMMENT="" />
    <EXPORT ORDINAL="498" NAME="_ZNK2OT18ResourceForkHeader8sanitizeEP21hb_sanitize_context_t" PURGE="0" COMMENT="" />
    <EXPORT ORDINAL="499" NAME="_ZNK2OT18glyf_accelerator_t10get_pointsINS0_19points_aggregator_tEEEbP9hb_font_tjT_" PURGE="0" COMMENT="" />
    <EXPORT ORDINAL="500" NAME="_ZNK2OT18glyf_accelerator_t13glyph_for_gidEjb" PURGE="0" COMMENT="" />
    <EXPORT ORDINAL="501" NAME="_ZNK2OT19ChainContextFormat37closureEPNS_20hb_closure_context_tE" PURGE="0" COMMENT="" />
    <EXPORT ORDINAL="502" NAME="_ZNK2OT19CmapSubtableFormat413accelerator_t15collect_mappingEP8hb_set_tP8hb_map_t" PURGE="0" COMMENT="" />
    <EXPORT ORDINAL="503" NAME="_ZNK2OT19CmapSubtableFormat413accelerator_t16collect_unicodesEP8hb_set_t" PURGE="0" COMMENT="" />
    <EXPORT ORDINAL="504" NAME="_ZNK2OT19CmapSubtableFormat413accelerator_t9get_glyphEjPj" PURGE="0" COMMENT="" />
    <EXPORT ORDINAL="505" NAME="_ZNK2OT19IndexSubtableRecord14get_image_dataEjPKvPjS3_S3_" PURGE="0" COMMENT="" />
    <EXPORT ORDINAL="506" NAME="_ZNK2OT19OpenTypeOffsetTable14get_table_tagsEjPjS1_" PURGE="0" COMMENT="" />
    <EXPORT ORDINAL="507" NAME="_ZNK2OT19PaintLinearGradientINS_10NoVariableEE11paint_glyphEPNS_18hb_paint_context_tEj" PURGE="0" COMMENT="" />
    <EXPORT ORDINAL="508" NAME="_ZNK2OT19PaintLinearGradientINS_8VariableEE11paint_glyphEPNS_18hb_paint_context_tEj" PURGE="0" COMMENT="" />
    <EXPORT ORDINAL="509" NAME="_ZNK2OT19PaintRadialGradientINS_10NoVariableEE11paint_glyphEPNS_18hb_paint_context_tEj" PURGE="0" COMMENT="" />
    <EXPORT ORDINAL="510" NAME="_ZNK2OT19PaintRadialGradientINS_8VariableEE11paint_glyphEPNS_18hb_paint_context_tEj" PURGE="0" COMMENT="" />
    <EXPORT ORDINAL="511" NAME="_ZNK2OT20MarkGlyphSetsFormat16coversEjj" PURGE="0" COMMENT="" />
    <EXPORT ORDINAL="512" NAME="_ZNK2OT21ChainContextFormat1_4INS_6Layout10SmallTypesEE7closureEPNS_20hb_closure_context_tE" PURGE="0" COMMENT="" />
    <EXPORT ORDINAL="513" NAME="_ZNK2OT21ChainContextFormat2_5INS_6Layout10SmallTypesEE7closureEPNS_20hb_closure_context_tE" PURGE="0" COMMENT="" />
    <EXPORT ORDINAL="514" NAME="_ZNK2OT21MathGlyphConstruction12get_variantsE14hb_direction_tP9hb_font_tjPjP26hb_ot_math_glyph_variant_t" PURGE="0" COMMENT="" />
    <EXPORT ORDINAL="515" NAME="_ZNK2OT21PaintSkewAroundCenter11paint_glyphEPNS_18hb_paint_context_tEj" PURGE="0" COMMENT="" />
    <EXPORT ORDINAL="516" NAME="_ZNK2OT21hb_ot_apply_context_t9matcher_t8may_skipEPKS0_RK15hb_glyph_info_t" PURGE="0" COMMENT="" />
    <EXPORT ORDINAL="517" NAME="_ZNK2OT22PaintScaleAroundCenter11paint_glyphEPNS_18hb_paint_context_tEj" PURGE="0" COMMENT="" />
    <EXPORT ORDINAL="518" NAME="_ZNK2OT23IndexSubtableFormat1Or3INS_7IntTypeIjLj4EEEE14get_image_dataEjPjS4_" PURGE="0" COMMENT="" />
    <EXPORT ORDINAL="519" NAME="_ZNK2OT23PaintRotateAroundCenter11paint_glyphEPNS_18hb_paint_context_tEj" PURGE="0" COMMENT="" />
    <EXPORT ORDINAL="520" NAME="_ZNK2OT23VariationSelectorRecord16collect_unicodesEP8hb_set_tPKv" PURGE="0" COMMENT="" />
    <EXPORT ORDINAL="521" NAME="_ZNK2OT24VarSizedBinSearchArrayOfIN3AAT12LookupSingleINS_8OffsetToINS_7ArrayOfINS1_6AnchorENS_7IntTypeIjLj4EEEEENS6_ItLj2EEELb0EEEEEE8sanitizeIJRPKvEEEbP21hb_sanitize_context_tDpOT_" PURGE="0" COMMENT="" />
    <EXPORT ORDINAL="522" NAME="_ZNK2OT24VarSizedBinSearchArrayOfIN3AAT18LookupSegmentArrayINS_11HBGlyphID16EEEE8sanitizeIJPKNS1_13LookupFormat4IS3_EEEEEbP21hb_sanitize_context_tDpOT_" PURGE="0" COMMENT="" />
    <EXPORT ORDINAL="523" NAME="_ZNK2OT24VarSizedBinSearchArrayOfIN3AAT18LookupSegmentArrayINS_7IntTypeIjLj4EEEEEE8sanitizeIJPKNS1_13LookupFormat4IS4_EEEEEbP21hb_sanitize_context_tDpOT_" PURGE="0" COMMENT="" />
    <EXPORT ORDINAL="524" NAME="_ZNK2OT24VarSizedBinSearchArrayOfIN3AAT18LookupSegmentArrayINS_7IntTypeItLj2EEEEEE8sanitizeIJPKNS1_13LookupFormat4IS4_EEEEEbP21hb_sanitize_context_tDpOT_" PURGE="0" COMMENT="" />
    <EXPORT ORDINAL="525" NAME="_ZNK2OT24VarSizedBinSearchArrayOfIN3AAT18LookupSegmentArrayINS_8OffsetToINS_7ArrayOfINS1_6AnchorENS_7IntTypeIjLj4EEEEENS6_ItLj2EEELb0EEEEEE8sanitizeIJPKNS1_13LookupFormat4ISA_EERPKvEEEbP21hb_sanitize_context_tDpOT_" PURGE="0" COMMENT="" />
    <EXPORT ORDINAL="526" NAME="_ZNK2OT24VarSizedBinSearchArrayOfIN3AAT19LookupSegmentSingleINS_8OffsetToINS_7ArrayOfINS1_6AnchorENS_7IntTypeIjLj4EEEEENS6_ItLj2EEELb0EEEEEE8sanitizeIJRPKvEEEbP21hb_sanitize_context_tDpOT_" PURGE="0" COMMENT="" />
    <EXPORT ORDINAL="527" NAME="_ZNK2OT25CmapSubtableLongSegmentedINS_20CmapSubtableFormat12EE15collect_mappingEP8hb_set_tP8hb_map_tj" PURGE="0" COMMENT="" />
    <EXPORT ORDINAL="528" NAME="_ZNK2OT25CmapSubtableLongSegmentedINS_20CmapSubtableFormat12EE16collect_unicodesEP8hb_set_tj" PURGE="0" COMMENT="" />
    <EXPORT ORDINAL="529" NAME="_ZNK2OT25CmapSubtableLongSegmentedINS_20CmapSubtableFormat13EE15collect_mappingEP8hb_set_tP8hb_map_tj" PURGE="0" COMMENT="" />
    <EXPORT ORDINAL="530" NAME="_ZNK2OT25CmapSubtableLongSegmentedINS_20CmapSubtableFormat13EE16collect_unicodesEP8hb_set_tj" PURGE="0" COMMENT="" />
    <EXPORT ORDINAL="531" NAME="_ZNK2OT29PaintScaleUniformAroundCenter11paint_glyphEPNS_18hb_paint_context_tEj" PURGE="0" COMMENT="" />
    <EXPORT ORDINAL="532" NAME="_ZNK2OT33hb_ot_layout_lookup_accelerator_t5applyEPNS_21hb_ot_apply_context_tEjb" PURGE="0" COMMENT="" />
    <EXPORT ORDINAL="533" NAME="_ZNK2OT3OS28sanitizeEP21hb_sanitize_context_t" PURGE="0" COMMENT="" />
    <EXPORT ORDINAL="534" NAME="_ZNK2OT3SVG13accelerator_t24reference_blob_for_glyphEj" PURGE="0" COMMENT="" />
    <EXPORT ORDINAL="535" NAME="_ZNK2OT4BASE8sanitizeEP21hb_sanitize_context_t" PURGE="0" COMMENT="" />
    <EXPORT ORDINAL="536" NAME="_ZNK2OT4CBDT13accelerator_t11get_extentsEP9hb_font_tjP18hb_glyph_extents_tb" PURGE="0" COMMENT="" />
    <EXPORT ORDINAL="537" NAME="_ZNK2OT4CBDT13accelerator_t13reference_pngEP9hb_font_tj" PURGE="0" COMMENT="" />
    <EXPORT ORDINAL="538" NAME="_ZNK2OT4CBLC13choose_strikeEP9hb_font_t" PURGE="0" COMMENT="" />
    <EXPORT ORDINAL="539" NAME="_ZNK2OT4COLR11paint_glyphEP9hb_font_tjP16hb_paint_funcs_tPvjjb" PURGE="0" COMMENT="" />
    <EXPORT ORDINAL="540" NAME="_ZNK2OT4COLR16get_glyph_layersEjjPjP19hb_ot_color_layer_t" PURGE="0" COMMENT="" />
    <EXPORT ORDINAL="541" NAME="_ZNK2OT4COLR20get_base_glyph_paintEj" PURGE="0" COMMENT="" />
    <EXPORT ORDINAL="542" NAME="_ZNK2OT4COLR8get_clipEjP18hb_glyph_extents_tNS_17VarStoreInstancerE" PURGE="0" COMMENT="" />
    <EXPORT ORDINAL="543" NAME="_ZNK2OT4COLR8sanitizeEP21hb_sanitize_context_t" PURGE="0" COMMENT="" />
    <EXPORT ORDINAL="544" NAME="_ZNK2OT4CPAL8sanitizeEP21hb_sanitize_context_t" PURGE="0" COMMENT="" />
    <EXPORT ORDINAL="545" NAME="_ZNK2OT4GDEF14is_blocklistedEP9hb_blob_tP9hb_face_t" PURGE="0" COMMENT="" />
    <EXPORT ORDINAL="546" NAME="_ZNK2OT4GDEF15get_glyph_propsEj" PURGE="0" COMMENT="" />
    <EXPORT ORDINAL="547" NAME="_ZNK2OT4MATH8sanitizeEP21hb_sanitize_context_t" PURGE="0" COMMENT="" />
    <EXPORT ORDINAL="548" NAME="_ZNK2OT4MVAR7get_varEjPKij" PURGE="0" COMMENT="" />
    <EXPORT ORDINAL="549" NAME="_ZNK2OT4MVAR8sanitizeEP21hb_sanitize_context_t" PURGE="0" COMMENT="" />
    <EXPORT ORDINAL="550" NAME="_ZNK2OT4STAT8sanitizeEP21hb_sanitize_context_t" PURGE="0" COMMENT="" />
    <EXPORT ORDINAL="551" NAME="_ZNK2OT4STAT9get_valueEjPf" PURGE="0" COMMENT="" />
    <EXPORT ORDINAL="552" NAME="_ZNK2OT4avar10map_coordsEPij" PURGE="0" COMMENT="" />
    <EXPORT ORDINAL="553" NAME="_ZNK2OT4avar8sanitizeEP21hb_sanitize_context_t" PURGE="0" COMMENT="" />
    <EXPORT ORDINAL="554" NAME="_ZNK2OT4cff113accelerator_t11get_extentsEP9hb_font_tjP18hb_glyph_extents_t" PURGE="0" COMMENT="" />
    <EXPORT ORDINAL="555" NAME="_ZNK2OT4cff113accelerator_t11paint_glyphEP9hb_font_tjP16hb_paint_funcs_tPvj" PURGE="0" COMMENT="" />
    <EXPORT ORDINAL="556" NAME="_ZNK2OT4cff113accelerator_t19get_glyph_from_nameEPKciPj" PURGE="0" COMMENT="" />
    <EXPORT ORDINAL="557" NAME="_ZNK2OT4cff113accelerator_t19get_seac_componentsEjPjS2_" PURGE="0" COMMENT="" />
    <EXPORT ORDINAL="558" NAME="_ZNK2OT4cff113accelerator_t8get_pathEP9hb_font_tjR17hb_draw_session_t" PURGE="0" COMMENT="" />
    <EXPORT ORDINAL="559" NAME="_ZNK2OT4cff119accelerator_templ_tIN3CFF25cff1_private_dict_opset_tENS2_31cff1_private_dict_values_base_tINS2_10dict_val_tEEEE12sid_to_glyphEj" PURGE="0" COMMENT="" />
    <EXPORT ORDINAL="560" NAME="_ZNK2OT4cff119accelerator_templ_tIN3CFF25cff1_private_dict_opset_tENS2_31cff1_private_dict_values_base_tINS2_10dict_val_tEEEE17std_code_to_glyphEj" PURGE="0" COMMENT="" />
    <EXPORT ORDINAL="561" NAME="_ZNK2OT4cff213accelerator_t11get_extentsEP9hb_font_tjP18hb_glyph_extents_t" PURGE="0" COMMENT="" />
    <EXPORT ORDINAL="562" NAME="_ZNK2OT4cff213accelerator_t11paint_glyphEP9hb_font_tjP16hb_paint_funcs_tPvj" PURGE="0" COMMENT="" />
    <EXPORT ORDINAL="563" NAME="_ZNK2OT4cff213accelerator_t8get_pathEP9hb_font_tjR17hb_draw_session_t" PURGE="0" COMMENT="" />
    <EXPORT ORDINAL="564" NAME="_ZNK2OT4cmap13find_subtableEjj" PURGE="0" COMMENT="" />
    <EXPORT ORDINAL="565" NAME="_ZNK2OT4fvar8sanitizeEP21hb_sanitize_context_t" PURGE="0" COMMENT="" />
    <EXPORT ORDINAL="566" NAME="_ZNK2OT4gvar16sanitize_shallowEP21hb_sanitize_context_t" PURGE="0" COMMENT="" />
    <EXPORT ORDINAL="567" NAME="_ZNK2OT4meta13accelerator_t11get_entriesEjPjP16hb_ot_meta_tag_t" PURGE="0" COMMENT="" />
    <EXPORT ORDINAL="568" NAME="_ZNK2OT4name8sanitizeEP21hb_sanitize_context_t" PURGE="0" COMMENT="" />
    <EXPORT ORDINAL="569" NAME="_ZNK2OT4post13accelerator_t19get_glyph_from_nameEPKciPj" PURGE="0" COMMENT="" />
    <EXPORT ORDINAL="570" NAME="_ZNK2OT4post8sanitizeEP21hb_sanitize_context_t" PURGE="0" COMMENT="" />
    <EXPORT ORDINAL="571" NAME="_ZNK2OT4sbix13accelerator_t13choose_strikeEP9hb_font_t" PURGE="0" COMMENT="" />
    <EXPORT ORDINAL="572" NAME="_ZNK2OT4sbix13accelerator_t15get_png_extentsEP9hb_font_tjP18hb_glyph_extents_tb" PURGE="0" COMMENT="" />
    <EXPORT ORDINAL="573" NAME="_ZNK2OT5Paint8dispatchI21hb_sanitize_context_tJEEENT_8return_tEPS3_DpOT0_" PURGE="0" COMMENT="" />
    <EXPORT ORDINAL="574" NAME="_ZNK2OT6Device11get_x_deltaEP9hb_font_tRKNS_14VariationStoreEPf" PURGE="0" COMMENT="" />
    <EXPORT ORDINAL="575" NAME="_ZNK2OT6Device11get_y_deltaEP9hb_font_tRKNS_14VariationStoreEPf" PURGE="0" COMMENT="" />
    <EXPORT ORDINAL="576" NAME="_ZNK2OT6Layout4GPOS14is_blocklistedEP9hb_blob_tP9hb_face_t" PURGE="0" COMMENT="" />
    <EXPORT ORDINAL="577" NAME="_ZNK2OT6Layout4GSUB14is_blocklistedEP9hb_blob_tP9hb_face_t" PURGE="0" COMMENT="" />
    <EXPORT ORDINAL="578" NAME="_ZNK2OT6Layout6Common8Coverage10intersectsEPK8hb_set_t" PURGE="0" COMMENT="" />
    <EXPORT ORDINAL="579" NAME="_ZNK2OT6Layout6Common8Coverage12get_coverageEj" PURGE="0" COMMENT="" />
    <EXPORT ORDINAL="580" NAME="_ZNK2OT6Layout6Common8Coverage13intersect_setIR8hb_set_tLPv0EEEvRKS4_OT_" PURGE="0" COMMENT="" />
    <EXPORT ORDINAL="581" NAME="_ZNK2OT6Layout6Common8Coverage16collect_coverageI8hb_set_tEEbPT_" PURGE="0" COMMENT="" />
    <EXPORT ORDINAL="582" NAME="_ZNK2OT6Layout9GPOS_impl11ValueFormat11apply_valueEPNS_21hb_ot_apply_context_tEPKvPKNS_7IntTypeItLj2EEER19hb_glyph_position_t" PURGE="0" COMMENT="" />
    <EXPORT ORDINAL="583" NAME="_ZNK2OT6Layout9GPOS_impl11ValueFormat22sanitize_value_devicesEP21hb_sanitize_context_tPKvPKNS_7IntTypeItLj2EEE" PURGE="0" COMMENT="" />
    <EXPORT ORDINAL="584" NAME="_ZNK2OT6Layout9GPOS_impl11ValueFormat29sanitize_values_stride_unsafeEP21hb_sanitize_context_tPKvPKNS_7IntTypeItLj2EEEjj" PURGE="0" COMMENT="" />
    <EXPORT ORDINAL="585" NAME="_ZNK2OT6Layout9GPOS_impl16PairPosFormat2_4INS0_10SmallTypesEE14collect_glyphsEPNS_27hb_collect_glyphs_context_tE" PURGE="0" COMMENT="" />
    <EXPORT ORDINAL="586" NAME="_ZNK2OT6Layout9GPOS_impl16PairPosFormat2_4INS0_10SmallTypesEE5applyEPNS_21hb_ot_apply_context_tE" PURGE="0" COMMENT="" />
    <EXPORT ORDINAL="587" NAME="_ZNK2OT6Layout9GPOS_impl16PairPosFormat2_4INS0_10SmallTypesEE8sanitizeEP21hb_sanitize_context_t" PURGE="0" COMMENT="" />
    <EXPORT ORDINAL="588" NAME="_ZNK2OT6Layout9GPOS_impl16SinglePosFormat215position_singleEP9hb_font_t14hb_direction_tjR19hb_glyph_position_t" PURGE="0" COMMENT="" />
    <EXPORT ORDINAL="589" NAME="_ZNK2OT6Layout9GPOS_impl17CursivePosFormat15applyEPNS_21hb_ot_apply_context_tE" PURGE="0" COMMENT="" />
    <EXPORT ORDINAL="590" NAME="_ZNK2OT6Layout9GPOS_impl17PosLookupSubTable8dispatchI21hb_sanitize_context_tJEEENT_8return_tEPS5_jDpOT0_" PURGE="0" COMMENT="" />
    <EXPORT ORDINAL="591" NAME="_ZNK2OT6Layout9GPOS_impl19MarkLigPosFormat1_2INS0_10SmallTypesEE5applyEPNS_21hb_ot_apply_context_tE" PURGE="0" COMMENT="" />
    <EXPORT ORDINAL="592" NAME="_ZNK2OT6Layout9GPOS_impl19MarkLigPosFormat1_2INS0_10SmallTypesEE8sanitizeEP21hb_sanitize_context_t" PURGE="0" COMMENT="" />
    <EXPORT ORDINAL="593" NAME="_ZNK2OT6Layout9GPOS_impl20MarkBasePosFormat1_2INS0_10SmallTypesEE5applyEPNS_21hb_ot_apply_context_tE" PURGE="0" COMMENT="" />
    <EXPORT ORDINAL="594" NAME="_ZNK2OT6Layout9GPOS_impl20MarkMarkPosFormat1_2INS0_10SmallTypesEE5applyEPNS_21hb_ot_apply_context_tE" PURGE="0" COMMENT="" />
    <EXPORT ORDINAL="595" NAME="_ZNK2OT6Layout9GPOS_impl6Anchor10get_anchorEPNS_21hb_ot_apply_context_tEjPfS5_" PURGE="0" COMMENT="" />
    <EXPORT ORDINAL="596" NAME="_ZNK2OT6Layout9GPOS_impl7PairSetINS0_10SmallTypesEE5applyEPNS_21hb_ot_apply_context_tEPKNS1_11ValueFormatEj" PURGE="0" COMMENT="" />
    <EXPORT ORDINAL="597" NAME="_ZNK2OT6Layout9GPOS_impl9MarkArray5applyEPNS_21hb_ot_apply_context_tEjjRKNS1_12AnchorMatrixEjj" PURGE="0" COMMENT="" />
    <EXPORT ORDINAL="598" NAME="_ZNK2OT6Layout9GPOS_impl9SinglePos8dispatchI21hb_sanitize_context_tJEEENT_8return_tEPS5_DpOT0_" PURGE="0" COMMENT="" />
    <EXPORT ORDINAL="599" NAME="_ZNK2OT6Layout9GSUB_impl12AlternateSetINS0_10SmallTypesEE5applyEPNS_21hb_ot_apply_context_tE" PURGE="0" COMMENT="" />
    <EXPORT ORDINAL="600" NAME="_ZNK2OT6Layout9GSUB_impl19SubstLookupSubTable8dispatchI21hb_sanitize_context_tJEEENT_8return_tEPS5_jDpOT0_" PURGE="0" COMMENT="" />
    <EXPORT ORDINAL="601" NAME="_ZNK2OT6Layout9GSUB_impl19SubstLookupSubTable8dispatchINS_24hb_would_apply_context_tEJEEENT_8return_tEPS5_jDpOT0_" PURGE="0" COMMENT="" />
    <EXPORT ORDINAL="602" NAME="_ZNK2OT6Layout9GSUB_impl20SingleSubstFormat1_3INS0_10SmallTypesEE7closureEPNS_20hb_closure_context_tE" PURGE="0" COMMENT="" />
    <EXPORT ORDINAL="603" NAME="_ZNK2OT6Layout9GSUB_impl20SingleSubstFormat2_4INS0_10SmallTypesEE14collect_glyphsEPNS_27hb_collect_glyphs_context_tE" PURGE="0" COMMENT="" />
    <EXPORT ORDINAL="604" NAME="_ZNK2OT6Layout9GSUB_impl20SingleSubstFormat2_4INS0_10SmallTypesEE7closureEPNS_20hb_closure_context_tE" PURGE="0" COMMENT="" />
    <EXPORT ORDINAL="605" NAME="_ZNK2OT6Layout9GSUB_impl22LigatureSubstFormat1_2INS0_10SmallTypesEE11would_applyEPNS_24hb_would_apply_context_tE" PURGE="0" COMMENT="" />
    <EXPORT ORDINAL="606" NAME="_ZNK2OT6Layout9GSUB_impl22LigatureSubstFormat1_2INS0_10SmallTypesEE14collect_glyphsEPNS_27hb_collect_glyphs_context_tE" PURGE="0" COMMENT="" />
    <EXPORT ORDINAL="607" NAME="_ZNK2OT6Layout9GSUB_impl22LigatureSubstFormat1_2INS0_10SmallTypesEE7closureEPNS_20hb_closure_context_tE" PURGE="0" COMMENT="" />
    <EXPORT ORDINAL="608" NAME="_ZNK2OT6Layout9GSUB_impl22MultipleSubstFormat1_2INS0_10SmallTypesEE14collect_glyphsEPNS_27hb_collect_glyphs_context_tE" PURGE="0" COMMENT="" />
    <EXPORT ORDINAL="609" NAME="_ZNK2OT6Layout9GSUB_impl22MultipleSubstFormat1_2INS0_10SmallTypesEE7closureEPNS_20hb_closure_context_tE" PURGE="0" COMMENT="" />
    <EXPORT ORDINAL="610" NAME="_ZNK2OT6Layout9GSUB_impl23AlternateSubstFormat1_2INS0_10SmallTypesEE14collect_glyphsEPNS_27hb_collect_glyphs_context_tE" PURGE="0" COMMENT="" />
    <EXPORT ORDINAL="611" NAME="_ZNK2OT6Layout9GSUB_impl23AlternateSubstFormat1_2INS0_10SmallTypesEE20get_glyph_alternatesEjjPjS5_" PURGE="0" COMMENT="" />
    <EXPORT ORDINAL="612" NAME="_ZNK2OT6Layout9GSUB_impl23AlternateSubstFormat1_2INS0_10SmallTypesEE7closureEPNS_20hb_closure_context_tE" PURGE="0" COMMENT="" />
    <EXPORT ORDINAL="613" NAME="_ZNK2OT6Layout9GSUB_impl30ReverseChainSingleSubstFormat114collect_glyphsEPNS_27hb_collect_glyphs_context_tE" PURGE="0" COMMENT="" />
    <EXPORT ORDINAL="614" NAME="_ZNK2OT6Layout9GSUB_impl30ReverseChainSingleSubstFormat15applyEPNS_21hb_ot_apply_context_tE" PURGE="0" COMMENT="" />
    <EXPORT ORDINAL="615" NAME="_ZNK2OT6Layout9GSUB_impl30ReverseChainSingleSubstFormat17closureEPNS_20hb_closure_context_tE" PURGE="0" COMMENT="" />
    <EXPORT ORDINAL="616" NAME="_ZNK2OT6Layout9GSUB_impl8LigatureINS0_10SmallTypesEE5applyEPNS_21hb_ot_apply_context_tE" PURGE="0" COMMENT="" />
    <EXPORT ORDINAL="617" NAME="_ZNK2OT6Layout9GSUB_impl8SequenceINS0_10SmallTypesEE5applyEPNS_21hb_ot_apply_context_tE" PURGE="0" COMMENT="" />
    <EXPORT ORDINAL="618" NAME="_ZNK2OT6Lookup12get_subtableINS_6Layout9GSUB_impl19SubstLookupSubTableEEERKT_j" PURGE="0" COMMENT="" />
    <EXPORT ORDINAL="619" NAME="_ZNK2OT6Lookup8sanitizeINS_6Layout9GPOS_impl17PosLookupSubTableEEEbP21hb_sanitize_context_t" PURGE="0" COMMENT="" />
    <EXPORT ORDINAL="620" NAME="_ZNK2OT6Lookup8sanitizeINS_6Layout9GSUB_impl19SubstLookupSubTableEEEbP21hb_sanitize_context_t" PURGE="0" COMMENT="" />
    <EXPORT ORDINAL="621" NAME="_ZNK2OT6MinMax8sanitizeEP21hb_sanitize_context_t" PURGE="0" COMMENT="" />
    <EXPORT ORDINAL="622" NAME="_ZNK2OT7ArrayOfINS_10ClipRecordENS_7IntTypeIjLj4EEEE8sanitizeIJPKNS_8ClipListEEEEbP21hb_sanitize_context_tDpOT_" PURGE="0" COMMENT="" />
    <EXPORT ORDINAL="623" NAME="_ZNK2OT7ArrayOfINS_11HBGlyphID16ENS_7IntTypeItLj2EEEE16sanitize_shallowEP21hb_sanitize_context_t" PURGE="0" COMMENT="" />
    <EXPORT ORDINAL="624" NAME="_ZNK2OT7ArrayOfINS_14EncodingRecordENS_7IntTypeItLj2EEEE8sanitizeIJPKNS_4cmapEEEEbP21hb_sanitize_context_tDpOT_" PURGE="0" COMMENT="" />
    <EXPORT ORDINAL="625" NAME="_ZNK2OT7ArrayOfINS_15BitmapSizeTableENS_7IntTypeIjLj4EEEE8sanitizeIJPKNS_4CBLCEEEEbP21hb_sanitize_context_tDpOT_" PURGE="0" COMMENT="" />
    <EXPORT ORDINAL="626" NAME="_ZNK2OT7ArrayOfINS_16BaseScriptRecordENS_7IntTypeItLj2EEEE8sanitizeIJPKNS_14BaseScriptListEEEEbP21hb_sanitize_context_tDpOT_" PURGE="0" COMMENT="" />
    <EXPORT ORDINAL="627" NAME="_ZNK2OT7ArrayOfINS_18MathKernInfoRecordENS_7IntTypeItLj2EEEE8sanitizeIJPKNS_12MathKernInfoEEEEbP21hb_sanitize_context_tDpOT_" PURGE="0" COMMENT="" />
    <EXPORT ORDINAL="628" NAME="_ZNK2OT7ArrayOfINS_22FeatureVariationRecordENS_7IntTypeIjLj4EEEE8sanitizeIJPKNS_17FeatureVariationsEEEEbP21hb_sanitize_context_tDpOT_" PURGE="0" COMMENT="" />
    <EXPORT ORDINAL="629" NAME="_ZNK2OT7ArrayOfINS_23VariationSelectorRecordENS_7IntTypeIjLj4EEEE8sanitizeIJPKNS_20CmapSubtableFormat14EEEEbP21hb_sanitize_context_tDpOT_" PURGE="0" COMMENT="" />
    <EXPORT ORDINAL="630" NAME="_ZNK2OT7ArrayOfINS_30FeatureTableSubstitutionRecordENS_7IntTypeItLj2EEEE8sanitizeIJPKNS_24FeatureTableSubstitutionEEEEbP21hb_sanitize_context_tDpOT_" PURGE="0" COMMENT="" />
    <EXPORT ORDINAL="631" NAME="_ZNK2OT7ArrayOfINS_6RecordINS_6ScriptEEENS_7IntTypeItLj2EEEE8sanitizeIJPKNS_12RecordListOfIS2_EEEEEbP21hb_sanitize_context_tDpOT_" PURGE="0" COMMENT="" />
    <EXPORT ORDINAL="632" NAME="_ZNK2OT7ArrayOfINS_6RecordINS_7FeatureEEENS_7IntTypeItLj2EEEE8sanitizeIJPKNS_12RecordListOfIS2_EEEEEbP21hb_sanitize_context_tDpOT_" PURGE="0" COMMENT="" />
    <EXPORT ORDINAL="633" NAME="_ZNK2OT7ArrayOfINS_6RecordINS_7LangSysEEENS_7IntTypeItLj2EEEE8sanitizeIJPKNS_6ScriptEEEEbP21hb_sanitize_context_tDpOT_" PURGE="0" COMMENT="" />
    <EXPORT ORDINAL="634" NAME="_ZNK2OT7ArrayOfINS_7DataMapENS_7IntTypeIjLj4EEEE8sanitizeIJPKNS_4metaEEEEbP21hb_sanitize_context_tDpOT_" PURGE="0" COMMENT="" />
    <EXPORT ORDINAL="635" NAME="_ZNK2OT7ArrayOfINS_7IntTypeItLj2EEES2_E16sanitize_shallowEP21hb_sanitize_context_t" PURGE="0" COMMENT="" />
    <EXPORT ORDINAL="636" NAME="_ZNK2OT7ArrayOfINS_8OffsetToINS_10CaretValueENS_7IntTypeItLj2EEELb1EEES4_E8sanitizeIJPKNS_8LigGlyphEEEEbP21hb_sanitize_context_tDpOT_" PURGE="0" COMMENT="" />
    <EXPORT ORDINAL="637" NAME="_ZNK2OT7ArrayOfINS_8OffsetToINS_10SBIXStrikeENS_7IntTypeIjLj4EEELb1EEES4_E8sanitizeIJPKNS_4sbixEEEEbP21hb_sanitize_context_tDpOT_" PURGE="0" COMMENT="" />
    <EXPORT ORDINAL="638" NAME="_ZNK2OT7ArrayOfINS_8OffsetToINS_19OpenTypeOffsetTableENS_7IntTypeIjLj4EEELb1EEES4_E8sanitizeIJPKNS_17TTCHeaderVersion1EEEEbP21hb_sanitize_context_tDpOT_" PURGE="0" COMMENT="" />
    <EXPORT ORDINAL="639" NAME="_ZNK2OT7ArrayOfINS_8OffsetToINS_4RuleINS_6Layout10SmallTypesEEENS_7IntTypeItLj2EEELb1EEES7_E8sanitizeIJPKNS_7RuleSetIS4_EEEEEbP21hb_sanitize_context_tDpOT_" PURGE="0" COMMENT="" />
    <EXPORT ORDINAL="640" NAME="_ZNK2OT7ArrayOfINS_8OffsetToINS_6Layout6Common8CoverageENS_7IntTypeIjLj4EEELb1EEENS5_ItLj2EEEE8sanitizeIJPKNS_20MarkGlyphSetsFormat1EEEEbP21hb_sanitize_context_tDpOT_" PURGE="0" COMMENT="" />
    <EXPORT ORDINAL="641" NAME="_ZNK2OT7ArrayOfINS_8OffsetToINS_6Layout6Common8CoverageENS_7IntTypeItLj2EEELb1EEES6_E8sanitizeIJPKNS2_9GSUB_impl30ReverseChainSingleSubstFormat1EEEEbP21hb_sanitize_context_tDpOT_" PURGE="0" COMMENT="" />
    <EXPORT ORDINAL="642" NAME="_ZNK2OT7ArrayOfINS_8OffsetToINS_6Layout6Common8CoverageENS_7IntTypeItLj2EEELb1EEES6_E8sanitizeIJPKNS_19ChainContextFormat3EEEEbP21hb_sanitize_context_tDpOT_" PURGE="0" COMMENT="" />
    <EXPORT ORDINAL="643" NAME="_ZNK2OT7ArrayOfINS_8OffsetToINS_6Layout9GPOS_impl7PairSetINS2_10SmallTypesEEENS_7IntTypeItLj2EEELb1EEES8_E8sanitizeIJPKNS3_16PairPosFormat1_3IS5_EEPNS6_18sanitize_closure_tEEEEbP21hb_sanitize_context_tDpOT_" PURGE="0" COMMENT="" />
    <EXPORT ORDINAL="644" NAME="_ZNK2OT7ArrayOfINS_8OffsetToINS_6Layout9GSUB_impl8LigatureINS2_10SmallTypesEEENS_7IntTypeItLj2EEELb1EEES8_E8sanitizeIJPKNS3_11LigatureSetIS5_EEEEEbP21hb_sanitize_context_tDpOT_" PURGE="0" COMMENT="" />
    <EXPORT ORDINAL="645" NAME="_ZNK2OT7ArrayOfINS_8OffsetToINS_7VarDataENS_7IntTypeIjLj4EEELb1EEENS3_ItLj2EEEE8sanitizeIJPKNS_14VariationStoreEEEEbP21hb_sanitize_context_tDpOT_" PURGE="0" COMMENT="" />
    <EXPORT ORDINAL="646" NAME="_ZNK2OT7ArrayOfINS_8OffsetToINS_9ConditionENS_7IntTypeIjLj4EEELb1EEENS3_ItLj2EEEE8sanitizeIJPKNS_12ConditionSetEEEEbP21hb_sanitize_context_tDpOT_" PURGE="0" COMMENT="" />
    <EXPORT ORDINAL="647" NAME="_ZNK2OT7Context8dispatchI21hb_sanitize_context_tJEEENT_8return_tEPS3_DpOT0_" PURGE="0" COMMENT="" />
    <EXPORT ORDINAL="648" NAME="_ZNK2OT7Context8dispatchINS_24hb_would_apply_context_tEJEEENT_8return_tEPS3_DpOT0_" PURGE="0" COMMENT="" />
    <EXPORT ORDINAL="649" NAME="_ZNK2OT7DataMap7get_tagEv" PURGE="0" COMMENT="" />
    <EXPORT ORDINAL="650" NAME="_ZNK2OT7Feature8sanitizeEP21hb_sanitize_context_tPKNS_25Record_sanitize_closure_tE" PURGE="0" COMMENT="" />
    <EXPORT ORDINAL="651" NAME="_ZNK2OT7RuleSetINS_6Layout10SmallTypesEE14collect_glyphsEPNS_27hb_collect_glyphs_context_tERNS_33ContextCollectGlyphsLookupContextE" PURGE="0" COMMENT="" />
    <EXPORT ORDINAL="652" NAME="_ZNK2OT7RuleSetINS_6Layout10SmallTypesEE5applyEPNS_21hb_ot_apply_context_tERKNS_25ContextApplyLookupContextE" PURGE="0" COMMENT="" />
    <EXPORT ORDINAL="653" NAME="_ZNK2OT7RuleSetINS_6Layout10SmallTypesEE7closureEPNS_20hb_closure_context_tEjRNS_27ContextClosureLookupContextE" PURGE="0" COMMENT="" />
    <EXPORT ORDINAL="654" NAME="_ZNK2OT7VarData18get_region_scalarsEPKijRKNS_13VarRegionListEPfj" PURGE="0" COMMENT="" />
    <EXPORT ORDINAL="655" NAME="_ZNK2OT7VarData9get_deltaEjPKijRKNS_13VarRegionListEPf" PURGE="0" COMMENT="" />
    <EXPORT ORDINAL="656" NAME="_ZNK2OT8ClassDef16intersects_classEPK8hb_set_tj" PURGE="0" COMMENT="" />
    <EXPORT ORDINAL="657" NAME="_ZNK2OT8ClassDef9get_classEj" PURGE="0" COMMENT="" />
    <EXPORT ORDINAL="658" NAME="_ZNK2OT8GSUBGPOS10get_lookupEj" PURGE="0" COMMENT="" />
    <EXPORT ORDINAL="659" NAME="_ZNK2OT8GSUBGPOS17find_script_indexEjPj" PURGE="0" COMMENT="" />
    <EXPORT ORDINAL="660" NAME="_ZNK2OT8HVARVVAR8sanitizeEP21hb_sanitize_context_t" PURGE="0" COMMENT="" />
    <EXPORT ORDINAL="661" NAME="_ZNK2OT8OffsetToINS_12ChainRuleSetINS_6Layout10SmallTypesEEENS_7IntTypeItLj2EEELb1EE8sanitizeIJEEEbP21hb_sanitize_context_tPKvDpOT_" PURGE="0" COMMENT="" />
    <EXPORT ORDINAL="662" NAME="_ZNK2OT8OffsetToINS_12MathVariantsENS_7IntTypeItLj2EEELb1EE8sanitizeIJEEEbP21hb_sanitize_context_tPKvDpOT_" PURGE="0" COMMENT="" />
    <EXPORT ORDINAL="663" NAME="_ZNK2OT8OffsetToINS_13BaseGlyphListENS_7IntTypeIjLj4EEELb1EE8sanitizeIJEEEbP21hb_sanitize_context_tPKvDpOT_" PURGE="0" COMMENT="" />
    <EXPORT ORDINAL="664" NAME="_ZNK2OT8OffsetToINS_13FeatureParamsENS_7IntTypeItLj2EEELb1EE8sanitizeIJjEEEbP21hb_sanitize_context_tPKvDpOT_" PURGE="0" COMMENT="" />
    <EXPORT ORDINAL="665" NAME="_ZNK2OT8OffsetToINS_13VarRegionListENS_7IntTypeIjLj4EEELb1EE8sanitizeIJEEEbP21hb_sanitize_context_tPKvDpOT_" PURGE="0" COMMENT="" />
    <EXPORT ORDINAL="666" NAME="_ZNK2OT8OffsetToINS_14VariationStoreENS_7IntTypeIjLj4EEELb1EE8sanitizeIJEEEbP21hb_sanitize_context_tPKvDpOT_" PURGE="0" COMMENT="" />
    <EXPORT ORDINAL="667" NAME="_ZNK2OT8OffsetToINS_16DeltaSetIndexMapENS_7IntTypeIjLj4EEELb1EE8sanitizeIJEEEbP21hb_sanitize_context_tPKvDpOT_" PURGE="0" COMMENT="" />
    <EXPORT ORDINAL="668" NAME="_ZNK2OT8OffsetToINS_17FeatureVariationsENS_7IntTypeIjLj4EEELb1EE8sanitizeIJEEEbP21hb_sanitize_context_tPKvDpOT_" PURGE="0" COMMENT="" />
    <EXPORT ORDINAL="669" NAME="_ZNK2OT8OffsetToINS_4AxisENS_7IntTypeItLj2EEELb1EE8sanitizeIJEEEbP21hb_sanitize_context_tPKvDpOT_" PURGE="0" COMMENT="" />
    <EXPORT ORDINAL="670" NAME="_ZNK2OT8OffsetToINS_5PaintENS_7IntTypeIjLj3EEELb1EE8sanitizeIJEEEbP21hb_sanitize_context_tPKvDpOT_" PURGE="0" COMMENT="" />
    <EXPORT ORDINAL="671" NAME="_ZNK2OT8OffsetToINS_6DeviceENS_7IntTypeItLj2EEELb1EE8sanitizeIJEEEbP21hb_sanitize_context_tPKvDpOT_" PURGE="0" COMMENT="" />
    <EXPORT ORDINAL="672" NAME="_ZNK2OT8OffsetToINS_6Layout6Common8CoverageENS_7IntTypeItLj2EEELb1EE8sanitizeIJEEEbP21hb_sanitize_context_tPKvDpOT_" PURGE="0" COMMENT="" />
    <EXPORT ORDINAL="673" NAME="_ZNK2OT8OffsetToINS_6Layout9GPOS_impl12AnchorMatrixENS_7IntTypeItLj2EEELb1EE8sanitizeIJjEEEbP21hb_sanitize_context_tPKvDpOT_" PURGE="0" COMMENT="" />
    <EXPORT ORDINAL="674" NAME="_ZNK2OT8OffsetToINS_6Layout9GPOS_impl6AnchorENS_7IntTypeItLj2EEELb1EE8sanitizeIJEEEbP21hb_sanitize_context_tPKvDpOT_" PURGE="0" COMMENT="" />
    <EXPORT ORDINAL="675" NAME="_ZNK2OT8OffsetToINS_6Layout9GPOS_impl9MarkArrayENS_7IntTypeItLj2EEELb1EE8sanitizeIJEEEbP21hb_sanitize_context_tPKvDpOT_" PURGE="0" COMMENT="" />
    <EXPORT ORDINAL="676" NAME="_ZNK2OT8OffsetToINS_8ClassDefENS_7IntTypeItLj2EEELb1EE8sanitizeIJEEEbP21hb_sanitize_context_tPKvDpOT_" PURGE="0" COMMENT="" />
    <EXPORT ORDINAL="677" NAME="_ZNK2OT8OffsetToINS_9BaseCoordENS_7IntTypeItLj2EEELb1EE8sanitizeIJEEEbP21hb_sanitize_context_tPKvDpOT_" PURGE="0" COMMENT="" />
    <EXPORT ORDINAL="678" NAME="_ZNK2OT8OffsetToINS_9ColorLineINS_10NoVariableEEENS_7IntTypeIjLj3EEELb1EE8sanitizeIJEEEbP21hb_sanitize_context_tPKvDpOT_" PURGE="0" COMMENT="" />
    <EXPORT ORDINAL="679" NAME="_ZNK2OT8OffsetToINS_9ColorLineINS_8VariableEEENS_7IntTypeIjLj3EEELb1EE8sanitizeIJEEEbP21hb_sanitize_context_tPKvDpOT_" PURGE="0" COMMENT="" />
    <EXPORT ORDINAL="680" NAME="_ZNK2OT8OffsetToINS_9LayerListENS_7IntTypeIjLj4EEELb1EE8sanitizeIJEEEbP21hb_sanitize_context_tPKvDpOT_" PURGE="0" COMMENT="" />
    <EXPORT ORDINAL="681" NAME="_ZNK2OT8hmtxvmtxINS_4hmtxENS_4hheaENS_4HVAREE13accelerator_t29get_advance_with_var_unscaledEjP9hb_font_tPf" PURGE="0" COMMENT="" />
    <EXPORT ORDINAL="682" NAME="_ZNK2OT9Affine2x311paint_glyphEPNS_18hb_paint_context_tEj" PURGE="0" COMMENT="" />
    <EXPORT ORDINAL="683" NAME="_ZNK2OT9ArrayOfM1INS_18ResourceTypeRecordENS_7IntTypeItLj2EEEE8sanitizeIJPKS4_RPKvEEEbP21hb_sanitize_context_tDpOT_" PURGE="0" COMMENT="" />
    <EXPORT ORDINAL="684" NAME="_ZNK2OT9BaseCoord9get_coordEP9hb_font_tRKNS_14VariationStoreE14hb_direction_t" PURGE="0" COMMENT="" />
    <EXPORT ORDINAL="685" NAME="_ZNK2OT9ChainRuleINS_6Layout10SmallTypesEE8sanitizeEP21hb_sanitize_context_t" PURGE="0" COMMENT="" />
    <EXPORT ORDINAL="686" NAME="_ZNK2OT9PaintSkew11paint_glyphEPNS_18hb_paint_context_tEj" PURGE="0" COMMENT="" />
    <EXPORT ORDINAL="687" NAME="_ZNK2OT9glyf_impl11SimpleGlyph12trim_paddingEv" PURGE="0" COMMENT="" />
    <EXPORT ORDINAL="688" NAME="_ZNK2OT9glyf_impl11SimpleGlyph18get_contour_pointsERNS_22contour_point_vector_tEb" PURGE="0" COMMENT="" />
    <EXPORT ORDINAL="689" NAME="_ZNK2OT9glyf_impl20CompositeGlyphRecord18get_transformationERA4_fRNS_15contour_point_tE" PURGE="0" COMMENT="" />
    <EXPORT ORDINAL="690" NAME="_ZNK2OT9glyf_impl5Glyph10get_pointsINS_18glyf_accelerator_tEEEbP9hb_font_tRKT_RNS_22contour_point_vector_tEPS9_P16head_maxp_info_tPjbbb10hb_array_tIiEjSE_" PURGE="0" COMMENT="" />
    <EXPORT ORDINAL="691" NAME="_ZNK3AAT10StateTableINS_13ExtendedTypesENS_12Format1EntryILb1EE9EntryDataEE8sanitizeEP21hb_sanitize_context_tPj" PURGE="0" COMMENT="" />
    <EXPORT ORDINAL="692" NAME="_ZNK3AAT10StateTableINS_13ExtendedTypesENS_13LigatureEntryILb1EE9EntryDataEE8sanitizeEP21hb_sanitize_context_tPj" PURGE="0" COMMENT="" />
    <EXPORT ORDINAL="693" NAME="_ZNK3AAT10StateTableINS_13ExtendedTypesENS_17InsertionSubtableIS1_E9EntryDataEE8sanitizeEP21hb_sanitize_context_tPj" PURGE="0" COMMENT="" />
    <EXPORT ORDINAL="694" NAME="_ZNK3AAT10StateTableINS_13ExtendedTypesENS_18ContextualSubtableIS1_E9EntryDataEE8sanitizeEP21hb_sanitize_context_tPj" PURGE="0" COMMENT="" />
    <EXPORT ORDINAL="695" NAME="_ZNK3AAT10StateTableINS_13ExtendedTypesENS_19KerxSubTableFormat4INS_18KerxSubTableHeaderEE9EntryDataEE8sanitizeEP21hb_sanitize_context_tPj" PURGE="0" COMMENT="" />
    <EXPORT ORDINAL="696" NAME="_ZNK3AAT10StateTableINS_13ExtendedTypesEvE8sanitizeEP21hb_sanitize_context_tPj" PURGE="0" COMMENT="" />
    <EXPORT ORDINAL="697" NAME="_ZNK3AAT10StateTableINS_13ObsoleteTypesENS_17InsertionSubtableIS1_E9EntryDataEE8sanitizeEP21hb_sanitize_context_tPj" PURGE="0" COMMENT="" />
    <EXPORT ORDINAL="698" NAME="_ZNK3AAT10StateTableINS_13ObsoleteTypesENS_18ContextualSubtableIS1_E9EntryDataEE8sanitizeEP21hb_sanitize_context_tPj" PURGE="0" COMMENT="" />
    <EXPORT ORDINAL="699" NAME="_ZNK3AAT10StateTableINS_13ObsoleteTypesEvE8sanitizeEP21hb_sanitize_context_tPj" PURGE="0" COMMENT="" />
    <EXPORT ORDINAL="700" NAME="_ZNK3AAT11FeatureName16get_feature_typeEv" PURGE="0" COMMENT="" />
    <EXPORT ORDINAL="701" NAME="_ZNK3AAT12KerxSubTable8dispatchI21hb_sanitize_context_tJEEENT_8return_tEPS3_DpOT0_" PURGE="0" COMMENT="" />
    <EXPORT ORDINAL="702" NAME="_ZNK3AAT18ContextualSubtableINS_13ExtendedTypesEE8sanitizeEP21hb_sanitize_context_t" PURGE="0" COMMENT="" />
    <EXPORT ORDINAL="703" NAME="_ZNK3AAT18ContextualSubtableINS_13ObsoleteTypesEE8sanitizeEP21hb_sanitize_context_t" PURGE="0" COMMENT="" />
    <EXPORT ORDINAL="704" NAME="_ZNK3AAT19KerxSubTableFormat6INS_18KerxSubTableHeaderEE11get_kerningEjjPNS_22hb_aat_apply_context_tE" PURGE="0" COMMENT="" />
    <EXPORT ORDINAL="705" NAME="_ZNK3AAT19KerxSubTableFormat6INS_18KerxSubTableHeaderEE8sanitizeEP21hb_sanitize_context_t" PURGE="0" COMMENT="" />
    <EXPORT ORDINAL="706" NAME="_ZNK3AAT4ankr10get_anchorEjjj" PURGE="0" COMMENT="" />
    <EXPORT ORDINAL="707" NAME="_ZNK3AAT4ankr8sanitizeEP21hb_sanitize_context_t" PURGE="0" COMMENT="" />
    <EXPORT ORDINAL="708" NAME="_ZNK3AAT4feat8sanitizeEP21hb_sanitize_context_t" PURGE="0" COMMENT="" />
    <EXPORT ORDINAL="709" NAME="_ZNK3AAT4ltag8sanitizeEP21hb_sanitize_context_t" PURGE="0" COMMENT="" />
    <EXPORT ORDINAL="710" NAME="_ZNK3AAT4trak8sanitizeEP21hb_sanitize_context_t" PURGE="0" COMMENT="" />
    <EXPORT ORDINAL="711" NAME="_ZNK3AAT5ChainINS_13ExtendedTypesEE13compile_flagsEPK20hb_aat_map_builder_t" PURGE="0" COMMENT="" />
    <EXPORT ORDINAL="712" NAME="_ZNK3AAT5ChainINS_13ExtendedTypesEE5applyEPNS_22hb_aat_apply_context_tE" PURGE="0" COMMENT="" />
    <EXPORT ORDINAL="713" NAME="_ZNK3AAT5ChainINS_13ObsoleteTypesEE13compile_flagsEPK20hb_aat_map_builder_t" PURGE="0" COMMENT="" />
    <EXPORT ORDINAL="714" NAME="_ZNK3AAT5ChainINS_13ObsoleteTypesEE5applyEPNS_22hb_aat_apply_context_tE" PURGE="0" COMMENT="" />
    <EXPORT ORDINAL="715" NAME="_ZNK3AAT6LookupIN2OT11HBGlyphID16EE8sanitizeEP21hb_sanitize_context_t" PURGE="0" COMMENT="" />
    <EXPORT ORDINAL="716" NAME="_ZNK3AAT6LookupIN2OT11HBGlyphID16EE9get_valueEjj" PURGE="0" COMMENT="" />
    <EXPORT ORDINAL="717" NAME="_ZNK3AAT6LookupIN2OT7IntTypeIjLj4EEEE8sanitizeEP21hb_sanitize_context_t" PURGE="0" COMMENT="" />
    <EXPORT ORDINAL="718" NAME="_ZNK3AAT6LookupIN2OT7IntTypeItLj2EEEE8sanitizeEP21hb_sanitize_context_t" PURGE="0" COMMENT="" />
    <EXPORT ORDINAL="719" NAME="_ZNK3AAT6LookupIN2OT7IntTypeItLj2EEEE9get_valueEjj" PURGE="0" COMMENT="" />
    <EXPORT ORDINAL="720" NAME="_ZNK3AAT8mortmorxINS_13ObsoleteTypesELj1836020340EE8sanitizeEP21hb_sanitize_context_t" PURGE="0" COMMENT="" />
    <EXPORT ORDINAL="721" NAME="_ZNK3AAT9KerxTableIN2OT6KernOTEE8sanitizeEP21hb_sanitize_context_t" PURGE="0" COMMENT="" />
    <EXPORT ORDINAL="722" NAME="_ZNK3AAT9KerxTableIN2OT7KernAATEE8sanitizeEP21hb_sanitize_context_t" PURGE="0" COMMENT="" />
    <EXPORT ORDINAL="723" NAME="_ZNK3AAT9KerxTableINS_4kerxEE8sanitizeEP21hb_sanitize_context_t" PURGE="0" COMMENT="" />
    <EXPORT ORDINAL="724" NAME="_ZNK3AAT9TrackData12get_trackingEPKvf" PURGE="0" COMMENT="" />
    <EXPORT ORDINAL="725" NAME="_ZNK3AAT9TrackData8sanitizeEP21hb_sanitize_context_tPKv" PURGE="0" COMMENT="" />
    <EXPORT ORDINAL="726" NAME="_ZNK3CFF11FDSelect3_4IN2OT7IntTypeIjLj4EEENS2_ItLj2EEEE6get_fdEj" PURGE="0" COMMENT="" />
    <EXPORT ORDINAL="727" NAME="_ZNK3CFF11FDSelect3_4IN2OT7IntTypeIjLj4EEENS2_ItLj2EEEE8sanitizeEP21hb_sanitize_context_tj" PURGE="0" COMMENT="" />
    <EXPORT ORDINAL="728" NAME="_ZNK3CFF11FDSelect3_4IN2OT7IntTypeItLj2EEENS2_IhLj1EEEE8sanitizeEP21hb_sanitize_context_tj" PURGE="0" COMMENT="" />
    <EXPORT ORDINAL="729" NAME="_ZNK3CFF8CFFIndexIN2OT7IntTypeIjLj4EEEE8sanitizeEP21hb_sanitize_context_t" PURGE="0" COMMENT="" />
    <EXPORT ORDINAL="730" NAME="_ZNK3CFF8CFFIndexIN2OT7IntTypeIjLj4EEEE9offset_atEj" PURGE="0" COMMENT="" />
    <EXPORT ORDINAL="731" NAME="_ZNK3CFF8CFFIndexIN2OT7IntTypeItLj2EEEE8sanitizeEP21hb_sanitize_context_t" PURGE="0" COMMENT="" />
    <EXPORT ORDINAL="732" NAME="_ZNK3CFF8CFFIndexIN2OT7IntTypeItLj2EEEE9offset_atEj" PURGE="0" COMMENT="" />
    <EXPORT ORDINAL="733" NAME="_ZNK3CFF8CFFIndexIN2OT7IntTypeItLj2EEEEixEj" PURGE="0" COMMENT="" />
    <EXPORT ORDINAL="734" NAME="_ZNK3CFF8Encoding8sanitizeEP21hb_sanitize_context_t" PURGE="0" COMMENT="" />
    <EXPORT ORDINAL="735" NAME="_ZNK9hb_face_t15load_num_glyphsEv" PURGE="0" COMMENT="" />
    <EXPORT ORDINAL="736" NAME="_ZNK9hb_face_t9load_upemEv" PURGE="0" COMMENT="" />
    <EXPORT ORDINAL="737" NAME="_ZTV12TextAnalysis" PURGE="-1" COMMENT="" />
    <EXPORT ORDINAL="738" NAME="_ZTV20DWriteFontFileLoader" PURGE="-1" COMMENT="" />
    <EXPORT ORDINAL="739" NAME="_ZTV20DWriteFontFileStream" PURGE="-1" COMMENT="" />
    <EXPORT ORDINAL="740" NAME="_ZThn8_N12TextAnalysis12SetBidiLevelEjjhh" PURGE="0" COMMENT="" />
    <EXPORT ORDINAL="741" NAME="_ZThn8_N12TextAnalysis14QueryInterfaceERK5_GUIDPPv" PURGE="0" COMMENT="" />
    <EXPORT ORDINAL="742" NAME="_ZThn8_N12TextAnalysis17SetScriptAnalysisEjjPK22DWRITE_SCRIPT_ANALYSIS" PURGE="0" COMMENT="" />
    <EXPORT ORDINAL="743" NAME="_ZThn8_N12TextAnalysis18SetLineBreakpointsEjjPK22DWRITE_LINE_BREAKPOINT" PURGE="0" COMMENT="" />
    <EXPORT ORDINAL="744" NAME="_ZThn8_N12TextAnalysis21SetNumberSubstitutionEjjP25IDWriteNumberSubstitution" PURGE="0" COMMENT="" />
    <EXPORT ORDINAL="745" NAME="_ZThn8_N12TextAnalysis6AddRefEv" PURGE="0" COMMENT="" />
    <EXPORT ORDINAL="746" NAME="_ZThn8_N12TextAnalysis7ReleaseEv" PURGE="0" COMMENT="" />
    <EXPORT ORDINAL="747" NAME="_ZZ14__mingw_uuidofI14IDWriteFactoryERK5_GUIDvE11__uuid_inst" PURGE="-1" COMMENT="" />
    <EXPORT ORDINAL="748" NAME="_hb_CrapPool" PURGE="-1" COMMENT="" />
    <EXPORT ORDINAL="749" NAME="_hb_NullPool" PURGE="-1" COMMENT="" />
    <EXPORT ORDINAL="750" NAME="_hb_Null_AAT_Lookup" PURGE="-1" COMMENT="" />
    <EXPORT ORDINAL="751" NAME="_hb_Null_AAT_SettingName" PURGE="-1" COMMENT="" />
    <EXPORT ORDINAL="752" NAME="_hb_Null_OT_ClipRecord" PURGE="-1" COMMENT="" />
    <EXPORT ORDINAL="753" NAME="_hb_Null_OT_CmapSubtableLongGroup" PURGE="-1" COMMENT="" />
    <EXPORT ORDINAL="754" NAME="_hb_Null_OT_Index" PURGE="-1" COMMENT="" />
    <EXPORT ORDINAL="755" NAME="_hb_Null_OT_LangSys" PURGE="-1" COMMENT="" />
    <EXPORT ORDINAL="756" NAME="_hb_Null_OT_RangeRecord" PURGE="-1" COMMENT="" />
    <EXPORT ORDINAL="757" NAME="_hb_Null_OT_VarIdx" PURGE="-1" COMMENT="" />
    <EXPORT ORDINAL="758" NAME="_hb_Null_hb_buffer_t" PURGE="-1" COMMENT="" />
    <EXPORT ORDINAL="759" NAME="_hb_Null_hb_draw_funcs_t" PURGE="-1" COMMENT="" />
    <EXPORT ORDINAL="760" NAME="_hb_Null_hb_face_t" PURGE="-1" COMMENT="" />
    <EXPORT ORDINAL="761" NAME="_hb_Null_hb_font_funcs_t" PURGE="-1" COMMENT="" />
    <EXPORT ORDINAL="762" NAME="_hb_Null_hb_font_t" PURGE="-1" COMMENT="" />
    <EXPORT ORDINAL="763" NAME="_hb_Null_hb_paint_funcs_t" PURGE="-1" COMMENT="" />
    <EXPORT ORDINAL="764" NAME="_hb_Null_hb_unicode_funcs_t" PURGE="-1" COMMENT="" />
    <EXPORT ORDINAL="765" NAME="_hb_directwrite_shape" PURGE="0" COMMENT="" />
    <EXPORT ORDINAL="766" NAME="_hb_directwrite_shaper_face_data_create" PURGE="0" COMMENT="" />
    <EXPORT ORDINAL="767" NAME="_hb_directwrite_shaper_face_data_destroy" PURGE="-1" COMMENT="" />
    <EXPORT ORDINAL="768" NAME="_hb_directwrite_shaper_font_data_create" PURGE="0" COMMENT="" />
    <EXPORT ORDINAL="769" NAME="_hb_directwrite_shaper_font_data_destroy" PURGE="0" COMMENT="" />
    <EXPORT ORDINAL="770" NAME="_hb_fallback_shape" PURGE="0" COMMENT="" />
    <EXPORT ORDINAL="771" NAME="_hb_fallback_shaper_face_data_create" PURGE="0" COMMENT="" />
    <EXPORT ORDINAL="772" NAME="_hb_fallback_shaper_face_data_destroy" PURGE="0" COMMENT="" />
    <EXPORT ORDINAL="773" NAME="_hb_fallback_shaper_font_data_create" PURGE="0" COMMENT="" />
    <EXPORT ORDINAL="774" NAME="_hb_fallback_shaper_font_data_destroy" PURGE="0" COMMENT="" />
    <EXPORT ORDINAL="775" NAME="_hb_graphite2_shape" PURGE="0" COMMENT="" />
    <EXPORT ORDINAL="776" NAME="_hb_graphite2_shaper_face_data_create" PURGE="0" COMMENT="" />
    <EXPORT ORDINAL="777" NAME="_hb_graphite2_shaper_face_data_destroy" PURGE="-1" COMMENT="" />
    <EXPORT ORDINAL="778" NAME="_hb_graphite2_shaper_font_data_create" PURGE="0" COMMENT="" />
    <EXPORT ORDINAL="779" NAME="_hb_graphite2_shaper_font_data_destroy" PURGE="0" COMMENT="" />
    <EXPORT ORDINAL="780" NAME="_hb_modified_combining_class" PURGE="-1" COMMENT="" />
    <EXPORT ORDINAL="781" NAME="_hb_options" PURGE="-1" COMMENT="" />
    <EXPORT ORDINAL="782" NAME="_hb_ot_shape" PURGE="0" COMMENT="" />
    <EXPORT ORDINAL="783" NAME="_hb_ot_shaper_arabic" PURGE="-1" COMMENT="" />
    <EXPORT ORDINAL="784" NAME="_hb_ot_shaper_default" PURGE="-1" COMMENT="" />
    <EXPORT ORDINAL="785" NAME="_hb_ot_shaper_dumber" PURGE="-1" COMMENT="" />
    <EXPORT ORDINAL="786" NAME="_hb_ot_shaper_face_data_create" PURGE="0" COMMENT="" />
    <EXPORT ORDINAL="787" NAME="_hb_ot_shaper_face_data_destroy" PURGE="0" COMMENT="" />
    <EXPORT ORDINAL="788" NAME="_hb_ot_shaper_font_data_create" PURGE="0" COMMENT="" />
    <EXPORT ORDINAL="789" NAME="_hb_ot_shaper_font_data_destroy" PURGE="0" COMMENT="" />
    <EXPORT ORDINAL="790" NAME="_hb_ot_shaper_hangul" PURGE="-1" COMMENT="" />
    <EXPORT ORDINAL="791" NAME="_hb_ot_shaper_hebrew" PURGE="-1" COMMENT="" />
    <EXPORT ORDINAL="792" NAME="_hb_ot_shaper_indic" PURGE="-1" COMMENT="" />
    <EXPORT ORDINAL="793" NAME="_hb_ot_shaper_khmer" PURGE="-1" COMMENT="" />
    <EXPORT ORDINAL="794" NAME="_hb_ot_shaper_myanmar" PURGE="-1" COMMENT="" />
    <EXPORT ORDINAL="795" NAME="_hb_ot_shaper_myanmar_zawgyi" PURGE="-1" COMMENT="" />
    <EXPORT ORDINAL="796" NAME="_hb_ot_shaper_thai" PURGE="-1" COMMENT="" />
    <EXPORT ORDINAL="797" NAME="_hb_ot_shaper_use" PURGE="-1" COMMENT="" />
    <EXPORT ORDINAL="798" NAME="_hb_uniscribe_shape" PURGE="0" COMMENT="" />
    <EXPORT ORDINAL="799" NAME="_hb_uniscribe_shaper_face_data_create" PURGE="0" COMMENT="" />
    <EXPORT ORDINAL="800" NAME="_hb_uniscribe_shaper_face_data_destroy" PURGE="-1" COMMENT="" />
    <EXPORT ORDINAL="801" NAME="_hb_uniscribe_shaper_font_data_create" PURGE="0" COMMENT="" />
    <EXPORT ORDINAL="802" NAME="_hb_uniscribe_shaper_font_data_destroy" PURGE="-1" COMMENT="" />
    <EXPORT ORDINAL="803" NAME="hb_aat_layout_feature_type_get_name_id" PURGE="0" COMMENT="" />
    <EXPORT ORDINAL="804" NAME="hb_aat_layout_feature_type_get_selector_infos" PURGE="0" COMMENT="" />
    <EXPORT ORDINAL="805" NAME="hb_aat_layout_get_feature_types" PURGE="0" COMMENT="" />
    <EXPORT ORDINAL="806" NAME="hb_aat_layout_has_positioning" PURGE="0" COMMENT="" />
    <EXPORT ORDINAL="807" NAME="hb_aat_layout_has_substitution" PURGE="0" COMMENT="" />
    <EXPORT ORDINAL="808" NAME="hb_aat_layout_has_tracking" PURGE="0" COMMENT="" />
    <EXPORT ORDINAL="809" NAME="hb_blob_copy_writable_or_fail" PURGE="0" COMMENT="" />
    <EXPORT ORDINAL="810" NAME="hb_blob_create" PURGE="0" COMMENT="" />
    <EXPORT ORDINAL="811" NAME="hb_blob_create_from_file" PURGE="0" COMMENT="" />
    <EXPORT ORDINAL="812" NAME="hb_blob_create_from_file_or_fail" PURGE="0" COMMENT="" />
    <EXPORT ORDINAL="813" NAME="hb_blob_create_or_fail" PURGE="0" COMMENT="" />
    <EXPORT ORDINAL="814" NAME="hb_blob_create_sub_blob" PURGE="0" COMMENT="" />
    <EXPORT ORDINAL="815" NAME="hb_blob_destroy" PURGE="0" COMMENT="" />
    <EXPORT ORDINAL="816" NAME="hb_blob_get_data" PURGE="0" COMMENT="" />
    <EXPORT ORDINAL="817" NAME="hb_blob_get_data_writable" PURGE="0" COMMENT="" />
    <EXPORT ORDINAL="818" NAME="hb_blob_get_empty" PURGE="0" COMMENT="" />
    <EXPORT ORDINAL="819" NAME="hb_blob_get_length" PURGE="0" COMMENT="" />
    <EXPORT ORDINAL="820" NAME="hb_blob_get_user_data" PURGE="0" COMMENT="" />
    <EXPORT ORDINAL="821" NAME="hb_blob_is_immutable" PURGE="0" COMMENT="" />
    <EXPORT ORDINAL="822" NAME="hb_blob_make_immutable" PURGE="0" COMMENT="" />
    <EXPORT ORDINAL="823" NAME="hb_blob_reference" PURGE="0" COMMENT="" />
    <EXPORT ORDINAL="824" NAME="hb_blob_set_user_data" PURGE="0" COMMENT="" />
    <EXPORT ORDINAL="825" NAME="hb_buffer_add" PURGE="0" COMMENT="" />
    <EXPORT ORDINAL="826" NAME="hb_buffer_add_codepoints" PURGE="0" COMMENT="" />
    <EXPORT ORDINAL="827" NAME="hb_buffer_add_latin1" PURGE="0" COMMENT="" />
    <EXPORT ORDINAL="828" NAME="hb_buffer_add_utf16" PURGE="0" COMMENT="" />
    <EXPORT ORDINAL="829" NAME="hb_buffer_add_utf32" PURGE="0" COMMENT="" />
    <EXPORT ORDINAL="830" NAME="hb_buffer_add_utf8" PURGE="0" COMMENT="" />
    <EXPORT ORDINAL="831" NAME="hb_buffer_allocation_successful" PURGE="0" COMMENT="" />
    <EXPORT ORDINAL="832" NAME="hb_buffer_append" PURGE="0" COMMENT="" />
    <EXPORT ORDINAL="833" NAME="hb_buffer_clear_contents" PURGE="0" COMMENT="" />
    <EXPORT ORDINAL="834" NAME="hb_buffer_create" PURGE="0" COMMENT="" />
    <EXPORT ORDINAL="835" NAME="hb_buffer_create_similar" PURGE="0" COMMENT="" />
    <EXPORT ORDINAL="836" NAME="hb_buffer_deserialize_glyphs" PURGE="0" COMMENT="" />
    <EXPORT ORDINAL="837" NAME="hb_buffer_deserialize_unicode" PURGE="0" COMMENT="" />
    <EXPORT ORDINAL="838" NAME="hb_buffer_destroy" PURGE="0" COMMENT="" />
    <EXPORT ORDINAL="839" NAME="hb_buffer_diff" PURGE="0" COMMENT="" />
    <EXPORT ORDINAL="840" NAME="hb_buffer_get_cluster_level" PURGE="0" COMMENT="" />
    <EXPORT ORDINAL="841" NAME="hb_buffer_get_content_type" PURGE="0" COMMENT="" />
    <EXPORT ORDINAL="842" NAME="hb_buffer_get_direction" PURGE="0" COMMENT="" />
    <EXPORT ORDINAL="843" NAME="hb_buffer_get_empty" PURGE="0" COMMENT="" />
    <EXPORT ORDINAL="844" NAME="hb_buffer_get_flags" PURGE="0" COMMENT="" />
    <EXPORT ORDINAL="845" NAME="hb_buffer_get_glyph_infos" PURGE="0" COMMENT="" />
    <EXPORT ORDINAL="846" NAME="hb_buffer_get_glyph_positions" PURGE="0" COMMENT="" />
    <EXPORT ORDINAL="847" NAME="hb_buffer_get_invisible_glyph" PURGE="0" COMMENT="" />
    <EXPORT ORDINAL="848" NAME="hb_buffer_get_language" PURGE="0" COMMENT="" />
    <EXPORT ORDINAL="849" NAME="hb_buffer_get_length" PURGE="0" COMMENT="" />
    <EXPORT ORDINAL="850" NAME="hb_buffer_get_not_found_glyph" PURGE="0" COMMENT="" />
    <EXPORT ORDINAL="851" NAME="hb_buffer_get_replacement_codepoint" PURGE="0" COMMENT="" />
    <EXPORT ORDINAL="852" NAME="hb_buffer_get_script" PURGE="0" COMMENT="" />
    <EXPORT ORDINAL="853" NAME="hb_buffer_get_segment_properties" PURGE="0" COMMENT="" />
    <EXPORT ORDINAL="854" NAME="hb_buffer_get_unicode_funcs" PURGE="0" COMMENT="" />
    <EXPORT ORDINAL="855" NAME="hb_buffer_get_user_data" PURGE="0" COMMENT="" />
    <EXPORT ORDINAL="856" NAME="hb_buffer_guess_segment_properties" PURGE="0" COMMENT="" />
    <EXPORT ORDINAL="857" NAME="hb_buffer_has_positions" PURGE="0" COMMENT="" />
    <EXPORT ORDINAL="858" NAME="hb_buffer_normalize_glyphs" PURGE="0" COMMENT="" />
    <EXPORT ORDINAL="859" NAME="hb_buffer_pre_allocate" PURGE="0" COMMENT="" />
    <EXPORT ORDINAL="860" NAME="hb_buffer_reference" PURGE="0" COMMENT="" />
    <EXPORT ORDINAL="861" NAME="hb_buffer_reset" PURGE="0" COMMENT="" />
    <EXPORT ORDINAL="862" NAME="hb_buffer_reverse" PURGE="0" COMMENT="" />
    <EXPORT ORDINAL="863" NAME="hb_buffer_reverse_clusters" PURGE="0" COMMENT="" />
    <EXPORT ORDINAL="864" NAME="hb_buffer_reverse_range" PURGE="0" COMMENT="" />
    <EXPORT ORDINAL="865" NAME="hb_buffer_serialize" PURGE="0" COMMENT="" />
    <EXPORT ORDINAL="866" NAME="hb_buffer_serialize_format_from_string" PURGE="0" COMMENT="" />
    <EXPORT ORDINAL="867" NAME="hb_buffer_serialize_format_to_string" PURGE="0" COMMENT="" />
    <EXPORT ORDINAL="868" NAME="hb_buffer_serialize_glyphs" PURGE="0" COMMENT="" />
    <EXPORT ORDINAL="869" NAME="hb_buffer_serialize_list_formats" PURGE="0" COMMENT="" />
    <EXPORT ORDINAL="870" NAME="hb_buffer_serialize_unicode" PURGE="0" COMMENT="" />
    <EXPORT ORDINAL="871" NAME="hb_buffer_set_cluster_level" PURGE="0" COMMENT="" />
    <EXPORT ORDINAL="872" NAME="hb_buffer_set_content_type" PURGE="0" COMMENT="" />
    <EXPORT ORDINAL="873" NAME="hb_buffer_set_direction" PURGE="0" COMMENT="" />
    <EXPORT ORDINAL="874" NAME="hb_buffer_set_flags" PURGE="0" COMMENT="" />
    <EXPORT ORDINAL="875" NAME="hb_buffer_set_invisible_glyph" PURGE="0" COMMENT="" />
    <EXPORT ORDINAL="876" NAME="hb_buffer_set_language" PURGE="0" COMMENT="" />
    <EXPORT ORDINAL="877" NAME="hb_buffer_set_length" PURGE="0" COMMENT="" />
    <EXPORT ORDINAL="878" NAME="hb_buffer_set_message_func" PURGE="0" COMMENT="" />
    <EXPORT ORDINAL="879" NAME="hb_buffer_set_not_found_glyph" PURGE="0" COMMENT="" />
    <EXPORT ORDINAL="880" NAME="hb_buffer_set_replacement_codepoint" PURGE="0" COMMENT="" />
    <EXPORT ORDINAL="881" NAME="hb_buffer_set_script" PURGE="0" COMMENT="" />
    <EXPORT ORDINAL="882" NAME="hb_buffer_set_segment_properties" PURGE="0" COMMENT="" />
    <EXPORT ORDINAL="883" NAME="hb_buffer_set_unicode_funcs" PURGE="0" COMMENT="" />
    <EXPORT ORDINAL="884" NAME="hb_buffer_set_user_data" PURGE="0" COMMENT="" />
    <EXPORT ORDINAL="885" NAME="hb_color_get_alpha" PURGE="0" COMMENT="" />
    <EXPORT ORDINAL="886" NAME="hb_color_get_blue" PURGE="0" COMMENT="" />
    <EXPORT ORDINAL="887" NAME="hb_color_get_green" PURGE="0" COMMENT="" />
    <EXPORT ORDINAL="888" NAME="hb_color_get_red" PURGE="0" COMMENT="" />
    <EXPORT ORDINAL="889" NAME="hb_color_line_get_color_stops" PURGE="0" COMMENT="" />
    <EXPORT ORDINAL="890" NAME="hb_color_line_get_extend" PURGE="-1" COMMENT="" />
    <EXPORT ORDINAL="891" NAME="hb_direction_from_string" PURGE="0" COMMENT="" />
    <EXPORT ORDINAL="892" NAME="hb_direction_to_string" PURGE="0" COMMENT="" />
    <EXPORT ORDINAL="893" NAME="hb_directwrite_face_create" PURGE="0" COMMENT="" />
    <EXPORT ORDINAL="894" NAME="hb_directwrite_face_get_font_face" PURGE="0" COMMENT="" />
    <EXPORT ORDINAL="895" NAME="hb_draw_close_path" PURGE="0" COMMENT="" />
    <EXPORT ORDINAL="896" NAME="hb_draw_cubic_to" PURGE="0" COMMENT="" />
    <EXPORT ORDINAL="897" NAME="hb_draw_funcs_create" PURGE="0" COMMENT="" />
    <EXPORT ORDINAL="898" NAME="hb_draw_funcs_destroy" PURGE="0" COMMENT="" />
    <EXPORT ORDINAL="899" NAME="hb_draw_funcs_get_empty" PURGE="0" COMMENT="" />
    <EXPORT ORDINAL="900" NAME="hb_draw_funcs_get_user_data" PURGE="0" COMMENT="" />
    <EXPORT ORDINAL="901" NAME="hb_draw_funcs_is_immutable" PURGE="0" COMMENT="" />
    <EXPORT ORDINAL="902" NAME="hb_draw_funcs_make_immutable" PURGE="0" COMMENT="" />
    <EXPORT ORDINAL="903" NAME="hb_draw_funcs_reference" PURGE="0" COMMENT="" />
    <EXPORT ORDINAL="904" NAME="hb_draw_funcs_set_close_path_func" PURGE="0" COMMENT="" />
    <EXPORT ORDINAL="905" NAME="hb_draw_funcs_set_cubic_to_func" PURGE="0" COMMENT="" />
    <EXPORT ORDINAL="906" NAME="hb_draw_funcs_set_line_to_func" PURGE="0" COMMENT="" />
    <EXPORT ORDINAL="907" NAME="hb_draw_funcs_set_move_to_func" PURGE="0" COMMENT="" />
    <EXPORT ORDINAL="908" NAME="hb_draw_funcs_set_quadratic_to_func" PURGE="0" COMMENT="" />
    <EXPORT ORDINAL="909" NAME="hb_draw_funcs_set_user_data" PURGE="0" COMMENT="" />
    <EXPORT ORDINAL="910" NAME="hb_draw_line_to" PURGE="0" COMMENT="" />
    <EXPORT ORDINAL="911" NAME="hb_draw_move_to" PURGE="0" COMMENT="" />
    <EXPORT ORDINAL="912" NAME="hb_draw_quadratic_to" PURGE="0" COMMENT="" />
    <EXPORT ORDINAL="913" NAME="hb_face_builder_add_table" PURGE="0" COMMENT="" />
    <EXPORT ORDINAL="914" NAME="hb_face_builder_create" PURGE="0" COMMENT="" />
    <EXPORT ORDINAL="915" NAME="hb_face_builder_sort_tables" PURGE="0" COMMENT="" />
    <EXPORT ORDINAL="916" NAME="hb_face_collect_nominal_glyph_mapping" PURGE="0" COMMENT="" />
    <EXPORT ORDINAL="917" NAME="hb_face_collect_unicodes" PURGE="0" COMMENT="" />
    <EXPORT ORDINAL="918" NAME="hb_face_collect_variation_selectors" PURGE="0" COMMENT="" />
    <EXPORT ORDINAL="919" NAME="hb_face_collect_variation_unicodes" PURGE="0" COMMENT="" />
    <EXPORT ORDINAL="920" NAME="hb_face_count" PURGE="0" COMMENT="" />
    <EXPORT ORDINAL="921" NAME="hb_face_create" PURGE="0" COMMENT="" />
    <EXPORT ORDINAL="922" NAME="hb_face_create_for_tables" PURGE="0" COMMENT="" />
    <EXPORT ORDINAL="923" NAME="hb_face_destroy" PURGE="0" COMMENT="" />
    <EXPORT ORDINAL="924" NAME="hb_face_get_empty" PURGE="0" COMMENT="" />
    <EXPORT ORDINAL="925" NAME="hb_face_get_glyph_count" PURGE="0" COMMENT="" />
    <EXPORT ORDINAL="926" NAME="hb_face_get_index" PURGE="0" COMMENT="" />
    <EXPORT ORDINAL="927" NAME="hb_face_get_table_tags" PURGE="0" COMMENT="" />
    <EXPORT ORDINAL="928" NAME="hb_face_get_upem" PURGE="0" COMMENT="" />
    <EXPORT ORDINAL="929" NAME="hb_face_get_user_data" PURGE="0" COMMENT="" />
    <EXPORT ORDINAL="930" NAME="hb_face_is_immutable" PURGE="0" COMMENT="" />
    <EXPORT ORDINAL="931" NAME="hb_face_make_immutable" PURGE="0" COMMENT="" />
    <EXPORT ORDINAL="932" NAME="hb_face_reference" PURGE="0" COMMENT="" />
    <EXPORT ORDINAL="933" NAME="hb_face_reference_blob" PURGE="0" COMMENT="" />
    <EXPORT ORDINAL="934" NAME="hb_face_reference_table" PURGE="0" COMMENT="" />
    <EXPORT ORDINAL="935" NAME="hb_face_set_glyph_count" PURGE="0" COMMENT="" />
    <EXPORT ORDINAL="936" NAME="hb_face_set_index" PURGE="0" COMMENT="" />
    <EXPORT ORDINAL="937" NAME="hb_face_set_upem" PURGE="0" COMMENT="" />
    <EXPORT ORDINAL="938" NAME="hb_face_set_user_data" PURGE="0" COMMENT="" />
    <EXPORT ORDINAL="939" NAME="hb_feature_from_string" PURGE="0" COMMENT="" />
    <EXPORT ORDINAL="940" NAME="hb_feature_to_string" PURGE="0" COMMENT="" />
    <EXPORT ORDINAL="941" NAME="hb_font_add_glyph_origin_for_direction" PURGE="0" COMMENT="" />
    <EXPORT ORDINAL="942" NAME="hb_font_changed" PURGE="0" COMMENT="" />
    <EXPORT ORDINAL="943" NAME="hb_font_create" PURGE="0" COMMENT="" />
    <EXPORT ORDINAL="944" NAME="hb_font_create_sub_font" PURGE="0" COMMENT="" />
    <EXPORT ORDINAL="945" NAME="hb_font_destroy" PURGE="0" COMMENT="" />
    <EXPORT ORDINAL="946" NAME="hb_font_draw_glyph" PURGE="0" COMMENT="" />
    <EXPORT ORDINAL="947" NAME="hb_font_funcs_create" PURGE="0" COMMENT="" />
    <EXPORT ORDINAL="948" NAME="hb_font_funcs_destroy" PURGE="0" COMMENT="" />
    <EXPORT ORDINAL="949" NAME="hb_font_funcs_get_empty" PURGE="0" COMMENT="" />
    <EXPORT ORDINAL="950" NAME="hb_font_funcs_get_user_data" PURGE="0" COMMENT="" />
    <EXPORT ORDINAL="951" NAME="hb_font_funcs_is_immutable" PURGE="0" COMMENT="" />
    <EXPORT ORDINAL="952" NAME="hb_font_funcs_make_immutable" PURGE="0" COMMENT="" />
    <EXPORT ORDINAL="953" NAME="hb_font_funcs_reference" PURGE="0" COMMENT="" />
    <EXPORT ORDINAL="954" NAME="hb_font_funcs_set_draw_glyph_func" PURGE="0" COMMENT="" />
    <EXPORT ORDINAL="955" NAME="hb_font_funcs_set_font_h_extents_func" PURGE="0" COMMENT="" />
    <EXPORT ORDINAL="956" NAME="hb_font_funcs_set_font_v_extents_func" PURGE="0" COMMENT="" />
    <EXPORT ORDINAL="957" NAME="hb_font_funcs_set_glyph_contour_point_func" PURGE="0" COMMENT="" />
    <EXPORT ORDINAL="958" NAME="hb_font_funcs_set_glyph_extents_func" PURGE="0" COMMENT="" />
    <EXPORT ORDINAL="959" NAME="hb_font_funcs_set_glyph_from_name_func" PURGE="0" COMMENT="" />
    <EXPORT ORDINAL="960" NAME="hb_font_funcs_set_glyph_func" PURGE="0" COMMENT="" />
    <EXPORT ORDINAL="961" NAME="hb_font_funcs_set_glyph_h_advance_func" PURGE="0" COMMENT="" />
    <EXPORT ORDINAL="962" NAME="hb_font_funcs_set_glyph_h_advances_func" PURGE="0" COMMENT="" />
    <EXPORT ORDINAL="963" NAME="hb_font_funcs_set_glyph_h_kerning_func" PURGE="0" COMMENT="" />
    <EXPORT ORDINAL="964" NAME="hb_font_funcs_set_glyph_h_origin_func" PURGE="0" COMMENT="" />
    <EXPORT ORDINAL="965" NAME="hb_font_funcs_set_glyph_name_func" PURGE="0" COMMENT="" />
    <EXPORT ORDINAL="966" NAME="hb_font_funcs_set_glyph_shape_func" PURGE="0" COMMENT="" />
    <EXPORT ORDINAL="967" NAME="hb_font_funcs_set_glyph_v_advance_func" PURGE="0" COMMENT="" />
    <EXPORT ORDINAL="968" NAME="hb_font_funcs_set_glyph_v_advances_func" PURGE="0" COMMENT="" />
    <EXPORT ORDINAL="969" NAME="hb_font_funcs_set_glyph_v_kerning_func" PURGE="0" COMMENT="" />
    <EXPORT ORDINAL="970" NAME="hb_font_funcs_set_glyph_v_origin_func" PURGE="0" COMMENT="" />
    <EXPORT ORDINAL="971" NAME="hb_font_funcs_set_nominal_glyph_func" PURGE="0" COMMENT="" />
    <EXPORT ORDINAL="972" NAME="hb_font_funcs_set_nominal_glyphs_func" PURGE="0" COMMENT="" />
    <EXPORT ORDINAL="973" NAME="hb_font_funcs_set_paint_glyph_func" PURGE="0" COMMENT="" />
    <EXPORT ORDINAL="974" NAME="hb_font_funcs_set_user_data" PURGE="0" COMMENT="" />
    <EXPORT ORDINAL="975" NAME="hb_font_funcs_set_variation_glyph_func" PURGE="0" COMMENT="" />
    <EXPORT ORDINAL="976" NAME="hb_font_get_empty" PURGE="0" COMMENT="" />
    <EXPORT ORDINAL="977" NAME="hb_font_get_extents_for_direction" PURGE="0" COMMENT="" />
    <EXPORT ORDINAL="978" NAME="hb_font_get_face" PURGE="0" COMMENT="" />
    <EXPORT ORDINAL="979" NAME="hb_font_get_glyph" PURGE="0" COMMENT="" />
    <EXPORT ORDINAL="980" NAME="hb_font_get_glyph_advance_for_direction" PURGE="0" COMMENT="" />
    <EXPORT ORDINAL="981" NAME="hb_font_get_glyph_advances_for_direction" PURGE="0" COMMENT="" />
    <EXPORT ORDINAL="982" NAME="hb_font_get_glyph_contour_point" PURGE="0" COMMENT="" />
    <EXPORT ORDINAL="983" NAME="hb_font_get_glyph_contour_point_for_origin" PURGE="0" COMMENT="" />
    <EXPORT ORDINAL="984" NAME="hb_font_get_glyph_extents" PURGE="0" COMMENT="" />
    <EXPORT ORDINAL="985" NAME="hb_font_get_glyph_extents_for_origin" PURGE="0" COMMENT="" />
    <EXPORT ORDINAL="986" NAME="hb_font_get_glyph_from_name" PURGE="0" COMMENT="" />
    <EXPORT ORDINAL="987" NAME="hb_font_get_glyph_h_advance" PURGE="-1" COMMENT="" />
    <EXPORT ORDINAL="988" NAME="hb_font_get_glyph_h_advances" PURGE="0" COMMENT="" />
    <EXPORT ORDINAL="989" NAME="hb_font_get_glyph_h_kerning" PURGE="0" COMMENT="" />
    <EXPORT ORDINAL="990" NAME="hb_font_get_glyph_h_origin" PURGE="0" COMMENT="" />
    <EXPORT ORDINAL="991" NAME="hb_font_get_glyph_kerning_for_direction" PURGE="0" COMMENT="" />
    <EXPORT ORDINAL="992" NAME="hb_font_get_glyph_name" PURGE="0" COMMENT="" />
    <EXPORT ORDINAL="993" NAME="hb_font_get_glyph_origin_for_direction" PURGE="0" COMMENT="" />
    <EXPORT ORDINAL="994" NAME="hb_font_get_glyph_shape" PURGE="0" COMMENT="" />
    <EXPORT ORDINAL="995" NAME="hb_font_get_glyph_v_advance" PURGE="-1" COMMENT="" />
    <EXPORT ORDINAL="996" NAME="hb_font_get_glyph_v_advances" PURGE="0" COMMENT="" />
    <EXPORT ORDINAL="997" NAME="hb_font_get_glyph_v_kerning" PURGE="0" COMMENT="" />
    <EXPORT ORDINAL="998" NAME="hb_font_get_glyph_v_origin" PURGE="0" COMMENT="" />
    <EXPORT ORDINAL="999" NAME="hb_font_get_h_extents" PURGE="-1" COMMENT="" />
    <EXPORT ORDINAL="1000" NAME="hb_font_get_nominal_glyph" PURGE="0" COMMENT="" />
    <EXPORT ORDINAL="1001" NAME="hb_font_get_nominal_glyphs" PURGE="0" COMMENT="" />
    <EXPORT ORDINAL="1002" NAME="hb_font_get_parent" PURGE="0" COMMENT="" />
    <EXPORT ORDINAL="1003" NAME="hb_font_get_ppem" PURGE="0" COMMENT="" />
    <EXPORT ORDINAL="1004" NAME="hb_font_get_ptem" PURGE="0" COMMENT="" />
    <EXPORT ORDINAL="1005" NAME="hb_font_get_scale" PURGE="0" COMMENT="" />
    <EXPORT ORDINAL="1006" NAME="hb_font_get_serial" PURGE="0" COMMENT="" />
    <EXPORT ORDINAL="1007" NAME="hb_font_get_synthetic_bold" PURGE="0" COMMENT="" />
    <EXPORT ORDINAL="1008" NAME="hb_font_get_synthetic_slant" PURGE="0" COMMENT="" />
    <EXPORT ORDINAL="1009" NAME="hb_font_get_user_data" PURGE="0" COMMENT="" />
    <EXPORT ORDINAL="1010" NAME="hb_font_get_v_extents" PURGE="-1" COMMENT="" />
    <EXPORT ORDINAL="1011" NAME="hb_font_get_var_coords_design" PURGE="0" COMMENT="" />
    <EXPORT ORDINAL="1012" NAME="hb_font_get_var_coords_normalized" PURGE="0" COMMENT="" />
    <EXPORT ORDINAL="1013" NAME="hb_font_get_var_named_instance" PURGE="0" COMMENT="" />
    <EXPORT ORDINAL="1014" NAME="hb_font_get_variation_glyph" PURGE="0" COMMENT="" />
    <EXPORT ORDINAL="1015" NAME="hb_font_glyph_from_string" PURGE="0" COMMENT="" />
    <EXPORT ORDINAL="1016" NAME="hb_font_glyph_to_string" PURGE="0" COMMENT="" />
    <EXPORT ORDINAL="1017" NAME="hb_font_is_immutable" PURGE="0" COMMENT="" />
    <EXPORT ORDINAL="1018" NAME="hb_font_make_immutable" PURGE="0" COMMENT="" />
    <EXPORT ORDINAL="1019" NAME="hb_font_paint_glyph" PURGE="0" COMMENT="" />
    <EXPORT ORDINAL="1020" NAME="hb_font_reference" PURGE="0" COMMENT="" />
    <EXPORT ORDINAL="1021" NAME="hb_font_set_face" PURGE="0" COMMENT="" />
    <EXPORT ORDINAL="1022" NAME="hb_font_set_funcs" PURGE="0" COMMENT="" />
    <EXPORT ORDINAL="1023" NAME="hb_font_set_funcs_data" PURGE="0" COMMENT="" />
    <EXPORT ORDINAL="1024" NAME="hb_font_set_parent" PURGE="0" COMMENT="" />
    <EXPORT ORDINAL="1025" NAME="hb_font_set_ppem" PURGE="0" COMMENT="" />
    <EXPORT ORDINAL="1026" NAME="hb_font_set_ptem" PURGE="0" COMMENT="" />
    <EXPORT ORDINAL="1027" NAME="hb_font_set_scale" PURGE="0" COMMENT="" />
    <EXPORT ORDINAL="1028" NAME="hb_font_set_synthetic_bold" PURGE="0" COMMENT="" />
    <EXPORT ORDINAL="1029" NAME="hb_font_set_synthetic_slant" PURGE="0" COMMENT="" />
    <EXPORT ORDINAL="1030" NAME="hb_font_set_user_data" PURGE="0" COMMENT="" />
    <EXPORT ORDINAL="1031" NAME="hb_font_set_var_coords_design" PURGE="0" COMMENT="" />
    <EXPORT ORDINAL="1032" NAME="hb_font_set_var_coords_normalized" PURGE="0" COMMENT="" />
    <EXPORT ORDINAL="1033" NAME="hb_font_set_var_named_instance" PURGE="0" COMMENT="" />
    <EXPORT ORDINAL="1034" NAME="hb_font_set_variation" PURGE="0" COMMENT="" />
    <EXPORT ORDINAL="1035" NAME="hb_font_set_variations" PURGE="0" COMMENT="" />
    <EXPORT ORDINAL="1036" NAME="hb_font_subtract_glyph_origin_for_direction" PURGE="0" COMMENT="" />
    <EXPORT ORDINAL="1037" NAME="hb_ft_face_create" PURGE="0" COMMENT="" />
    <EXPORT ORDINAL="1038" NAME="hb_ft_face_create_cached" PURGE="0" COMMENT="" />
    <EXPORT ORDINAL="1039" NAME="hb_ft_face_create_referenced" PURGE="0" COMMENT="" />
    <EXPORT ORDINAL="1040" NAME="hb_ft_font_changed" PURGE="0" COMMENT="" />
    <EXPORT ORDINAL="1041" NAME="hb_ft_font_create" PURGE="0" COMMENT="" />
    <EXPORT ORDINAL="1042" NAME="hb_ft_font_create_referenced" PURGE="0" COMMENT="" />
    <EXPORT ORDINAL="1043" NAME="hb_ft_font_get_face" PURGE="0" COMMENT="" />
    <EXPORT ORDINAL="1044" NAME="hb_ft_font_get_load_flags" PURGE="0" COMMENT="" />
    <EXPORT ORDINAL="1045" NAME="hb_ft_font_lock_face" PURGE="0" COMMENT="" />
    <EXPORT ORDINAL="1046" NAME="hb_ft_font_set_funcs" PURGE="0" COMMENT="" />
    <EXPORT ORDINAL="1047" NAME="hb_ft_font_set_load_flags" PURGE="0" COMMENT="" />
    <EXPORT ORDINAL="1048" NAME="hb_ft_font_unlock_face" PURGE="0" COMMENT="" />
    <EXPORT ORDINAL="1049" NAME="hb_ft_hb_font_changed" PURGE="0" COMMENT="" />
    <EXPORT ORDINAL="1050" NAME="hb_gdi_face_create" PURGE="0" COMMENT="" />
    <EXPORT ORDINAL="1051" NAME="hb_glib_blob_create" PURGE="0" COMMENT="" />
    <EXPORT ORDINAL="1052" NAME="hb_glib_get_unicode_funcs" PURGE="0" COMMENT="" />
    <EXPORT ORDINAL="1053" NAME="hb_glib_script_from_script" PURGE="-1" COMMENT="" />
    <EXPORT ORDINAL="1054" NAME="hb_glib_script_to_script" PURGE="-1" COMMENT="" />
    <EXPORT ORDINAL="1055" NAME="hb_glyph_info_get_glyph_flags" PURGE="0" COMMENT="" />
    <EXPORT ORDINAL="1056" NAME="hb_graphite2_face_get_gr_face" PURGE="0" COMMENT="" />
    <EXPORT ORDINAL="1057" NAME="hb_graphite2_font_get_gr_font" PURGE="0" COMMENT="" />
    <EXPORT ORDINAL="1058" NAME="hb_language_from_string" PURGE="0" COMMENT="" />
    <EXPORT ORDINAL="1059" NAME="hb_language_get_default" PURGE="0" COMMENT="" />
    <EXPORT ORDINAL="1060" NAME="hb_language_matches" PURGE="0" COMMENT="" />
    <EXPORT ORDINAL="1061" NAME="hb_language_to_string" PURGE="0" COMMENT="" />
    <EXPORT ORDINAL="1062" NAME="hb_map_allocation_successful" PURGE="0" COMMENT="" />
    <EXPORT ORDINAL="1063" NAME="hb_map_clear" PURGE="0" COMMENT="" />
    <EXPORT ORDINAL="1064" NAME="hb_map_copy" PURGE="0" COMMENT="" />
    <EXPORT ORDINAL="1065" NAME="hb_map_create" PURGE="0" COMMENT="" />
    <EXPORT ORDINAL="1066" NAME="hb_map_del" PURGE="0" COMMENT="" />
    <EXPORT ORDINAL="1067" NAME="hb_map_destroy" PURGE="0" COMMENT="" />
    <EXPORT ORDINAL="1068" NAME="hb_map_get" PURGE="0" COMMENT="" />
    <EXPORT ORDINAL="1069" NAME="hb_map_get_empty" PURGE="0" COMMENT="" />
    <EXPORT ORDINAL="1070" NAME="hb_map_get_population" PURGE="0" COMMENT="" />
    <EXPORT ORDINAL="1071" NAME="hb_map_get_user_data" PURGE="0" COMMENT="" />
    <EXPORT ORDINAL="1072" NAME="hb_map_has" PURGE="0" COMMENT="" />
    <EXPORT ORDINAL="1073" NAME="hb_map_hash" PURGE="0" COMMENT="" />
    <EXPORT ORDINAL="1074" NAME="hb_map_is_empty" PURGE="0" COMMENT="" />
    <EXPORT ORDINAL="1075" NAME="hb_map_is_equal" PURGE="0" COMMENT="" />
    <EXPORT ORDINAL="1076" NAME="hb_map_keys" PURGE="0" COMMENT="" />
    <EXPORT ORDINAL="1077" NAME="hb_map_next" PURGE="0" COMMENT="" />
    <EXPORT ORDINAL="1078" NAME="hb_map_reference" PURGE="0" COMMENT="" />
    <EXPORT ORDINAL="1079" NAME="hb_map_set" PURGE="0" COMMENT="" />
    <EXPORT ORDINAL="1080" NAME="hb_map_set_user_data" PURGE="0" COMMENT="" />
    <EXPORT ORDINAL="1081" NAME="hb_map_update" PURGE="0" COMMENT="" />
    <EXPORT ORDINAL="1082" NAME="hb_map_values" PURGE="0" COMMENT="" />
    <EXPORT ORDINAL="1083" NAME="hb_ot_color_glyph_get_layers" PURGE="0" COMMENT="" />
    <EXPORT ORDINAL="1084" NAME="hb_ot_color_glyph_has_paint" PURGE="0" COMMENT="" />
    <EXPORT ORDINAL="1085" NAME="hb_ot_color_glyph_reference_png" PURGE="0" COMMENT="" />
    <EXPORT ORDINAL="1086" NAME="hb_ot_color_glyph_reference_svg" PURGE="0" COMMENT="" />
    <EXPORT ORDINAL="1087" NAME="hb_ot_color_has_layers" PURGE="0" COMMENT="" />
    <EXPORT ORDINAL="1088" NAME="hb_ot_color_has_paint" PURGE="0" COMMENT="" />
    <EXPORT ORDINAL="1089" NAME="hb_ot_color_has_palettes" PURGE="0" COMMENT="" />
    <EXPORT ORDINAL="1090" NAME="hb_ot_color_has_png" PURGE="0" COMMENT="" />
    <EXPORT ORDINAL="1091" NAME="hb_ot_color_has_svg" PURGE="0" COMMENT="" />
    <EXPORT ORDINAL="1092" NAME="hb_ot_color_palette_color_get_name_id" PURGE="0" COMMENT="" />
    <EXPORT ORDINAL="1093" NAME="hb_ot_color_palette_get_colors" PURGE="0" COMMENT="" />
    <EXPORT ORDINAL="1094" NAME="hb_ot_color_palette_get_count" PURGE="0" COMMENT="" />
    <EXPORT ORDINAL="1095" NAME="hb_ot_color_palette_get_flags" PURGE="0" COMMENT="" />
    <EXPORT ORDINAL="1096" NAME="hb_ot_color_palette_get_name_id" PURGE="0" COMMENT="" />
    <EXPORT ORDINAL="1097" NAME="hb_ot_font_set_funcs" PURGE="0" COMMENT="" />
    <EXPORT ORDINAL="1098" NAME="hb_ot_layout_collect_features" PURGE="0" COMMENT="" />
    <EXPORT ORDINAL="1099" NAME="hb_ot_layout_collect_lookups" PURGE="0" COMMENT="" />
    <EXPORT ORDINAL="1100" NAME="hb_ot_layout_feature_get_characters" PURGE="0" COMMENT="" />
    <EXPORT ORDINAL="1101" NAME="hb_ot_layout_feature_get_lookups" PURGE="0" COMMENT="" />
    <EXPORT ORDINAL="1102" NAME="hb_ot_layout_feature_get_name_ids" PURGE="0" COMMENT="" />
    <EXPORT ORDINAL="1103" NAME="hb_ot_layout_feature_with_variations_get_lookups" PURGE="0" COMMENT="" />
    <EXPORT ORDINAL="1104" NAME="hb_ot_layout_get_attach_points" PURGE="0" COMMENT="" />
    <EXPORT ORDINAL="1105" NAME="hb_ot_layout_get_baseline" PURGE="0" COMMENT="" />
    <EXPORT ORDINAL="1106" NAME="hb_ot_layout_get_baseline_with_fallback" PURGE="0" COMMENT="" />
    <EXPORT ORDINAL="1107" NAME="hb_ot_layout_get_glyph_class" PURGE="0" COMMENT="" />
    <EXPORT ORDINAL="1108" NAME="hb_ot_layout_get_glyphs_in_class" PURGE="0" COMMENT="" />
    <EXPORT ORDINAL="1109" NAME="hb_ot_layout_get_horizontal_baseline_tag_for_script" PURGE="0" COMMENT="" />
    <EXPORT ORDINAL="1110" NAME="hb_ot_layout_get_ligature_carets" PURGE="0" COMMENT="" />
    <EXPORT ORDINAL="1111" NAME="hb_ot_layout_get_size_params" PURGE="0" COMMENT="" />
    <EXPORT ORDINAL="1112" NAME="hb_ot_layout_has_glyph_classes" PURGE="0" COMMENT="" />
    <EXPORT ORDINAL="1113" NAME="hb_ot_layout_has_positioning" PURGE="0" COMMENT="" />
    <EXPORT ORDINAL="1114" NAME="hb_ot_layout_has_substitution" PURGE="0" COMMENT="" />
    <EXPORT ORDINAL="1115" NAME="hb_ot_layout_language_find_feature" PURGE="0" COMMENT="" />
    <EXPORT ORDINAL="1116" NAME="hb_ot_layout_language_get_feature_indexes" PURGE="0" COMMENT="" />
    <EXPORT ORDINAL="1117" NAME="hb_ot_layout_language_get_feature_tags" PURGE="0" COMMENT="" />
    <EXPORT ORDINAL="1118" NAME="hb_ot_layout_language_get_required_feature" PURGE="0" COMMENT="" />
    <EXPORT ORDINAL="1119" NAME="hb_ot_layout_language_get_required_feature_index" PURGE="0" COMMENT="" />
    <EXPORT ORDINAL="1120" NAME="hb_ot_layout_lookup_collect_glyphs" PURGE="0" COMMENT="" />
    <EXPORT ORDINAL="1121" NAME="hb_ot_layout_lookup_get_glyph_alternates" PURGE="0" COMMENT="" />
    <EXPORT ORDINAL="1122" NAME="hb_ot_layout_lookup_get_optical_bound" PURGE="0" COMMENT="" />
    <EXPORT ORDINAL="1123" NAME="hb_ot_layout_lookup_substitute_closure" PURGE="0" COMMENT="" />
    <EXPORT ORDINAL="1124" NAME="hb_ot_layout_lookup_would_substitute" PURGE="0" COMMENT="" />
    <EXPORT ORDINAL="1125" NAME="hb_ot_layout_lookups_substitute_closure" PURGE="0" COMMENT="" />
    <EXPORT ORDINAL="1126" NAME="hb_ot_layout_script_find_language" PURGE="0" COMMENT="" />
    <EXPORT ORDINAL="1127" NAME="hb_ot_layout_script_get_language_tags" PURGE="0" COMMENT="" />
    <EXPORT ORDINAL="1128" NAME="hb_ot_layout_script_select_language" PURGE="0" COMMENT="" />
    <EXPORT ORDINAL="1129" NAME="hb_ot_layout_script_select_language2" PURGE="0" COMMENT="" />
    <EXPORT ORDINAL="1130" NAME="hb_ot_layout_table_choose_script" PURGE="0" COMMENT="" />
    <EXPORT ORDINAL="1131" NAME="hb_ot_layout_table_find_feature_variations" PURGE="0" COMMENT="" />
    <EXPORT ORDINAL="1132" NAME="hb_ot_layout_table_find_script" PURGE="0" COMMENT="" />
    <EXPORT ORDINAL="1133" NAME="hb_ot_layout_table_get_feature_tags" PURGE="0" COMMENT="" />
    <EXPORT ORDINAL="1134" NAME="hb_ot_layout_table_get_lookup_count" PURGE="0" COMMENT="" />
    <EXPORT ORDINAL="1135" NAME="hb_ot_layout_table_get_script_tags" PURGE="0" COMMENT="" />
    <EXPORT ORDINAL="1136" NAME="hb_ot_layout_table_select_script" PURGE="0" COMMENT="" />
    <EXPORT ORDINAL="1137" NAME="hb_ot_math_get_constant" PURGE="0" COMMENT="" />
    <EXPORT ORDINAL="1138" NAME="hb_ot_math_get_glyph_assembly" PURGE="0" COMMENT="" />
    <EXPORT ORDINAL="1139" NAME="hb_ot_math_get_glyph_italics_correction" PURGE="0" COMMENT="" />
    <EXPORT ORDINAL="1140" NAME="hb_ot_math_get_glyph_kerning" PURGE="0" COMMENT="" />
    <EXPORT ORDINAL="1141" NAME="hb_ot_math_get_glyph_kernings" PURGE="0" COMMENT="" />
    <EXPORT ORDINAL="1142" NAME="hb_ot_math_get_glyph_top_accent_attachment" PURGE="0" COMMENT="" />
    <EXPORT ORDINAL="1143" NAME="hb_ot_math_get_glyph_variants" PURGE="0" COMMENT="" />
    <EXPORT ORDINAL="1144" NAME="hb_ot_math_get_min_connector_overlap" PURGE="0" COMMENT="" />
    <EXPORT ORDINAL="1145" NAME="hb_ot_math_has_data" PURGE="0" COMMENT="" />
    <EXPORT ORDINAL="1146" NAME="hb_ot_math_is_glyph_extended_shape" PURGE="0" COMMENT="" />
    <EXPORT ORDINAL="1147" NAME="hb_ot_meta_get_entry_tags" PURGE="0" COMMENT="" />
    <EXPORT ORDINAL="1148" NAME="hb_ot_meta_reference_entry" PURGE="0" COMMENT="" />
    <EXPORT ORDINAL="1149" NAME="hb_ot_metrics_get_position" PURGE="0" COMMENT="" />
    <EXPORT ORDINAL="1150" NAME="hb_ot_metrics_get_position_with_fallback" PURGE="0" COMMENT="" />
    <EXPORT ORDINAL="1151" NAME="hb_ot_metrics_get_variation" PURGE="0" COMMENT="" />
    <EXPORT ORDINAL="1152" NAME="hb_ot_metrics_get_x_variation" PURGE="0" COMMENT="" />
    <EXPORT ORDINAL="1153" NAME="hb_ot_metrics_get_y_variation" PURGE="0" COMMENT="" />
    <EXPORT ORDINAL="1154" NAME="hb_ot_name_get_utf16" PURGE="0" COMMENT="" />
    <EXPORT ORDINAL="1155" NAME="hb_ot_name_get_utf32" PURGE="0" COMMENT="" />
    <EXPORT ORDINAL="1156" NAME="hb_ot_name_get_utf8" PURGE="0" COMMENT="" />
    <EXPORT ORDINAL="1157" NAME="hb_ot_name_list_names" PURGE="0" COMMENT="" />
    <EXPORT ORDINAL="1158" NAME="hb_ot_shape_glyphs_closure" PURGE="0" COMMENT="" />
    <EXPORT ORDINAL="1159" NAME="hb_ot_shape_plan_collect_lookups" PURGE="0" COMMENT="" />
    <EXPORT ORDINAL="1160" NAME="hb_ot_tag_from_language" PURGE="0" COMMENT="" />
    <EXPORT ORDINAL="1161" NAME="hb_ot_tag_to_language" PURGE="0" COMMENT="" />
    <EXPORT ORDINAL="1162" NAME="hb_ot_tag_to_script" PURGE="0" COMMENT="" />
    <EXPORT ORDINAL="1163" NAME="hb_ot_tags_from_script" PURGE="0" COMMENT="" />
    <EXPORT ORDINAL="1164" NAME="hb_ot_tags_from_script_and_language" PURGE="0" COMMENT="" />
    <EXPORT ORDINAL="1165" NAME="hb_ot_tags_to_script_and_language" PURGE="0" COMMENT="" />
    <EXPORT ORDINAL="1166" NAME="hb_ot_var_find_axis" PURGE="0" COMMENT="" />
    <EXPORT ORDINAL="1167" NAME="hb_ot_var_find_axis_info" PURGE="0" COMMENT="" />
    <EXPORT ORDINAL="1168" NAME="hb_ot_var_get_axes" PURGE="0" COMMENT="" />
    <EXPORT ORDINAL="1169" NAME="hb_ot_var_get_axis_count" PURGE="0" COMMENT="" />
    <EXPORT ORDINAL="1170" NAME="hb_ot_var_get_axis_infos" PURGE="0" COMMENT="" />
    <EXPORT ORDINAL="1171" NAME="hb_ot_var_get_named_instance_count" PURGE="0" COMMENT="" />
    <EXPORT ORDINAL="1172" NAME="hb_ot_var_has_data" PURGE="0" COMMENT="" />
    <EXPORT ORDINAL="1173" NAME="hb_ot_var_named_instance_get_design_coords" PURGE="0" COMMENT="" />
    <EXPORT ORDINAL="1174" NAME="hb_ot_var_named_instance_get_postscript_name_id" PURGE="0" COMMENT="" />
    <EXPORT ORDINAL="1175" NAME="hb_ot_var_named_instance_get_subfamily_name_id" PURGE="0" COMMENT="" />
    <EXPORT ORDINAL="1176" NAME="hb_ot_var_normalize_coords" PURGE="0" COMMENT="" />
    <EXPORT ORDINAL="1177" NAME="hb_ot_var_normalize_variations" PURGE="0" COMMENT="" />
    <EXPORT ORDINAL="1178" NAME="hb_paint_color" PURGE="0" COMMENT="" />
    <EXPORT ORDINAL="1179" NAME="hb_paint_custom_palette_color" PURGE="0" COMMENT="" />
    <EXPORT ORDINAL="1180" NAME="hb_paint_funcs_create" PURGE="0" COMMENT="" />
    <EXPORT ORDINAL="1181" NAME="hb_paint_funcs_destroy" PURGE="0" COMMENT="" />
    <EXPORT ORDINAL="1182" NAME="hb_paint_funcs_get_empty" PURGE="0" COMMENT="" />
    <EXPORT ORDINAL="1183" NAME="hb_paint_funcs_get_user_data" PURGE="0" COMMENT="" />
    <EXPORT ORDINAL="1184" NAME="hb_paint_funcs_is_immutable" PURGE="0" COMMENT="" />
    <EXPORT ORDINAL="1185" NAME="hb_paint_funcs_make_immutable" PURGE="0" COMMENT="" />
    <EXPORT ORDINAL="1186" NAME="hb_paint_funcs_reference" PURGE="0" COMMENT="" />
    <EXPORT ORDINAL="1187" NAME="hb_paint_funcs_set_color_func" PURGE="0" COMMENT="" />
    <EXPORT ORDINAL="1188" NAME="hb_paint_funcs_set_custom_palette_color_func" PURGE="0" COMMENT="" />
    <EXPORT ORDINAL="1189" NAME="hb_paint_funcs_set_image_func" PURGE="0" COMMENT="" />
    <EXPORT ORDINAL="1190" NAME="hb_paint_funcs_set_linear_gradient_func" PURGE="0" COMMENT="" />
    <EXPORT ORDINAL="1191" NAME="hb_paint_funcs_set_pop_clip_func" PURGE="0" COMMENT="" />
    <EXPORT ORDINAL="1192" NAME="hb_paint_funcs_set_pop_group_func" PURGE="0" COMMENT="" />
    <EXPORT ORDINAL="1193" NAME="hb_paint_funcs_set_pop_transform_func" PURGE="0" COMMENT="" />
    <EXPORT ORDINAL="1194" NAME="hb_paint_funcs_set_push_clip_glyph_func" PURGE="0" COMMENT="" />
    <EXPORT ORDINAL="1195" NAME="hb_paint_funcs_set_push_clip_rectangle_func" PURGE="0" COMMENT="" />
    <EXPORT ORDINAL="1196" NAME="hb_paint_funcs_set_push_group_func" PURGE="0" COMMENT="" />
    <EXPORT ORDINAL="1197" NAME="hb_paint_funcs_set_push_transform_func" PURGE="0" COMMENT="" />
    <EXPORT ORDINAL="1198" NAME="hb_paint_funcs_set_radial_gradient_func" PURGE="0" COMMENT="" />
    <EXPORT ORDINAL="1199" NAME="hb_paint_funcs_set_sweep_gradient_func" PURGE="0" COMMENT="" />
    <EXPORT ORDINAL="1200" NAME="hb_paint_funcs_set_user_data" PURGE="0" COMMENT="" />
    <EXPORT ORDINAL="1201" NAME="hb_paint_image" PURGE="0" COMMENT="" />
    <EXPORT ORDINAL="1202" NAME="hb_paint_linear_gradient" PURGE="0" COMMENT="" />
    <EXPORT ORDINAL="1203" NAME="hb_paint_pop_clip" PURGE="-1" COMMENT="" />
    <EXPORT ORDINAL="1204" NAME="hb_paint_pop_group" PURGE="-1" COMMENT="" />
    <EXPORT ORDINAL="1205" NAME="hb_paint_pop_transform" PURGE="-1" COMMENT="" />
    <EXPORT ORDINAL="1206" NAME="hb_paint_push_clip_glyph" PURGE="0" COMMENT="" />
    <EXPORT ORDINAL="1207" NAME="hb_paint_push_clip_rectangle" PURGE="0" COMMENT="" />
    <EXPORT ORDINAL="1208" NAME="hb_paint_push_group" PURGE="-1" COMMENT="" />
    <EXPORT ORDINAL="1209" NAME="hb_paint_push_transform" PURGE="0" COMMENT="" />
    <EXPORT ORDINAL="1210" NAME="hb_paint_radial_gradient" PURGE="0" COMMENT="" />
    <EXPORT ORDINAL="1211" NAME="hb_paint_sweep_gradient" PURGE="0" COMMENT="" />
    <EXPORT ORDINAL="1212" NAME="hb_script_from_iso15924_tag" PURGE="0" COMMENT="" />
    <EXPORT ORDINAL="1213" NAME="hb_script_from_string" PURGE="0" COMMENT="" />
    <EXPORT ORDINAL="1214" NAME="hb_script_get_horizontal_direction" PURGE="0" COMMENT="" />
    <EXPORT ORDINAL="1215" NAME="hb_script_to_iso15924_tag" PURGE="0" COMMENT="" />
    <EXPORT ORDINAL="1216" NAME="hb_segment_properties_equal" PURGE="0" COMMENT="" />
    <EXPORT ORDINAL="1217" NAME="hb_segment_properties_hash" PURGE="0" COMMENT="" />
    <EXPORT ORDINAL="1218" NAME="hb_segment_properties_overlay" PURGE="0" COMMENT="" />
    <EXPORT ORDINAL="1219" NAME="hb_set_add" PURGE="0" COMMENT="" />
    <EXPORT ORDINAL="1220" NAME="hb_set_add_range" PURGE="0" COMMENT="" />
    <EXPORT ORDINAL="1221" NAME="hb_set_add_sorted_array" PURGE="0" COMMENT="" />
    <EXPORT ORDINAL="1222" NAME="hb_set_allocation_successful" PURGE="0" COMMENT="" />
    <EXPORT ORDINAL="1223" NAME="hb_set_clear" PURGE="0" COMMENT="" />
    <EXPORT ORDINAL="1224" NAME="hb_set_copy" PURGE="0" COMMENT="" />
    <EXPORT ORDINAL="1225" NAME="hb_set_create" PURGE="0" COMMENT="" />
    <EXPORT ORDINAL="1226" NAME="hb_set_del" PURGE="0" COMMENT="" />
    <EXPORT ORDINAL="1227" NAME="hb_set_del_range" PURGE="0" COMMENT="" />
    <EXPORT ORDINAL="1228" NAME="hb_set_destroy" PURGE="0" COMMENT="" />
    <EXPORT ORDINAL="1229" NAME="hb_set_get_empty" PURGE="0" COMMENT="" />
    <EXPORT ORDINAL="1230" NAME="hb_set_get_max" PURGE="0" COMMENT="" />
    <EXPORT ORDINAL="1231" NAME="hb_set_get_min" PURGE="0" COMMENT="" />
    <EXPORT ORDINAL="1232" NAME="hb_set_get_population" PURGE="0" COMMENT="" />
    <EXPORT ORDINAL="1233" NAME="hb_set_get_user_data" PURGE="0" COMMENT="" />
    <EXPORT ORDINAL="1234" NAME="hb_set_has" PURGE="0" COMMENT="" />
    <EXPORT ORDINAL="1235" NAME="hb_set_hash" PURGE="0" COMMENT="" />
    <EXPORT ORDINAL="1236" NAME="hb_set_intersect" PURGE="0" COMMENT="" />
    <EXPORT ORDINAL="1237" NAME="hb_set_invert" PURGE="0" COMMENT="" />
    <EXPORT ORDINAL="1238" NAME="hb_set_is_empty" PURGE="0" COMMENT="" />
    <EXPORT ORDINAL="1239" NAME="hb_set_is_equal" PURGE="0" COMMENT="" />
    <EXPORT ORDINAL="1240" NAME="hb_set_is_inverted" PURGE="0" COMMENT="" />
    <EXPORT ORDINAL="1241" NAME="hb_set_is_subset" PURGE="0" COMMENT="" />
    <EXPORT ORDINAL="1242" NAME="hb_set_next" PURGE="0" COMMENT="" />
    <EXPORT ORDINAL="1243" NAME="hb_set_next_many" PURGE="0" COMMENT="" />
    <EXPORT ORDINAL="1244" NAME="hb_set_next_range" PURGE="0" COMMENT="" />
    <EXPORT ORDINAL="1245" NAME="hb_set_previous" PURGE="0" COMMENT="" />
    <EXPORT ORDINAL="1246" NAME="hb_set_previous_range" PURGE="0" COMMENT="" />
    <EXPORT ORDINAL="1247" NAME="hb_set_reference" PURGE="0" COMMENT="" />
    <EXPORT ORDINAL="1248" NAME="hb_set_set" PURGE="0" COMMENT="" />
    <EXPORT ORDINAL="1249" NAME="hb_set_set_user_data" PURGE="0" COMMENT="" />
    <EXPORT ORDINAL="1250" NAME="hb_set_subtract" PURGE="0" COMMENT="" />
    <EXPORT ORDINAL="1251" NAME="hb_set_symmetric_difference" PURGE="0" COMMENT="" />
    <EXPORT ORDINAL="1252" NAME="hb_set_union" PURGE="0" COMMENT="" />
    <EXPORT ORDINAL="1253" NAME="hb_shape" PURGE="0" COMMENT="" />
    <EXPORT ORDINAL="1254" NAME="hb_shape_full" PURGE="0" COMMENT="" />
    <EXPORT ORDINAL="1255" NAME="hb_shape_list_shapers" PURGE="0" COMMENT="" />
    <EXPORT ORDINAL="1256" NAME="hb_shape_plan_create" PURGE="0" COMMENT="" />
    <EXPORT ORDINAL="1257" NAME="hb_shape_plan_create2" PURGE="0" COMMENT="" />
    <EXPORT ORDINAL="1258" NAME="hb_shape_plan_create_cached" PURGE="0" COMMENT="" />
    <EXPORT ORDINAL="1259" NAME="hb_shape_plan_create_cached2" PURGE="0" COMMENT="" />
    <EXPORT ORDINAL="1260" NAME="hb_shape_plan_destroy" PURGE="0" COMMENT="" />
    <EXPORT ORDINAL="1261" NAME="hb_shape_plan_execute" PURGE="0" COMMENT="" />
    <EXPORT ORDINAL="1262" NAME="hb_shape_plan_get_empty" PURGE="0" COMMENT="" />
    <EXPORT ORDINAL="1263" NAME="hb_shape_plan_get_shaper" PURGE="0" COMMENT="" />
    <EXPORT ORDINAL="1264" NAME="hb_shape_plan_get_user_data" PURGE="0" COMMENT="" />
    <EXPORT ORDINAL="1265" NAME="hb_shape_plan_reference" PURGE="0" COMMENT="" />
    <EXPORT ORDINAL="1266" NAME="hb_shape_plan_set_user_data" PURGE="0" COMMENT="" />
    <EXPORT ORDINAL="1267" NAME="hb_style_get_value" PURGE="0" COMMENT="" />
    <EXPORT ORDINAL="1268" NAME="hb_tag_from_string" PURGE="0" COMMENT="" />
    <EXPORT ORDINAL="1269" NAME="hb_tag_to_string" PURGE="0" COMMENT="" />
    <EXPORT ORDINAL="1270" NAME="hb_ucd_get_unicode_funcs" PURGE="0" COMMENT="" />
    <EXPORT ORDINAL="1271" NAME="hb_unicode_combining_class" PURGE="-1" COMMENT="" />
    <EXPORT ORDINAL="1272" NAME="hb_unicode_compose" PURGE="0" COMMENT="" />
    <EXPORT ORDINAL="1273" NAME="hb_unicode_decompose" PURGE="0" COMMENT="" />
    <EXPORT ORDINAL="1274" NAME="hb_unicode_decompose_compatibility" PURGE="0" COMMENT="" />
    <EXPORT ORDINAL="1275" NAME="hb_unicode_eastasian_width" PURGE="-1" COMMENT="" />
    <EXPORT ORDINAL="1276" NAME="hb_unicode_funcs_create" PURGE="0" COMMENT="" />
    <EXPORT ORDINAL="1277" NAME="hb_unicode_funcs_destroy" PURGE="0" COMMENT="" />
    <EXPORT ORDINAL="1278" NAME="hb_unicode_funcs_get_default" PURGE="0" COMMENT="" />
    <EXPORT ORDINAL="1279" NAME="hb_unicode_funcs_get_empty" PURGE="0" COMMENT="" />
    <EXPORT ORDINAL="1280" NAME="hb_unicode_funcs_get_parent" PURGE="0" COMMENT="" />
    <EXPORT ORDINAL="1281" NAME="hb_unicode_funcs_get_user_data" PURGE="0" COMMENT="" />
    <EXPORT ORDINAL="1282" NAME="hb_unicode_funcs_is_immutable" PURGE="0" COMMENT="" />
    <EXPORT ORDINAL="1283" NAME="hb_unicode_funcs_make_immutable" PURGE="0" COMMENT="" />
    <EXPORT ORDINAL="1284" NAME="hb_unicode_funcs_reference" PURGE="0" COMMENT="" />
    <EXPORT ORDINAL="1285" NAME="hb_unicode_funcs_set_combining_class_func" PURGE="0" COMMENT="" />
    <EXPORT ORDINAL="1286" NAME="hb_unicode_funcs_set_compose_func" PURGE="0" COMMENT="" />
    <EXPORT ORDINAL="1287" NAME="hb_unicode_funcs_set_decompose_compatibility_func" PURGE="0" COMMENT="" />
    <EXPORT ORDINAL="1288" NAME="hb_unicode_funcs_set_decompose_func" PURGE="0" COMMENT="" />
    <EXPORT ORDINAL="1289" NAME="hb_unicode_funcs_set_eastasian_width_func" PURGE="0" COMMENT="" />
    <EXPORT ORDINAL="1290" NAME="hb_unicode_funcs_set_general_category_func" PURGE="0" COMMENT="" />
    <EXPORT ORDINAL="1291" NAME="hb_unicode_funcs_set_mirroring_func" PURGE="0" COMMENT="" />
    <EXPORT ORDINAL="1292" NAME="hb_unicode_funcs_set_script_func" PURGE="0" COMMENT="" />
    <EXPORT ORDINAL="1293" NAME="hb_unicode_funcs_set_user_data" PURGE="0" COMMENT="" />
    <EXPORT ORDINAL="1294" NAME="hb_unicode_general_category" PURGE="-1" COMMENT="" />
    <EXPORT ORDINAL="1295" NAME="hb_unicode_mirroring" PURGE="-1" COMMENT="" />
    <EXPORT ORDINAL="1296" NAME="hb_unicode_script" PURGE="-1" COMMENT="" />
    <EXPORT ORDINAL="1297" NAME="hb_uniscribe_font_get_hfont" PURGE="0" COMMENT="" />
    <EXPORT ORDINAL="1298" NAME="hb_uniscribe_font_get_logfontw" PURGE="0" COMMENT="" />
    <EXPORT ORDINAL="1299" NAME="hb_variation_from_string" PURGE="0" COMMENT="" />
    <EXPORT ORDINAL="1300" NAME="hb_variation_to_string" PURGE="0" COMMENT="" />
    <EXPORT ORDINAL="1301" NAME="hb_version" PURGE="0" COMMENT="" />
    <EXPORT ORDINAL="1302" NAME="hb_version_atleast" PURGE="0" COMMENT="" />
    <EXPORT ORDINAL="1303" NAME="hb_version_string" PURGE="0" COMMENT="" />
    <EXPORT ORDINAL="1304" NAME="minus_1" PURGE="-1" COMMENT="" />
</LIBRARY>

