<?xml version="1.0" encoding="UTF-8"?>
<LIBRARY NAME="libstdc++-6.dll" PATH="/DLLArchive/etc/libstdc++-6.dll" DATE="Tue Oct 24 15:06:20 PDT 2023" VERSION="">
    <EXPORT ORDINAL="1" NAME="_Z7fprintfP6_iobufPKcz" PURGE="0" COMMENT="" />
    <EXPORT ORDINAL="2" NAME="_Z7sprintfPcPKcz" PURGE="0" COMMENT="" />
    <EXPORT ORDINAL="3" NAME="_ZGTtNKSt13bad_exception4whatEv" PURGE="0" COMMENT="" />
    <EXPORT ORDINAL="4" NAME="_ZGTtNKSt13bad_exceptionD1Ev" PURGE="0" COMMENT="" />
    <EXPORT ORDINAL="5" NAME="_ZGTtNKSt9exception4whatEv" PURGE="0" COMMENT="" />
    <EXPORT ORDINAL="6" NAME="_ZGTtNKSt9exceptionD1Ev" PURGE="0" COMMENT="" />
    <EXPORT ORDINAL="7" NAME="_ZGVN9__gnu_cxx16bitmap_allocatorIcE13_S_mem_blocksE" PURGE="-1" COMMENT="" />
    <EXPORT ORDINAL="8" NAME="_ZGVN9__gnu_cxx16bitmap_allocatorIcE15_S_last_requestE" PURGE="-1" COMMENT="" />
    <EXPORT ORDINAL="9" NAME="_ZGVN9__gnu_cxx16bitmap_allocatorIcE6_S_mutE" PURGE="-1" COMMENT="" />
    <EXPORT ORDINAL="10" NAME="_ZGVN9__gnu_cxx16bitmap_allocatorIwE13_S_mem_blocksE" PURGE="-1" COMMENT="" />
    <EXPORT ORDINAL="11" NAME="_ZGVN9__gnu_cxx16bitmap_allocatorIwE15_S_last_requestE" PURGE="-1" COMMENT="" />
    <EXPORT ORDINAL="12" NAME="_ZGVN9__gnu_cxx16bitmap_allocatorIwE6_S_mutE" PURGE="-1" COMMENT="" />
    <EXPORT ORDINAL="13" NAME="_ZGVNSt10moneypunctIcLb0EE2idE" PURGE="-1" COMMENT="" />
    <EXPORT ORDINAL="14" NAME="_ZGVNSt10moneypunctIcLb1EE2idE" PURGE="-1" COMMENT="" />
    <EXPORT ORDINAL="15" NAME="_ZGVNSt10moneypunctIwLb0EE2idE" PURGE="-1" COMMENT="" />
    <EXPORT ORDINAL="16" NAME="_ZGVNSt10moneypunctIwLb1EE2idE" PURGE="-1" COMMENT="" />
    <EXPORT ORDINAL="17" NAME="_ZGVNSt11__timepunctIcE2idE" PURGE="-1" COMMENT="" />
    <EXPORT ORDINAL="18" NAME="_ZGVNSt11__timepunctIwE2idE" PURGE="-1" COMMENT="" />
    <EXPORT ORDINAL="19" NAME="_ZGVNSt7__cxx1110moneypunctIcLb0EE2idE" PURGE="-1" COMMENT="" />
    <EXPORT ORDINAL="20" NAME="_ZGVNSt7__cxx1110moneypunctIcLb1EE2idE" PURGE="-1" COMMENT="" />
    <EXPORT ORDINAL="21" NAME="_ZGVNSt7__cxx1110moneypunctIwLb0EE2idE" PURGE="-1" COMMENT="" />
    <EXPORT ORDINAL="22" NAME="_ZGVNSt7__cxx1110moneypunctIwLb1EE2idE" PURGE="-1" COMMENT="" />
    <EXPORT ORDINAL="23" NAME="_ZGVNSt7__cxx117collateIcE2idE" PURGE="-1" COMMENT="" />
    <EXPORT ORDINAL="24" NAME="_ZGVNSt7__cxx117collateIwE2idE" PURGE="-1" COMMENT="" />
    <EXPORT ORDINAL="25" NAME="_ZGVNSt7__cxx118messagesIcE2idE" PURGE="-1" COMMENT="" />
    <EXPORT ORDINAL="26" NAME="_ZGVNSt7__cxx118messagesIwE2idE" PURGE="-1" COMMENT="" />
    <EXPORT ORDINAL="27" NAME="_ZGVNSt7__cxx118numpunctIcE2idE" PURGE="-1" COMMENT="" />
    <EXPORT ORDINAL="28" NAME="_ZGVNSt7__cxx118numpunctIwE2idE" PURGE="-1" COMMENT="" />
    <EXPORT ORDINAL="29" NAME="_ZGVNSt7__cxx118time_getIcSt19istreambuf_iteratorIcSt11char_traitsIcEEE2idE" PURGE="-1" COMMENT="" />
    <EXPORT ORDINAL="30" NAME="_ZGVNSt7__cxx118time_getIwSt19istreambuf_iteratorIwSt11char_traitsIwEEE2idE" PURGE="-1" COMMENT="" />
    <EXPORT ORDINAL="31" NAME="_ZGVNSt7__cxx119money_getIcSt19istreambuf_iteratorIcSt11char_traitsIcEEE2idE" PURGE="-1" COMMENT="" />
    <EXPORT ORDINAL="32" NAME="_ZGVNSt7__cxx119money_getIwSt19istreambuf_iteratorIwSt11char_traitsIwEEE2idE" PURGE="-1" COMMENT="" />
    <EXPORT ORDINAL="33" NAME="_ZGVNSt7__cxx119money_putIcSt19ostreambuf_iteratorIcSt11char_traitsIcEEE2idE" PURGE="-1" COMMENT="" />
    <EXPORT ORDINAL="34" NAME="_ZGVNSt7__cxx119money_putIwSt19ostreambuf_iteratorIwSt11char_traitsIwEEE2idE" PURGE="-1" COMMENT="" />
    <EXPORT ORDINAL="35" NAME="_ZGVNSt7collateIcE2idE" PURGE="-1" COMMENT="" />
    <EXPORT ORDINAL="36" NAME="_ZGVNSt7collateIwE2idE" PURGE="-1" COMMENT="" />
    <EXPORT ORDINAL="37" NAME="_ZGVNSt7num_getIcSt19istreambuf_iteratorIcSt11char_traitsIcEEE2idE" PURGE="-1" COMMENT="" />
    <EXPORT ORDINAL="38" NAME="_ZGVNSt7num_getIwSt19istreambuf_iteratorIwSt11char_traitsIwEEE2idE" PURGE="-1" COMMENT="" />
    <EXPORT ORDINAL="39" NAME="_ZGVNSt7num_putIcSt19ostreambuf_iteratorIcSt11char_traitsIcEEE2idE" PURGE="-1" COMMENT="" />
    <EXPORT ORDINAL="40" NAME="_ZGVNSt7num_putIwSt19ostreambuf_iteratorIwSt11char_traitsIwEEE2idE" PURGE="-1" COMMENT="" />
    <EXPORT ORDINAL="41" NAME="_ZGVNSt8messagesIcE2idE" PURGE="-1" COMMENT="" />
    <EXPORT ORDINAL="42" NAME="_ZGVNSt8messagesIwE2idE" PURGE="-1" COMMENT="" />
    <EXPORT ORDINAL="43" NAME="_ZGVNSt8numpunctIcE2idE" PURGE="-1" COMMENT="" />
    <EXPORT ORDINAL="44" NAME="_ZGVNSt8numpunctIwE2idE" PURGE="-1" COMMENT="" />
    <EXPORT ORDINAL="45" NAME="_ZGVNSt8time_getIcSt19istreambuf_iteratorIcSt11char_traitsIcEEE2idE" PURGE="-1" COMMENT="" />
    <EXPORT ORDINAL="46" NAME="_ZGVNSt8time_getIwSt19istreambuf_iteratorIwSt11char_traitsIwEEE2idE" PURGE="-1" COMMENT="" />
    <EXPORT ORDINAL="47" NAME="_ZGVNSt8time_putIcSt19ostreambuf_iteratorIcSt11char_traitsIcEEE2idE" PURGE="-1" COMMENT="" />
    <EXPORT ORDINAL="48" NAME="_ZGVNSt8time_putIwSt19ostreambuf_iteratorIwSt11char_traitsIwEEE2idE" PURGE="-1" COMMENT="" />
    <EXPORT ORDINAL="49" NAME="_ZGVNSt9money_getIcSt19istreambuf_iteratorIcSt11char_traitsIcEEE2idE" PURGE="-1" COMMENT="" />
    <EXPORT ORDINAL="50" NAME="_ZGVNSt9money_getIwSt19istreambuf_iteratorIwSt11char_traitsIwEEE2idE" PURGE="-1" COMMENT="" />
    <EXPORT ORDINAL="51" NAME="_ZGVNSt9money_putIcSt19ostreambuf_iteratorIcSt11char_traitsIcEEE2idE" PURGE="-1" COMMENT="" />
    <EXPORT ORDINAL="52" NAME="_ZGVNSt9money_putIwSt19ostreambuf_iteratorIwSt11char_traitsIwEEE2idE" PURGE="-1" COMMENT="" />
    <EXPORT ORDINAL="53" NAME="_ZGVZN9__gnu_cxx13__common_poolINS_6__poolELb1EE11_S_get_poolEvE7_S_pool" PURGE="-1" COMMENT="" />
    <EXPORT ORDINAL="54" NAME="_ZGVZN9__gnu_cxx9free_list12_M_get_mutexEvE8_S_mutex" PURGE="-1" COMMENT="" />
    <EXPORT ORDINAL="55" NAME="_ZGVZN9__gnu_cxx9free_list16_M_get_free_listEvE12_S_free_list" PURGE="-1" COMMENT="" />
    <EXPORT ORDINAL="56" NAME="_ZGVZNSt8__detail18__waiter_pool_base6_S_forEPKvE3__w" PURGE="-1" COMMENT="" />
    <EXPORT ORDINAL="57" NAME="_ZN10__cxxabiv111__terminateEPFvvE" PURGE="-1" COMMENT="" />
    <EXPORT ORDINAL="58" NAME="_ZN10__cxxabiv112__unexpectedEPFvvE" PURGE="-1" COMMENT="" />
    <EXPORT ORDINAL="59" NAME="_ZN10__cxxabiv115__forced_unwindD0Ev" PURGE="-1" COMMENT="" />
    <EXPORT ORDINAL="60" NAME="_ZN10__cxxabiv115__forced_unwindD1Ev" PURGE="0" COMMENT="" />
    <EXPORT ORDINAL="61" NAME="_ZN10__cxxabiv115__forced_unwindD2Ev" PURGE="0" COMMENT="" />
    <EXPORT ORDINAL="62" NAME="_ZN10__cxxabiv116__enum_type_infoD0Ev" PURGE="-1" COMMENT="" />
    <EXPORT ORDINAL="63" NAME="_ZN10__cxxabiv116__enum_type_infoD1Ev" PURGE="0" COMMENT="" />
    <EXPORT ORDINAL="64" NAME="_ZN10__cxxabiv116__enum_type_infoD2Ev" PURGE="0" COMMENT="" />
    <EXPORT ORDINAL="65" NAME="_ZN10__cxxabiv117__array_type_infoD0Ev" PURGE="-1" COMMENT="" />
    <EXPORT ORDINAL="66" NAME="_ZN10__cxxabiv117__array_type_infoD1Ev" PURGE="0" COMMENT="" />
    <EXPORT ORDINAL="67" NAME="_ZN10__cxxabiv117__array_type_infoD2Ev" PURGE="0" COMMENT="" />
    <EXPORT ORDINAL="68" NAME="_ZN10__cxxabiv117__class_type_infoD0Ev" PURGE="-1" COMMENT="" />
    <EXPORT ORDINAL="69" NAME="_ZN10__cxxabiv117__class_type_infoD1Ev" PURGE="0" COMMENT="" />
    <EXPORT ORDINAL="70" NAME="_ZN10__cxxabiv117__class_type_infoD2Ev" PURGE="0" COMMENT="" />
    <EXPORT ORDINAL="71" NAME="_ZN10__cxxabiv117__pbase_type_infoD0Ev" PURGE="-1" COMMENT="" />
    <EXPORT ORDINAL="72" NAME="_ZN10__cxxabiv117__pbase_type_infoD1Ev" PURGE="0" COMMENT="" />
    <EXPORT ORDINAL="73" NAME="_ZN10__cxxabiv117__pbase_type_infoD2Ev" PURGE="0" COMMENT="" />
    <EXPORT ORDINAL="74" NAME="_ZN10__cxxabiv119__foreign_exceptionD0Ev" PURGE="-1" COMMENT="" />
    <EXPORT ORDINAL="75" NAME="_ZN10__cxxabiv119__foreign_exceptionD1Ev" PURGE="0" COMMENT="" />
    <EXPORT ORDINAL="76" NAME="_ZN10__cxxabiv119__foreign_exceptionD2Ev" PURGE="0" COMMENT="" />
    <EXPORT ORDINAL="77" NAME="_ZN10__cxxabiv119__pointer_type_infoD0Ev" PURGE="-1" COMMENT="" />
    <EXPORT ORDINAL="78" NAME="_ZN10__cxxabiv119__pointer_type_infoD1Ev" PURGE="0" COMMENT="" />
    <EXPORT ORDINAL="79" NAME="_ZN10__cxxabiv119__pointer_type_infoD2Ev" PURGE="0" COMMENT="" />
    <EXPORT ORDINAL="80" NAME="_ZN10__cxxabiv119__terminate_handlerE" PURGE="-1" COMMENT="" />
    <EXPORT ORDINAL="81" NAME="_ZN10__cxxabiv120__function_type_infoD0Ev" PURGE="-1" COMMENT="" />
    <EXPORT ORDINAL="82" NAME="_ZN10__cxxabiv120__function_type_infoD1Ev" PURGE="0" COMMENT="" />
    <EXPORT ORDINAL="83" NAME="_ZN10__cxxabiv120__function_type_infoD2Ev" PURGE="0" COMMENT="" />
    <EXPORT ORDINAL="84" NAME="_ZN10__cxxabiv120__si_class_type_infoD0Ev" PURGE="-1" COMMENT="" />
    <EXPORT ORDINAL="85" NAME="_ZN10__cxxabiv120__si_class_type_infoD1Ev" PURGE="0" COMMENT="" />
    <EXPORT ORDINAL="86" NAME="_ZN10__cxxabiv120__si_class_type_infoD2Ev" PURGE="0" COMMENT="" />
    <EXPORT ORDINAL="87" NAME="_ZN10__cxxabiv120__unexpected_handlerE" PURGE="-1" COMMENT="" />
    <EXPORT ORDINAL="88" NAME="_ZN10__cxxabiv121__vmi_class_type_infoD0Ev" PURGE="-1" COMMENT="" />
    <EXPORT ORDINAL="89" NAME="_ZN10__cxxabiv121__vmi_class_type_infoD1Ev" PURGE="0" COMMENT="" />
    <EXPORT ORDINAL="90" NAME="_ZN10__cxxabiv121__vmi_class_type_infoD2Ev" PURGE="0" COMMENT="" />
    <EXPORT ORDINAL="91" NAME="_ZN10__cxxabiv123__fundamental_type_infoD0Ev" PURGE="-1" COMMENT="" />
    <EXPORT ORDINAL="92" NAME="_ZN10__cxxabiv123__fundamental_type_infoD1Ev" PURGE="0" COMMENT="" />
    <EXPORT ORDINAL="93" NAME="_ZN10__cxxabiv123__fundamental_type_infoD2Ev" PURGE="0" COMMENT="" />
    <EXPORT ORDINAL="94" NAME="_ZN10__cxxabiv129__pointer_to_member_type_infoD0Ev" PURGE="-1" COMMENT="" />
    <EXPORT ORDINAL="95" NAME="_ZN10__cxxabiv129__pointer_to_member_type_infoD1Ev" PURGE="0" COMMENT="" />
    <EXPORT ORDINAL="96" NAME="_ZN10__cxxabiv129__pointer_to_member_type_infoD2Ev" PURGE="0" COMMENT="" />
    <EXPORT ORDINAL="97" NAME="_ZN11__gnu_debug19_Safe_iterator_base12_M_get_mutexEv" PURGE="0" COMMENT="" />
    <EXPORT ORDINAL="98" NAME="_ZN11__gnu_debug19_Safe_iterator_base16_M_attach_singleEPNS_19_Safe_sequence_baseEb" PURGE="0" COMMENT="" />
    <EXPORT ORDINAL="99" NAME="_ZN11__gnu_debug19_Safe_iterator_base16_M_detach_singleEv" PURGE="0" COMMENT="" />
    <EXPORT ORDINAL="100" NAME="_ZN11__gnu_debug19_Safe_iterator_base8_M_resetEv" PURGE="0" COMMENT="" />
    <EXPORT ORDINAL="101" NAME="_ZN11__gnu_debug19_Safe_iterator_base9_M_attachEPNS_19_Safe_sequence_baseEb" PURGE="0" COMMENT="" />
    <EXPORT ORDINAL="102" NAME="_ZN11__gnu_debug19_Safe_iterator_base9_M_detachEv" PURGE="0" COMMENT="" />
    <EXPORT ORDINAL="103" NAME="_ZN11__gnu_debug19_Safe_sequence_base12_M_get_mutexEv" PURGE="0" COMMENT="" />
    <EXPORT ORDINAL="104" NAME="_ZN11__gnu_debug19_Safe_sequence_base13_M_detach_allEv" PURGE="0" COMMENT="" />
    <EXPORT ORDINAL="105" NAME="_ZN11__gnu_debug19_Safe_sequence_base16_M_attach_singleEPNS_19_Safe_iterator_baseEb" PURGE="0" COMMENT="" />
    <EXPORT ORDINAL="106" NAME="_ZN11__gnu_debug19_Safe_sequence_base16_M_detach_singleEPNS_19_Safe_iterator_baseE" PURGE="0" COMMENT="" />
    <EXPORT ORDINAL="107" NAME="_ZN11__gnu_debug19_Safe_sequence_base18_M_detach_singularEv" PURGE="0" COMMENT="" />
    <EXPORT ORDINAL="108" NAME="_ZN11__gnu_debug19_Safe_sequence_base22_M_revalidate_singularEv" PURGE="0" COMMENT="" />
    <EXPORT ORDINAL="109" NAME="_ZN11__gnu_debug19_Safe_sequence_base7_M_swapERS0_" PURGE="0" COMMENT="" />
    <EXPORT ORDINAL="110" NAME="_ZN11__gnu_debug19_Safe_sequence_base9_M_attachEPNS_19_Safe_iterator_baseEb" PURGE="0" COMMENT="" />
    <EXPORT ORDINAL="111" NAME="_ZN11__gnu_debug19_Safe_sequence_base9_M_detachEPNS_19_Safe_iterator_baseE" PURGE="0" COMMENT="" />
    <EXPORT ORDINAL="112" NAME="_ZN11__gnu_debug25_Safe_local_iterator_base16_M_attach_singleEPNS_19_Safe_sequence_baseEb" PURGE="0" COMMENT="" />
    <EXPORT ORDINAL="113" NAME="_ZN11__gnu_debug25_Safe_local_iterator_base16_M_detach_singleEv" PURGE="0" COMMENT="" />
    <EXPORT ORDINAL="114" NAME="_ZN11__gnu_debug25_Safe_local_iterator_base9_M_attachEPNS_19_Safe_sequence_baseEb" PURGE="0" COMMENT="" />
    <EXPORT ORDINAL="115" NAME="_ZN11__gnu_debug25_Safe_local_iterator_base9_M_detachEv" PURGE="0" COMMENT="" />
    <EXPORT ORDINAL="116" NAME="_ZN11__gnu_debug30_Safe_unordered_container_base13_M_detach_allEv" PURGE="0" COMMENT="" />
    <EXPORT ORDINAL="117" NAME="_ZN11__gnu_debug30_Safe_unordered_container_base15_M_attach_localEPNS_19_Safe_iterator_baseEb" PURGE="0" COMMENT="" />
    <EXPORT ORDINAL="118" NAME="_ZN11__gnu_debug30_Safe_unordered_container_base15_M_detach_localEPNS_19_Safe_iterator_baseE" PURGE="0" COMMENT="" />
    <EXPORT ORDINAL="119" NAME="_ZN11__gnu_debug30_Safe_unordered_container_base22_M_attach_local_singleEPNS_19_Safe_iterator_baseEb" PURGE="0" COMMENT="" />
    <EXPORT ORDINAL="120" NAME="_ZN11__gnu_debug30_Safe_unordered_container_base22_M_detach_local_singleEPNS_19_Safe_iterator_baseE" PURGE="0" COMMENT="" />
    <EXPORT ORDINAL="121" NAME="_ZN11__gnu_debug30_Safe_unordered_container_base7_M_swapERS0_" PURGE="0" COMMENT="" />
    <EXPORT ORDINAL="122" NAME="_ZN14__gnu_internal12buf_cin_syncE" PURGE="-1" COMMENT="" />
    <EXPORT ORDINAL="123" NAME="_ZN14__gnu_internal13buf_cerr_syncE" PURGE="-1" COMMENT="" />
    <EXPORT ORDINAL="124" NAME="_ZN14__gnu_internal13buf_cout_syncE" PURGE="-1" COMMENT="" />
    <EXPORT ORDINAL="125" NAME="_ZN14__gnu_internal13buf_wcin_syncE" PURGE="-1" COMMENT="" />
    <EXPORT ORDINAL="126" NAME="_ZN14__gnu_internal14buf_wcerr_syncE" PURGE="-1" COMMENT="" />
    <EXPORT ORDINAL="127" NAME="_ZN14__gnu_internal14buf_wcout_syncE" PURGE="-1" COMMENT="" />
    <EXPORT ORDINAL="128" NAME="_ZN14__gnu_internal7buf_cinE" PURGE="-1" COMMENT="" />
    <EXPORT ORDINAL="129" NAME="_ZN14__gnu_internal8buf_cerrE" PURGE="-1" COMMENT="" />
    <EXPORT ORDINAL="130" NAME="_ZN14__gnu_internal8buf_coutE" PURGE="-1" COMMENT="" />
    <EXPORT ORDINAL="131" NAME="_ZN14__gnu_internal8buf_wcinE" PURGE="-1" COMMENT="" />
    <EXPORT ORDINAL="132" NAME="_ZN14__gnu_internal9buf_wcerrE" PURGE="-1" COMMENT="" />
    <EXPORT ORDINAL="133" NAME="_ZN14__gnu_internal9buf_wcoutE" PURGE="-1" COMMENT="" />
    <EXPORT ORDINAL="134" NAME="_ZN14__gnu_internal9get_mutexEh" PURGE="0" COMMENT="" />
    <EXPORT ORDINAL="135" NAME="_ZN14__gnu_parallel9_Settings3getEv" PURGE="0" COMMENT="" />
    <EXPORT ORDINAL="136" NAME="_ZN14__gnu_parallel9_Settings3setERS0_" PURGE="0" COMMENT="" />
    <EXPORT ORDINAL="137" NAME="_ZN9__gnu_cxx10__mt_allocIcNS_20__common_pool_policyINS_6__poolELb1EEEE10deallocateEPcy" PURGE="0" COMMENT="" />
    <EXPORT ORDINAL="138" NAME="_ZN9__gnu_cxx10__mt_allocIcNS_20__common_pool_policyINS_6__poolELb1EEEE14_M_get_optionsEv" PURGE="0" COMMENT="" />
    <EXPORT ORDINAL="139" NAME="_ZN9__gnu_cxx10__mt_allocIcNS_20__common_pool_policyINS_6__poolELb1EEEE14_M_set_optionsENS_11__pool_base5_TuneE" PURGE="0" COMMENT="" />
    <EXPORT ORDINAL="140" NAME="_ZN9__gnu_cxx10__mt_allocIcNS_20__common_pool_policyINS_6__poolELb1EEEE8allocateEyPKv" PURGE="0" COMMENT="" />
    <EXPORT ORDINAL="141" NAME="_ZN9__gnu_cxx10__mt_allocIcNS_20__common_pool_policyINS_6__poolELb1EEEEC1ERKS4_" PURGE="0" COMMENT="" />
    <EXPORT ORDINAL="142" NAME="_ZN9__gnu_cxx10__mt_allocIcNS_20__common_pool_policyINS_6__poolELb1EEEEC1Ev" PURGE="0" COMMENT="" />
    <EXPORT ORDINAL="143" NAME="_ZN9__gnu_cxx10__mt_allocIcNS_20__common_pool_policyINS_6__poolELb1EEEEC2ERKS4_" PURGE="0" COMMENT="" />
    <EXPORT ORDINAL="144" NAME="_ZN9__gnu_cxx10__mt_allocIcNS_20__common_pool_policyINS_6__poolELb1EEEEC2Ev" PURGE="0" COMMENT="" />
    <EXPORT ORDINAL="145" NAME="_ZN9__gnu_cxx10__mt_allocIcNS_20__common_pool_policyINS_6__poolELb1EEEED1Ev" PURGE="0" COMMENT="" />
    <EXPORT ORDINAL="146" NAME="_ZN9__gnu_cxx10__mt_allocIcNS_20__common_pool_policyINS_6__poolELb1EEEED2Ev" PURGE="0" COMMENT="" />
    <EXPORT ORDINAL="147" NAME="_ZN9__gnu_cxx10__mt_allocIwNS_20__common_pool_policyINS_6__poolELb1EEEE10deallocateEPwy" PURGE="0" COMMENT="" />
    <EXPORT ORDINAL="148" NAME="_ZN9__gnu_cxx10__mt_allocIwNS_20__common_pool_policyINS_6__poolELb1EEEE14_M_get_optionsEv" PURGE="0" COMMENT="" />
    <EXPORT ORDINAL="149" NAME="_ZN9__gnu_cxx10__mt_allocIwNS_20__common_pool_policyINS_6__poolELb1EEEE14_M_set_optionsENS_11__pool_base5_TuneE" PURGE="0" COMMENT="" />
    <EXPORT ORDINAL="150" NAME="_ZN9__gnu_cxx10__mt_allocIwNS_20__common_pool_policyINS_6__poolELb1EEEE8allocateEyPKv" PURGE="0" COMMENT="" />
    <EXPORT ORDINAL="151" NAME="_ZN9__gnu_cxx10__mt_allocIwNS_20__common_pool_policyINS_6__poolELb1EEEEC1ERKS4_" PURGE="0" COMMENT="" />
    <EXPORT ORDINAL="152" NAME="_ZN9__gnu_cxx10__mt_allocIwNS_20__common_pool_policyINS_6__poolELb1EEEEC1Ev" PURGE="0" COMMENT="" />
    <EXPORT ORDINAL="153" NAME="_ZN9__gnu_cxx10__mt_allocIwNS_20__common_pool_policyINS_6__poolELb1EEEEC2ERKS4_" PURGE="0" COMMENT="" />
    <EXPORT ORDINAL="154" NAME="_ZN9__gnu_cxx10__mt_allocIwNS_20__common_pool_policyINS_6__poolELb1EEEEC2Ev" PURGE="0" COMMENT="" />
    <EXPORT ORDINAL="155" NAME="_ZN9__gnu_cxx10__mt_allocIwNS_20__common_pool_policyINS_6__poolELb1EEEED1Ev" PURGE="0" COMMENT="" />
    <EXPORT ORDINAL="156" NAME="_ZN9__gnu_cxx10__mt_allocIwNS_20__common_pool_policyINS_6__poolELb1EEEED2Ev" PURGE="0" COMMENT="" />
    <EXPORT ORDINAL="157" NAME="_ZN9__gnu_cxx12__atomic_addEPVii" PURGE="0" COMMENT="" />
    <EXPORT ORDINAL="158" NAME="_ZN9__gnu_cxx12__pool_allocIcE10deallocateEPcy" PURGE="0" COMMENT="" />
    <EXPORT ORDINAL="159" NAME="_ZN9__gnu_cxx12__pool_allocIcE12_S_force_newE" PURGE="-1" COMMENT="" />
    <EXPORT ORDINAL="160" NAME="_ZN9__gnu_cxx12__pool_allocIcE7destroyEPc" PURGE="0" COMMENT="" />
    <EXPORT ORDINAL="161" NAME="_ZN9__gnu_cxx12__pool_allocIcE8allocateEyPKv" PURGE="0" COMMENT="" />
    <EXPORT ORDINAL="162" NAME="_ZN9__gnu_cxx12__pool_allocIcE9constructEPcRKc" PURGE="0" COMMENT="" />
    <EXPORT ORDINAL="163" NAME="_ZN9__gnu_cxx12__pool_allocIcEC1ERKS1_" PURGE="0" COMMENT="" />
    <EXPORT ORDINAL="164" NAME="_ZN9__gnu_cxx12__pool_allocIcEC1Ev" PURGE="0" COMMENT="" />
    <EXPORT ORDINAL="165" NAME="_ZN9__gnu_cxx12__pool_allocIcEC2ERKS1_" PURGE="0" COMMENT="" />
    <EXPORT ORDINAL="166" NAME="_ZN9__gnu_cxx12__pool_allocIcEC2Ev" PURGE="0" COMMENT="" />
    <EXPORT ORDINAL="167" NAME="_ZN9__gnu_cxx12__pool_allocIcED1Ev" PURGE="0" COMMENT="" />
    <EXPORT ORDINAL="168" NAME="_ZN9__gnu_cxx12__pool_allocIcED2Ev" PURGE="0" COMMENT="" />
    <EXPORT ORDINAL="169" NAME="_ZN9__gnu_cxx12__pool_allocIwE10deallocateEPwy" PURGE="0" COMMENT="" />
    <EXPORT ORDINAL="170" NAME="_ZN9__gnu_cxx12__pool_allocIwE12_S_force_newE" PURGE="-1" COMMENT="" />
    <EXPORT ORDINAL="171" NAME="_ZN9__gnu_cxx12__pool_allocIwE7destroyEPw" PURGE="0" COMMENT="" />
    <EXPORT ORDINAL="172" NAME="_ZN9__gnu_cxx12__pool_allocIwE8allocateEyPKv" PURGE="0" COMMENT="" />
    <EXPORT ORDINAL="173" NAME="_ZN9__gnu_cxx12__pool_allocIwE9constructEPwRKw" PURGE="0" COMMENT="" />
    <EXPORT ORDINAL="174" NAME="_ZN9__gnu_cxx12__pool_allocIwEC1ERKS1_" PURGE="0" COMMENT="" />
    <EXPORT ORDINAL="175" NAME="_ZN9__gnu_cxx12__pool_allocIwEC1Ev" PURGE="0" COMMENT="" />
    <EXPORT ORDINAL="176" NAME="_ZN9__gnu_cxx12__pool_allocIwEC2ERKS1_" PURGE="0" COMMENT="" />
    <EXPORT ORDINAL="177" NAME="_ZN9__gnu_cxx12__pool_allocIwEC2Ev" PURGE="0" COMMENT="" />
    <EXPORT ORDINAL="178" NAME="_ZN9__gnu_cxx12__pool_allocIwED1Ev" PURGE="0" COMMENT="" />
    <EXPORT ORDINAL="179" NAME="_ZN9__gnu_cxx12__pool_allocIwED2Ev" PURGE="0" COMMENT="" />
    <EXPORT ORDINAL="180" NAME="_ZN9__gnu_cxx13__scoped_lockD1Ev" PURGE="0" COMMENT="" />
    <EXPORT ORDINAL="181" NAME="_ZN9__gnu_cxx13stdio_filebufIcSt11char_traitsIcEE2fdEv" PURGE="0" COMMENT="" />
    <EXPORT ORDINAL="182" NAME="_ZN9__gnu_cxx13stdio_filebufIcSt11char_traitsIcEE4fileEv" PURGE="0" COMMENT="" />
    <EXPORT ORDINAL="183" NAME="_ZN9__gnu_cxx13stdio_filebufIcSt11char_traitsIcEE4swapERS3_" PURGE="0" COMMENT="" />
    <EXPORT ORDINAL="184" NAME="_ZN9__gnu_cxx13stdio_filebufIcSt11char_traitsIcEEC1EP6_iobufSt13_Ios_Openmodey" PURGE="0" COMMENT="" />
    <EXPORT ORDINAL="185" NAME="_ZN9__gnu_cxx13stdio_filebufIcSt11char_traitsIcEEC1EiSt13_Ios_Openmodey" PURGE="0" COMMENT="" />
    <EXPORT ORDINAL="186" NAME="_ZN9__gnu_cxx13stdio_filebufIcSt11char_traitsIcEEC1Ev" PURGE="0" COMMENT="" />
    <EXPORT ORDINAL="187" NAME="_ZN9__gnu_cxx13stdio_filebufIcSt11char_traitsIcEEC2EP6_iobufSt13_Ios_Openmodey" PURGE="0" COMMENT="" />
    <EXPORT ORDINAL="188" NAME="_ZN9__gnu_cxx13stdio_filebufIcSt11char_traitsIcEEC2EiSt13_Ios_Openmodey" PURGE="0" COMMENT="" />
    <EXPORT ORDINAL="189" NAME="_ZN9__gnu_cxx13stdio_filebufIcSt11char_traitsIcEEC2Ev" PURGE="0" COMMENT="" />
    <EXPORT ORDINAL="190" NAME="_ZN9__gnu_cxx13stdio_filebufIcSt11char_traitsIcEED0Ev" PURGE="-1" COMMENT="" />
    <EXPORT ORDINAL="191" NAME="_ZN9__gnu_cxx13stdio_filebufIcSt11char_traitsIcEED1Ev" PURGE="0" COMMENT="" />
    <EXPORT ORDINAL="192" NAME="_ZN9__gnu_cxx13stdio_filebufIcSt11char_traitsIcEED2Ev" PURGE="0" COMMENT="" />
    <EXPORT ORDINAL="193" NAME="_ZN9__gnu_cxx13stdio_filebufIwSt11char_traitsIwEE2fdEv" PURGE="0" COMMENT="" />
    <EXPORT ORDINAL="194" NAME="_ZN9__gnu_cxx13stdio_filebufIwSt11char_traitsIwEE4fileEv" PURGE="0" COMMENT="" />
    <EXPORT ORDINAL="195" NAME="_ZN9__gnu_cxx13stdio_filebufIwSt11char_traitsIwEE4swapERS3_" PURGE="0" COMMENT="" />
    <EXPORT ORDINAL="196" NAME="_ZN9__gnu_cxx13stdio_filebufIwSt11char_traitsIwEEC1EP6_iobufSt13_Ios_Openmodey" PURGE="0" COMMENT="" />
    <EXPORT ORDINAL="197" NAME="_ZN9__gnu_cxx13stdio_filebufIwSt11char_traitsIwEEC1EiSt13_Ios_Openmodey" PURGE="0" COMMENT="" />
    <EXPORT ORDINAL="198" NAME="_ZN9__gnu_cxx13stdio_filebufIwSt11char_traitsIwEEC1Ev" PURGE="0" COMMENT="" />
    <EXPORT ORDINAL="199" NAME="_ZN9__gnu_cxx13stdio_filebufIwSt11char_traitsIwEEC2EP6_iobufSt13_Ios_Openmodey" PURGE="0" COMMENT="" />
    <EXPORT ORDINAL="200" NAME="_ZN9__gnu_cxx13stdio_filebufIwSt11char_traitsIwEEC2EiSt13_Ios_Openmodey" PURGE="0" COMMENT="" />
    <EXPORT ORDINAL="201" NAME="_ZN9__gnu_cxx13stdio_filebufIwSt11char_traitsIwEEC2Ev" PURGE="0" COMMENT="" />
    <EXPORT ORDINAL="202" NAME="_ZN9__gnu_cxx13stdio_filebufIwSt11char_traitsIwEED0Ev" PURGE="-1" COMMENT="" />
    <EXPORT ORDINAL="203" NAME="_ZN9__gnu_cxx13stdio_filebufIwSt11char_traitsIwEED1Ev" PURGE="0" COMMENT="" />
    <EXPORT ORDINAL="204" NAME="_ZN9__gnu_cxx13stdio_filebufIwSt11char_traitsIwEED2Ev" PURGE="0" COMMENT="" />
    <EXPORT ORDINAL="205" NAME="_ZN9__gnu_cxx15__concat_size_tEPcyy" PURGE="0" COMMENT="" />
    <EXPORT ORDINAL="206" NAME="_ZN9__gnu_cxx15__snprintf_liteEPcyPKcS0_" PURGE="0" COMMENT="" />
    <EXPORT ORDINAL="207" NAME="_ZN9__gnu_cxx16bitmap_allocatorIcE10deallocateEPcy" PURGE="0" COMMENT="" />
    <EXPORT ORDINAL="208" NAME="_ZN9__gnu_cxx16bitmap_allocatorIcE13_S_block_sizeE" PURGE="-1" COMMENT="" />
    <EXPORT ORDINAL="209" NAME="_ZN9__gnu_cxx16bitmap_allocatorIcE13_S_mem_blocksE" PURGE="-1" COMMENT="" />
    <EXPORT ORDINAL="210" NAME="_ZN9__gnu_cxx16bitmap_allocatorIcE14_S_refill_poolEv" PURGE="0" COMMENT="" />
    <EXPORT ORDINAL="211" NAME="_ZN9__gnu_cxx16bitmap_allocatorIcE15_S_last_requestE" PURGE="-1" COMMENT="" />
    <EXPORT ORDINAL="212" NAME="_ZN9__gnu_cxx16bitmap_allocatorIcE21_S_last_dealloc_indexE" PURGE="-1" COMMENT="" />
    <EXPORT ORDINAL="213" NAME="_ZN9__gnu_cxx16bitmap_allocatorIcE25_M_allocate_single_objectEv" PURGE="0" COMMENT="" />
    <EXPORT ORDINAL="214" NAME="_ZN9__gnu_cxx16bitmap_allocatorIcE27_M_deallocate_single_objectEPc" PURGE="0" COMMENT="" />
    <EXPORT ORDINAL="215" NAME="_ZN9__gnu_cxx16bitmap_allocatorIcE6_S_mutE" PURGE="-1" COMMENT="" />
    <EXPORT ORDINAL="216" NAME="_ZN9__gnu_cxx16bitmap_allocatorIcE7destroyEPc" PURGE="0" COMMENT="" />
    <EXPORT ORDINAL="217" NAME="_ZN9__gnu_cxx16bitmap_allocatorIcE8allocateEy" PURGE="0" COMMENT="" />
    <EXPORT ORDINAL="218" NAME="_ZN9__gnu_cxx16bitmap_allocatorIcE8allocateEyPKv" PURGE="0" COMMENT="" />
    <EXPORT ORDINAL="219" NAME="_ZN9__gnu_cxx16bitmap_allocatorIcE9constructEPcRKc" PURGE="0" COMMENT="" />
    <EXPORT ORDINAL="220" NAME="_ZN9__gnu_cxx16bitmap_allocatorIcEC1ERKS1_" PURGE="0" COMMENT="" />
    <EXPORT ORDINAL="221" NAME="_ZN9__gnu_cxx16bitmap_allocatorIcEC1Ev" PURGE="0" COMMENT="" />
    <EXPORT ORDINAL="222" NAME="_ZN9__gnu_cxx16bitmap_allocatorIcEC2ERKS1_" PURGE="0" COMMENT="" />
    <EXPORT ORDINAL="223" NAME="_ZN9__gnu_cxx16bitmap_allocatorIcEC2Ev" PURGE="0" COMMENT="" />
    <EXPORT ORDINAL="224" NAME="_ZN9__gnu_cxx16bitmap_allocatorIcED1Ev" PURGE="0" COMMENT="" />
    <EXPORT ORDINAL="225" NAME="_ZN9__gnu_cxx16bitmap_allocatorIcED2Ev" PURGE="0" COMMENT="" />
    <EXPORT ORDINAL="226" NAME="_ZN9__gnu_cxx16bitmap_allocatorIwE10deallocateEPwy" PURGE="0" COMMENT="" />
    <EXPORT ORDINAL="227" NAME="_ZN9__gnu_cxx16bitmap_allocatorIwE13_S_block_sizeE" PURGE="-1" COMMENT="" />
    <EXPORT ORDINAL="228" NAME="_ZN9__gnu_cxx16bitmap_allocatorIwE13_S_mem_blocksE" PURGE="-1" COMMENT="" />
    <EXPORT ORDINAL="229" NAME="_ZN9__gnu_cxx16bitmap_allocatorIwE14_S_refill_poolEv" PURGE="0" COMMENT="" />
    <EXPORT ORDINAL="230" NAME="_ZN9__gnu_cxx16bitmap_allocatorIwE15_S_last_requestE" PURGE="-1" COMMENT="" />
    <EXPORT ORDINAL="231" NAME="_ZN9__gnu_cxx16bitmap_allocatorIwE21_S_last_dealloc_indexE" PURGE="-1" COMMENT="" />
    <EXPORT ORDINAL="232" NAME="_ZN9__gnu_cxx16bitmap_allocatorIwE25_M_allocate_single_objectEv" PURGE="0" COMMENT="" />
    <EXPORT ORDINAL="233" NAME="_ZN9__gnu_cxx16bitmap_allocatorIwE27_M_deallocate_single_objectEPw" PURGE="0" COMMENT="" />
    <EXPORT ORDINAL="234" NAME="_ZN9__gnu_cxx16bitmap_allocatorIwE6_S_mutE" PURGE="-1" COMMENT="" />
    <EXPORT ORDINAL="235" NAME="_ZN9__gnu_cxx16bitmap_allocatorIwE7destroyEPw" PURGE="0" COMMENT="" />
    <EXPORT ORDINAL="236" NAME="_ZN9__gnu_cxx16bitmap_allocatorIwE8allocateEy" PURGE="0" COMMENT="" />
    <EXPORT ORDINAL="237" NAME="_ZN9__gnu_cxx16bitmap_allocatorIwE8allocateEyPKv" PURGE="0" COMMENT="" />
    <EXPORT ORDINAL="238" NAME="_ZN9__gnu_cxx16bitmap_allocatorIwE9constructEPwRKw" PURGE="0" COMMENT="" />
    <EXPORT ORDINAL="239" NAME="_ZN9__gnu_cxx16bitmap_allocatorIwEC1ERKS1_" PURGE="0" COMMENT="" />
    <EXPORT ORDINAL="240" NAME="_ZN9__gnu_cxx16bitmap_allocatorIwEC1Ev" PURGE="0" COMMENT="" />
    <EXPORT ORDINAL="241" NAME="_ZN9__gnu_cxx16bitmap_allocatorIwEC2ERKS1_" PURGE="0" COMMENT="" />
    <EXPORT ORDINAL="242" NAME="_ZN9__gnu_cxx16bitmap_allocatorIwEC2Ev" PURGE="0" COMMENT="" />
    <EXPORT ORDINAL="243" NAME="_ZN9__gnu_cxx16bitmap_allocatorIwED1Ev" PURGE="0" COMMENT="" />
    <EXPORT ORDINAL="244" NAME="_ZN9__gnu_cxx16bitmap_allocatorIwED2Ev" PURGE="0" COMMENT="" />
    <EXPORT ORDINAL="245" NAME="_ZN9__gnu_cxx17__pool_alloc_base11_S_end_freeE" PURGE="-1" COMMENT="" />
    <EXPORT ORDINAL="246" NAME="_ZN9__gnu_cxx17__pool_alloc_base12_M_get_mutexEv" PURGE="0" COMMENT="" />
    <EXPORT ORDINAL="247" NAME="_ZN9__gnu_cxx17__pool_alloc_base12_S_free_listE" PURGE="-1" COMMENT="" />
    <EXPORT ORDINAL="248" NAME="_ZN9__gnu_cxx17__pool_alloc_base12_S_heap_sizeE" PURGE="-1" COMMENT="" />
    <EXPORT ORDINAL="249" NAME="_ZN9__gnu_cxx17__pool_alloc_base13_S_start_freeE" PURGE="-1" COMMENT="" />
    <EXPORT ORDINAL="250" NAME="_ZN9__gnu_cxx17__pool_alloc_base16_M_get_free_listEy" PURGE="0" COMMENT="" />
    <EXPORT ORDINAL="251" NAME="_ZN9__gnu_cxx17__pool_alloc_base17_M_allocate_chunkEyRi" PURGE="0" COMMENT="" />
    <EXPORT ORDINAL="252" NAME="_ZN9__gnu_cxx17__pool_alloc_base9_M_refillEy" PURGE="0" COMMENT="" />
    <EXPORT ORDINAL="253" NAME="_ZN9__gnu_cxx18__common_pool_baseINS_6__poolELb1EE13_S_initializeEv" PURGE="0" COMMENT="" />
    <EXPORT ORDINAL="254" NAME="_ZN9__gnu_cxx18__exchange_and_addEPVii" PURGE="0" COMMENT="" />
    <EXPORT ORDINAL="255" NAME="_ZN9__gnu_cxx18stdio_sync_filebufIcSt11char_traitsIcEE4fileEv" PURGE="0" COMMENT="" />
    <EXPORT ORDINAL="256" NAME="_ZN9__gnu_cxx18stdio_sync_filebufIcSt11char_traitsIcEE4swapERS3_" PURGE="0" COMMENT="" />
    <EXPORT ORDINAL="257" NAME="_ZN9__gnu_cxx18stdio_sync_filebufIcSt11char_traitsIcEE4syncEv" PURGE="-1" COMMENT="" />
    <EXPORT ORDINAL="258" NAME="_ZN9__gnu_cxx18stdio_sync_filebufIcSt11char_traitsIcEE5uflowEv" PURGE="0" COMMENT="" />
    <EXPORT ORDINAL="259" NAME="_ZN9__gnu_cxx18stdio_sync_filebufIcSt11char_traitsIcEE6xsgetnEPcx" PURGE="0" COMMENT="" />
    <EXPORT ORDINAL="260" NAME="_ZN9__gnu_cxx18stdio_sync_filebufIcSt11char_traitsIcEE6xsputnEPKcx" PURGE="-1" COMMENT="" />
    <EXPORT ORDINAL="261" NAME="_ZN9__gnu_cxx18stdio_sync_filebufIcSt11char_traitsIcEE7seekoffExSt12_Ios_SeekdirSt13_Ios_Openmode" PURGE="0" COMMENT="" />
    <EXPORT ORDINAL="262" NAME="_ZN9__gnu_cxx18stdio_sync_filebufIcSt11char_traitsIcEE7seekposESt4fposIiESt13_Ios_Openmode" PURGE="0" COMMENT="" />
    <EXPORT ORDINAL="263" NAME="_ZN9__gnu_cxx18stdio_sync_filebufIcSt11char_traitsIcEE8overflowEi" PURGE="0" COMMENT="" />
    <EXPORT ORDINAL="264" NAME="_ZN9__gnu_cxx18stdio_sync_filebufIcSt11char_traitsIcEE9pbackfailEi" PURGE="0" COMMENT="" />
    <EXPORT ORDINAL="265" NAME="_ZN9__gnu_cxx18stdio_sync_filebufIcSt11char_traitsIcEE9underflowEv" PURGE="-1" COMMENT="" />
    <EXPORT ORDINAL="266" NAME="_ZN9__gnu_cxx18stdio_sync_filebufIcSt11char_traitsIcEEC1EOS3_" PURGE="0" COMMENT="" />
    <EXPORT ORDINAL="267" NAME="_ZN9__gnu_cxx18stdio_sync_filebufIcSt11char_traitsIcEEC1EP6_iobuf" PURGE="0" COMMENT="" />
    <EXPORT ORDINAL="268" NAME="_ZN9__gnu_cxx18stdio_sync_filebufIcSt11char_traitsIcEEC2EOS3_" PURGE="0" COMMENT="" />
    <EXPORT ORDINAL="269" NAME="_ZN9__gnu_cxx18stdio_sync_filebufIcSt11char_traitsIcEEC2EP6_iobuf" PURGE="0" COMMENT="" />
    <EXPORT ORDINAL="270" NAME="_ZN9__gnu_cxx18stdio_sync_filebufIcSt11char_traitsIcEED0Ev" PURGE="-1" COMMENT="" />
    <EXPORT ORDINAL="271" NAME="_ZN9__gnu_cxx18stdio_sync_filebufIcSt11char_traitsIcEED1Ev" PURGE="0" COMMENT="" />
    <EXPORT ORDINAL="272" NAME="_ZN9__gnu_cxx18stdio_sync_filebufIcSt11char_traitsIcEEaSEOS3_" PURGE="0" COMMENT="" />
    <EXPORT ORDINAL="273" NAME="_ZN9__gnu_cxx18stdio_sync_filebufIwSt11char_traitsIwEE4fileEv" PURGE="0" COMMENT="" />
    <EXPORT ORDINAL="274" NAME="_ZN9__gnu_cxx18stdio_sync_filebufIwSt11char_traitsIwEE4swapERS3_" PURGE="0" COMMENT="" />
    <EXPORT ORDINAL="275" NAME="_ZN9__gnu_cxx18stdio_sync_filebufIwSt11char_traitsIwEE4syncEv" PURGE="-1" COMMENT="" />
    <EXPORT ORDINAL="276" NAME="_ZN9__gnu_cxx18stdio_sync_filebufIwSt11char_traitsIwEE5uflowEv" PURGE="0" COMMENT="" />
    <EXPORT ORDINAL="277" NAME="_ZN9__gnu_cxx18stdio_sync_filebufIwSt11char_traitsIwEE6xsgetnEPwx" PURGE="0" COMMENT="" />
    <EXPORT ORDINAL="278" NAME="_ZN9__gnu_cxx18stdio_sync_filebufIwSt11char_traitsIwEE6xsputnEPKwx" PURGE="0" COMMENT="" />
    <EXPORT ORDINAL="279" NAME="_ZN9__gnu_cxx18stdio_sync_filebufIwSt11char_traitsIwEE7seekoffExSt12_Ios_SeekdirSt13_Ios_Openmode" PURGE="0" COMMENT="" />
    <EXPORT ORDINAL="280" NAME="_ZN9__gnu_cxx18stdio_sync_filebufIwSt11char_traitsIwEE7seekposESt4fposIiESt13_Ios_Openmode" PURGE="0" COMMENT="" />
    <EXPORT ORDINAL="281" NAME="_ZN9__gnu_cxx18stdio_sync_filebufIwSt11char_traitsIwEE8overflowEt" PURGE="0" COMMENT="" />
    <EXPORT ORDINAL="282" NAME="_ZN9__gnu_cxx18stdio_sync_filebufIwSt11char_traitsIwEE9pbackfailEt" PURGE="0" COMMENT="" />
    <EXPORT ORDINAL="283" NAME="_ZN9__gnu_cxx18stdio_sync_filebufIwSt11char_traitsIwEE9underflowEv" PURGE="-1" COMMENT="" />
    <EXPORT ORDINAL="284" NAME="_ZN9__gnu_cxx18stdio_sync_filebufIwSt11char_traitsIwEEC1EOS3_" PURGE="0" COMMENT="" />
    <EXPORT ORDINAL="285" NAME="_ZN9__gnu_cxx18stdio_sync_filebufIwSt11char_traitsIwEEC1EP6_iobuf" PURGE="0" COMMENT="" />
    <EXPORT ORDINAL="286" NAME="_ZN9__gnu_cxx18stdio_sync_filebufIwSt11char_traitsIwEEC2EOS3_" PURGE="0" COMMENT="" />
    <EXPORT ORDINAL="287" NAME="_ZN9__gnu_cxx18stdio_sync_filebufIwSt11char_traitsIwEEC2EP6_iobuf" PURGE="0" COMMENT="" />
    <EXPORT ORDINAL="288" NAME="_ZN9__gnu_cxx18stdio_sync_filebufIwSt11char_traitsIwEED0Ev" PURGE="-1" COMMENT="" />
    <EXPORT ORDINAL="289" NAME="_ZN9__gnu_cxx18stdio_sync_filebufIwSt11char_traitsIwEED1Ev" PURGE="0" COMMENT="" />
    <EXPORT ORDINAL="290" NAME="_ZN9__gnu_cxx18stdio_sync_filebufIwSt11char_traitsIwEEaSEOS3_" PURGE="0" COMMENT="" />
    <EXPORT ORDINAL="291" NAME="_ZN9__gnu_cxx19__function_requiresINS_19_ConvertibleConceptIjjEEEEvv" PURGE="0" COMMENT="" />
    <EXPORT ORDINAL="292" NAME="_ZN9__gnu_cxx19__function_requiresINS_21_InputIteratorConceptIPKcEEEEvv" PURGE="0" COMMENT="" />
    <EXPORT ORDINAL="293" NAME="_ZN9__gnu_cxx19__function_requiresINS_21_InputIteratorConceptIPKwEEEEvv" PURGE="0" COMMENT="" />
    <EXPORT ORDINAL="294" NAME="_ZN9__gnu_cxx19__function_requiresINS_21_InputIteratorConceptIPcEEEEvv" PURGE="0" COMMENT="" />
    <EXPORT ORDINAL="295" NAME="_ZN9__gnu_cxx19__function_requiresINS_21_InputIteratorConceptIPwEEEEvv" PURGE="0" COMMENT="" />
    <EXPORT ORDINAL="296" NAME="_ZN9__gnu_cxx19__function_requiresINS_22_OutputIteratorConceptISt19ostreambuf_iteratorIcSt11char_traitsIcEEcEEEEvv" PURGE="0" COMMENT="" />
    <EXPORT ORDINAL="297" NAME="_ZN9__gnu_cxx19__function_requiresINS_22_OutputIteratorConceptISt19ostreambuf_iteratorIwSt11char_traitsIwEEwEEEEvv" PURGE="0" COMMENT="" />
    <EXPORT ORDINAL="298" NAME="_ZN9__gnu_cxx19__function_requiresINS_26_LessThanComparableConceptIPcEEEEvv" PURGE="0" COMMENT="" />
    <EXPORT ORDINAL="299" NAME="_ZN9__gnu_cxx19__function_requiresINS_26_LessThanComparableConceptIPwEEEEvv" PURGE="0" COMMENT="" />
    <EXPORT ORDINAL="300" NAME="_ZN9__gnu_cxx19__function_requiresINS_26_LessThanComparableConceptIiEEEEvv" PURGE="0" COMMENT="" />
    <EXPORT ORDINAL="301" NAME="_ZN9__gnu_cxx19__function_requiresINS_26_LessThanComparableConceptIjEEEEvv" PURGE="0" COMMENT="" />
    <EXPORT ORDINAL="302" NAME="_ZN9__gnu_cxx19__function_requiresINS_26_LessThanComparableConceptIlEEEEvv" PURGE="0" COMMENT="" />
    <EXPORT ORDINAL="303" NAME="_ZN9__gnu_cxx19__function_requiresINS_26_LessThanComparableConceptIxEEEEvv" PURGE="0" COMMENT="" />
    <EXPORT ORDINAL="304" NAME="_ZN9__gnu_cxx19__function_requiresINS_28_RandomAccessIteratorConceptINS_17__normal_iteratorIPKcSsEEEEEEvv" PURGE="0" COMMENT="" />
    <EXPORT ORDINAL="305" NAME="_ZN9__gnu_cxx19__function_requiresINS_28_RandomAccessIteratorConceptINS_17__normal_iteratorIPKwSbIwSt11char_traitsIwESaIwEEEEEEEEvv" PURGE="0" COMMENT="" />
    <EXPORT ORDINAL="306" NAME="_ZN9__gnu_cxx19__function_requiresINS_28_RandomAccessIteratorConceptINS_17__normal_iteratorIPcSsEEEEEEvv" PURGE="0" COMMENT="" />
    <EXPORT ORDINAL="307" NAME="_ZN9__gnu_cxx19__function_requiresINS_28_RandomAccessIteratorConceptINS_17__normal_iteratorIPwSbIwSt11char_traitsIwESaIwEEEEEEEEvv" PURGE="0" COMMENT="" />
    <EXPORT ORDINAL="308" NAME="_ZN9__gnu_cxx19__function_requiresINS_28_RandomAccessIteratorConceptIPKcEEEEvv" PURGE="0" COMMENT="" />
    <EXPORT ORDINAL="309" NAME="_ZN9__gnu_cxx19__function_requiresINS_28_RandomAccessIteratorConceptIPKwEEEEvv" PURGE="0" COMMENT="" />
    <EXPORT ORDINAL="310" NAME="_ZN9__gnu_cxx19__function_requiresINS_28_RandomAccessIteratorConceptIPcEEEEvv" PURGE="0" COMMENT="" />
    <EXPORT ORDINAL="311" NAME="_ZN9__gnu_cxx19__function_requiresINS_28_RandomAccessIteratorConceptIPwEEEEvv" PURGE="0" COMMENT="" />
    <EXPORT ORDINAL="312" NAME="_ZN9__gnu_cxx20recursive_init_errorC1Ev" PURGE="0" COMMENT="" />
    <EXPORT ORDINAL="313" NAME="_ZN9__gnu_cxx20recursive_init_errorC2Ev" PURGE="0" COMMENT="" />
    <EXPORT ORDINAL="314" NAME="_ZN9__gnu_cxx20recursive_init_errorD0Ev" PURGE="-1" COMMENT="" />
    <EXPORT ORDINAL="315" NAME="_ZN9__gnu_cxx20recursive_init_errorD1Ev" PURGE="0" COMMENT="" />
    <EXPORT ORDINAL="316" NAME="_ZN9__gnu_cxx20recursive_init_errorD2Ev" PURGE="0" COMMENT="" />
    <EXPORT ORDINAL="317" NAME="_ZN9__gnu_cxx24__concurrence_lock_errorD0Ev" PURGE="-1" COMMENT="" />
    <EXPORT ORDINAL="318" NAME="_ZN9__gnu_cxx24__concurrence_lock_errorD1Ev" PURGE="0" COMMENT="" />
    <EXPORT ORDINAL="319" NAME="_ZN9__gnu_cxx24__concurrence_wait_errorD0Ev" PURGE="-1" COMMENT="" />
    <EXPORT ORDINAL="320" NAME="_ZN9__gnu_cxx24__concurrence_wait_errorD1Ev" PURGE="0" COMMENT="" />
    <EXPORT ORDINAL="321" NAME="_ZN9__gnu_cxx26__aux_require_boolean_exprIbEEvRKT_" PURGE="0" COMMENT="" />
    <EXPORT ORDINAL="322" NAME="_ZN9__gnu_cxx26__concurrence_unlock_errorD0Ev" PURGE="-1" COMMENT="" />
    <EXPORT ORDINAL="323" NAME="_ZN9__gnu_cxx26__concurrence_unlock_errorD1Ev" PURGE="0" COMMENT="" />
    <EXPORT ORDINAL="324" NAME="_ZN9__gnu_cxx26__throw_insufficient_spaceEPKcS1_" PURGE="-1" COMMENT="" />
    <EXPORT ORDINAL="325" NAME="_ZN9__gnu_cxx27__verbose_terminate_handlerEv" PURGE="-1" COMMENT="" />
    <EXPORT ORDINAL="326" NAME="_ZN9__gnu_cxx29__concurrence_broadcast_errorD0Ev" PURGE="-1" COMMENT="" />
    <EXPORT ORDINAL="327" NAME="_ZN9__gnu_cxx29__concurrence_broadcast_errorD1Ev" PURGE="0" COMMENT="" />
    <EXPORT ORDINAL="328" NAME="_ZN9__gnu_cxx30__throw_concurrence_lock_errorEv" PURGE="0" COMMENT="" />
    <EXPORT ORDINAL="329" NAME="_ZN9__gnu_cxx32__throw_concurrence_unlock_errorEv" PURGE="0" COMMENT="" />
    <EXPORT ORDINAL="330" NAME="_ZN9__gnu_cxx35__throw_concurrence_broadcast_errorEv" PURGE="0" COMMENT="" />
    <EXPORT ORDINAL="331" NAME="_ZN9__gnu_cxx4ropeIcSaIcEE10_S_min_lenE" PURGE="-1" COMMENT="" />
    <EXPORT ORDINAL="332" NAME="_ZN9__gnu_cxx4ropeIcSaIcEE8_S_fetchEPNS_13_Rope_RopeRepIcS1_EEy" PURGE="0" COMMENT="" />
    <EXPORT ORDINAL="333" NAME="_ZN9__gnu_cxx4ropeIwSaIwEE10_S_min_lenE" PURGE="-1" COMMENT="" />
    <EXPORT ORDINAL="334" NAME="_ZN9__gnu_cxx4ropeIwSaIwEE8_S_fetchEPNS_13_Rope_RopeRepIwS1_EEy" PURGE="0" COMMENT="" />
    <EXPORT ORDINAL="335" NAME="_ZN9__gnu_cxx6__poolILb0EE10_M_destroyEv" PURGE="0" COMMENT="" />
    <EXPORT ORDINAL="336" NAME="_ZN9__gnu_cxx6__poolILb0EE13_M_initializeEv" PURGE="0" COMMENT="" />
    <EXPORT ORDINAL="337" NAME="_ZN9__gnu_cxx6__poolILb0EE16_M_reclaim_blockEPcy" PURGE="0" COMMENT="" />
    <EXPORT ORDINAL="338" NAME="_ZN9__gnu_cxx6__poolILb0EE16_M_reserve_blockEyy" PURGE="0" COMMENT="" />
    <EXPORT ORDINAL="339" NAME="_ZN9__gnu_cxx6__poolILb1EE10_M_destroyEv" PURGE="0" COMMENT="" />
    <EXPORT ORDINAL="340" NAME="_ZN9__gnu_cxx6__poolILb1EE13_M_initializeEPFvPvE" PURGE="0" COMMENT="" />
    <EXPORT ORDINAL="341" NAME="_ZN9__gnu_cxx6__poolILb1EE13_M_initializeEv" PURGE="0" COMMENT="" />
    <EXPORT ORDINAL="342" NAME="_ZN9__gnu_cxx6__poolILb1EE16_M_get_thread_idEv" PURGE="0" COMMENT="" />
    <EXPORT ORDINAL="343" NAME="_ZN9__gnu_cxx6__poolILb1EE16_M_reclaim_blockEPcy" PURGE="0" COMMENT="" />
    <EXPORT ORDINAL="344" NAME="_ZN9__gnu_cxx6__poolILb1EE16_M_reserve_blockEyy" PURGE="0" COMMENT="" />
    <EXPORT ORDINAL="345" NAME="_ZN9__gnu_cxx6__poolILb1EE21_M_destroy_thread_keyEPv" PURGE="0" COMMENT="" />
    <EXPORT ORDINAL="346" NAME="_ZN9__gnu_cxx8__detail13__lower_boundIPPyyNS_9free_list19_LT_pointer_compareEEET_S6_S6_RKT0_T1_" PURGE="0" COMMENT="" />
    <EXPORT ORDINAL="347" NAME="_ZN9__gnu_cxx8__detail13__mini_vectorIPyE10deallocateEPS2_y" PURGE="-1" COMMENT="" />
    <EXPORT ORDINAL="348" NAME="_ZN9__gnu_cxx8__detail13__mini_vectorIPyE5clearEv" PURGE="0" COMMENT="" />
    <EXPORT ORDINAL="349" NAME="_ZN9__gnu_cxx8__detail13__mini_vectorIPyE5eraseEPS2_" PURGE="0" COMMENT="" />
    <EXPORT ORDINAL="350" NAME="_ZN9__gnu_cxx8__detail13__mini_vectorIPyE6insertEPS2_RKS2_" PURGE="0" COMMENT="" />
    <EXPORT ORDINAL="351" NAME="_ZN9__gnu_cxx8__detail13__mini_vectorIPyE8allocateEy" PURGE="0" COMMENT="" />
    <EXPORT ORDINAL="352" NAME="_ZN9__gnu_cxx8__detail13__mini_vectorIPyE8pop_backEv" PURGE="0" COMMENT="" />
    <EXPORT ORDINAL="353" NAME="_ZN9__gnu_cxx8__detail13__mini_vectorIPyE9push_backERKS2_" PURGE="0" COMMENT="" />
    <EXPORT ORDINAL="354" NAME="_ZN9__gnu_cxx8__detail13__mini_vectorIPyEC1Ev" PURGE="0" COMMENT="" />
    <EXPORT ORDINAL="355" NAME="_ZN9__gnu_cxx8__detail13__mini_vectorIPyEC2Ev" PURGE="0" COMMENT="" />
    <EXPORT ORDINAL="356" NAME="_ZN9__gnu_cxx8__detail13__mini_vectorISt4pairIPNS_16bitmap_allocatorIcE12_Alloc_blockES6_EE10deallocateEPS7_y" PURGE="-1" COMMENT="" />
    <EXPORT ORDINAL="357" NAME="_ZN9__gnu_cxx8__detail13__mini_vectorISt4pairIPNS_16bitmap_allocatorIcE12_Alloc_blockES6_EE5clearEv" PURGE="0" COMMENT="" />
    <EXPORT ORDINAL="358" NAME="_ZN9__gnu_cxx8__detail13__mini_vectorISt4pairIPNS_16bitmap_allocatorIcE12_Alloc_blockES6_EE5eraseEPS7_" PURGE="0" COMMENT="" />
    <EXPORT ORDINAL="359" NAME="_ZN9__gnu_cxx8__detail13__mini_vectorISt4pairIPNS_16bitmap_allocatorIcE12_Alloc_blockES6_EE6insertEPS7_RKS7_" PURGE="0" COMMENT="" />
    <EXPORT ORDINAL="360" NAME="_ZN9__gnu_cxx8__detail13__mini_vectorISt4pairIPNS_16bitmap_allocatorIcE12_Alloc_blockES6_EE8allocateEy" PURGE="0" COMMENT="" />
    <EXPORT ORDINAL="361" NAME="_ZN9__gnu_cxx8__detail13__mini_vectorISt4pairIPNS_16bitmap_allocatorIcE12_Alloc_blockES6_EE8pop_backEv" PURGE="0" COMMENT="" />
    <EXPORT ORDINAL="362" NAME="_ZN9__gnu_cxx8__detail13__mini_vectorISt4pairIPNS_16bitmap_allocatorIcE12_Alloc_blockES6_EE9push_backERKS7_" PURGE="0" COMMENT="" />
    <EXPORT ORDINAL="363" NAME="_ZN9__gnu_cxx8__detail13__mini_vectorISt4pairIPNS_16bitmap_allocatorIcE12_Alloc_blockES6_EEC1Ev" PURGE="0" COMMENT="" />
    <EXPORT ORDINAL="364" NAME="_ZN9__gnu_cxx8__detail13__mini_vectorISt4pairIPNS_16bitmap_allocatorIcE12_Alloc_blockES6_EEC2Ev" PURGE="0" COMMENT="" />
    <EXPORT ORDINAL="365" NAME="_ZN9__gnu_cxx8__detail13__mini_vectorISt4pairIPNS_16bitmap_allocatorIwE12_Alloc_blockES6_EE10deallocateEPS7_y" PURGE="-1" COMMENT="" />
    <EXPORT ORDINAL="366" NAME="_ZN9__gnu_cxx8__detail13__mini_vectorISt4pairIPNS_16bitmap_allocatorIwE12_Alloc_blockES6_EE5clearEv" PURGE="0" COMMENT="" />
    <EXPORT ORDINAL="367" NAME="_ZN9__gnu_cxx8__detail13__mini_vectorISt4pairIPNS_16bitmap_allocatorIwE12_Alloc_blockES6_EE5eraseEPS7_" PURGE="0" COMMENT="" />
    <EXPORT ORDINAL="368" NAME="_ZN9__gnu_cxx8__detail13__mini_vectorISt4pairIPNS_16bitmap_allocatorIwE12_Alloc_blockES6_EE6insertEPS7_RKS7_" PURGE="0" COMMENT="" />
    <EXPORT ORDINAL="369" NAME="_ZN9__gnu_cxx8__detail13__mini_vectorISt4pairIPNS_16bitmap_allocatorIwE12_Alloc_blockES6_EE8allocateEy" PURGE="0" COMMENT="" />
    <EXPORT ORDINAL="370" NAME="_ZN9__gnu_cxx8__detail13__mini_vectorISt4pairIPNS_16bitmap_allocatorIwE12_Alloc_blockES6_EE8pop_backEv" PURGE="0" COMMENT="" />
    <EXPORT ORDINAL="371" NAME="_ZN9__gnu_cxx8__detail13__mini_vectorISt4pairIPNS_16bitmap_allocatorIwE12_Alloc_blockES6_EE9push_backERKS7_" PURGE="0" COMMENT="" />
    <EXPORT ORDINAL="372" NAME="_ZN9__gnu_cxx8__detail13__mini_vectorISt4pairIPNS_16bitmap_allocatorIwE12_Alloc_blockES6_EEC1Ev" PURGE="0" COMMENT="" />
    <EXPORT ORDINAL="373" NAME="_ZN9__gnu_cxx8__detail13__mini_vectorISt4pairIPNS_16bitmap_allocatorIwE12_Alloc_blockES6_EEC2Ev" PURGE="0" COMMENT="" />
    <EXPORT ORDINAL="374" NAME="_ZN9__gnu_cxx9__freeresEv" PURGE="0" COMMENT="" />
    <EXPORT ORDINAL="375" NAME="_ZN9__gnu_cxx9free_list6_M_getEy" PURGE="0" COMMENT="" />
    <EXPORT ORDINAL="376" NAME="_ZN9__gnu_cxx9free_list8_M_clearEv" PURGE="0" COMMENT="" />
    <EXPORT ORDINAL="377" NAME="_ZN9__gnu_cxxeqIPKcNSt7__cxx1112basic_stringIcSt11char_traitsIcESaIcEEEEEbRKNS_17__normal_iteratorIT_T0_EESE_" PURGE="0" COMMENT="" />
    <EXPORT ORDINAL="378" NAME="_ZN9__gnu_cxxeqIPKcSsEEbRKNS_17__normal_iteratorIT_T0_EES8_" PURGE="0" COMMENT="" />
    <EXPORT ORDINAL="379" NAME="_ZN9__gnu_cxxeqIPKwNSt7__cxx1112basic_stringIwSt11char_traitsIwESaIwEEEEEbRKNS_17__normal_iteratorIT_T0_EESE_" PURGE="0" COMMENT="" />
    <EXPORT ORDINAL="380" NAME="_ZN9__gnu_cxxeqIPKwSbIwSt11char_traitsIwESaIwEEEEbRKNS_17__normal_iteratorIT_T0_EESC_" PURGE="0" COMMENT="" />
    <EXPORT ORDINAL="381" NAME="_ZN9__gnu_cxxeqIPcNSt7__cxx1112basic_stringIcSt11char_traitsIcESaIcEEEEEbRKNS_17__normal_iteratorIT_T0_EESD_" PURGE="0" COMMENT="" />
    <EXPORT ORDINAL="382" NAME="_ZN9__gnu_cxxeqIPcSsEEbRKNS_17__normal_iteratorIT_T0_EES7_" PURGE="0" COMMENT="" />
    <EXPORT ORDINAL="383" NAME="_ZN9__gnu_cxxeqIPwNSt7__cxx1112basic_stringIwSt11char_traitsIwESaIwEEEEEbRKNS_17__normal_iteratorIT_T0_EESD_" PURGE="0" COMMENT="" />
    <EXPORT ORDINAL="384" NAME="_ZN9__gnu_cxxeqIPwSbIwSt11char_traitsIwESaIwEEEEbRKNS_17__normal_iteratorIT_T0_EESB_" PURGE="0" COMMENT="" />
    <EXPORT ORDINAL="385" NAME="_ZNK10__cxxabiv117__class_type_info10__do_catchEPKSt9type_infoPPvj" PURGE="0" COMMENT="" />
    <EXPORT ORDINAL="386" NAME="_ZNK10__cxxabiv117__class_type_info11__do_upcastEPKS0_PKvRNS0_15__upcast_resultE" PURGE="0" COMMENT="" />
    <EXPORT ORDINAL="387" NAME="_ZNK10__cxxabiv117__class_type_info11__do_upcastEPKS0_PPv" PURGE="0" COMMENT="" />
    <EXPORT ORDINAL="388" NAME="_ZNK10__cxxabiv117__class_type_info12__do_dyncastExNS0_10__sub_kindEPKS0_PKvS3_S5_RNS0_16__dyncast_resultE" PURGE="0" COMMENT="" />
    <EXPORT ORDINAL="389" NAME="_ZNK10__cxxabiv117__class_type_info20__do_find_public_srcExPKvPKS0_S2_" PURGE="0" COMMENT="" />
    <EXPORT ORDINAL="390" NAME="_ZNK10__cxxabiv117__pbase_type_info10__do_catchEPKSt9type_infoPPvj" PURGE="0" COMMENT="" />
    <EXPORT ORDINAL="391" NAME="_ZNK10__cxxabiv117__pbase_type_info15__pointer_catchEPKS0_PPvj" PURGE="-1" COMMENT="" />
    <EXPORT ORDINAL="392" NAME="_ZNK10__cxxabiv119__pointer_type_info14__is_pointer_pEv" PURGE="0" COMMENT="" />
    <EXPORT ORDINAL="393" NAME="_ZNK10__cxxabiv119__pointer_type_info15__pointer_catchEPKNS_17__pbase_type_infoEPPvj" PURGE="0" COMMENT="" />
    <EXPORT ORDINAL="394" NAME="_ZNK10__cxxabiv120__function_type_info15__is_function_pEv" PURGE="0" COMMENT="" />
    <EXPORT ORDINAL="395" NAME="_ZNK10__cxxabiv120__si_class_type_info11__do_upcastEPKNS_17__class_type_infoEPKvRNS1_15__upcast_resultE" PURGE="0" COMMENT="" />
    <EXPORT ORDINAL="396" NAME="_ZNK10__cxxabiv120__si_class_type_info12__do_dyncastExNS_17__class_type_info10__sub_kindEPKS1_PKvS4_S6_RNS1_16__dyncast_resultE" PURGE="0" COMMENT="" />
    <EXPORT ORDINAL="397" NAME="_ZNK10__cxxabiv120__si_class_type_info20__do_find_public_srcExPKvPKNS_17__class_type_infoES2_" PURGE="0" COMMENT="" />
    <EXPORT ORDINAL="398" NAME="_ZNK10__cxxabiv121__vmi_class_type_info11__do_upcastEPKNS_17__class_type_infoEPKvRNS1_15__upcast_resultE" PURGE="0" COMMENT="" />
    <EXPORT ORDINAL="399" NAME="_ZNK10__cxxabiv121__vmi_class_type_info12__do_dyncastExNS_17__class_type_info10__sub_kindEPKS1_PKvS4_S6_RNS1_16__dyncast_resultE" PURGE="0" COMMENT="" />
    <EXPORT ORDINAL="400" NAME="_ZNK10__cxxabiv121__vmi_class_type_info20__do_find_public_srcExPKvPKNS_17__class_type_infoES2_" PURGE="0" COMMENT="" />
    <EXPORT ORDINAL="401" NAME="_ZNK10__cxxabiv129__pointer_to_member_type_info15__pointer_catchEPKNS_17__pbase_type_infoEPPvj" PURGE="0" COMMENT="" />
    <EXPORT ORDINAL="402" NAME="_ZNK11__gnu_debug16_Error_formatter10_M_messageENS_13_Debug_msg_idE" PURGE="0" COMMENT="" />
    <EXPORT ORDINAL="403" NAME="_ZNK11__gnu_debug16_Error_formatter10_Parameter14_M_print_fieldEPKS0_PKc" PURGE="0" COMMENT="" />
    <EXPORT ORDINAL="404" NAME="_ZNK11__gnu_debug16_Error_formatter10_Parameter20_M_print_descriptionEPKS0_" PURGE="0" COMMENT="" />
    <EXPORT ORDINAL="405" NAME="_ZNK11__gnu_debug16_Error_formatter13_M_print_wordEPKc" PURGE="0" COMMENT="" />
    <EXPORT ORDINAL="406" NAME="_ZNK11__gnu_debug16_Error_formatter14_M_format_wordIPKcEEvPciS3_T_" PURGE="0" COMMENT="" />
    <EXPORT ORDINAL="407" NAME="_ZNK11__gnu_debug16_Error_formatter14_M_format_wordIPKvEEvPciPKcT_" PURGE="0" COMMENT="" />
    <EXPORT ORDINAL="408" NAME="_ZNK11__gnu_debug16_Error_formatter14_M_format_wordIlEEvPciPKcT_" PURGE="0" COMMENT="" />
    <EXPORT ORDINAL="409" NAME="_ZNK11__gnu_debug16_Error_formatter14_M_format_wordIyEEvPciPKcT_" PURGE="0" COMMENT="" />
    <EXPORT ORDINAL="410" NAME="_ZNK11__gnu_debug16_Error_formatter15_M_print_stringEPKc" PURGE="0" COMMENT="" />
    <EXPORT ORDINAL="411" NAME="_ZNK11__gnu_debug16_Error_formatter17_M_get_max_lengthEv" PURGE="0" COMMENT="" />
    <EXPORT ORDINAL="412" NAME="_ZNK11__gnu_debug16_Error_formatter8_M_errorEv" PURGE="0" COMMENT="" />
    <EXPORT ORDINAL="413" NAME="_ZNK11__gnu_debug19_Safe_iterator_base11_M_singularEv" PURGE="0" COMMENT="" />
    <EXPORT ORDINAL="414" NAME="_ZNK11__gnu_debug19_Safe_iterator_base14_M_can_compareERKS0_" PURGE="0" COMMENT="" />
    <EXPORT ORDINAL="415" NAME="_ZNK11__gnu_debug25_Safe_local_iterator_base16_M_get_containerEv" PURGE="0" COMMENT="" />
    <EXPORT ORDINAL="416" NAME="_ZNK9__gnu_cxx12__pool_allocIcE7addressERKc" PURGE="0" COMMENT="" />
    <EXPORT ORDINAL="417" NAME="_ZNK9__gnu_cxx12__pool_allocIcE7addressERc" PURGE="0" COMMENT="" />
    <EXPORT ORDINAL="418" NAME="_ZNK9__gnu_cxx12__pool_allocIcE8max_sizeEv" PURGE="0" COMMENT="" />
    <EXPORT ORDINAL="419" NAME="_ZNK9__gnu_cxx12__pool_allocIwE7addressERKw" PURGE="0" COMMENT="" />
    <EXPORT ORDINAL="420" NAME="_ZNK9__gnu_cxx12__pool_allocIwE7addressERw" PURGE="0" COMMENT="" />
    <EXPORT ORDINAL="421" NAME="_ZNK9__gnu_cxx12__pool_allocIwE8max_sizeEv" PURGE="0" COMMENT="" />
    <EXPORT ORDINAL="422" NAME="_ZNK9__gnu_cxx16bitmap_allocatorIcE7addressERKc" PURGE="0" COMMENT="" />
    <EXPORT ORDINAL="423" NAME="_ZNK9__gnu_cxx16bitmap_allocatorIcE7addressERc" PURGE="0" COMMENT="" />
    <EXPORT ORDINAL="424" NAME="_ZNK9__gnu_cxx16bitmap_allocatorIcE8max_sizeEv" PURGE="0" COMMENT="" />
    <EXPORT ORDINAL="425" NAME="_ZNK9__gnu_cxx16bitmap_allocatorIwE7addressERKw" PURGE="0" COMMENT="" />
    <EXPORT ORDINAL="426" NAME="_ZNK9__gnu_cxx16bitmap_allocatorIwE7addressERw" PURGE="0" COMMENT="" />
    <EXPORT ORDINAL="427" NAME="_ZNK9__gnu_cxx16bitmap_allocatorIwE8max_sizeEv" PURGE="0" COMMENT="" />
    <EXPORT ORDINAL="428" NAME="_ZNK9__gnu_cxx24__concurrence_lock_error4whatEv" PURGE="0" COMMENT="" />
    <EXPORT ORDINAL="429" NAME="_ZNK9__gnu_cxx24__concurrence_wait_error4whatEv" PURGE="0" COMMENT="" />
    <EXPORT ORDINAL="430" NAME="_ZNK9__gnu_cxx26__concurrence_unlock_error4whatEv" PURGE="0" COMMENT="" />
    <EXPORT ORDINAL="431" NAME="_ZNK9__gnu_cxx29__concurrence_broadcast_error4whatEv" PURGE="0" COMMENT="" />
    <EXPORT ORDINAL="432" NAME="_ZNK9__gnu_cxx8__detail13__mini_vectorIPyE13_M_space_leftEv" PURGE="0" COMMENT="" />
    <EXPORT ORDINAL="433" NAME="_ZNK9__gnu_cxx8__detail13__mini_vectorIPyE3endEv" PURGE="0" COMMENT="" />
    <EXPORT ORDINAL="434" NAME="_ZNK9__gnu_cxx8__detail13__mini_vectorIPyE4backEv" PURGE="0" COMMENT="" />
    <EXPORT ORDINAL="435" NAME="_ZNK9__gnu_cxx8__detail13__mini_vectorIPyE4sizeEv" PURGE="0" COMMENT="" />
    <EXPORT ORDINAL="436" NAME="_ZNK9__gnu_cxx8__detail13__mini_vectorIPyE5beginEv" PURGE="0" COMMENT="" />
    <EXPORT ORDINAL="437" NAME="_ZNK9__gnu_cxx8__detail13__mini_vectorIPyEixEy" PURGE="0" COMMENT="" />
    <EXPORT ORDINAL="438" NAME="_ZNK9__gnu_cxx8__detail13__mini_vectorISt4pairIPNS_16bitmap_allocatorIcE12_Alloc_blockES6_EE13_M_space_leftEv" PURGE="0" COMMENT="" />
    <EXPORT ORDINAL="439" NAME="_ZNK9__gnu_cxx8__detail13__mini_vectorISt4pairIPNS_16bitmap_allocatorIcE12_Alloc_blockES6_EE3endEv" PURGE="0" COMMENT="" />
    <EXPORT ORDINAL="440" NAME="_ZNK9__gnu_cxx8__detail13__mini_vectorISt4pairIPNS_16bitmap_allocatorIcE12_Alloc_blockES6_EE4backEv" PURGE="0" COMMENT="" />
    <EXPORT ORDINAL="441" NAME="_ZNK9__gnu_cxx8__detail13__mini_vectorISt4pairIPNS_16bitmap_allocatorIcE12_Alloc_blockES6_EE4sizeEv" PURGE="0" COMMENT="" />
    <EXPORT ORDINAL="442" NAME="_ZNK9__gnu_cxx8__detail13__mini_vectorISt4pairIPNS_16bitmap_allocatorIcE12_Alloc_blockES6_EE5beginEv" PURGE="0" COMMENT="" />
    <EXPORT ORDINAL="443" NAME="_ZNK9__gnu_cxx8__detail13__mini_vectorISt4pairIPNS_16bitmap_allocatorIcE12_Alloc_blockES6_EEixEy" PURGE="0" COMMENT="" />
    <EXPORT ORDINAL="444" NAME="_ZNK9__gnu_cxx8__detail13__mini_vectorISt4pairIPNS_16bitmap_allocatorIwE12_Alloc_blockES6_EE13_M_space_leftEv" PURGE="0" COMMENT="" />
    <EXPORT ORDINAL="445" NAME="_ZNK9__gnu_cxx8__detail13__mini_vectorISt4pairIPNS_16bitmap_allocatorIwE12_Alloc_blockES6_EE3endEv" PURGE="0" COMMENT="" />
    <EXPORT ORDINAL="446" NAME="_ZNK9__gnu_cxx8__detail13__mini_vectorISt4pairIPNS_16bitmap_allocatorIwE12_Alloc_blockES6_EE4backEv" PURGE="0" COMMENT="" />
    <EXPORT ORDINAL="447" NAME="_ZNK9__gnu_cxx8__detail13__mini_vectorISt4pairIPNS_16bitmap_allocatorIwE12_Alloc_blockES6_EE4sizeEv" PURGE="0" COMMENT="" />
    <EXPORT ORDINAL="448" NAME="_ZNK9__gnu_cxx8__detail13__mini_vectorISt4pairIPNS_16bitmap_allocatorIwE12_Alloc_blockES6_EE5beginEv" PURGE="0" COMMENT="" />
    <EXPORT ORDINAL="449" NAME="_ZNK9__gnu_cxx8__detail13__mini_vectorISt4pairIPNS_16bitmap_allocatorIwE12_Alloc_blockES6_EEixEy" PURGE="0" COMMENT="" />
    <EXPORT ORDINAL="450" NAME="_ZNKRSt7__cxx1115basic_stringbufIcSt11char_traitsIcESaIcEE3strEv" PURGE="0" COMMENT="" />
    <EXPORT ORDINAL="451" NAME="_ZNKRSt7__cxx1115basic_stringbufIwSt11char_traitsIwESaIwEE3strEv" PURGE="0" COMMENT="" />
    <EXPORT ORDINAL="452" NAME="_ZNKRSt7__cxx1118basic_stringstreamIcSt11char_traitsIcESaIcEE3strEv" PURGE="0" COMMENT="" />
    <EXPORT ORDINAL="453" NAME="_ZNKRSt7__cxx1118basic_stringstreamIwSt11char_traitsIwESaIwEE3strEv" PURGE="0" COMMENT="" />
    <EXPORT ORDINAL="454" NAME="_ZNKRSt7__cxx1119basic_istringstreamIcSt11char_traitsIcESaIcEE3strEv" PURGE="0" COMMENT="" />
    <EXPORT ORDINAL="455" NAME="_ZNKRSt7__cxx1119basic_istringstreamIwSt11char_traitsIwESaIwEE3strEv" PURGE="0" COMMENT="" />
    <EXPORT ORDINAL="456" NAME="_ZNKRSt7__cxx1119basic_ostringstreamIcSt11char_traitsIcESaIcEE3strEv" PURGE="0" COMMENT="" />
    <EXPORT ORDINAL="457" NAME="_ZNKRSt7__cxx1119basic_ostringstreamIwSt11char_traitsIwESaIwEE3strEv" PURGE="0" COMMENT="" />
    <EXPORT ORDINAL="458" NAME="_ZNKSbIwSt11char_traitsIwESaIwEE11_M_disjunctEPKw" PURGE="0" COMMENT="" />
    <EXPORT ORDINAL="459" NAME="_ZNKSbIwSt11char_traitsIwESaIwEE12find_last_ofEPKwy" PURGE="0" COMMENT="" />
    <EXPORT ORDINAL="460" NAME="_ZNKSbIwSt11char_traitsIwESaIwEE12find_last_ofEPKwyy" PURGE="0" COMMENT="" />
    <EXPORT ORDINAL="461" NAME="_ZNKSbIwSt11char_traitsIwESaIwEE12find_last_ofERKS2_y" PURGE="0" COMMENT="" />
    <EXPORT ORDINAL="462" NAME="_ZNKSbIwSt11char_traitsIwESaIwEE12find_last_ofEwy" PURGE="0" COMMENT="" />
    <EXPORT ORDINAL="463" NAME="_ZNKSbIwSt11char_traitsIwESaIwEE13find_first_ofEPKwy" PURGE="0" COMMENT="" />
    <EXPORT ORDINAL="464" NAME="_ZNKSbIwSt11char_traitsIwESaIwEE13find_first_ofEPKwyy" PURGE="0" COMMENT="" />
    <EXPORT ORDINAL="465" NAME="_ZNKSbIwSt11char_traitsIwESaIwEE13find_first_ofERKS2_y" PURGE="0" COMMENT="" />
    <EXPORT ORDINAL="466" NAME="_ZNKSbIwSt11char_traitsIwESaIwEE13find_first_ofEwy" PURGE="0" COMMENT="" />
    <EXPORT ORDINAL="467" NAME="_ZNKSbIwSt11char_traitsIwESaIwEE13get_allocatorEv" PURGE="0" COMMENT="" />
    <EXPORT ORDINAL="468" NAME="_ZNKSbIwSt11char_traitsIwESaIwEE15_M_check_lengthEyyPKc" PURGE="0" COMMENT="" />
    <EXPORT ORDINAL="469" NAME="_ZNKSbIwSt11char_traitsIwESaIwEE16find_last_not_ofEPKwy" PURGE="0" COMMENT="" />
    <EXPORT ORDINAL="470" NAME="_ZNKSbIwSt11char_traitsIwESaIwEE16find_last_not_ofEPKwyy" PURGE="0" COMMENT="" />
    <EXPORT ORDINAL="471" NAME="_ZNKSbIwSt11char_traitsIwESaIwEE16find_last_not_ofERKS2_y" PURGE="0" COMMENT="" />
    <EXPORT ORDINAL="472" NAME="_ZNKSbIwSt11char_traitsIwESaIwEE16find_last_not_ofEwy" PURGE="0" COMMENT="" />
    <EXPORT ORDINAL="473" NAME="_ZNKSbIwSt11char_traitsIwESaIwEE17find_first_not_ofEPKwy" PURGE="0" COMMENT="" />
    <EXPORT ORDINAL="474" NAME="_ZNKSbIwSt11char_traitsIwESaIwEE17find_first_not_ofEPKwyy" PURGE="0" COMMENT="" />
    <EXPORT ORDINAL="475" NAME="_ZNKSbIwSt11char_traitsIwESaIwEE17find_first_not_ofERKS2_y" PURGE="0" COMMENT="" />
    <EXPORT ORDINAL="476" NAME="_ZNKSbIwSt11char_traitsIwESaIwEE17find_first_not_ofEwy" PURGE="0" COMMENT="" />
    <EXPORT ORDINAL="477" NAME="_ZNKSbIwSt11char_traitsIwESaIwEE2atEy" PURGE="0" COMMENT="" />
    <EXPORT ORDINAL="478" NAME="_ZNKSbIwSt11char_traitsIwESaIwEE3endEv" PURGE="0" COMMENT="" />
    <EXPORT ORDINAL="479" NAME="_ZNKSbIwSt11char_traitsIwESaIwEE4_Rep12_M_is_leakedEv" PURGE="0" COMMENT="" />
    <EXPORT ORDINAL="480" NAME="_ZNKSbIwSt11char_traitsIwESaIwEE4_Rep12_M_is_sharedEv" PURGE="0" COMMENT="" />
    <EXPORT ORDINAL="481" NAME="_ZNKSbIwSt11char_traitsIwESaIwEE4backEv" PURGE="0" COMMENT="" />
    <EXPORT ORDINAL="482" NAME="_ZNKSbIwSt11char_traitsIwESaIwEE4cendEv" PURGE="0" COMMENT="" />
    <EXPORT ORDINAL="483" NAME="_ZNKSbIwSt11char_traitsIwESaIwEE4copyEPwyy" PURGE="0" COMMENT="" />
    <EXPORT ORDINAL="484" NAME="_ZNKSbIwSt11char_traitsIwESaIwEE4dataEv" PURGE="0" COMMENT="" />
    <EXPORT ORDINAL="485" NAME="_ZNKSbIwSt11char_traitsIwESaIwEE4findEPKwy" PURGE="0" COMMENT="" />
    <EXPORT ORDINAL="486" NAME="_ZNKSbIwSt11char_traitsIwESaIwEE4findEPKwyy" PURGE="0" COMMENT="" />
    <EXPORT ORDINAL="487" NAME="_ZNKSbIwSt11char_traitsIwESaIwEE4findERKS2_y" PURGE="0" COMMENT="" />
    <EXPORT ORDINAL="488" NAME="_ZNKSbIwSt11char_traitsIwESaIwEE4findEwy" PURGE="0" COMMENT="" />
    <EXPORT ORDINAL="489" NAME="_ZNKSbIwSt11char_traitsIwESaIwEE4rendEv" PURGE="0" COMMENT="" />
    <EXPORT ORDINAL="490" NAME="_ZNKSbIwSt11char_traitsIwESaIwEE4sizeEv" PURGE="0" COMMENT="" />
    <EXPORT ORDINAL="491" NAME="_ZNKSbIwSt11char_traitsIwESaIwEE5beginEv" PURGE="0" COMMENT="" />
    <EXPORT ORDINAL="492" NAME="_ZNKSbIwSt11char_traitsIwESaIwEE5c_strEv" PURGE="0" COMMENT="" />
    <EXPORT ORDINAL="493" NAME="_ZNKSbIwSt11char_traitsIwESaIwEE5crendEv" PURGE="0" COMMENT="" />
    <EXPORT ORDINAL="494" NAME="_ZNKSbIwSt11char_traitsIwESaIwEE5emptyEv" PURGE="0" COMMENT="" />
    <EXPORT ORDINAL="495" NAME="_ZNKSbIwSt11char_traitsIwESaIwEE5frontEv" PURGE="0" COMMENT="" />
    <EXPORT ORDINAL="496" NAME="_ZNKSbIwSt11char_traitsIwESaIwEE5rfindEPKwy" PURGE="0" COMMENT="" />
    <EXPORT ORDINAL="497" NAME="_ZNKSbIwSt11char_traitsIwESaIwEE5rfindEPKwyy" PURGE="0" COMMENT="" />
    <EXPORT ORDINAL="498" NAME="_ZNKSbIwSt11char_traitsIwESaIwEE5rfindERKS2_y" PURGE="0" COMMENT="" />
    <EXPORT ORDINAL="499" NAME="_ZNKSbIwSt11char_traitsIwESaIwEE5rfindEwy" PURGE="0" COMMENT="" />
    <EXPORT ORDINAL="500" NAME="_ZNKSbIwSt11char_traitsIwESaIwEE6_M_repEv" PURGE="0" COMMENT="" />
    <EXPORT ORDINAL="501" NAME="_ZNKSbIwSt11char_traitsIwESaIwEE6cbeginEv" PURGE="0" COMMENT="" />
    <EXPORT ORDINAL="502" NAME="_ZNKSbIwSt11char_traitsIwESaIwEE6lengthEv" PURGE="0" COMMENT="" />
    <EXPORT ORDINAL="503" NAME="_ZNKSbIwSt11char_traitsIwESaIwEE6rbeginEv" PURGE="0" COMMENT="" />
    <EXPORT ORDINAL="504" NAME="_ZNKSbIwSt11char_traitsIwESaIwEE6substrEyy" PURGE="0" COMMENT="" />
    <EXPORT ORDINAL="505" NAME="_ZNKSbIwSt11char_traitsIwESaIwEE7_M_dataEv" PURGE="0" COMMENT="" />
    <EXPORT ORDINAL="506" NAME="_ZNKSbIwSt11char_traitsIwESaIwEE7_M_iendEv" PURGE="0" COMMENT="" />
    <EXPORT ORDINAL="507" NAME="_ZNKSbIwSt11char_traitsIwESaIwEE7compareEPKw" PURGE="0" COMMENT="" />
    <EXPORT ORDINAL="508" NAME="_ZNKSbIwSt11char_traitsIwESaIwEE7compareERKS2_" PURGE="0" COMMENT="" />
    <EXPORT ORDINAL="509" NAME="_ZNKSbIwSt11char_traitsIwESaIwEE7compareEyyPKw" PURGE="0" COMMENT="" />
    <EXPORT ORDINAL="510" NAME="_ZNKSbIwSt11char_traitsIwESaIwEE7compareEyyPKwy" PURGE="0" COMMENT="" />
    <EXPORT ORDINAL="511" NAME="_ZNKSbIwSt11char_traitsIwESaIwEE7compareEyyRKS2_" PURGE="0" COMMENT="" />
    <EXPORT ORDINAL="512" NAME="_ZNKSbIwSt11char_traitsIwESaIwEE7compareEyyRKS2_yy" PURGE="0" COMMENT="" />
    <EXPORT ORDINAL="513" NAME="_ZNKSbIwSt11char_traitsIwESaIwEE7crbeginEv" PURGE="0" COMMENT="" />
    <EXPORT ORDINAL="514" NAME="_ZNKSbIwSt11char_traitsIwESaIwEE8_M_checkEyPKc" PURGE="0" COMMENT="" />
    <EXPORT ORDINAL="515" NAME="_ZNKSbIwSt11char_traitsIwESaIwEE8_M_limitEyy" PURGE="0" COMMENT="" />
    <EXPORT ORDINAL="516" NAME="_ZNKSbIwSt11char_traitsIwESaIwEE8capacityEv" PURGE="0" COMMENT="" />
    <EXPORT ORDINAL="517" NAME="_ZNKSbIwSt11char_traitsIwESaIwEE8max_sizeEv" PURGE="0" COMMENT="" />
    <EXPORT ORDINAL="518" NAME="_ZNKSbIwSt11char_traitsIwESaIwEE9_M_ibeginEv" PURGE="0" COMMENT="" />
    <EXPORT ORDINAL="519" NAME="_ZNKSbIwSt11char_traitsIwESaIwEEcvSt17basic_string_viewIwS0_EEv" PURGE="0" COMMENT="" />
    <EXPORT ORDINAL="520" NAME="_ZNKSbIwSt11char_traitsIwESaIwEEixEy" PURGE="0" COMMENT="" />
    <EXPORT ORDINAL="521" NAME="_ZNKSi6gcountEv" PURGE="0" COMMENT="" />
    <EXPORT ORDINAL="522" NAME="_ZNKSi6sentrycvbEv" PURGE="0" COMMENT="" />
    <EXPORT ORDINAL="523" NAME="_ZNKSo6sentrycvbEv" PURGE="0" COMMENT="" />
    <EXPORT ORDINAL="524" NAME="_ZNKSs11_M_disjunctEPKc" PURGE="0" COMMENT="" />
    <EXPORT ORDINAL="525" NAME="_ZNKSs12find_last_ofEPKcy" PURGE="0" COMMENT="" />
    <EXPORT ORDINAL="526" NAME="_ZNKSs12find_last_ofEPKcyy" PURGE="0" COMMENT="" />
    <EXPORT ORDINAL="527" NAME="_ZNKSs12find_last_ofERKSsy" PURGE="0" COMMENT="" />
    <EXPORT ORDINAL="528" NAME="_ZNKSs12find_last_ofEcy" PURGE="0" COMMENT="" />
    <EXPORT ORDINAL="529" NAME="_ZNKSs13find_first_ofEPKcy" PURGE="0" COMMENT="" />
    <EXPORT ORDINAL="530" NAME="_ZNKSs13find_first_ofEPKcyy" PURGE="0" COMMENT="" />
    <EXPORT ORDINAL="531" NAME="_ZNKSs13find_first_ofERKSsy" PURGE="0" COMMENT="" />
    <EXPORT ORDINAL="532" NAME="_ZNKSs13find_first_ofEcy" PURGE="0" COMMENT="" />
    <EXPORT ORDINAL="533" NAME="_ZNKSs13get_allocatorEv" PURGE="0" COMMENT="" />
    <EXPORT ORDINAL="534" NAME="_ZNKSs15_M_check_lengthEyyPKc" PURGE="0" COMMENT="" />
    <EXPORT ORDINAL="535" NAME="_ZNKSs16find_last_not_ofEPKcy" PURGE="0" COMMENT="" />
    <EXPORT ORDINAL="536" NAME="_ZNKSs16find_last_not_ofEPKcyy" PURGE="0" COMMENT="" />
    <EXPORT ORDINAL="537" NAME="_ZNKSs16find_last_not_ofERKSsy" PURGE="0" COMMENT="" />
    <EXPORT ORDINAL="538" NAME="_ZNKSs16find_last_not_ofEcy" PURGE="0" COMMENT="" />
    <EXPORT ORDINAL="539" NAME="_ZNKSs17find_first_not_ofEPKcy" PURGE="0" COMMENT="" />
    <EXPORT ORDINAL="540" NAME="_ZNKSs17find_first_not_ofEPKcyy" PURGE="0" COMMENT="" />
    <EXPORT ORDINAL="541" NAME="_ZNKSs17find_first_not_ofERKSsy" PURGE="0" COMMENT="" />
    <EXPORT ORDINAL="542" NAME="_ZNKSs17find_first_not_ofEcy" PURGE="0" COMMENT="" />
    <EXPORT ORDINAL="543" NAME="_ZNKSs2atEy" PURGE="0" COMMENT="" />
    <EXPORT ORDINAL="544" NAME="_ZNKSs3endEv" PURGE="0" COMMENT="" />
    <EXPORT ORDINAL="545" NAME="_ZNKSs4_Rep12_M_is_leakedEv" PURGE="0" COMMENT="" />
    <EXPORT ORDINAL="546" NAME="_ZNKSs4_Rep12_M_is_sharedEv" PURGE="0" COMMENT="" />
    <EXPORT ORDINAL="547" NAME="_ZNKSs4backEv" PURGE="0" COMMENT="" />
    <EXPORT ORDINAL="548" NAME="_ZNKSs4cendEv" PURGE="0" COMMENT="" />
    <EXPORT ORDINAL="549" NAME="_ZNKSs4copyEPcyy" PURGE="0" COMMENT="" />
    <EXPORT ORDINAL="550" NAME="_ZNKSs4dataEv" PURGE="0" COMMENT="" />
    <EXPORT ORDINAL="551" NAME="_ZNKSs4findEPKcy" PURGE="0" COMMENT="" />
    <EXPORT ORDINAL="552" NAME="_ZNKSs4findEPKcyy" PURGE="0" COMMENT="" />
    <EXPORT ORDINAL="553" NAME="_ZNKSs4findERKSsy" PURGE="0" COMMENT="" />
    <EXPORT ORDINAL="554" NAME="_ZNKSs4findEcy" PURGE="0" COMMENT="" />
    <EXPORT ORDINAL="555" NAME="_ZNKSs4rendEv" PURGE="0" COMMENT="" />
    <EXPORT ORDINAL="556" NAME="_ZNKSs4sizeEv" PURGE="0" COMMENT="" />
    <EXPORT ORDINAL="557" NAME="_ZNKSs5beginEv" PURGE="0" COMMENT="" />
    <EXPORT ORDINAL="558" NAME="_ZNKSs5c_strEv" PURGE="0" COMMENT="" />
    <EXPORT ORDINAL="559" NAME="_ZNKSs5crendEv" PURGE="0" COMMENT="" />
    <EXPORT ORDINAL="560" NAME="_ZNKSs5emptyEv" PURGE="0" COMMENT="" />
    <EXPORT ORDINAL="561" NAME="_ZNKSs5frontEv" PURGE="0" COMMENT="" />
    <EXPORT ORDINAL="562" NAME="_ZNKSs5rfindEPKcy" PURGE="0" COMMENT="" />
    <EXPORT ORDINAL="563" NAME="_ZNKSs5rfindEPKcyy" PURGE="0" COMMENT="" />
    <EXPORT ORDINAL="564" NAME="_ZNKSs5rfindERKSsy" PURGE="0" COMMENT="" />
    <EXPORT ORDINAL="565" NAME="_ZNKSs5rfindEcy" PURGE="0" COMMENT="" />
    <EXPORT ORDINAL="566" NAME="_ZNKSs6_M_repEv" PURGE="0" COMMENT="" />
    <EXPORT ORDINAL="567" NAME="_ZNKSs6cbeginEv" PURGE="0" COMMENT="" />
    <EXPORT ORDINAL="568" NAME="_ZNKSs6lengthEv" PURGE="0" COMMENT="" />
    <EXPORT ORDINAL="569" NAME="_ZNKSs6rbeginEv" PURGE="0" COMMENT="" />
    <EXPORT ORDINAL="570" NAME="_ZNKSs6substrEyy" PURGE="0" COMMENT="" />
    <EXPORT ORDINAL="571" NAME="_ZNKSs7_M_dataEv" PURGE="0" COMMENT="" />
    <EXPORT ORDINAL="572" NAME="_ZNKSs7_M_iendEv" PURGE="0" COMMENT="" />
    <EXPORT ORDINAL="573" NAME="_ZNKSs7compareEPKc" PURGE="0" COMMENT="" />
    <EXPORT ORDINAL="574" NAME="_ZNKSs7compareERKSs" PURGE="0" COMMENT="" />
    <EXPORT ORDINAL="575" NAME="_ZNKSs7compareEyyPKc" PURGE="0" COMMENT="" />
    <EXPORT ORDINAL="576" NAME="_ZNKSs7compareEyyPKcy" PURGE="0" COMMENT="" />
    <EXPORT ORDINAL="577" NAME="_ZNKSs7compareEyyRKSs" PURGE="0" COMMENT="" />
    <EXPORT ORDINAL="578" NAME="_ZNKSs7compareEyyRKSsyy" PURGE="0" COMMENT="" />
    <EXPORT ORDINAL="579" NAME="_ZNKSs7crbeginEv" PURGE="0" COMMENT="" />
    <EXPORT ORDINAL="580" NAME="_ZNKSs8_M_checkEyPKc" PURGE="0" COMMENT="" />
    <EXPORT ORDINAL="581" NAME="_ZNKSs8_M_limitEyy" PURGE="0" COMMENT="" />
    <EXPORT ORDINAL="582" NAME="_ZNKSs8capacityEv" PURGE="0" COMMENT="" />
    <EXPORT ORDINAL="583" NAME="_ZNKSs8max_sizeEv" PURGE="0" COMMENT="" />
    <EXPORT ORDINAL="584" NAME="_ZNKSs9_M_ibeginEv" PURGE="0" COMMENT="" />
    <EXPORT ORDINAL="585" NAME="_ZNKSscvSt17basic_string_viewIcSt11char_traitsIcEEEv" PURGE="0" COMMENT="" />
    <EXPORT ORDINAL="586" NAME="_ZNKSsixEy" PURGE="0" COMMENT="" />
    <EXPORT ORDINAL="587" NAME="_ZNKSt10bad_typeid4whatEv" PURGE="0" COMMENT="" />
    <EXPORT ORDINAL="588" NAME="_ZNKSt10error_code23default_error_conditionEv" PURGE="0" COMMENT="" />
    <EXPORT ORDINAL="589" NAME="_ZNKSt10filesystem16filesystem_error4whatEv" PURGE="0" COMMENT="" />
    <EXPORT ORDINAL="590" NAME="_ZNKSt10filesystem16filesystem_error5path1Ev" PURGE="0" COMMENT="" />
    <EXPORT ORDINAL="591" NAME="_ZNKSt10filesystem16filesystem_error5path2Ev" PURGE="0" COMMENT="" />
    <EXPORT ORDINAL="592" NAME="_ZNKSt10filesystem18directory_iteratordeEv" PURGE="0" COMMENT="" />
    <EXPORT ORDINAL="593" NAME="_ZNKSt10filesystem28recursive_directory_iterator10_Dir_stack12current_pathEv" PURGE="0" COMMENT="" />
    <EXPORT ORDINAL="594" NAME="_ZNKSt10filesystem28recursive_directory_iterator17recursion_pendingEv" PURGE="0" COMMENT="" />
    <EXPORT ORDINAL="595" NAME="_ZNKSt10filesystem28recursive_directory_iterator5depthEv" PURGE="0" COMMENT="" />
    <EXPORT ORDINAL="596" NAME="_ZNKSt10filesystem28recursive_directory_iterator7optionsEv" PURGE="0" COMMENT="" />
    <EXPORT ORDINAL="597" NAME="_ZNKSt10filesystem28recursive_directory_iteratordeEv" PURGE="0" COMMENT="" />
    <EXPORT ORDINAL="598" NAME="_ZNKSt10filesystem4path11parent_pathEv" PURGE="0" COMMENT="" />
    <EXPORT ORDINAL="599" NAME="_ZNKSt10filesystem4path12has_filenameEv" PURGE="0" COMMENT="" />
    <EXPORT ORDINAL="600" NAME="_ZNKSt10filesystem4path13has_root_nameEv" PURGE="0" COMMENT="" />
    <EXPORT ORDINAL="601" NAME="_ZNKSt10filesystem4path13has_root_pathEv" PURGE="0" COMMENT="" />
    <EXPORT ORDINAL="602" NAME="_ZNKSt10filesystem4path13relative_pathEv" PURGE="0" COMMENT="" />
    <EXPORT ORDINAL="603" NAME="_ZNKSt10filesystem4path14root_directoryEv" PURGE="0" COMMENT="" />
    <EXPORT ORDINAL="604" NAME="_ZNKSt10filesystem4path15has_parent_pathEv" PURGE="0" COMMENT="" />
    <EXPORT ORDINAL="605" NAME="_ZNKSt10filesystem4path16lexically_normalEv" PURGE="0" COMMENT="" />
    <EXPORT ORDINAL="606" NAME="_ZNKSt10filesystem4path17_M_find_extensionEv" PURGE="0" COMMENT="" />
    <EXPORT ORDINAL="607" NAME="_ZNKSt10filesystem4path17has_relative_pathEv" PURGE="0" COMMENT="" />
    <EXPORT ORDINAL="608" NAME="_ZNKSt10filesystem4path18has_root_directoryEv" PURGE="0" COMMENT="" />
    <EXPORT ORDINAL="609" NAME="_ZNKSt10filesystem4path18lexically_relativeERKS0_" PURGE="0" COMMENT="" />
    <EXPORT ORDINAL="610" NAME="_ZNKSt10filesystem4path19lexically_proximateERKS0_" PURGE="0" COMMENT="" />
    <EXPORT ORDINAL="611" NAME="_ZNKSt10filesystem4path5_List13_Impl_deleterclEPNS1_5_ImplE" PURGE="0" COMMENT="" />
    <EXPORT ORDINAL="612" NAME="_ZNKSt10filesystem4path5_List3endEv" PURGE="0" COMMENT="" />
    <EXPORT ORDINAL="613" NAME="_ZNKSt10filesystem4path5_List5beginEv" PURGE="0" COMMENT="" />
    <EXPORT ORDINAL="614" NAME="_ZNKSt10filesystem4path7compareERKS0_" PURGE="0" COMMENT="" />
    <EXPORT ORDINAL="615" NAME="_ZNKSt10filesystem4path7compareESt17basic_string_viewIwSt11char_traitsIwEE" PURGE="0" COMMENT="" />
    <EXPORT ORDINAL="616" NAME="_ZNKSt10filesystem4path8filenameEv" PURGE="0" COMMENT="" />
    <EXPORT ORDINAL="617" NAME="_ZNKSt10filesystem4path8u8stringEv" PURGE="0" COMMENT="" />
    <EXPORT ORDINAL="618" NAME="_ZNKSt10filesystem4path9root_nameEv" PURGE="0" COMMENT="" />
    <EXPORT ORDINAL="619" NAME="_ZNKSt10filesystem4path9root_pathEv" PURGE="0" COMMENT="" />
    <EXPORT ORDINAL="620" NAME="_ZNKSt10filesystem7__cxx1116filesystem_error4whatEv" PURGE="0" COMMENT="" />
    <EXPORT ORDINAL="621" NAME="_ZNKSt10filesystem7__cxx1116filesystem_error5path1Ev" PURGE="0" COMMENT="" />
    <EXPORT ORDINAL="622" NAME="_ZNKSt10filesystem7__cxx1116filesystem_error5path2Ev" PURGE="0" COMMENT="" />
    <EXPORT ORDINAL="623" NAME="_ZNKSt10filesystem7__cxx1118directory_iteratordeEv" PURGE="0" COMMENT="" />
    <EXPORT ORDINAL="624" NAME="_ZNKSt10filesystem7__cxx1128recursive_directory_iterator10_Dir_stack12current_pathEv" PURGE="0" COMMENT="" />
    <EXPORT ORDINAL="625" NAME="_ZNKSt10filesystem7__cxx1128recursive_directory_iterator17recursion_pendingEv" PURGE="0" COMMENT="" />
    <EXPORT ORDINAL="626" NAME="_ZNKSt10filesystem7__cxx1128recursive_directory_iterator5depthEv" PURGE="0" COMMENT="" />
    <EXPORT ORDINAL="627" NAME="_ZNKSt10filesystem7__cxx1128recursive_directory_iterator7optionsEv" PURGE="0" COMMENT="" />
    <EXPORT ORDINAL="628" NAME="_ZNKSt10filesystem7__cxx1128recursive_directory_iteratordeEv" PURGE="0" COMMENT="" />
    <EXPORT ORDINAL="629" NAME="_ZNKSt10filesystem7__cxx114path11parent_pathEv" PURGE="0" COMMENT="" />
    <EXPORT ORDINAL="630" NAME="_ZNKSt10filesystem7__cxx114path12has_filenameEv" PURGE="0" COMMENT="" />
    <EXPORT ORDINAL="631" NAME="_ZNKSt10filesystem7__cxx114path13has_root_nameEv" PURGE="0" COMMENT="" />
    <EXPORT ORDINAL="632" NAME="_ZNKSt10filesystem7__cxx114path13has_root_pathEv" PURGE="0" COMMENT="" />
    <EXPORT ORDINAL="633" NAME="_ZNKSt10filesystem7__cxx114path13relative_pathEv" PURGE="0" COMMENT="" />
    <EXPORT ORDINAL="634" NAME="_ZNKSt10filesystem7__cxx114path14root_directoryEv" PURGE="0" COMMENT="" />
    <EXPORT ORDINAL="635" NAME="_ZNKSt10filesystem7__cxx114path15has_parent_pathEv" PURGE="0" COMMENT="" />
    <EXPORT ORDINAL="636" NAME="_ZNKSt10filesystem7__cxx114path16lexically_normalEv" PURGE="0" COMMENT="" />
    <EXPORT ORDINAL="637" NAME="_ZNKSt10filesystem7__cxx114path17_M_find_extensionEv" PURGE="0" COMMENT="" />
    <EXPORT ORDINAL="638" NAME="_ZNKSt10filesystem7__cxx114path17has_relative_pathEv" PURGE="0" COMMENT="" />
    <EXPORT ORDINAL="639" NAME="_ZNKSt10filesystem7__cxx114path18has_root_directoryEv" PURGE="0" COMMENT="" />
    <EXPORT ORDINAL="640" NAME="_ZNKSt10filesystem7__cxx114path18lexically_relativeERKS1_" PURGE="0" COMMENT="" />
    <EXPORT ORDINAL="641" NAME="_ZNKSt10filesystem7__cxx114path19lexically_proximateERKS1_" PURGE="0" COMMENT="" />
    <EXPORT ORDINAL="642" NAME="_ZNKSt10filesystem7__cxx114path5_List13_Impl_deleterclEPNS2_5_ImplE" PURGE="0" COMMENT="" />
    <EXPORT ORDINAL="643" NAME="_ZNKSt10filesystem7__cxx114path5_List3endEv" PURGE="0" COMMENT="" />
    <EXPORT ORDINAL="644" NAME="_ZNKSt10filesystem7__cxx114path5_List5beginEv" PURGE="0" COMMENT="" />
    <EXPORT ORDINAL="645" NAME="_ZNKSt10filesystem7__cxx114path7compareERKS1_" PURGE="0" COMMENT="" />
    <EXPORT ORDINAL="646" NAME="_ZNKSt10filesystem7__cxx114path7compareESt17basic_string_viewIwSt11char_traitsIwEE" PURGE="0" COMMENT="" />
    <EXPORT ORDINAL="647" NAME="_ZNKSt10filesystem7__cxx114path8filenameEv" PURGE="0" COMMENT="" />
    <EXPORT ORDINAL="648" NAME="_ZNKSt10filesystem7__cxx114path8u8stringEv" PURGE="0" COMMENT="" />
    <EXPORT ORDINAL="649" NAME="_ZNKSt10filesystem7__cxx114path9root_nameEv" PURGE="0" COMMENT="" />
    <EXPORT ORDINAL="650" NAME="_ZNKSt10filesystem7__cxx114path9root_pathEv" PURGE="0" COMMENT="" />
    <EXPORT ORDINAL="651" NAME="_ZNKSt10istrstream5rdbufEv" PURGE="0" COMMENT="" />
    <EXPORT ORDINAL="652" NAME="_ZNKSt10lock_error4whatEv" PURGE="0" COMMENT="" />
    <EXPORT ORDINAL="653" NAME="_ZNKSt10moneypunctIcLb0EE10neg_formatEv" PURGE="0" COMMENT="" />
    <EXPORT ORDINAL="654" NAME="_ZNKSt10moneypunctIcLb0EE10pos_formatEv" PURGE="0" COMMENT="" />
    <EXPORT ORDINAL="655" NAME="_ZNKSt10moneypunctIcLb0EE11curr_symbolEv" PURGE="0" COMMENT="" />
    <EXPORT ORDINAL="656" NAME="_ZNKSt10moneypunctIcLb0EE11do_groupingEv" PURGE="0" COMMENT="" />
    <EXPORT ORDINAL="657" NAME="_ZNKSt10moneypunctIcLb0EE11frac_digitsEv" PURGE="0" COMMENT="" />
    <EXPORT ORDINAL="658" NAME="_ZNKSt10moneypunctIcLb0EE13decimal_pointEv" PURGE="0" COMMENT="" />
    <EXPORT ORDINAL="659" NAME="_ZNKSt10moneypunctIcLb0EE13do_neg_formatEv" PURGE="0" COMMENT="" />
    <EXPORT ORDINAL="660" NAME="_ZNKSt10moneypunctIcLb0EE13do_pos_formatEv" PURGE="0" COMMENT="" />
    <EXPORT ORDINAL="661" NAME="_ZNKSt10moneypunctIcLb0EE13negative_signEv" PURGE="0" COMMENT="" />
    <EXPORT ORDINAL="662" NAME="_ZNKSt10moneypunctIcLb0EE13positive_signEv" PURGE="0" COMMENT="" />
    <EXPORT ORDINAL="663" NAME="_ZNKSt10moneypunctIcLb0EE13thousands_sepEv" PURGE="0" COMMENT="" />
    <EXPORT ORDINAL="664" NAME="_ZNKSt10moneypunctIcLb0EE14do_curr_symbolEv" PURGE="0" COMMENT="" />
    <EXPORT ORDINAL="665" NAME="_ZNKSt10moneypunctIcLb0EE14do_frac_digitsEv" PURGE="0" COMMENT="" />
    <EXPORT ORDINAL="666" NAME="_ZNKSt10moneypunctIcLb0EE16do_decimal_pointEv" PURGE="0" COMMENT="" />
    <EXPORT ORDINAL="667" NAME="_ZNKSt10moneypunctIcLb0EE16do_negative_signEv" PURGE="0" COMMENT="" />
    <EXPORT ORDINAL="668" NAME="_ZNKSt10moneypunctIcLb0EE16do_positive_signEv" PURGE="0" COMMENT="" />
    <EXPORT ORDINAL="669" NAME="_ZNKSt10moneypunctIcLb0EE16do_thousands_sepEv" PURGE="0" COMMENT="" />
    <EXPORT ORDINAL="670" NAME="_ZNKSt10moneypunctIcLb0EE8groupingEv" PURGE="0" COMMENT="" />
    <EXPORT ORDINAL="671" NAME="_ZNKSt10moneypunctIcLb1EE10neg_formatEv" PURGE="0" COMMENT="" />
    <EXPORT ORDINAL="672" NAME="_ZNKSt10moneypunctIcLb1EE10pos_formatEv" PURGE="0" COMMENT="" />
    <EXPORT ORDINAL="673" NAME="_ZNKSt10moneypunctIcLb1EE11curr_symbolEv" PURGE="0" COMMENT="" />
    <EXPORT ORDINAL="674" NAME="_ZNKSt10moneypunctIcLb1EE11do_groupingEv" PURGE="0" COMMENT="" />
    <EXPORT ORDINAL="675" NAME="_ZNKSt10moneypunctIcLb1EE11frac_digitsEv" PURGE="0" COMMENT="" />
    <EXPORT ORDINAL="676" NAME="_ZNKSt10moneypunctIcLb1EE13decimal_pointEv" PURGE="0" COMMENT="" />
    <EXPORT ORDINAL="677" NAME="_ZNKSt10moneypunctIcLb1EE13do_neg_formatEv" PURGE="0" COMMENT="" />
    <EXPORT ORDINAL="678" NAME="_ZNKSt10moneypunctIcLb1EE13do_pos_formatEv" PURGE="0" COMMENT="" />
    <EXPORT ORDINAL="679" NAME="_ZNKSt10moneypunctIcLb1EE13negative_signEv" PURGE="0" COMMENT="" />
    <EXPORT ORDINAL="680" NAME="_ZNKSt10moneypunctIcLb1EE13positive_signEv" PURGE="0" COMMENT="" />
    <EXPORT ORDINAL="681" NAME="_ZNKSt10moneypunctIcLb1EE13thousands_sepEv" PURGE="0" COMMENT="" />
    <EXPORT ORDINAL="682" NAME="_ZNKSt10moneypunctIcLb1EE14do_curr_symbolEv" PURGE="0" COMMENT="" />
    <EXPORT ORDINAL="683" NAME="_ZNKSt10moneypunctIcLb1EE14do_frac_digitsEv" PURGE="0" COMMENT="" />
    <EXPORT ORDINAL="684" NAME="_ZNKSt10moneypunctIcLb1EE16do_decimal_pointEv" PURGE="0" COMMENT="" />
    <EXPORT ORDINAL="685" NAME="_ZNKSt10moneypunctIcLb1EE16do_negative_signEv" PURGE="0" COMMENT="" />
    <EXPORT ORDINAL="686" NAME="_ZNKSt10moneypunctIcLb1EE16do_positive_signEv" PURGE="0" COMMENT="" />
    <EXPORT ORDINAL="687" NAME="_ZNKSt10moneypunctIcLb1EE16do_thousands_sepEv" PURGE="0" COMMENT="" />
    <EXPORT ORDINAL="688" NAME="_ZNKSt10moneypunctIcLb1EE8groupingEv" PURGE="0" COMMENT="" />
    <EXPORT ORDINAL="689" NAME="_ZNKSt10moneypunctIwLb0EE10neg_formatEv" PURGE="0" COMMENT="" />
    <EXPORT ORDINAL="690" NAME="_ZNKSt10moneypunctIwLb0EE10pos_formatEv" PURGE="0" COMMENT="" />
    <EXPORT ORDINAL="691" NAME="_ZNKSt10moneypunctIwLb0EE11curr_symbolEv" PURGE="0" COMMENT="" />
    <EXPORT ORDINAL="692" NAME="_ZNKSt10moneypunctIwLb0EE11do_groupingEv" PURGE="0" COMMENT="" />
    <EXPORT ORDINAL="693" NAME="_ZNKSt10moneypunctIwLb0EE11frac_digitsEv" PURGE="0" COMMENT="" />
    <EXPORT ORDINAL="694" NAME="_ZNKSt10moneypunctIwLb0EE13decimal_pointEv" PURGE="0" COMMENT="" />
    <EXPORT ORDINAL="695" NAME="_ZNKSt10moneypunctIwLb0EE13do_neg_formatEv" PURGE="0" COMMENT="" />
    <EXPORT ORDINAL="696" NAME="_ZNKSt10moneypunctIwLb0EE13do_pos_formatEv" PURGE="0" COMMENT="" />
    <EXPORT ORDINAL="697" NAME="_ZNKSt10moneypunctIwLb0EE13negative_signEv" PURGE="0" COMMENT="" />
    <EXPORT ORDINAL="698" NAME="_ZNKSt10moneypunctIwLb0EE13positive_signEv" PURGE="0" COMMENT="" />
    <EXPORT ORDINAL="699" NAME="_ZNKSt10moneypunctIwLb0EE13thousands_sepEv" PURGE="0" COMMENT="" />
    <EXPORT ORDINAL="700" NAME="_ZNKSt10moneypunctIwLb0EE14do_curr_symbolEv" PURGE="0" COMMENT="" />
    <EXPORT ORDINAL="701" NAME="_ZNKSt10moneypunctIwLb0EE14do_frac_digitsEv" PURGE="0" COMMENT="" />
    <EXPORT ORDINAL="702" NAME="_ZNKSt10moneypunctIwLb0EE16do_decimal_pointEv" PURGE="0" COMMENT="" />
    <EXPORT ORDINAL="703" NAME="_ZNKSt10moneypunctIwLb0EE16do_negative_signEv" PURGE="0" COMMENT="" />
    <EXPORT ORDINAL="704" NAME="_ZNKSt10moneypunctIwLb0EE16do_positive_signEv" PURGE="0" COMMENT="" />
    <EXPORT ORDINAL="705" NAME="_ZNKSt10moneypunctIwLb0EE16do_thousands_sepEv" PURGE="0" COMMENT="" />
    <EXPORT ORDINAL="706" NAME="_ZNKSt10moneypunctIwLb0EE8groupingEv" PURGE="0" COMMENT="" />
    <EXPORT ORDINAL="707" NAME="_ZNKSt10moneypunctIwLb1EE10neg_formatEv" PURGE="0" COMMENT="" />
    <EXPORT ORDINAL="708" NAME="_ZNKSt10moneypunctIwLb1EE10pos_formatEv" PURGE="0" COMMENT="" />
    <EXPORT ORDINAL="709" NAME="_ZNKSt10moneypunctIwLb1EE11curr_symbolEv" PURGE="0" COMMENT="" />
    <EXPORT ORDINAL="710" NAME="_ZNKSt10moneypunctIwLb1EE11do_groupingEv" PURGE="0" COMMENT="" />
    <EXPORT ORDINAL="711" NAME="_ZNKSt10moneypunctIwLb1EE11frac_digitsEv" PURGE="0" COMMENT="" />
    <EXPORT ORDINAL="712" NAME="_ZNKSt10moneypunctIwLb1EE13decimal_pointEv" PURGE="0" COMMENT="" />
    <EXPORT ORDINAL="713" NAME="_ZNKSt10moneypunctIwLb1EE13do_neg_formatEv" PURGE="0" COMMENT="" />
    <EXPORT ORDINAL="714" NAME="_ZNKSt10moneypunctIwLb1EE13do_pos_formatEv" PURGE="0" COMMENT="" />
    <EXPORT ORDINAL="715" NAME="_ZNKSt10moneypunctIwLb1EE13negative_signEv" PURGE="0" COMMENT="" />
    <EXPORT ORDINAL="716" NAME="_ZNKSt10moneypunctIwLb1EE13positive_signEv" PURGE="0" COMMENT="" />
    <EXPORT ORDINAL="717" NAME="_ZNKSt10moneypunctIwLb1EE13thousands_sepEv" PURGE="0" COMMENT="" />
    <EXPORT ORDINAL="718" NAME="_ZNKSt10moneypunctIwLb1EE14do_curr_symbolEv" PURGE="0" COMMENT="" />
    <EXPORT ORDINAL="719" NAME="_ZNKSt10moneypunctIwLb1EE14do_frac_digitsEv" PURGE="0" COMMENT="" />
    <EXPORT ORDINAL="720" NAME="_ZNKSt10moneypunctIwLb1EE16do_decimal_pointEv" PURGE="0" COMMENT="" />
    <EXPORT ORDINAL="721" NAME="_ZNKSt10moneypunctIwLb1EE16do_negative_signEv" PURGE="0" COMMENT="" />
    <EXPORT ORDINAL="722" NAME="_ZNKSt10moneypunctIwLb1EE16do_positive_signEv" PURGE="0" COMMENT="" />
    <EXPORT ORDINAL="723" NAME="_ZNKSt10moneypunctIwLb1EE16do_thousands_sepEv" PURGE="0" COMMENT="" />
    <EXPORT ORDINAL="724" NAME="_ZNKSt10moneypunctIwLb1EE8groupingEv" PURGE="0" COMMENT="" />
    <EXPORT ORDINAL="725" NAME="_ZNKSt10ostrstream5rdbufEv" PURGE="0" COMMENT="" />
    <EXPORT ORDINAL="726" NAME="_ZNKSt10ostrstream6pcountEv" PURGE="0" COMMENT="" />
    <EXPORT ORDINAL="727" NAME="_ZNKSt11__timepunctIcE15_M_am_pm_formatEPKc" PURGE="0" COMMENT="" />
    <EXPORT ORDINAL="728" NAME="_ZNKSt11__timepunctIcE15_M_am_pm_formatEPPKc" PURGE="0" COMMENT="" />
    <EXPORT ORDINAL="729" NAME="_ZNKSt11__timepunctIcE15_M_date_formatsEPPKc" PURGE="0" COMMENT="" />
    <EXPORT ORDINAL="730" NAME="_ZNKSt11__timepunctIcE15_M_time_formatsEPPKc" PURGE="0" COMMENT="" />
    <EXPORT ORDINAL="731" NAME="_ZNKSt11__timepunctIcE19_M_days_abbreviatedEPPKc" PURGE="0" COMMENT="" />
    <EXPORT ORDINAL="732" NAME="_ZNKSt11__timepunctIcE20_M_date_time_formatsEPPKc" PURGE="0" COMMENT="" />
    <EXPORT ORDINAL="733" NAME="_ZNKSt11__timepunctIcE21_M_months_abbreviatedEPPKc" PURGE="0" COMMENT="" />
    <EXPORT ORDINAL="734" NAME="_ZNKSt11__timepunctIcE6_M_putEPcyPKcPK2tm" PURGE="0" COMMENT="" />
    <EXPORT ORDINAL="735" NAME="_ZNKSt11__timepunctIcE7_M_daysEPPKc" PURGE="0" COMMENT="" />
    <EXPORT ORDINAL="736" NAME="_ZNKSt11__timepunctIcE8_M_am_pmEPPKc" PURGE="0" COMMENT="" />
    <EXPORT ORDINAL="737" NAME="_ZNKSt11__timepunctIcE9_M_monthsEPPKc" PURGE="0" COMMENT="" />
    <EXPORT ORDINAL="738" NAME="_ZNKSt11__timepunctIwE15_M_am_pm_formatEPKw" PURGE="0" COMMENT="" />
    <EXPORT ORDINAL="739" NAME="_ZNKSt11__timepunctIwE15_M_am_pm_formatEPPKw" PURGE="0" COMMENT="" />
    <EXPORT ORDINAL="740" NAME="_ZNKSt11__timepunctIwE15_M_date_formatsEPPKw" PURGE="0" COMMENT="" />
    <EXPORT ORDINAL="741" NAME="_ZNKSt11__timepunctIwE15_M_time_formatsEPPKw" PURGE="0" COMMENT="" />
    <EXPORT ORDINAL="742" NAME="_ZNKSt11__timepunctIwE19_M_days_abbreviatedEPPKw" PURGE="0" COMMENT="" />
    <EXPORT ORDINAL="743" NAME="_ZNKSt11__timepunctIwE20_M_date_time_formatsEPPKw" PURGE="0" COMMENT="" />
    <EXPORT ORDINAL="744" NAME="_ZNKSt11__timepunctIwE21_M_months_abbreviatedEPPKw" PURGE="0" COMMENT="" />
    <EXPORT ORDINAL="745" NAME="_ZNKSt11__timepunctIwE6_M_putEPwyPKwPK2tm" PURGE="0" COMMENT="" />
    <EXPORT ORDINAL="746" NAME="_ZNKSt11__timepunctIwE7_M_daysEPPKw" PURGE="0" COMMENT="" />
    <EXPORT ORDINAL="747" NAME="_ZNKSt11__timepunctIwE8_M_am_pmEPPKw" PURGE="0" COMMENT="" />
    <EXPORT ORDINAL="748" NAME="_ZNKSt11__timepunctIwE9_M_monthsEPPKw" PURGE="0" COMMENT="" />
    <EXPORT ORDINAL="749" NAME="_ZNKSt11logic_error4whatEv" PURGE="0" COMMENT="" />
    <EXPORT ORDINAL="750" NAME="_ZNKSt12__basic_fileIcE7is_openEv" PURGE="0" COMMENT="" />
    <EXPORT ORDINAL="751" NAME="_ZNKSt12__shared_ptrIKNSt10filesystem16filesystem_error5_ImplELN9__gnu_cxx12_Lock_policyE2EE14_M_get_deleterERKSt9type_info" PURGE="0" COMMENT="" />
    <EXPORT ORDINAL="752" NAME="_ZNKSt12__shared_ptrIKNSt10filesystem16filesystem_error5_ImplELN9__gnu_cxx12_Lock_policyE2EE3getEv" PURGE="0" COMMENT="" />
    <EXPORT ORDINAL="753" NAME="_ZNKSt12__shared_ptrIKNSt10filesystem16filesystem_error5_ImplELN9__gnu_cxx12_Lock_policyE2EE6uniqueEv" PURGE="0" COMMENT="" />
    <EXPORT ORDINAL="754" NAME="_ZNKSt12__shared_ptrIKNSt10filesystem16filesystem_error5_ImplELN9__gnu_cxx12_Lock_policyE2EE9use_countEv" PURGE="0" COMMENT="" />
    <EXPORT ORDINAL="755" NAME="_ZNKSt12__shared_ptrIKNSt10filesystem16filesystem_error5_ImplELN9__gnu_cxx12_Lock_policyE2EEcvbEv" PURGE="0" COMMENT="" />
    <EXPORT ORDINAL="756" NAME="_ZNKSt12__shared_ptrIKNSt10filesystem7__cxx1116filesystem_error5_ImplELN9__gnu_cxx12_Lock_policyE2EE14_M_get_deleterERKSt9type_info" PURGE="0" COMMENT="" />
    <EXPORT ORDINAL="757" NAME="_ZNKSt12__shared_ptrIKNSt10filesystem7__cxx1116filesystem_error5_ImplELN9__gnu_cxx12_Lock_policyE2EE3getEv" PURGE="0" COMMENT="" />
    <EXPORT ORDINAL="758" NAME="_ZNKSt12__shared_ptrIKNSt10filesystem7__cxx1116filesystem_error5_ImplELN9__gnu_cxx12_Lock_policyE2EE6uniqueEv" PURGE="0" COMMENT="" />
    <EXPORT ORDINAL="759" NAME="_ZNKSt12__shared_ptrIKNSt10filesystem7__cxx1116filesystem_error5_ImplELN9__gnu_cxx12_Lock_policyE2EE9use_countEv" PURGE="0" COMMENT="" />
    <EXPORT ORDINAL="760" NAME="_ZNKSt12__shared_ptrIKNSt10filesystem7__cxx1116filesystem_error5_ImplELN9__gnu_cxx12_Lock_policyE2EEcvbEv" PURGE="0" COMMENT="" />
    <EXPORT ORDINAL="761" NAME="_ZNKSt12__shared_ptrINSt10filesystem28recursive_directory_iterator10_Dir_stackELN9__gnu_cxx12_Lock_policyE2EE14_M_get_deleterERKSt9type_info" PURGE="0" COMMENT="" />
    <EXPORT ORDINAL="762" NAME="_ZNKSt12__shared_ptrINSt10filesystem28recursive_directory_iterator10_Dir_stackELN9__gnu_cxx12_Lock_policyE2EE3getEv" PURGE="0" COMMENT="" />
    <EXPORT ORDINAL="763" NAME="_ZNKSt12__shared_ptrINSt10filesystem28recursive_directory_iterator10_Dir_stackELN9__gnu_cxx12_Lock_policyE2EE6uniqueEv" PURGE="0" COMMENT="" />
    <EXPORT ORDINAL="764" NAME="_ZNKSt12__shared_ptrINSt10filesystem28recursive_directory_iterator10_Dir_stackELN9__gnu_cxx12_Lock_policyE2EE9use_countEv" PURGE="0" COMMENT="" />
    <EXPORT ORDINAL="765" NAME="_ZNKSt12__shared_ptrINSt10filesystem28recursive_directory_iterator10_Dir_stackELN9__gnu_cxx12_Lock_policyE2EEcvbEv" PURGE="0" COMMENT="" />
    <EXPORT ORDINAL="766" NAME="_ZNKSt12__shared_ptrINSt10filesystem4_DirELN9__gnu_cxx12_Lock_policyE2EE14_M_get_deleterERKSt9type_info" PURGE="0" COMMENT="" />
    <EXPORT ORDINAL="767" NAME="_ZNKSt12__shared_ptrINSt10filesystem4_DirELN9__gnu_cxx12_Lock_policyE2EE3getEv" PURGE="0" COMMENT="" />
    <EXPORT ORDINAL="768" NAME="_ZNKSt12__shared_ptrINSt10filesystem4_DirELN9__gnu_cxx12_Lock_policyE2EE6uniqueEv" PURGE="0" COMMENT="" />
    <EXPORT ORDINAL="769" NAME="_ZNKSt12__shared_ptrINSt10filesystem4_DirELN9__gnu_cxx12_Lock_policyE2EE9use_countEv" PURGE="0" COMMENT="" />
    <EXPORT ORDINAL="770" NAME="_ZNKSt12__shared_ptrINSt10filesystem4_DirELN9__gnu_cxx12_Lock_policyE2EEcvbEv" PURGE="0" COMMENT="" />
    <EXPORT ORDINAL="771" NAME="_ZNKSt12__shared_ptrINSt10filesystem7__cxx1128recursive_directory_iterator10_Dir_stackELN9__gnu_cxx12_Lock_policyE2EE14_M_get_deleterERKSt9type_info" PURGE="0" COMMENT="" />
    <EXPORT ORDINAL="772" NAME="_ZNKSt12__shared_ptrINSt10filesystem7__cxx1128recursive_directory_iterator10_Dir_stackELN9__gnu_cxx12_Lock_policyE2EE3getEv" PURGE="0" COMMENT="" />
    <EXPORT ORDINAL="773" NAME="_ZNKSt12__shared_ptrINSt10filesystem7__cxx1128recursive_directory_iterator10_Dir_stackELN9__gnu_cxx12_Lock_policyE2EE6uniqueEv" PURGE="0" COMMENT="" />
    <EXPORT ORDINAL="774" NAME="_ZNKSt12__shared_ptrINSt10filesystem7__cxx1128recursive_directory_iterator10_Dir_stackELN9__gnu_cxx12_Lock_policyE2EE9use_countEv" PURGE="0" COMMENT="" />
    <EXPORT ORDINAL="775" NAME="_ZNKSt12__shared_ptrINSt10filesystem7__cxx1128recursive_directory_iterator10_Dir_stackELN9__gnu_cxx12_Lock_policyE2EEcvbEv" PURGE="0" COMMENT="" />
    <EXPORT ORDINAL="776" NAME="_ZNKSt12__shared_ptrINSt10filesystem7__cxx114_DirELN9__gnu_cxx12_Lock_policyE2EE14_M_get_deleterERKSt9type_info" PURGE="0" COMMENT="" />
    <EXPORT ORDINAL="777" NAME="_ZNKSt12__shared_ptrINSt10filesystem7__cxx114_DirELN9__gnu_cxx12_Lock_policyE2EE3getEv" PURGE="0" COMMENT="" />
    <EXPORT ORDINAL="778" NAME="_ZNKSt12__shared_ptrINSt10filesystem7__cxx114_DirELN9__gnu_cxx12_Lock_policyE2EE6uniqueEv" PURGE="0" COMMENT="" />
    <EXPORT ORDINAL="779" NAME="_ZNKSt12__shared_ptrINSt10filesystem7__cxx114_DirELN9__gnu_cxx12_Lock_policyE2EE9use_countEv" PURGE="0" COMMENT="" />
    <EXPORT ORDINAL="780" NAME="_ZNKSt12__shared_ptrINSt10filesystem7__cxx114_DirELN9__gnu_cxx12_Lock_policyE2EEcvbEv" PURGE="0" COMMENT="" />
    <EXPORT ORDINAL="781" NAME="_ZNKSt12bad_weak_ptr4whatEv" PURGE="0" COMMENT="" />
    <EXPORT ORDINAL="782" NAME="_ZNKSt12future_error4whatEv" PURGE="0" COMMENT="" />
    <EXPORT ORDINAL="783" NAME="_ZNKSt12strstreambuf6pcountEv" PURGE="0" COMMENT="" />
    <EXPORT ORDINAL="784" NAME="_ZNKSt13bad_exception4whatEv" PURGE="0" COMMENT="" />
    <EXPORT ORDINAL="785" NAME="_ZNKSt13basic_filebufIcSt11char_traitsIcEE7is_openEv" PURGE="0" COMMENT="" />
    <EXPORT ORDINAL="786" NAME="_ZNKSt13basic_filebufIwSt11char_traitsIwEE7is_openEv" PURGE="0" COMMENT="" />
    <EXPORT ORDINAL="787" NAME="_ZNKSt13basic_fstreamIcSt11char_traitsIcEE5rdbufEv" PURGE="0" COMMENT="" />
    <EXPORT ORDINAL="788" NAME="_ZNKSt13basic_fstreamIcSt11char_traitsIcEE7is_openEv" PURGE="0" COMMENT="" />
    <EXPORT ORDINAL="789" NAME="_ZNKSt13basic_fstreamIwSt11char_traitsIwEE5rdbufEv" PURGE="0" COMMENT="" />
    <EXPORT ORDINAL="790" NAME="_ZNKSt13basic_fstreamIwSt11char_traitsIwEE7is_openEv" PURGE="0" COMMENT="" />
    <EXPORT ORDINAL="791" NAME="_ZNKSt13basic_istreamIwSt11char_traitsIwEE6gcountEv" PURGE="0" COMMENT="" />
    <EXPORT ORDINAL="792" NAME="_ZNKSt13basic_istreamIwSt11char_traitsIwEE6sentrycvbEv" PURGE="0" COMMENT="" />
    <EXPORT ORDINAL="793" NAME="_ZNKSt13basic_ostreamIwSt11char_traitsIwEE6sentrycvbEv" PURGE="0" COMMENT="" />
    <EXPORT ORDINAL="794" NAME="_ZNKSt13random_device13_M_getentropyEv" PURGE="0" COMMENT="" />
    <EXPORT ORDINAL="795" NAME="_ZNKSt13runtime_error4whatEv" PURGE="0" COMMENT="" />
    <EXPORT ORDINAL="796" NAME="_ZNKSt14basic_ifstreamIcSt11char_traitsIcEE5rdbufEv" PURGE="0" COMMENT="" />
    <EXPORT ORDINAL="797" NAME="_ZNKSt14basic_ifstreamIcSt11char_traitsIcEE7is_openEv" PURGE="0" COMMENT="" />
    <EXPORT ORDINAL="798" NAME="_ZNKSt14basic_ifstreamIwSt11char_traitsIwEE5rdbufEv" PURGE="0" COMMENT="" />
    <EXPORT ORDINAL="799" NAME="_ZNKSt14basic_ifstreamIwSt11char_traitsIwEE7is_openEv" PURGE="0" COMMENT="" />
    <EXPORT ORDINAL="800" NAME="_ZNKSt14basic_ofstreamIcSt11char_traitsIcEE5rdbufEv" PURGE="0" COMMENT="" />
    <EXPORT ORDINAL="801" NAME="_ZNKSt14basic_ofstreamIcSt11char_traitsIcEE7is_openEv" PURGE="0" COMMENT="" />
    <EXPORT ORDINAL="802" NAME="_ZNKSt14basic_ofstreamIwSt11char_traitsIwEE5rdbufEv" PURGE="0" COMMENT="" />
    <EXPORT ORDINAL="803" NAME="_ZNKSt14basic_ofstreamIwSt11char_traitsIwEE7is_openEv" PURGE="0" COMMENT="" />
    <EXPORT ORDINAL="804" NAME="_ZNKSt14error_category10equivalentERKSt10error_codei" PURGE="0" COMMENT="" />
    <EXPORT ORDINAL="805" NAME="_ZNKSt14error_category10equivalentEiRKSt15error_condition" PURGE="0" COMMENT="" />
    <EXPORT ORDINAL="806" NAME="_ZNKSt14error_category23default_error_conditionEi" PURGE="0" COMMENT="" />
    <EXPORT ORDINAL="807" NAME="_ZNKSt15__exception_ptr13exception_ptr20__cxa_exception_typeEv" PURGE="0" COMMENT="" />
    <EXPORT ORDINAL="808" NAME="_ZNKSt15__exception_ptr13exception_ptr6_M_getEv" PURGE="0" COMMENT="" />
    <EXPORT ORDINAL="809" NAME="_ZNKSt15__exception_ptr13exception_ptrcvMS0_FvvEEv" PURGE="0" COMMENT="" />
    <EXPORT ORDINAL="810" NAME="_ZNKSt15__exception_ptr13exception_ptrntEv" PURGE="0" COMMENT="" />
    <EXPORT ORDINAL="811" NAME="_ZNKSt15basic_streambufIcSt11char_traitsIcEE4gptrEv" PURGE="0" COMMENT="" />
    <EXPORT ORDINAL="812" NAME="_ZNKSt15basic_streambufIcSt11char_traitsIcEE4pptrEv" PURGE="0" COMMENT="" />
    <EXPORT ORDINAL="813" NAME="_ZNKSt15basic_streambufIcSt11char_traitsIcEE5ebackEv" PURGE="0" COMMENT="" />
    <EXPORT ORDINAL="814" NAME="_ZNKSt15basic_streambufIcSt11char_traitsIcEE5egptrEv" PURGE="0" COMMENT="" />
    <EXPORT ORDINAL="815" NAME="_ZNKSt15basic_streambufIcSt11char_traitsIcEE5epptrEv" PURGE="0" COMMENT="" />
    <EXPORT ORDINAL="816" NAME="_ZNKSt15basic_streambufIcSt11char_traitsIcEE5pbaseEv" PURGE="0" COMMENT="" />
    <EXPORT ORDINAL="817" NAME="_ZNKSt15basic_streambufIcSt11char_traitsIcEE6getlocEv" PURGE="0" COMMENT="" />
    <EXPORT ORDINAL="818" NAME="_ZNKSt15basic_streambufIwSt11char_traitsIwEE4gptrEv" PURGE="0" COMMENT="" />
    <EXPORT ORDINAL="819" NAME="_ZNKSt15basic_streambufIwSt11char_traitsIwEE4pptrEv" PURGE="0" COMMENT="" />
    <EXPORT ORDINAL="820" NAME="_ZNKSt15basic_streambufIwSt11char_traitsIwEE5ebackEv" PURGE="0" COMMENT="" />
    <EXPORT ORDINAL="821" NAME="_ZNKSt15basic_streambufIwSt11char_traitsIwEE5egptrEv" PURGE="0" COMMENT="" />
    <EXPORT ORDINAL="822" NAME="_ZNKSt15basic_streambufIwSt11char_traitsIwEE5epptrEv" PURGE="0" COMMENT="" />
    <EXPORT ORDINAL="823" NAME="_ZNKSt15basic_streambufIwSt11char_traitsIwEE5pbaseEv" PURGE="0" COMMENT="" />
    <EXPORT ORDINAL="824" NAME="_ZNKSt15basic_streambufIwSt11char_traitsIwEE6getlocEv" PURGE="0" COMMENT="" />
    <EXPORT ORDINAL="825" NAME="_ZNKSt15basic_stringbufIcSt11char_traitsIcESaIcEE12_M_high_markEv" PURGE="0" COMMENT="" />
    <EXPORT ORDINAL="826" NAME="_ZNKSt15basic_stringbufIcSt11char_traitsIcESaIcEE3strEv" PURGE="0" COMMENT="" />
    <EXPORT ORDINAL="827" NAME="_ZNKSt15basic_stringbufIwSt11char_traitsIwESaIwEE12_M_high_markEv" PURGE="0" COMMENT="" />
    <EXPORT ORDINAL="828" NAME="_ZNKSt15basic_stringbufIwSt11char_traitsIwESaIwEE3strEv" PURGE="0" COMMENT="" />
    <EXPORT ORDINAL="829" NAME="_ZNKSt16bad_array_length4whatEv" PURGE="0" COMMENT="" />
    <EXPORT ORDINAL="830" NAME="_ZNKSt17bad_function_call4whatEv" PURGE="0" COMMENT="" />
    <EXPORT ORDINAL="831" NAME="_ZNKSt18basic_stringstreamIcSt11char_traitsIcESaIcEE3strEv" PURGE="0" COMMENT="" />
    <EXPORT ORDINAL="832" NAME="_ZNKSt18basic_stringstreamIcSt11char_traitsIcESaIcEE5rdbufEv" PURGE="0" COMMENT="" />
    <EXPORT ORDINAL="833" NAME="_ZNKSt18basic_stringstreamIwSt11char_traitsIwESaIwEE3strEv" PURGE="0" COMMENT="" />
    <EXPORT ORDINAL="834" NAME="_ZNKSt18basic_stringstreamIwSt11char_traitsIwESaIwEE5rdbufEv" PURGE="0" COMMENT="" />
    <EXPORT ORDINAL="835" NAME="_ZNKSt19__codecvt_utf8_baseIDiE10do_unshiftERiPcS2_RS2_" PURGE="0" COMMENT="" />
    <EXPORT ORDINAL="836" NAME="_ZNKSt19__codecvt_utf8_baseIDiE11do_encodingEv" PURGE="0" COMMENT="" />
    <EXPORT ORDINAL="837" NAME="_ZNKSt19__codecvt_utf8_baseIDiE13do_max_lengthEv" PURGE="0" COMMENT="" />
    <EXPORT ORDINAL="838" NAME="_ZNKSt19__codecvt_utf8_baseIDiE16do_always_noconvEv" PURGE="0" COMMENT="" />
    <EXPORT ORDINAL="839" NAME="_ZNKSt19__codecvt_utf8_baseIDiE5do_inERiPKcS3_RS3_PDiS5_RS5_" PURGE="0" COMMENT="" />
    <EXPORT ORDINAL="840" NAME="_ZNKSt19__codecvt_utf8_baseIDiE6do_outERiPKDiS3_RS3_PcS5_RS5_" PURGE="0" COMMENT="" />
    <EXPORT ORDINAL="841" NAME="_ZNKSt19__codecvt_utf8_baseIDiE9do_lengthERiPKcS3_y" PURGE="0" COMMENT="" />
    <EXPORT ORDINAL="842" NAME="_ZNKSt19__codecvt_utf8_baseIDsE10do_unshiftERiPcS2_RS2_" PURGE="0" COMMENT="" />
    <EXPORT ORDINAL="843" NAME="_ZNKSt19__codecvt_utf8_baseIDsE11do_encodingEv" PURGE="0" COMMENT="" />
    <EXPORT ORDINAL="844" NAME="_ZNKSt19__codecvt_utf8_baseIDsE13do_max_lengthEv" PURGE="0" COMMENT="" />
    <EXPORT ORDINAL="845" NAME="_ZNKSt19__codecvt_utf8_baseIDsE16do_always_noconvEv" PURGE="0" COMMENT="" />
    <EXPORT ORDINAL="846" NAME="_ZNKSt19__codecvt_utf8_baseIDsE5do_inERiPKcS3_RS3_PDsS5_RS5_" PURGE="0" COMMENT="" />
    <EXPORT ORDINAL="847" NAME="_ZNKSt19__codecvt_utf8_baseIDsE6do_outERiPKDsS3_RS3_PcS5_RS5_" PURGE="0" COMMENT="" />
    <EXPORT ORDINAL="848" NAME="_ZNKSt19__codecvt_utf8_baseIDsE9do_lengthERiPKcS3_y" PURGE="0" COMMENT="" />
    <EXPORT ORDINAL="849" NAME="_ZNKSt19__codecvt_utf8_baseIwE10do_unshiftERiPcS2_RS2_" PURGE="0" COMMENT="" />
    <EXPORT ORDINAL="850" NAME="_ZNKSt19__codecvt_utf8_baseIwE11do_encodingEv" PURGE="0" COMMENT="" />
    <EXPORT ORDINAL="851" NAME="_ZNKSt19__codecvt_utf8_baseIwE13do_max_lengthEv" PURGE="0" COMMENT="" />
    <EXPORT ORDINAL="852" NAME="_ZNKSt19__codecvt_utf8_baseIwE16do_always_noconvEv" PURGE="0" COMMENT="" />
    <EXPORT ORDINAL="853" NAME="_ZNKSt19__codecvt_utf8_baseIwE5do_inERiPKcS3_RS3_PwS5_RS5_" PURGE="0" COMMENT="" />
    <EXPORT ORDINAL="854" NAME="_ZNKSt19__codecvt_utf8_baseIwE6do_outERiPKwS3_RS3_PcS5_RS5_" PURGE="0" COMMENT="" />
    <EXPORT ORDINAL="855" NAME="_ZNKSt19__codecvt_utf8_baseIwE9do_lengthERiPKcS3_y" PURGE="0" COMMENT="" />
    <EXPORT ORDINAL="856" NAME="_ZNKSt19__iosfail_type_info11__do_upcastEPKN10__cxxabiv117__class_type_infoEPPv" PURGE="0" COMMENT="" />
    <EXPORT ORDINAL="857" NAME="_ZNKSt19basic_istringstreamIcSt11char_traitsIcESaIcEE3strEv" PURGE="0" COMMENT="" />
    <EXPORT ORDINAL="858" NAME="_ZNKSt19basic_istringstreamIcSt11char_traitsIcESaIcEE5rdbufEv" PURGE="0" COMMENT="" />
    <EXPORT ORDINAL="859" NAME="_ZNKSt19basic_istringstreamIwSt11char_traitsIwESaIwEE3strEv" PURGE="0" COMMENT="" />
    <EXPORT ORDINAL="860" NAME="_ZNKSt19basic_istringstreamIwSt11char_traitsIwESaIwEE5rdbufEv" PURGE="0" COMMENT="" />
    <EXPORT ORDINAL="861" NAME="_ZNKSt19basic_ostringstreamIcSt11char_traitsIcESaIcEE3strEv" PURGE="0" COMMENT="" />
    <EXPORT ORDINAL="862" NAME="_ZNKSt19basic_ostringstreamIcSt11char_traitsIcESaIcEE5rdbufEv" PURGE="0" COMMENT="" />
    <EXPORT ORDINAL="863" NAME="_ZNKSt19basic_ostringstreamIwSt11char_traitsIwESaIwEE3strEv" PURGE="0" COMMENT="" />
    <EXPORT ORDINAL="864" NAME="_ZNKSt19basic_ostringstreamIwSt11char_traitsIwESaIwEE5rdbufEv" PURGE="0" COMMENT="" />
    <EXPORT ORDINAL="865" NAME="_ZNKSt19istreambuf_iteratorIcSt11char_traitsIcEE5equalERKS2_" PURGE="0" COMMENT="" />
    <EXPORT ORDINAL="866" NAME="_ZNKSt19istreambuf_iteratorIcSt11char_traitsIcEE6_M_getEv" PURGE="0" COMMENT="" />
    <EXPORT ORDINAL="867" NAME="_ZNKSt19istreambuf_iteratorIwSt11char_traitsIwEE5equalERKS2_" PURGE="0" COMMENT="" />
    <EXPORT ORDINAL="868" NAME="_ZNKSt19istreambuf_iteratorIwSt11char_traitsIwEE6_M_getEv" PURGE="0" COMMENT="" />
    <EXPORT ORDINAL="869" NAME="_ZNKSt20__codecvt_utf16_baseIDiE10do_unshiftERiPcS2_RS2_" PURGE="0" COMMENT="" />
    <EXPORT ORDINAL="870" NAME="_ZNKSt20__codecvt_utf16_baseIDiE11do_encodingEv" PURGE="0" COMMENT="" />
    <EXPORT ORDINAL="871" NAME="_ZNKSt20__codecvt_utf16_baseIDiE13do_max_lengthEv" PURGE="0" COMMENT="" />
    <EXPORT ORDINAL="872" NAME="_ZNKSt20__codecvt_utf16_baseIDiE16do_always_noconvEv" PURGE="0" COMMENT="" />
    <EXPORT ORDINAL="873" NAME="_ZNKSt20__codecvt_utf16_baseIDiE5do_inERiPKcS3_RS3_PDiS5_RS5_" PURGE="0" COMMENT="" />
    <EXPORT ORDINAL="874" NAME="_ZNKSt20__codecvt_utf16_baseIDiE6do_outERiPKDiS3_RS3_PcS5_RS5_" PURGE="0" COMMENT="" />
    <EXPORT ORDINAL="875" NAME="_ZNKSt20__codecvt_utf16_baseIDiE9do_lengthERiPKcS3_y" PURGE="0" COMMENT="" />
    <EXPORT ORDINAL="876" NAME="_ZNKSt20__codecvt_utf16_baseIDsE10do_unshiftERiPcS2_RS2_" PURGE="0" COMMENT="" />
    <EXPORT ORDINAL="877" NAME="_ZNKSt20__codecvt_utf16_baseIDsE11do_encodingEv" PURGE="0" COMMENT="" />
    <EXPORT ORDINAL="878" NAME="_ZNKSt20__codecvt_utf16_baseIDsE13do_max_lengthEv" PURGE="0" COMMENT="" />
    <EXPORT ORDINAL="879" NAME="_ZNKSt20__codecvt_utf16_baseIDsE16do_always_noconvEv" PURGE="0" COMMENT="" />
    <EXPORT ORDINAL="880" NAME="_ZNKSt20__codecvt_utf16_baseIDsE5do_inERiPKcS3_RS3_PDsS5_RS5_" PURGE="0" COMMENT="" />
    <EXPORT ORDINAL="881" NAME="_ZNKSt20__codecvt_utf16_baseIDsE6do_outERiPKDsS3_RS3_PcS5_RS5_" PURGE="0" COMMENT="" />
    <EXPORT ORDINAL="882" NAME="_ZNKSt20__codecvt_utf16_baseIDsE9do_lengthERiPKcS3_y" PURGE="0" COMMENT="" />
    <EXPORT ORDINAL="883" NAME="_ZNKSt20__codecvt_utf16_baseIwE10do_unshiftERiPcS2_RS2_" PURGE="0" COMMENT="" />
    <EXPORT ORDINAL="884" NAME="_ZNKSt20__codecvt_utf16_baseIwE11do_encodingEv" PURGE="0" COMMENT="" />
    <EXPORT ORDINAL="885" NAME="_ZNKSt20__codecvt_utf16_baseIwE13do_max_lengthEv" PURGE="0" COMMENT="" />
    <EXPORT ORDINAL="886" NAME="_ZNKSt20__codecvt_utf16_baseIwE16do_always_noconvEv" PURGE="0" COMMENT="" />
    <EXPORT ORDINAL="887" NAME="_ZNKSt20__codecvt_utf16_baseIwE5do_inERiPKcS3_RS3_PwS5_RS5_" PURGE="0" COMMENT="" />
    <EXPORT ORDINAL="888" NAME="_ZNKSt20__codecvt_utf16_baseIwE6do_outERiPKwS3_RS3_PcS5_RS5_" PURGE="0" COMMENT="" />
    <EXPORT ORDINAL="889" NAME="_ZNKSt20__codecvt_utf16_baseIwE9do_lengthERiPKcS3_y" PURGE="0" COMMENT="" />
    <EXPORT ORDINAL="890" NAME="_ZNKSt20bad_array_new_length4whatEv" PURGE="0" COMMENT="" />
    <EXPORT ORDINAL="891" NAME="_ZNKSt23__codecvt_abstract_baseIwciE2inERiPKcS3_RS3_PwS5_RS5_" PURGE="-1" COMMENT="" />
    <EXPORT ORDINAL="892" NAME="_ZNKSt23__codecvt_abstract_baseIwciE3outERiPKwS3_RS3_PcS5_RS5_" PURGE="-1" COMMENT="" />
    <EXPORT ORDINAL="893" NAME="_ZNKSt25__codecvt_utf8_utf16_baseIDiE10do_unshiftERiPcS2_RS2_" PURGE="0" COMMENT="" />
    <EXPORT ORDINAL="894" NAME="_ZNKSt25__codecvt_utf8_utf16_baseIDiE11do_encodingEv" PURGE="0" COMMENT="" />
    <EXPORT ORDINAL="895" NAME="_ZNKSt25__codecvt_utf8_utf16_baseIDiE13do_max_lengthEv" PURGE="0" COMMENT="" />
    <EXPORT ORDINAL="896" NAME="_ZNKSt25__codecvt_utf8_utf16_baseIDiE16do_always_noconvEv" PURGE="0" COMMENT="" />
    <EXPORT ORDINAL="897" NAME="_ZNKSt25__codecvt_utf8_utf16_baseIDiE5do_inERiPKcS3_RS3_PDiS5_RS5_" PURGE="0" COMMENT="" />
    <EXPORT ORDINAL="898" NAME="_ZNKSt25__codecvt_utf8_utf16_baseIDiE6do_outERiPKDiS3_RS3_PcS5_RS5_" PURGE="0" COMMENT="" />
    <EXPORT ORDINAL="899" NAME="_ZNKSt25__codecvt_utf8_utf16_baseIDiE9do_lengthERiPKcS3_y" PURGE="0" COMMENT="" />
    <EXPORT ORDINAL="900" NAME="_ZNKSt25__codecvt_utf8_utf16_baseIDsE10do_unshiftERiPcS2_RS2_" PURGE="0" COMMENT="" />
    <EXPORT ORDINAL="901" NAME="_ZNKSt25__codecvt_utf8_utf16_baseIDsE11do_encodingEv" PURGE="0" COMMENT="" />
    <EXPORT ORDINAL="902" NAME="_ZNKSt25__codecvt_utf8_utf16_baseIDsE13do_max_lengthEv" PURGE="0" COMMENT="" />
    <EXPORT ORDINAL="903" NAME="_ZNKSt25__codecvt_utf8_utf16_baseIDsE16do_always_noconvEv" PURGE="0" COMMENT="" />
    <EXPORT ORDINAL="904" NAME="_ZNKSt25__codecvt_utf8_utf16_baseIDsE5do_inERiPKcS3_RS3_PDsS5_RS5_" PURGE="0" COMMENT="" />
    <EXPORT ORDINAL="905" NAME="_ZNKSt25__codecvt_utf8_utf16_baseIDsE6do_outERiPKDsS3_RS3_PcS5_RS5_" PURGE="0" COMMENT="" />
    <EXPORT ORDINAL="906" NAME="_ZNKSt25__codecvt_utf8_utf16_baseIDsE9do_lengthERiPKcS3_y" PURGE="0" COMMENT="" />
    <EXPORT ORDINAL="907" NAME="_ZNKSt25__codecvt_utf8_utf16_baseIwE10do_unshiftERiPcS2_RS2_" PURGE="0" COMMENT="" />
    <EXPORT ORDINAL="908" NAME="_ZNKSt25__codecvt_utf8_utf16_baseIwE11do_encodingEv" PURGE="0" COMMENT="" />
    <EXPORT ORDINAL="909" NAME="_ZNKSt25__codecvt_utf8_utf16_baseIwE13do_max_lengthEv" PURGE="0" COMMENT="" />
    <EXPORT ORDINAL="910" NAME="_ZNKSt25__codecvt_utf8_utf16_baseIwE16do_always_noconvEv" PURGE="0" COMMENT="" />
    <EXPORT ORDINAL="911" NAME="_ZNKSt25__codecvt_utf8_utf16_baseIwE5do_inERiPKcS3_RS3_PwS5_RS5_" PURGE="0" COMMENT="" />
    <EXPORT ORDINAL="912" NAME="_ZNKSt25__codecvt_utf8_utf16_baseIwE6do_outERiPKwS3_RS3_PcS5_RS5_" PURGE="0" COMMENT="" />
    <EXPORT ORDINAL="913" NAME="_ZNKSt25__codecvt_utf8_utf16_baseIwE9do_lengthERiPKcS3_y" PURGE="0" COMMENT="" />
    <EXPORT ORDINAL="914" NAME="_ZNKSt3_V214error_category10_M_messageB5cxx11Ei" PURGE="0" COMMENT="" />
    <EXPORT ORDINAL="915" NAME="_ZNKSt3_V214error_category10_M_messageEi" PURGE="0" COMMENT="" />
    <EXPORT ORDINAL="916" NAME="_ZNKSt3_V214error_category10equivalentERKSt10error_codei" PURGE="0" COMMENT="" />
    <EXPORT ORDINAL="917" NAME="_ZNKSt3_V214error_category10equivalentEiRKSt15error_condition" PURGE="0" COMMENT="" />
    <EXPORT ORDINAL="918" NAME="_ZNKSt3_V214error_category23default_error_conditionEi" PURGE="0" COMMENT="" />
    <EXPORT ORDINAL="919" NAME="_ZNKSt3pmr25monotonic_buffer_resource11do_is_equalERKNS_15memory_resourceE" PURGE="0" COMMENT="" />
    <EXPORT ORDINAL="920" NAME="_ZNKSt3pmr26synchronized_pool_resource11do_is_equalERKNS_15memory_resourceE" PURGE="0" COMMENT="" />
    <EXPORT ORDINAL="921" NAME="_ZNKSt3pmr28unsynchronized_pool_resource11do_is_equalERKNS_15memory_resourceE" PURGE="0" COMMENT="" />
    <EXPORT ORDINAL="922" NAME="_ZNKSt3tr14hashINSt7__cxx1112basic_stringIcSt11char_traitsIcESaIcEEEEclES6_" PURGE="0" COMMENT="" />
    <EXPORT ORDINAL="923" NAME="_ZNKSt3tr14hashINSt7__cxx1112basic_stringIwSt11char_traitsIwESaIwEEEEclES6_" PURGE="0" COMMENT="" />
    <EXPORT ORDINAL="924" NAME="_ZNKSt3tr14hashIRKNSt7__cxx1112basic_stringIcSt11char_traitsIcESaIcEEEEclES8_" PURGE="0" COMMENT="" />
    <EXPORT ORDINAL="925" NAME="_ZNKSt3tr14hashIRKNSt7__cxx1112basic_stringIwSt11char_traitsIwESaIwEEEEclES8_" PURGE="0" COMMENT="" />
    <EXPORT ORDINAL="926" NAME="_ZNKSt3tr14hashIRKSbIwSt11char_traitsIwESaIwEEEclES6_" PURGE="0" COMMENT="" />
    <EXPORT ORDINAL="927" NAME="_ZNKSt3tr14hashIRKSsEclES2_" PURGE="0" COMMENT="" />
    <EXPORT ORDINAL="928" NAME="_ZNKSt3tr14hashISbIwSt11char_traitsIwESaIwEEEclES4_" PURGE="0" COMMENT="" />
    <EXPORT ORDINAL="929" NAME="_ZNKSt3tr14hashISsEclESs" PURGE="0" COMMENT="" />
    <EXPORT ORDINAL="930" NAME="_ZNKSt3tr14hashIeEclEe" PURGE="0" COMMENT="" />
    <EXPORT ORDINAL="931" NAME="_ZNKSt4hashIRKSbIwSt11char_traitsIwESaIwEEEclES5_" PURGE="0" COMMENT="" />
    <EXPORT ORDINAL="932" NAME="_ZNKSt4hashIRKSsEclES1_" PURGE="0" COMMENT="" />
    <EXPORT ORDINAL="933" NAME="_ZNKSt4hashISbIwSt11char_traitsIwESaIwEEEclES3_" PURGE="0" COMMENT="" />
    <EXPORT ORDINAL="934" NAME="_ZNKSt4hashISsEclESs" PURGE="0" COMMENT="" />
    <EXPORT ORDINAL="935" NAME="_ZNKSt4hashISt10error_codeEclES0_" PURGE="0" COMMENT="" />
    <EXPORT ORDINAL="936" NAME="_ZNKSt4hashIeEclEe" PURGE="0" COMMENT="" />
    <EXPORT ORDINAL="937" NAME="_ZNKSt5ctypeIcE10do_tolowerEPcPKc" PURGE="0" COMMENT="" />
    <EXPORT ORDINAL="938" NAME="_ZNKSt5ctypeIcE10do_tolowerEc" PURGE="0" COMMENT="" />
    <EXPORT ORDINAL="939" NAME="_ZNKSt5ctypeIcE10do_toupperEPcPKc" PURGE="0" COMMENT="" />
    <EXPORT ORDINAL="940" NAME="_ZNKSt5ctypeIcE10do_toupperEc" PURGE="0" COMMENT="" />
    <EXPORT ORDINAL="941" NAME="_ZNKSt5ctypeIcE13_M_widen_initEv" PURGE="0" COMMENT="" />
    <EXPORT ORDINAL="942" NAME="_ZNKSt5ctypeIcE14_M_narrow_initEv" PURGE="0" COMMENT="" />
    <EXPORT ORDINAL="943" NAME="_ZNKSt5ctypeIcE6narrowEcc" PURGE="0" COMMENT="" />
    <EXPORT ORDINAL="944" NAME="_ZNKSt5ctypeIcE8do_widenEPKcS2_Pc" PURGE="0" COMMENT="" />
    <EXPORT ORDINAL="945" NAME="_ZNKSt5ctypeIcE8do_widenEc" PURGE="0" COMMENT="" />
    <EXPORT ORDINAL="946" NAME="_ZNKSt5ctypeIcE9do_narrowEPKcS2_cPc" PURGE="0" COMMENT="" />
    <EXPORT ORDINAL="947" NAME="_ZNKSt5ctypeIcE9do_narrowEcc" PURGE="0" COMMENT="" />
    <EXPORT ORDINAL="948" NAME="_ZNKSt5ctypeIwE10do_scan_isEtPKwS2_" PURGE="0" COMMENT="" />
    <EXPORT ORDINAL="949" NAME="_ZNKSt5ctypeIwE10do_tolowerEPwPKw" PURGE="0" COMMENT="" />
    <EXPORT ORDINAL="950" NAME="_ZNKSt5ctypeIwE10do_tolowerEw" PURGE="-1" COMMENT="" />
    <EXPORT ORDINAL="951" NAME="_ZNKSt5ctypeIwE10do_toupperEPwPKw" PURGE="0" COMMENT="" />
    <EXPORT ORDINAL="952" NAME="_ZNKSt5ctypeIwE10do_toupperEw" PURGE="-1" COMMENT="" />
    <EXPORT ORDINAL="953" NAME="_ZNKSt5ctypeIwE11do_scan_notEtPKwS2_" PURGE="0" COMMENT="" />
    <EXPORT ORDINAL="954" NAME="_ZNKSt5ctypeIwE19_M_convert_to_wmaskEt" PURGE="0" COMMENT="" />
    <EXPORT ORDINAL="955" NAME="_ZNKSt5ctypeIwE5do_isEPKwS2_Pt" PURGE="0" COMMENT="" />
    <EXPORT ORDINAL="956" NAME="_ZNKSt5ctypeIwE5do_isEtw" PURGE="0" COMMENT="" />
    <EXPORT ORDINAL="957" NAME="_ZNKSt5ctypeIwE8do_widenEPKcS2_Pw" PURGE="0" COMMENT="" />
    <EXPORT ORDINAL="958" NAME="_ZNKSt5ctypeIwE8do_widenEc" PURGE="0" COMMENT="" />
    <EXPORT ORDINAL="959" NAME="_ZNKSt5ctypeIwE9do_narrowEPKwS2_cPc" PURGE="0" COMMENT="" />
    <EXPORT ORDINAL="960" NAME="_ZNKSt5ctypeIwE9do_narrowEwc" PURGE="0" COMMENT="" />
    <EXPORT ORDINAL="961" NAME="_ZNKSt6chrono14time_zone_link4nameEv" PURGE="0" COMMENT="" />
    <EXPORT ORDINAL="962" NAME="_ZNKSt6chrono14year_month_day19_M_days_since_epochEv" PURGE="0" COMMENT="" />
    <EXPORT ORDINAL="963" NAME="_ZNKSt6chrono4tzdb11locate_zoneESt17basic_string_viewIcSt11char_traitsIcEE" PURGE="0" COMMENT="" />
    <EXPORT ORDINAL="964" NAME="_ZNKSt6chrono4tzdb12current_zoneEv" PURGE="0" COMMENT="" />
    <EXPORT ORDINAL="965" NAME="_ZNKSt6chrono9time_zone15_M_get_sys_infoENS_10time_pointINS_3_V212system_clockENS_8durationIxSt5ratioILx1ELx1EEEEEE" PURGE="0" COMMENT="" />
    <EXPORT ORDINAL="966" NAME="_ZNKSt6chrono9time_zone17_M_get_local_infoENS_10time_pointINS_7local_tENS_8durationIxSt5ratioILx1ELx1EEEEEE" PURGE="0" COMMENT="" />
    <EXPORT ORDINAL="967" NAME="_ZNKSt6chrono9time_zone4nameEv" PURGE="0" COMMENT="" />
    <EXPORT ORDINAL="968" NAME="_ZNKSt6chrono9tzdb_list14const_iteratordeEv" PURGE="0" COMMENT="" />
    <EXPORT ORDINAL="969" NAME="_ZNKSt6chrono9tzdb_list5beginEv" PURGE="0" COMMENT="" />
    <EXPORT ORDINAL="970" NAME="_ZNKSt6chrono9tzdb_list5frontEv" PURGE="0" COMMENT="" />
    <EXPORT ORDINAL="971" NAME="_ZNKSt6locale2id5_M_idEv" PURGE="0" COMMENT="" />
    <EXPORT ORDINAL="972" NAME="_ZNKSt6locale4nameB5cxx11Ev" PURGE="0" COMMENT="" />
    <EXPORT ORDINAL="973" NAME="_ZNKSt6locale4nameEv" PURGE="0" COMMENT="" />
    <EXPORT ORDINAL="974" NAME="_ZNKSt6locale5facet11_M_cow_shimEPKNS_2idE" PURGE="0" COMMENT="" />
    <EXPORT ORDINAL="975" NAME="_ZNKSt6locale5facet11_M_sso_shimEPKNS_2idE" PURGE="0" COMMENT="" />
    <EXPORT ORDINAL="976" NAME="_ZNKSt6locale5facet19_M_remove_referenceEv" PURGE="0" COMMENT="" />
    <EXPORT ORDINAL="977" NAME="_ZNKSt6localeeqERKS_" PURGE="0" COMMENT="" />
    <EXPORT ORDINAL="978" NAME="_ZNKSt7__cxx1110moneypunctIcLb0EE10neg_formatEv" PURGE="0" COMMENT="" />
    <EXPORT ORDINAL="979" NAME="_ZNKSt7__cxx1110moneypunctIcLb0EE10pos_formatEv" PURGE="0" COMMENT="" />
    <EXPORT ORDINAL="980" NAME="_ZNKSt7__cxx1110moneypunctIcLb0EE11curr_symbolEv" PURGE="0" COMMENT="" />
    <EXPORT ORDINAL="981" NAME="_ZNKSt7__cxx1110moneypunctIcLb0EE11do_groupingEv" PURGE="0" COMMENT="" />
    <EXPORT ORDINAL="982" NAME="_ZNKSt7__cxx1110moneypunctIcLb0EE11frac_digitsEv" PURGE="0" COMMENT="" />
    <EXPORT ORDINAL="983" NAME="_ZNKSt7__cxx1110moneypunctIcLb0EE13decimal_pointEv" PURGE="0" COMMENT="" />
    <EXPORT ORDINAL="984" NAME="_ZNKSt7__cxx1110moneypunctIcLb0EE13do_neg_formatEv" PURGE="0" COMMENT="" />
    <EXPORT ORDINAL="985" NAME="_ZNKSt7__cxx1110moneypunctIcLb0EE13do_pos_formatEv" PURGE="0" COMMENT="" />
    <EXPORT ORDINAL="986" NAME="_ZNKSt7__cxx1110moneypunctIcLb0EE13negative_signEv" PURGE="0" COMMENT="" />
    <EXPORT ORDINAL="987" NAME="_ZNKSt7__cxx1110moneypunctIcLb0EE13positive_signEv" PURGE="0" COMMENT="" />
    <EXPORT ORDINAL="988" NAME="_ZNKSt7__cxx1110moneypunctIcLb0EE13thousands_sepEv" PURGE="0" COMMENT="" />
    <EXPORT ORDINAL="989" NAME="_ZNKSt7__cxx1110moneypunctIcLb0EE14do_curr_symbolEv" PURGE="0" COMMENT="" />
    <EXPORT ORDINAL="990" NAME="_ZNKSt7__cxx1110moneypunctIcLb0EE14do_frac_digitsEv" PURGE="0" COMMENT="" />
    <EXPORT ORDINAL="991" NAME="_ZNKSt7__cxx1110moneypunctIcLb0EE16do_decimal_pointEv" PURGE="0" COMMENT="" />
    <EXPORT ORDINAL="992" NAME="_ZNKSt7__cxx1110moneypunctIcLb0EE16do_negative_signEv" PURGE="0" COMMENT="" />
    <EXPORT ORDINAL="993" NAME="_ZNKSt7__cxx1110moneypunctIcLb0EE16do_positive_signEv" PURGE="0" COMMENT="" />
    <EXPORT ORDINAL="994" NAME="_ZNKSt7__cxx1110moneypunctIcLb0EE16do_thousands_sepEv" PURGE="0" COMMENT="" />
    <EXPORT ORDINAL="995" NAME="_ZNKSt7__cxx1110moneypunctIcLb0EE8groupingEv" PURGE="0" COMMENT="" />
    <EXPORT ORDINAL="996" NAME="_ZNKSt7__cxx1110moneypunctIcLb1EE10neg_formatEv" PURGE="0" COMMENT="" />
    <EXPORT ORDINAL="997" NAME="_ZNKSt7__cxx1110moneypunctIcLb1EE10pos_formatEv" PURGE="0" COMMENT="" />
    <EXPORT ORDINAL="998" NAME="_ZNKSt7__cxx1110moneypunctIcLb1EE11curr_symbolEv" PURGE="0" COMMENT="" />
    <EXPORT ORDINAL="999" NAME="_ZNKSt7__cxx1110moneypunctIcLb1EE11do_groupingEv" PURGE="0" COMMENT="" />
    <EXPORT ORDINAL="1000" NAME="_ZNKSt7__cxx1110moneypunctIcLb1EE11frac_digitsEv" PURGE="0" COMMENT="" />
    <EXPORT ORDINAL="1001" NAME="_ZNKSt7__cxx1110moneypunctIcLb1EE13decimal_pointEv" PURGE="0" COMMENT="" />
    <EXPORT ORDINAL="1002" NAME="_ZNKSt7__cxx1110moneypunctIcLb1EE13do_neg_formatEv" PURGE="0" COMMENT="" />
    <EXPORT ORDINAL="1003" NAME="_ZNKSt7__cxx1110moneypunctIcLb1EE13do_pos_formatEv" PURGE="0" COMMENT="" />
    <EXPORT ORDINAL="1004" NAME="_ZNKSt7__cxx1110moneypunctIcLb1EE13negative_signEv" PURGE="0" COMMENT="" />
    <EXPORT ORDINAL="1005" NAME="_ZNKSt7__cxx1110moneypunctIcLb1EE13positive_signEv" PURGE="0" COMMENT="" />
    <EXPORT ORDINAL="1006" NAME="_ZNKSt7__cxx1110moneypunctIcLb1EE13thousands_sepEv" PURGE="0" COMMENT="" />
    <EXPORT ORDINAL="1007" NAME="_ZNKSt7__cxx1110moneypunctIcLb1EE14do_curr_symbolEv" PURGE="0" COMMENT="" />
    <EXPORT ORDINAL="1008" NAME="_ZNKSt7__cxx1110moneypunctIcLb1EE14do_frac_digitsEv" PURGE="0" COMMENT="" />
    <EXPORT ORDINAL="1009" NAME="_ZNKSt7__cxx1110moneypunctIcLb1EE16do_decimal_pointEv" PURGE="0" COMMENT="" />
    <EXPORT ORDINAL="1010" NAME="_ZNKSt7__cxx1110moneypunctIcLb1EE16do_negative_signEv" PURGE="0" COMMENT="" />
    <EXPORT ORDINAL="1011" NAME="_ZNKSt7__cxx1110moneypunctIcLb1EE16do_positive_signEv" PURGE="0" COMMENT="" />
    <EXPORT ORDINAL="1012" NAME="_ZNKSt7__cxx1110moneypunctIcLb1EE16do_thousands_sepEv" PURGE="0" COMMENT="" />
    <EXPORT ORDINAL="1013" NAME="_ZNKSt7__cxx1110moneypunctIcLb1EE8groupingEv" PURGE="0" COMMENT="" />
    <EXPORT ORDINAL="1014" NAME="_ZNKSt7__cxx1110moneypunctIwLb0EE10neg_formatEv" PURGE="0" COMMENT="" />
    <EXPORT ORDINAL="1015" NAME="_ZNKSt7__cxx1110moneypunctIwLb0EE10pos_formatEv" PURGE="0" COMMENT="" />
    <EXPORT ORDINAL="1016" NAME="_ZNKSt7__cxx1110moneypunctIwLb0EE11curr_symbolEv" PURGE="0" COMMENT="" />
    <EXPORT ORDINAL="1017" NAME="_ZNKSt7__cxx1110moneypunctIwLb0EE11do_groupingEv" PURGE="0" COMMENT="" />
    <EXPORT ORDINAL="1018" NAME="_ZNKSt7__cxx1110moneypunctIwLb0EE11frac_digitsEv" PURGE="0" COMMENT="" />
    <EXPORT ORDINAL="1019" NAME="_ZNKSt7__cxx1110moneypunctIwLb0EE13decimal_pointEv" PURGE="0" COMMENT="" />
    <EXPORT ORDINAL="1020" NAME="_ZNKSt7__cxx1110moneypunctIwLb0EE13do_neg_formatEv" PURGE="0" COMMENT="" />
    <EXPORT ORDINAL="1021" NAME="_ZNKSt7__cxx1110moneypunctIwLb0EE13do_pos_formatEv" PURGE="0" COMMENT="" />
    <EXPORT ORDINAL="1022" NAME="_ZNKSt7__cxx1110moneypunctIwLb0EE13negative_signEv" PURGE="0" COMMENT="" />
    <EXPORT ORDINAL="1023" NAME="_ZNKSt7__cxx1110moneypunctIwLb0EE13positive_signEv" PURGE="0" COMMENT="" />
    <EXPORT ORDINAL="1024" NAME="_ZNKSt7__cxx1110moneypunctIwLb0EE13thousands_sepEv" PURGE="0" COMMENT="" />
    <EXPORT ORDINAL="1025" NAME="_ZNKSt7__cxx1110moneypunctIwLb0EE14do_curr_symbolEv" PURGE="0" COMMENT="" />
    <EXPORT ORDINAL="1026" NAME="_ZNKSt7__cxx1110moneypunctIwLb0EE14do_frac_digitsEv" PURGE="0" COMMENT="" />
    <EXPORT ORDINAL="1027" NAME="_ZNKSt7__cxx1110moneypunctIwLb0EE16do_decimal_pointEv" PURGE="0" COMMENT="" />
    <EXPORT ORDINAL="1028" NAME="_ZNKSt7__cxx1110moneypunctIwLb0EE16do_negative_signEv" PURGE="0" COMMENT="" />
    <EXPORT ORDINAL="1029" NAME="_ZNKSt7__cxx1110moneypunctIwLb0EE16do_positive_signEv" PURGE="0" COMMENT="" />
    <EXPORT ORDINAL="1030" NAME="_ZNKSt7__cxx1110moneypunctIwLb0EE16do_thousands_sepEv" PURGE="0" COMMENT="" />
    <EXPORT ORDINAL="1031" NAME="_ZNKSt7__cxx1110moneypunctIwLb0EE8groupingEv" PURGE="0" COMMENT="" />
    <EXPORT ORDINAL="1032" NAME="_ZNKSt7__cxx1110moneypunctIwLb1EE10neg_formatEv" PURGE="0" COMMENT="" />
    <EXPORT ORDINAL="1033" NAME="_ZNKSt7__cxx1110moneypunctIwLb1EE10pos_formatEv" PURGE="0" COMMENT="" />
    <EXPORT ORDINAL="1034" NAME="_ZNKSt7__cxx1110moneypunctIwLb1EE11curr_symbolEv" PURGE="0" COMMENT="" />
    <EXPORT ORDINAL="1035" NAME="_ZNKSt7__cxx1110moneypunctIwLb1EE11do_groupingEv" PURGE="0" COMMENT="" />
    <EXPORT ORDINAL="1036" NAME="_ZNKSt7__cxx1110moneypunctIwLb1EE11frac_digitsEv" PURGE="0" COMMENT="" />
    <EXPORT ORDINAL="1037" NAME="_ZNKSt7__cxx1110moneypunctIwLb1EE13decimal_pointEv" PURGE="0" COMMENT="" />
    <EXPORT ORDINAL="1038" NAME="_ZNKSt7__cxx1110moneypunctIwLb1EE13do_neg_formatEv" PURGE="0" COMMENT="" />
    <EXPORT ORDINAL="1039" NAME="_ZNKSt7__cxx1110moneypunctIwLb1EE13do_pos_formatEv" PURGE="0" COMMENT="" />
    <EXPORT ORDINAL="1040" NAME="_ZNKSt7__cxx1110moneypunctIwLb1EE13negative_signEv" PURGE="0" COMMENT="" />
    <EXPORT ORDINAL="1041" NAME="_ZNKSt7__cxx1110moneypunctIwLb1EE13positive_signEv" PURGE="0" COMMENT="" />
    <EXPORT ORDINAL="1042" NAME="_ZNKSt7__cxx1110moneypunctIwLb1EE13thousands_sepEv" PURGE="0" COMMENT="" />
    <EXPORT ORDINAL="1043" NAME="_ZNKSt7__cxx1110moneypunctIwLb1EE14do_curr_symbolEv" PURGE="0" COMMENT="" />
    <EXPORT ORDINAL="1044" NAME="_ZNKSt7__cxx1110moneypunctIwLb1EE14do_frac_digitsEv" PURGE="0" COMMENT="" />
    <EXPORT ORDINAL="1045" NAME="_ZNKSt7__cxx1110moneypunctIwLb1EE16do_decimal_pointEv" PURGE="0" COMMENT="" />
    <EXPORT ORDINAL="1046" NAME="_ZNKSt7__cxx1110moneypunctIwLb1EE16do_negative_signEv" PURGE="0" COMMENT="" />
    <EXPORT ORDINAL="1047" NAME="_ZNKSt7__cxx1110moneypunctIwLb1EE16do_positive_signEv" PURGE="0" COMMENT="" />
    <EXPORT ORDINAL="1048" NAME="_ZNKSt7__cxx1110moneypunctIwLb1EE16do_thousands_sepEv" PURGE="0" COMMENT="" />
    <EXPORT ORDINAL="1049" NAME="_ZNKSt7__cxx1110moneypunctIwLb1EE8groupingEv" PURGE="0" COMMENT="" />
    <EXPORT ORDINAL="1050" NAME="_ZNKSt7__cxx1112basic_stringIcSt11char_traitsIcESaIcEE11_M_disjunctEPKc" PURGE="0" COMMENT="" />
    <EXPORT ORDINAL="1051" NAME="_ZNKSt7__cxx1112basic_stringIcSt11char_traitsIcESaIcEE11_M_is_localEv" PURGE="0" COMMENT="" />
    <EXPORT ORDINAL="1052" NAME="_ZNKSt7__cxx1112basic_stringIcSt11char_traitsIcESaIcEE12find_last_ofEPKcy" PURGE="0" COMMENT="" />
    <EXPORT ORDINAL="1053" NAME="_ZNKSt7__cxx1112basic_stringIcSt11char_traitsIcESaIcEE12find_last_ofEPKcyy" PURGE="0" COMMENT="" />
    <EXPORT ORDINAL="1054" NAME="_ZNKSt7__cxx1112basic_stringIcSt11char_traitsIcESaIcEE12find_last_ofERKS4_y" PURGE="0" COMMENT="" />
    <EXPORT ORDINAL="1055" NAME="_ZNKSt7__cxx1112basic_stringIcSt11char_traitsIcESaIcEE12find_last_ofEcy" PURGE="0" COMMENT="" />
    <EXPORT ORDINAL="1056" NAME="_ZNKSt7__cxx1112basic_stringIcSt11char_traitsIcESaIcEE13_M_local_dataEv" PURGE="0" COMMENT="" />
    <EXPORT ORDINAL="1057" NAME="_ZNKSt7__cxx1112basic_stringIcSt11char_traitsIcESaIcEE13find_first_ofEPKcy" PURGE="0" COMMENT="" />
    <EXPORT ORDINAL="1058" NAME="_ZNKSt7__cxx1112basic_stringIcSt11char_traitsIcESaIcEE13find_first_ofEPKcyy" PURGE="0" COMMENT="" />
    <EXPORT ORDINAL="1059" NAME="_ZNKSt7__cxx1112basic_stringIcSt11char_traitsIcESaIcEE13find_first_ofERKS4_y" PURGE="0" COMMENT="" />
    <EXPORT ORDINAL="1060" NAME="_ZNKSt7__cxx1112basic_stringIcSt11char_traitsIcESaIcEE13find_first_ofEcy" PURGE="0" COMMENT="" />
    <EXPORT ORDINAL="1061" NAME="_ZNKSt7__cxx1112basic_stringIcSt11char_traitsIcESaIcEE13get_allocatorEv" PURGE="0" COMMENT="" />
    <EXPORT ORDINAL="1062" NAME="_ZNKSt7__cxx1112basic_stringIcSt11char_traitsIcESaIcEE15_M_check_lengthEyyPKc" PURGE="0" COMMENT="" />
    <EXPORT ORDINAL="1063" NAME="_ZNKSt7__cxx1112basic_stringIcSt11char_traitsIcESaIcEE16_M_get_allocatorEv" PURGE="0" COMMENT="" />
    <EXPORT ORDINAL="1064" NAME="_ZNKSt7__cxx1112basic_stringIcSt11char_traitsIcESaIcEE16find_last_not_ofEPKcy" PURGE="0" COMMENT="" />
    <EXPORT ORDINAL="1065" NAME="_ZNKSt7__cxx1112basic_stringIcSt11char_traitsIcESaIcEE16find_last_not_ofEPKcyy" PURGE="0" COMMENT="" />
    <EXPORT ORDINAL="1066" NAME="_ZNKSt7__cxx1112basic_stringIcSt11char_traitsIcESaIcEE16find_last_not_ofERKS4_y" PURGE="0" COMMENT="" />
    <EXPORT ORDINAL="1067" NAME="_ZNKSt7__cxx1112basic_stringIcSt11char_traitsIcESaIcEE16find_last_not_ofEcy" PURGE="0" COMMENT="" />
    <EXPORT ORDINAL="1068" NAME="_ZNKSt7__cxx1112basic_stringIcSt11char_traitsIcESaIcEE17find_first_not_ofEPKcy" PURGE="0" COMMENT="" />
    <EXPORT ORDINAL="1069" NAME="_ZNKSt7__cxx1112basic_stringIcSt11char_traitsIcESaIcEE17find_first_not_ofEPKcyy" PURGE="0" COMMENT="" />
    <EXPORT ORDINAL="1070" NAME="_ZNKSt7__cxx1112basic_stringIcSt11char_traitsIcESaIcEE17find_first_not_ofERKS4_y" PURGE="0" COMMENT="" />
    <EXPORT ORDINAL="1071" NAME="_ZNKSt7__cxx1112basic_stringIcSt11char_traitsIcESaIcEE17find_first_not_ofEcy" PURGE="0" COMMENT="" />
    <EXPORT ORDINAL="1072" NAME="_ZNKSt7__cxx1112basic_stringIcSt11char_traitsIcESaIcEE2atEy" PURGE="0" COMMENT="" />
    <EXPORT ORDINAL="1073" NAME="_ZNKSt7__cxx1112basic_stringIcSt11char_traitsIcESaIcEE3endEv" PURGE="0" COMMENT="" />
    <EXPORT ORDINAL="1074" NAME="_ZNKSt7__cxx1112basic_stringIcSt11char_traitsIcESaIcEE4backEv" PURGE="0" COMMENT="" />
    <EXPORT ORDINAL="1075" NAME="_ZNKSt7__cxx1112basic_stringIcSt11char_traitsIcESaIcEE4cendEv" PURGE="0" COMMENT="" />
    <EXPORT ORDINAL="1076" NAME="_ZNKSt7__cxx1112basic_stringIcSt11char_traitsIcESaIcEE4copyEPcyy" PURGE="0" COMMENT="" />
    <EXPORT ORDINAL="1077" NAME="_ZNKSt7__cxx1112basic_stringIcSt11char_traitsIcESaIcEE4dataEv" PURGE="0" COMMENT="" />
    <EXPORT ORDINAL="1078" NAME="_ZNKSt7__cxx1112basic_stringIcSt11char_traitsIcESaIcEE4findEPKcy" PURGE="0" COMMENT="" />
    <EXPORT ORDINAL="1079" NAME="_ZNKSt7__cxx1112basic_stringIcSt11char_traitsIcESaIcEE4findEPKcyy" PURGE="0" COMMENT="" />
    <EXPORT ORDINAL="1080" NAME="_ZNKSt7__cxx1112basic_stringIcSt11char_traitsIcESaIcEE4findERKS4_y" PURGE="0" COMMENT="" />
    <EXPORT ORDINAL="1081" NAME="_ZNKSt7__cxx1112basic_stringIcSt11char_traitsIcESaIcEE4findEcy" PURGE="0" COMMENT="" />
    <EXPORT ORDINAL="1082" NAME="_ZNKSt7__cxx1112basic_stringIcSt11char_traitsIcESaIcEE4rendEv" PURGE="0" COMMENT="" />
    <EXPORT ORDINAL="1083" NAME="_ZNKSt7__cxx1112basic_stringIcSt11char_traitsIcESaIcEE4sizeEv" PURGE="0" COMMENT="" />
    <EXPORT ORDINAL="1084" NAME="_ZNKSt7__cxx1112basic_stringIcSt11char_traitsIcESaIcEE5beginEv" PURGE="0" COMMENT="" />
    <EXPORT ORDINAL="1085" NAME="_ZNKSt7__cxx1112basic_stringIcSt11char_traitsIcESaIcEE5c_strEv" PURGE="0" COMMENT="" />
    <EXPORT ORDINAL="1086" NAME="_ZNKSt7__cxx1112basic_stringIcSt11char_traitsIcESaIcEE5crendEv" PURGE="0" COMMENT="" />
    <EXPORT ORDINAL="1087" NAME="_ZNKSt7__cxx1112basic_stringIcSt11char_traitsIcESaIcEE5emptyEv" PURGE="0" COMMENT="" />
    <EXPORT ORDINAL="1088" NAME="_ZNKSt7__cxx1112basic_stringIcSt11char_traitsIcESaIcEE5frontEv" PURGE="0" COMMENT="" />
    <EXPORT ORDINAL="1089" NAME="_ZNKSt7__cxx1112basic_stringIcSt11char_traitsIcESaIcEE5rfindEPKcy" PURGE="0" COMMENT="" />
    <EXPORT ORDINAL="1090" NAME="_ZNKSt7__cxx1112basic_stringIcSt11char_traitsIcESaIcEE5rfindEPKcyy" PURGE="0" COMMENT="" />
    <EXPORT ORDINAL="1091" NAME="_ZNKSt7__cxx1112basic_stringIcSt11char_traitsIcESaIcEE5rfindERKS4_y" PURGE="0" COMMENT="" />
    <EXPORT ORDINAL="1092" NAME="_ZNKSt7__cxx1112basic_stringIcSt11char_traitsIcESaIcEE5rfindEcy" PURGE="0" COMMENT="" />
    <EXPORT ORDINAL="1093" NAME="_ZNKSt7__cxx1112basic_stringIcSt11char_traitsIcESaIcEE6cbeginEv" PURGE="0" COMMENT="" />
    <EXPORT ORDINAL="1094" NAME="_ZNKSt7__cxx1112basic_stringIcSt11char_traitsIcESaIcEE6lengthEv" PURGE="0" COMMENT="" />
    <EXPORT ORDINAL="1095" NAME="_ZNKSt7__cxx1112basic_stringIcSt11char_traitsIcESaIcEE6rbeginEv" PURGE="0" COMMENT="" />
    <EXPORT ORDINAL="1096" NAME="_ZNKSt7__cxx1112basic_stringIcSt11char_traitsIcESaIcEE6substrEyy" PURGE="0" COMMENT="" />
    <EXPORT ORDINAL="1097" NAME="_ZNKSt7__cxx1112basic_stringIcSt11char_traitsIcESaIcEE7_M_dataEv" PURGE="0" COMMENT="" />
    <EXPORT ORDINAL="1098" NAME="_ZNKSt7__cxx1112basic_stringIcSt11char_traitsIcESaIcEE7compareEPKc" PURGE="0" COMMENT="" />
    <EXPORT ORDINAL="1099" NAME="_ZNKSt7__cxx1112basic_stringIcSt11char_traitsIcESaIcEE7compareERKS4_" PURGE="0" COMMENT="" />
    <EXPORT ORDINAL="1100" NAME="_ZNKSt7__cxx1112basic_stringIcSt11char_traitsIcESaIcEE7compareEyyPKc" PURGE="0" COMMENT="" />
    <EXPORT ORDINAL="1101" NAME="_ZNKSt7__cxx1112basic_stringIcSt11char_traitsIcESaIcEE7compareEyyPKcy" PURGE="0" COMMENT="" />
    <EXPORT ORDINAL="1102" NAME="_ZNKSt7__cxx1112basic_stringIcSt11char_traitsIcESaIcEE7compareEyyRKS4_" PURGE="0" COMMENT="" />
    <EXPORT ORDINAL="1103" NAME="_ZNKSt7__cxx1112basic_stringIcSt11char_traitsIcESaIcEE7compareEyyRKS4_yy" PURGE="0" COMMENT="" />
    <EXPORT ORDINAL="1104" NAME="_ZNKSt7__cxx1112basic_stringIcSt11char_traitsIcESaIcEE7crbeginEv" PURGE="0" COMMENT="" />
    <EXPORT ORDINAL="1105" NAME="_ZNKSt7__cxx1112basic_stringIcSt11char_traitsIcESaIcEE8_M_checkEyPKc" PURGE="0" COMMENT="" />
    <EXPORT ORDINAL="1106" NAME="_ZNKSt7__cxx1112basic_stringIcSt11char_traitsIcESaIcEE8_M_limitEyy" PURGE="0" COMMENT="" />
    <EXPORT ORDINAL="1107" NAME="_ZNKSt7__cxx1112basic_stringIcSt11char_traitsIcESaIcEE8capacityEv" PURGE="0" COMMENT="" />
    <EXPORT ORDINAL="1108" NAME="_ZNKSt7__cxx1112basic_stringIcSt11char_traitsIcESaIcEE8max_sizeEv" PURGE="0" COMMENT="" />
    <EXPORT ORDINAL="1109" NAME="_ZNKSt7__cxx1112basic_stringIcSt11char_traitsIcESaIcEEcvSt17basic_string_viewIcS2_EEv" PURGE="0" COMMENT="" />
    <EXPORT ORDINAL="1110" NAME="_ZNKSt7__cxx1112basic_stringIcSt11char_traitsIcESaIcEEixEy" PURGE="0" COMMENT="" />
    <EXPORT ORDINAL="1111" NAME="_ZNKSt7__cxx1112basic_stringIwSt11char_traitsIwESaIwEE11_M_disjunctEPKw" PURGE="0" COMMENT="" />
    <EXPORT ORDINAL="1112" NAME="_ZNKSt7__cxx1112basic_stringIwSt11char_traitsIwESaIwEE11_M_is_localEv" PURGE="0" COMMENT="" />
    <EXPORT ORDINAL="1113" NAME="_ZNKSt7__cxx1112basic_stringIwSt11char_traitsIwESaIwEE12find_last_ofEPKwy" PURGE="0" COMMENT="" />
    <EXPORT ORDINAL="1114" NAME="_ZNKSt7__cxx1112basic_stringIwSt11char_traitsIwESaIwEE12find_last_ofEPKwyy" PURGE="0" COMMENT="" />
    <EXPORT ORDINAL="1115" NAME="_ZNKSt7__cxx1112basic_stringIwSt11char_traitsIwESaIwEE12find_last_ofERKS4_y" PURGE="0" COMMENT="" />
    <EXPORT ORDINAL="1116" NAME="_ZNKSt7__cxx1112basic_stringIwSt11char_traitsIwESaIwEE12find_last_ofEwy" PURGE="0" COMMENT="" />
    <EXPORT ORDINAL="1117" NAME="_ZNKSt7__cxx1112basic_stringIwSt11char_traitsIwESaIwEE13_M_local_dataEv" PURGE="0" COMMENT="" />
    <EXPORT ORDINAL="1118" NAME="_ZNKSt7__cxx1112basic_stringIwSt11char_traitsIwESaIwEE13find_first_ofEPKwy" PURGE="0" COMMENT="" />
    <EXPORT ORDINAL="1119" NAME="_ZNKSt7__cxx1112basic_stringIwSt11char_traitsIwESaIwEE13find_first_ofEPKwyy" PURGE="0" COMMENT="" />
    <EXPORT ORDINAL="1120" NAME="_ZNKSt7__cxx1112basic_stringIwSt11char_traitsIwESaIwEE13find_first_ofERKS4_y" PURGE="0" COMMENT="" />
    <EXPORT ORDINAL="1121" NAME="_ZNKSt7__cxx1112basic_stringIwSt11char_traitsIwESaIwEE13find_first_ofEwy" PURGE="0" COMMENT="" />
    <EXPORT ORDINAL="1122" NAME="_ZNKSt7__cxx1112basic_stringIwSt11char_traitsIwESaIwEE13get_allocatorEv" PURGE="0" COMMENT="" />
    <EXPORT ORDINAL="1123" NAME="_ZNKSt7__cxx1112basic_stringIwSt11char_traitsIwESaIwEE15_M_check_lengthEyyPKc" PURGE="0" COMMENT="" />
    <EXPORT ORDINAL="1124" NAME="_ZNKSt7__cxx1112basic_stringIwSt11char_traitsIwESaIwEE16_M_get_allocatorEv" PURGE="0" COMMENT="" />
    <EXPORT ORDINAL="1125" NAME="_ZNKSt7__cxx1112basic_stringIwSt11char_traitsIwESaIwEE16find_last_not_ofEPKwy" PURGE="0" COMMENT="" />
    <EXPORT ORDINAL="1126" NAME="_ZNKSt7__cxx1112basic_stringIwSt11char_traitsIwESaIwEE16find_last_not_ofEPKwyy" PURGE="0" COMMENT="" />
    <EXPORT ORDINAL="1127" NAME="_ZNKSt7__cxx1112basic_stringIwSt11char_traitsIwESaIwEE16find_last_not_ofERKS4_y" PURGE="0" COMMENT="" />
    <EXPORT ORDINAL="1128" NAME="_ZNKSt7__cxx1112basic_stringIwSt11char_traitsIwESaIwEE16find_last_not_ofEwy" PURGE="0" COMMENT="" />
    <EXPORT ORDINAL="1129" NAME="_ZNKSt7__cxx1112basic_stringIwSt11char_traitsIwESaIwEE17find_first_not_ofEPKwy" PURGE="0" COMMENT="" />
    <EXPORT ORDINAL="1130" NAME="_ZNKSt7__cxx1112basic_stringIwSt11char_traitsIwESaIwEE17find_first_not_ofEPKwyy" PURGE="0" COMMENT="" />
    <EXPORT ORDINAL="1131" NAME="_ZNKSt7__cxx1112basic_stringIwSt11char_traitsIwESaIwEE17find_first_not_ofERKS4_y" PURGE="0" COMMENT="" />
    <EXPORT ORDINAL="1132" NAME="_ZNKSt7__cxx1112basic_stringIwSt11char_traitsIwESaIwEE17find_first_not_ofEwy" PURGE="0" COMMENT="" />
    <EXPORT ORDINAL="1133" NAME="_ZNKSt7__cxx1112basic_stringIwSt11char_traitsIwESaIwEE2atEy" PURGE="0" COMMENT="" />
    <EXPORT ORDINAL="1134" NAME="_ZNKSt7__cxx1112basic_stringIwSt11char_traitsIwESaIwEE3endEv" PURGE="0" COMMENT="" />
    <EXPORT ORDINAL="1135" NAME="_ZNKSt7__cxx1112basic_stringIwSt11char_traitsIwESaIwEE4backEv" PURGE="0" COMMENT="" />
    <EXPORT ORDINAL="1136" NAME="_ZNKSt7__cxx1112basic_stringIwSt11char_traitsIwESaIwEE4cendEv" PURGE="0" COMMENT="" />
    <EXPORT ORDINAL="1137" NAME="_ZNKSt7__cxx1112basic_stringIwSt11char_traitsIwESaIwEE4copyEPwyy" PURGE="0" COMMENT="" />
    <EXPORT ORDINAL="1138" NAME="_ZNKSt7__cxx1112basic_stringIwSt11char_traitsIwESaIwEE4dataEv" PURGE="0" COMMENT="" />
    <EXPORT ORDINAL="1139" NAME="_ZNKSt7__cxx1112basic_stringIwSt11char_traitsIwESaIwEE4findEPKwy" PURGE="0" COMMENT="" />
    <EXPORT ORDINAL="1140" NAME="_ZNKSt7__cxx1112basic_stringIwSt11char_traitsIwESaIwEE4findEPKwyy" PURGE="0" COMMENT="" />
    <EXPORT ORDINAL="1141" NAME="_ZNKSt7__cxx1112basic_stringIwSt11char_traitsIwESaIwEE4findERKS4_y" PURGE="0" COMMENT="" />
    <EXPORT ORDINAL="1142" NAME="_ZNKSt7__cxx1112basic_stringIwSt11char_traitsIwESaIwEE4findEwy" PURGE="0" COMMENT="" />
    <EXPORT ORDINAL="1143" NAME="_ZNKSt7__cxx1112basic_stringIwSt11char_traitsIwESaIwEE4rendEv" PURGE="0" COMMENT="" />
    <EXPORT ORDINAL="1144" NAME="_ZNKSt7__cxx1112basic_stringIwSt11char_traitsIwESaIwEE4sizeEv" PURGE="0" COMMENT="" />
    <EXPORT ORDINAL="1145" NAME="_ZNKSt7__cxx1112basic_stringIwSt11char_traitsIwESaIwEE5beginEv" PURGE="0" COMMENT="" />
    <EXPORT ORDINAL="1146" NAME="_ZNKSt7__cxx1112basic_stringIwSt11char_traitsIwESaIwEE5c_strEv" PURGE="0" COMMENT="" />
    <EXPORT ORDINAL="1147" NAME="_ZNKSt7__cxx1112basic_stringIwSt11char_traitsIwESaIwEE5crendEv" PURGE="0" COMMENT="" />
    <EXPORT ORDINAL="1148" NAME="_ZNKSt7__cxx1112basic_stringIwSt11char_traitsIwESaIwEE5emptyEv" PURGE="0" COMMENT="" />
    <EXPORT ORDINAL="1149" NAME="_ZNKSt7__cxx1112basic_stringIwSt11char_traitsIwESaIwEE5frontEv" PURGE="0" COMMENT="" />
    <EXPORT ORDINAL="1150" NAME="_ZNKSt7__cxx1112basic_stringIwSt11char_traitsIwESaIwEE5rfindEPKwy" PURGE="0" COMMENT="" />
    <EXPORT ORDINAL="1151" NAME="_ZNKSt7__cxx1112basic_stringIwSt11char_traitsIwESaIwEE5rfindEPKwyy" PURGE="0" COMMENT="" />
    <EXPORT ORDINAL="1152" NAME="_ZNKSt7__cxx1112basic_stringIwSt11char_traitsIwESaIwEE5rfindERKS4_y" PURGE="0" COMMENT="" />
    <EXPORT ORDINAL="1153" NAME="_ZNKSt7__cxx1112basic_stringIwSt11char_traitsIwESaIwEE5rfindEwy" PURGE="0" COMMENT="" />
    <EXPORT ORDINAL="1154" NAME="_ZNKSt7__cxx1112basic_stringIwSt11char_traitsIwESaIwEE6cbeginEv" PURGE="0" COMMENT="" />
    <EXPORT ORDINAL="1155" NAME="_ZNKSt7__cxx1112basic_stringIwSt11char_traitsIwESaIwEE6lengthEv" PURGE="0" COMMENT="" />
    <EXPORT ORDINAL="1156" NAME="_ZNKSt7__cxx1112basic_stringIwSt11char_traitsIwESaIwEE6rbeginEv" PURGE="0" COMMENT="" />
    <EXPORT ORDINAL="1157" NAME="_ZNKSt7__cxx1112basic_stringIwSt11char_traitsIwESaIwEE6substrEyy" PURGE="0" COMMENT="" />
    <EXPORT ORDINAL="1158" NAME="_ZNKSt7__cxx1112basic_stringIwSt11char_traitsIwESaIwEE7_M_dataEv" PURGE="0" COMMENT="" />
    <EXPORT ORDINAL="1159" NAME="_ZNKSt7__cxx1112basic_stringIwSt11char_traitsIwESaIwEE7compareEPKw" PURGE="0" COMMENT="" />
    <EXPORT ORDINAL="1160" NAME="_ZNKSt7__cxx1112basic_stringIwSt11char_traitsIwESaIwEE7compareERKS4_" PURGE="0" COMMENT="" />
    <EXPORT ORDINAL="1161" NAME="_ZNKSt7__cxx1112basic_stringIwSt11char_traitsIwESaIwEE7compareEyyPKw" PURGE="0" COMMENT="" />
    <EXPORT ORDINAL="1162" NAME="_ZNKSt7__cxx1112basic_stringIwSt11char_traitsIwESaIwEE7compareEyyPKwy" PURGE="0" COMMENT="" />
    <EXPORT ORDINAL="1163" NAME="_ZNKSt7__cxx1112basic_stringIwSt11char_traitsIwESaIwEE7compareEyyRKS4_" PURGE="0" COMMENT="" />
    <EXPORT ORDINAL="1164" NAME="_ZNKSt7__cxx1112basic_stringIwSt11char_traitsIwESaIwEE7compareEyyRKS4_yy" PURGE="0" COMMENT="" />
    <EXPORT ORDINAL="1165" NAME="_ZNKSt7__cxx1112basic_stringIwSt11char_traitsIwESaIwEE7crbeginEv" PURGE="0" COMMENT="" />
    <EXPORT ORDINAL="1166" NAME="_ZNKSt7__cxx1112basic_stringIwSt11char_traitsIwESaIwEE8_M_checkEyPKc" PURGE="0" COMMENT="" />
    <EXPORT ORDINAL="1167" NAME="_ZNKSt7__cxx1112basic_stringIwSt11char_traitsIwESaIwEE8_M_limitEyy" PURGE="0" COMMENT="" />
    <EXPORT ORDINAL="1168" NAME="_ZNKSt7__cxx1112basic_stringIwSt11char_traitsIwESaIwEE8capacityEv" PURGE="0" COMMENT="" />
    <EXPORT ORDINAL="1169" NAME="_ZNKSt7__cxx1112basic_stringIwSt11char_traitsIwESaIwEE8max_sizeEv" PURGE="0" COMMENT="" />
    <EXPORT ORDINAL="1170" NAME="_ZNKSt7__cxx1112basic_stringIwSt11char_traitsIwESaIwEEcvSt17basic_string_viewIwS2_EEv" PURGE="0" COMMENT="" />
    <EXPORT ORDINAL="1171" NAME="_ZNKSt7__cxx1112basic_stringIwSt11char_traitsIwESaIwEEixEy" PURGE="0" COMMENT="" />
    <EXPORT ORDINAL="1172" NAME="_ZNKSt7__cxx1115basic_stringbufIcSt11char_traitsIcESaIcEE12_M_high_markEv" PURGE="0" COMMENT="" />
    <EXPORT ORDINAL="1173" NAME="_ZNKSt7__cxx1115basic_stringbufIcSt11char_traitsIcESaIcEE13get_allocatorEv" PURGE="0" COMMENT="" />
    <EXPORT ORDINAL="1174" NAME="_ZNKSt7__cxx1115basic_stringbufIcSt11char_traitsIcESaIcEE3strEv" PURGE="0" COMMENT="" />
    <EXPORT ORDINAL="1175" NAME="_ZNKSt7__cxx1115basic_stringbufIcSt11char_traitsIcESaIcEE4viewEv" PURGE="0" COMMENT="" />
    <EXPORT ORDINAL="1176" NAME="_ZNKSt7__cxx1115basic_stringbufIwSt11char_traitsIwESaIwEE12_M_high_markEv" PURGE="0" COMMENT="" />
    <EXPORT ORDINAL="1177" NAME="_ZNKSt7__cxx1115basic_stringbufIwSt11char_traitsIwESaIwEE13get_allocatorEv" PURGE="0" COMMENT="" />
    <EXPORT ORDINAL="1178" NAME="_ZNKSt7__cxx1115basic_stringbufIwSt11char_traitsIwESaIwEE3strEv" PURGE="0" COMMENT="" />
    <EXPORT ORDINAL="1179" NAME="_ZNKSt7__cxx1115basic_stringbufIwSt11char_traitsIwESaIwEE4viewEv" PURGE="0" COMMENT="" />
    <EXPORT ORDINAL="1180" NAME="_ZNKSt7__cxx1118basic_stringstreamIcSt11char_traitsIcESaIcEE3strEv" PURGE="0" COMMENT="" />
    <EXPORT ORDINAL="1181" NAME="_ZNKSt7__cxx1118basic_stringstreamIcSt11char_traitsIcESaIcEE4viewEv" PURGE="0" COMMENT="" />
    <EXPORT ORDINAL="1182" NAME="_ZNKSt7__cxx1118basic_stringstreamIcSt11char_traitsIcESaIcEE5rdbufEv" PURGE="0" COMMENT="" />
    <EXPORT ORDINAL="1183" NAME="_ZNKSt7__cxx1118basic_stringstreamIwSt11char_traitsIwESaIwEE3strEv" PURGE="0" COMMENT="" />
    <EXPORT ORDINAL="1184" NAME="_ZNKSt7__cxx1118basic_stringstreamIwSt11char_traitsIwESaIwEE4viewEv" PURGE="0" COMMENT="" />
    <EXPORT ORDINAL="1185" NAME="_ZNKSt7__cxx1118basic_stringstreamIwSt11char_traitsIwESaIwEE5rdbufEv" PURGE="0" COMMENT="" />
    <EXPORT ORDINAL="1186" NAME="_ZNKSt7__cxx1119basic_istringstreamIcSt11char_traitsIcESaIcEE3strEv" PURGE="0" COMMENT="" />
    <EXPORT ORDINAL="1187" NAME="_ZNKSt7__cxx1119basic_istringstreamIcSt11char_traitsIcESaIcEE4viewEv" PURGE="0" COMMENT="" />
    <EXPORT ORDINAL="1188" NAME="_ZNKSt7__cxx1119basic_istringstreamIcSt11char_traitsIcESaIcEE5rdbufEv" PURGE="0" COMMENT="" />
    <EXPORT ORDINAL="1189" NAME="_ZNKSt7__cxx1119basic_istringstreamIwSt11char_traitsIwESaIwEE3strEv" PURGE="0" COMMENT="" />
    <EXPORT ORDINAL="1190" NAME="_ZNKSt7__cxx1119basic_istringstreamIwSt11char_traitsIwESaIwEE4viewEv" PURGE="0" COMMENT="" />
    <EXPORT ORDINAL="1191" NAME="_ZNKSt7__cxx1119basic_istringstreamIwSt11char_traitsIwESaIwEE5rdbufEv" PURGE="0" COMMENT="" />
    <EXPORT ORDINAL="1192" NAME="_ZNKSt7__cxx1119basic_ostringstreamIcSt11char_traitsIcESaIcEE3strEv" PURGE="0" COMMENT="" />
    <EXPORT ORDINAL="1193" NAME="_ZNKSt7__cxx1119basic_ostringstreamIcSt11char_traitsIcESaIcEE4viewEv" PURGE="0" COMMENT="" />
    <EXPORT ORDINAL="1194" NAME="_ZNKSt7__cxx1119basic_ostringstreamIcSt11char_traitsIcESaIcEE5rdbufEv" PURGE="0" COMMENT="" />
    <EXPORT ORDINAL="1195" NAME="_ZNKSt7__cxx1119basic_ostringstreamIwSt11char_traitsIwESaIwEE3strEv" PURGE="0" COMMENT="" />
    <EXPORT ORDINAL="1196" NAME="_ZNKSt7__cxx1119basic_ostringstreamIwSt11char_traitsIwESaIwEE4viewEv" PURGE="0" COMMENT="" />
    <EXPORT ORDINAL="1197" NAME="_ZNKSt7__cxx1119basic_ostringstreamIwSt11char_traitsIwESaIwEE5rdbufEv" PURGE="0" COMMENT="" />
    <EXPORT ORDINAL="1198" NAME="_ZNKSt7__cxx117collateIcE10_M_compareEPKcS3_" PURGE="0" COMMENT="" />
    <EXPORT ORDINAL="1199" NAME="_ZNKSt7__cxx117collateIcE10do_compareEPKcS3_S3_S3_" PURGE="0" COMMENT="" />
    <EXPORT ORDINAL="1200" NAME="_ZNKSt7__cxx117collateIcE12_M_transformEPcPKcy" PURGE="-1" COMMENT="" />
    <EXPORT ORDINAL="1201" NAME="_ZNKSt7__cxx117collateIcE12do_transformEPKcS3_" PURGE="0" COMMENT="" />
    <EXPORT ORDINAL="1202" NAME="_ZNKSt7__cxx117collateIcE4hashEPKcS3_" PURGE="0" COMMENT="" />
    <EXPORT ORDINAL="1203" NAME="_ZNKSt7__cxx117collateIcE7compareEPKcS3_S3_S3_" PURGE="-1" COMMENT="" />
    <EXPORT ORDINAL="1204" NAME="_ZNKSt7__cxx117collateIcE7do_hashEPKcS3_" PURGE="0" COMMENT="" />
    <EXPORT ORDINAL="1205" NAME="_ZNKSt7__cxx117collateIcE9transformEPKcS3_" PURGE="0" COMMENT="" />
    <EXPORT ORDINAL="1206" NAME="_ZNKSt7__cxx117collateIwE10_M_compareEPKwS3_" PURGE="0" COMMENT="" />
    <EXPORT ORDINAL="1207" NAME="_ZNKSt7__cxx117collateIwE10do_compareEPKwS3_S3_S3_" PURGE="0" COMMENT="" />
    <EXPORT ORDINAL="1208" NAME="_ZNKSt7__cxx117collateIwE12_M_transformEPwPKwy" PURGE="-1" COMMENT="" />
    <EXPORT ORDINAL="1209" NAME="_ZNKSt7__cxx117collateIwE12do_transformEPKwS3_" PURGE="0" COMMENT="" />
    <EXPORT ORDINAL="1210" NAME="_ZNKSt7__cxx117collateIwE4hashEPKwS3_" PURGE="0" COMMENT="" />
    <EXPORT ORDINAL="1211" NAME="_ZNKSt7__cxx117collateIwE7compareEPKwS3_S3_S3_" PURGE="-1" COMMENT="" />
    <EXPORT ORDINAL="1212" NAME="_ZNKSt7__cxx117collateIwE7do_hashEPKwS3_" PURGE="0" COMMENT="" />
    <EXPORT ORDINAL="1213" NAME="_ZNKSt7__cxx117collateIwE9transformEPKwS3_" PURGE="0" COMMENT="" />
    <EXPORT ORDINAL="1214" NAME="_ZNKSt7__cxx118messagesIcE18_M_convert_to_charERKNS_12basic_stringIcSt11char_traitsIcESaIcEEE" PURGE="0" COMMENT="" />
    <EXPORT ORDINAL="1215" NAME="_ZNKSt7__cxx118messagesIcE20_M_convert_from_charEPc" PURGE="0" COMMENT="" />
    <EXPORT ORDINAL="1216" NAME="_ZNKSt7__cxx118messagesIcE3getEiiiRKNS_12basic_stringIcSt11char_traitsIcESaIcEEE" PURGE="0" COMMENT="" />
    <EXPORT ORDINAL="1217" NAME="_ZNKSt7__cxx118messagesIcE4openERKNS_12basic_stringIcSt11char_traitsIcESaIcEEERKSt6locale" PURGE="0" COMMENT="" />
    <EXPORT ORDINAL="1218" NAME="_ZNKSt7__cxx118messagesIcE4openERKNS_12basic_stringIcSt11char_traitsIcESaIcEEERKSt6localePKc" PURGE="0" COMMENT="" />
    <EXPORT ORDINAL="1219" NAME="_ZNKSt7__cxx118messagesIcE5closeEi" PURGE="0" COMMENT="" />
    <EXPORT ORDINAL="1220" NAME="_ZNKSt7__cxx118messagesIcE6do_getEiiiRKNS_12basic_stringIcSt11char_traitsIcESaIcEEE" PURGE="0" COMMENT="" />
    <EXPORT ORDINAL="1221" NAME="_ZNKSt7__cxx118messagesIcE7do_openERKNS_12basic_stringIcSt11char_traitsIcESaIcEEERKSt6locale" PURGE="0" COMMENT="" />
    <EXPORT ORDINAL="1222" NAME="_ZNKSt7__cxx118messagesIcE8do_closeEi" PURGE="0" COMMENT="" />
    <EXPORT ORDINAL="1223" NAME="_ZNKSt7__cxx118messagesIwE18_M_convert_to_charERKNS_12basic_stringIwSt11char_traitsIwESaIwEEE" PURGE="0" COMMENT="" />
    <EXPORT ORDINAL="1224" NAME="_ZNKSt7__cxx118messagesIwE20_M_convert_from_charEPc" PURGE="0" COMMENT="" />
    <EXPORT ORDINAL="1225" NAME="_ZNKSt7__cxx118messagesIwE3getEiiiRKNS_12basic_stringIwSt11char_traitsIwESaIwEEE" PURGE="0" COMMENT="" />
    <EXPORT ORDINAL="1226" NAME="_ZNKSt7__cxx118messagesIwE4openERKNS_12basic_stringIcSt11char_traitsIcESaIcEEERKSt6locale" PURGE="0" COMMENT="" />
    <EXPORT ORDINAL="1227" NAME="_ZNKSt7__cxx118messagesIwE4openERKNS_12basic_stringIcSt11char_traitsIcESaIcEEERKSt6localePKc" PURGE="0" COMMENT="" />
    <EXPORT ORDINAL="1228" NAME="_ZNKSt7__cxx118messagesIwE5closeEi" PURGE="0" COMMENT="" />
    <EXPORT ORDINAL="1229" NAME="_ZNKSt7__cxx118messagesIwE6do_getEiiiRKNS_12basic_stringIwSt11char_traitsIwESaIwEEE" PURGE="0" COMMENT="" />
    <EXPORT ORDINAL="1230" NAME="_ZNKSt7__cxx118messagesIwE7do_openERKNS_12basic_stringIcSt11char_traitsIcESaIcEEERKSt6locale" PURGE="0" COMMENT="" />
    <EXPORT ORDINAL="1231" NAME="_ZNKSt7__cxx118messagesIwE8do_closeEi" PURGE="0" COMMENT="" />
    <EXPORT ORDINAL="1232" NAME="_ZNKSt7__cxx118numpunctIcE11do_groupingEv" PURGE="0" COMMENT="" />
    <EXPORT ORDINAL="1233" NAME="_ZNKSt7__cxx118numpunctIcE11do_truenameEv" PURGE="0" COMMENT="" />
    <EXPORT ORDINAL="1234" NAME="_ZNKSt7__cxx118numpunctIcE12do_falsenameEv" PURGE="0" COMMENT="" />
    <EXPORT ORDINAL="1235" NAME="_ZNKSt7__cxx118numpunctIcE13decimal_pointEv" PURGE="0" COMMENT="" />
    <EXPORT ORDINAL="1236" NAME="_ZNKSt7__cxx118numpunctIcE13thousands_sepEv" PURGE="0" COMMENT="" />
    <EXPORT ORDINAL="1237" NAME="_ZNKSt7__cxx118numpunctIcE16do_decimal_pointEv" PURGE="0" COMMENT="" />
    <EXPORT ORDINAL="1238" NAME="_ZNKSt7__cxx118numpunctIcE16do_thousands_sepEv" PURGE="0" COMMENT="" />
    <EXPORT ORDINAL="1239" NAME="_ZNKSt7__cxx118numpunctIcE8groupingEv" PURGE="0" COMMENT="" />
    <EXPORT ORDINAL="1240" NAME="_ZNKSt7__cxx118numpunctIcE8truenameEv" PURGE="0" COMMENT="" />
    <EXPORT ORDINAL="1241" NAME="_ZNKSt7__cxx118numpunctIcE9falsenameEv" PURGE="0" COMMENT="" />
    <EXPORT ORDINAL="1242" NAME="_ZNKSt7__cxx118numpunctIwE11do_groupingEv" PURGE="0" COMMENT="" />
    <EXPORT ORDINAL="1243" NAME="_ZNKSt7__cxx118numpunctIwE11do_truenameEv" PURGE="0" COMMENT="" />
    <EXPORT ORDINAL="1244" NAME="_ZNKSt7__cxx118numpunctIwE12do_falsenameEv" PURGE="0" COMMENT="" />
    <EXPORT ORDINAL="1245" NAME="_ZNKSt7__cxx118numpunctIwE13decimal_pointEv" PURGE="0" COMMENT="" />
    <EXPORT ORDINAL="1246" NAME="_ZNKSt7__cxx118numpunctIwE13thousands_sepEv" PURGE="0" COMMENT="" />
    <EXPORT ORDINAL="1247" NAME="_ZNKSt7__cxx118numpunctIwE16do_decimal_pointEv" PURGE="0" COMMENT="" />
    <EXPORT ORDINAL="1248" NAME="_ZNKSt7__cxx118numpunctIwE16do_thousands_sepEv" PURGE="0" COMMENT="" />
    <EXPORT ORDINAL="1249" NAME="_ZNKSt7__cxx118numpunctIwE8groupingEv" PURGE="0" COMMENT="" />
    <EXPORT ORDINAL="1250" NAME="_ZNKSt7__cxx118numpunctIwE8truenameEv" PURGE="0" COMMENT="" />
    <EXPORT ORDINAL="1251" NAME="_ZNKSt7__cxx118numpunctIwE9falsenameEv" PURGE="0" COMMENT="" />
    <EXPORT ORDINAL="1252" NAME="_ZNKSt7__cxx118time_getIcSt19istreambuf_iteratorIcSt11char_traitsIcEEE10date_orderEv" PURGE="0" COMMENT="" />
    <EXPORT ORDINAL="1253" NAME="_ZNKSt7__cxx118time_getIcSt19istreambuf_iteratorIcSt11char_traitsIcEEE11do_get_dateES4_S4_RSt8ios_baseRSt12_Ios_IostateP2tm" PURGE="0" COMMENT="" />
    <EXPORT ORDINAL="1254" NAME="_ZNKSt7__cxx118time_getIcSt19istreambuf_iteratorIcSt11char_traitsIcEEE11do_get_timeES4_S4_RSt8ios_baseRSt12_Ios_IostateP2tm" PURGE="0" COMMENT="" />
    <EXPORT ORDINAL="1255" NAME="_ZNKSt7__cxx118time_getIcSt19istreambuf_iteratorIcSt11char_traitsIcEEE11do_get_yearES4_S4_RSt8ios_baseRSt12_Ios_IostateP2tm" PURGE="0" COMMENT="" />
    <EXPORT ORDINAL="1256" NAME="_ZNKSt7__cxx118time_getIcSt19istreambuf_iteratorIcSt11char_traitsIcEEE11get_weekdayES4_S4_RSt8ios_baseRSt12_Ios_IostateP2tm" PURGE="0" COMMENT="" />
    <EXPORT ORDINAL="1257" NAME="_ZNKSt7__cxx118time_getIcSt19istreambuf_iteratorIcSt11char_traitsIcEEE13do_date_orderEv" PURGE="0" COMMENT="" />
    <EXPORT ORDINAL="1258" NAME="_ZNKSt7__cxx118time_getIcSt19istreambuf_iteratorIcSt11char_traitsIcEEE13get_monthnameES4_S4_RSt8ios_baseRSt12_Ios_IostateP2tm" PURGE="0" COMMENT="" />
    <EXPORT ORDINAL="1259" NAME="_ZNKSt7__cxx118time_getIcSt19istreambuf_iteratorIcSt11char_traitsIcEEE14_M_extract_numES4_S4_RiiiyRSt8ios_baseRSt12_Ios_Iostate" PURGE="0" COMMENT="" />
    <EXPORT ORDINAL="1260" NAME="_ZNKSt7__cxx118time_getIcSt19istreambuf_iteratorIcSt11char_traitsIcEEE14do_get_weekdayES4_S4_RSt8ios_baseRSt12_Ios_IostateP2tm" PURGE="0" COMMENT="" />
    <EXPORT ORDINAL="1261" NAME="_ZNKSt7__cxx118time_getIcSt19istreambuf_iteratorIcSt11char_traitsIcEEE15_M_extract_nameES4_S4_RiPPKcyRSt8ios_baseRSt12_Ios_Iostate" PURGE="0" COMMENT="" />
    <EXPORT ORDINAL="1262" NAME="_ZNKSt7__cxx118time_getIcSt19istreambuf_iteratorIcSt11char_traitsIcEEE16do_get_monthnameES4_S4_RSt8ios_baseRSt12_Ios_IostateP2tm" PURGE="0" COMMENT="" />
    <EXPORT ORDINAL="1263" NAME="_ZNKSt7__cxx118time_getIcSt19istreambuf_iteratorIcSt11char_traitsIcEEE21_M_extract_via_formatES4_S4_RSt8ios_baseRSt12_Ios_IostateP2tmPKc" PURGE="0" COMMENT="" />
    <EXPORT ORDINAL="1264" NAME="_ZNKSt7__cxx118time_getIcSt19istreambuf_iteratorIcSt11char_traitsIcEEE21_M_extract_via_formatES4_S4_RSt8ios_baseRSt12_Ios_IostateP2tmPKcRSt16__time_get_state" PURGE="0" COMMENT="" />
    <EXPORT ORDINAL="1265" NAME="_ZNKSt7__cxx118time_getIcSt19istreambuf_iteratorIcSt11char_traitsIcEEE24_M_extract_wday_or_monthES4_S4_RiPPKcyRSt8ios_baseRSt12_Ios_Iostate" PURGE="0" COMMENT="" />
    <EXPORT ORDINAL="1266" NAME="_ZNKSt7__cxx118time_getIcSt19istreambuf_iteratorIcSt11char_traitsIcEEE3getES4_S4_RSt8ios_baseRSt12_Ios_IostateP2tmPKcSD_" PURGE="0" COMMENT="" />
    <EXPORT ORDINAL="1267" NAME="_ZNKSt7__cxx118time_getIcSt19istreambuf_iteratorIcSt11char_traitsIcEEE3getES4_S4_RSt8ios_baseRSt12_Ios_IostateP2tmcc" PURGE="0" COMMENT="" />
    <EXPORT ORDINAL="1268" NAME="_ZNKSt7__cxx118time_getIcSt19istreambuf_iteratorIcSt11char_traitsIcEEE6do_getES4_S4_RSt8ios_baseRSt12_Ios_IostateP2tmcc" PURGE="0" COMMENT="" />
    <EXPORT ORDINAL="1269" NAME="_ZNKSt7__cxx118time_getIcSt19istreambuf_iteratorIcSt11char_traitsIcEEE8get_dateES4_S4_RSt8ios_baseRSt12_Ios_IostateP2tm" PURGE="0" COMMENT="" />
    <EXPORT ORDINAL="1270" NAME="_ZNKSt7__cxx118time_getIcSt19istreambuf_iteratorIcSt11char_traitsIcEEE8get_timeES4_S4_RSt8ios_baseRSt12_Ios_IostateP2tm" PURGE="0" COMMENT="" />
    <EXPORT ORDINAL="1271" NAME="_ZNKSt7__cxx118time_getIcSt19istreambuf_iteratorIcSt11char_traitsIcEEE8get_yearES4_S4_RSt8ios_baseRSt12_Ios_IostateP2tm" PURGE="0" COMMENT="" />
    <EXPORT ORDINAL="1272" NAME="_ZNKSt7__cxx118time_getIwSt19istreambuf_iteratorIwSt11char_traitsIwEEE10date_orderEv" PURGE="0" COMMENT="" />
    <EXPORT ORDINAL="1273" NAME="_ZNKSt7__cxx118time_getIwSt19istreambuf_iteratorIwSt11char_traitsIwEEE11do_get_dateES4_S4_RSt8ios_baseRSt12_Ios_IostateP2tm" PURGE="0" COMMENT="" />
    <EXPORT ORDINAL="1274" NAME="_ZNKSt7__cxx118time_getIwSt19istreambuf_iteratorIwSt11char_traitsIwEEE11do_get_timeES4_S4_RSt8ios_baseRSt12_Ios_IostateP2tm" PURGE="0" COMMENT="" />
    <EXPORT ORDINAL="1275" NAME="_ZNKSt7__cxx118time_getIwSt19istreambuf_iteratorIwSt11char_traitsIwEEE11do_get_yearES4_S4_RSt8ios_baseRSt12_Ios_IostateP2tm" PURGE="0" COMMENT="" />
    <EXPORT ORDINAL="1276" NAME="_ZNKSt7__cxx118time_getIwSt19istreambuf_iteratorIwSt11char_traitsIwEEE11get_weekdayES4_S4_RSt8ios_baseRSt12_Ios_IostateP2tm" PURGE="0" COMMENT="" />
    <EXPORT ORDINAL="1277" NAME="_ZNKSt7__cxx118time_getIwSt19istreambuf_iteratorIwSt11char_traitsIwEEE13do_date_orderEv" PURGE="0" COMMENT="" />
    <EXPORT ORDINAL="1278" NAME="_ZNKSt7__cxx118time_getIwSt19istreambuf_iteratorIwSt11char_traitsIwEEE13get_monthnameES4_S4_RSt8ios_baseRSt12_Ios_IostateP2tm" PURGE="0" COMMENT="" />
    <EXPORT ORDINAL="1279" NAME="_ZNKSt7__cxx118time_getIwSt19istreambuf_iteratorIwSt11char_traitsIwEEE14_M_extract_numES4_S4_RiiiyRSt8ios_baseRSt12_Ios_Iostate" PURGE="0" COMMENT="" />
    <EXPORT ORDINAL="1280" NAME="_ZNKSt7__cxx118time_getIwSt19istreambuf_iteratorIwSt11char_traitsIwEEE14do_get_weekdayES4_S4_RSt8ios_baseRSt12_Ios_IostateP2tm" PURGE="0" COMMENT="" />
    <EXPORT ORDINAL="1281" NAME="_ZNKSt7__cxx118time_getIwSt19istreambuf_iteratorIwSt11char_traitsIwEEE15_M_extract_nameES4_S4_RiPPKwyRSt8ios_baseRSt12_Ios_Iostate" PURGE="0" COMMENT="" />
    <EXPORT ORDINAL="1282" NAME="_ZNKSt7__cxx118time_getIwSt19istreambuf_iteratorIwSt11char_traitsIwEEE16do_get_monthnameES4_S4_RSt8ios_baseRSt12_Ios_IostateP2tm" PURGE="0" COMMENT="" />
    <EXPORT ORDINAL="1283" NAME="_ZNKSt7__cxx118time_getIwSt19istreambuf_iteratorIwSt11char_traitsIwEEE21_M_extract_via_formatES4_S4_RSt8ios_baseRSt12_Ios_IostateP2tmPKw" PURGE="0" COMMENT="" />
    <EXPORT ORDINAL="1284" NAME="_ZNKSt7__cxx118time_getIwSt19istreambuf_iteratorIwSt11char_traitsIwEEE21_M_extract_via_formatES4_S4_RSt8ios_baseRSt12_Ios_IostateP2tmPKwRSt16__time_get_state" PURGE="0" COMMENT="" />
    <EXPORT ORDINAL="1285" NAME="_ZNKSt7__cxx118time_getIwSt19istreambuf_iteratorIwSt11char_traitsIwEEE24_M_extract_wday_or_monthES4_S4_RiPPKwyRSt8ios_baseRSt12_Ios_Iostate" PURGE="0" COMMENT="" />
    <EXPORT ORDINAL="1286" NAME="_ZNKSt7__cxx118time_getIwSt19istreambuf_iteratorIwSt11char_traitsIwEEE3getES4_S4_RSt8ios_baseRSt12_Ios_IostateP2tmPKwSD_" PURGE="0" COMMENT="" />
    <EXPORT ORDINAL="1287" NAME="_ZNKSt7__cxx118time_getIwSt19istreambuf_iteratorIwSt11char_traitsIwEEE3getES4_S4_RSt8ios_baseRSt12_Ios_IostateP2tmcc" PURGE="0" COMMENT="" />
    <EXPORT ORDINAL="1288" NAME="_ZNKSt7__cxx118time_getIwSt19istreambuf_iteratorIwSt11char_traitsIwEEE6do_getES4_S4_RSt8ios_baseRSt12_Ios_IostateP2tmcc" PURGE="0" COMMENT="" />
    <EXPORT ORDINAL="1289" NAME="_ZNKSt7__cxx118time_getIwSt19istreambuf_iteratorIwSt11char_traitsIwEEE8get_dateES4_S4_RSt8ios_baseRSt12_Ios_IostateP2tm" PURGE="0" COMMENT="" />
    <EXPORT ORDINAL="1290" NAME="_ZNKSt7__cxx118time_getIwSt19istreambuf_iteratorIwSt11char_traitsIwEEE8get_timeES4_S4_RSt8ios_baseRSt12_Ios_IostateP2tm" PURGE="0" COMMENT="" />
    <EXPORT ORDINAL="1291" NAME="_ZNKSt7__cxx118time_getIwSt19istreambuf_iteratorIwSt11char_traitsIwEEE8get_yearES4_S4_RSt8ios_baseRSt12_Ios_IostateP2tm" PURGE="0" COMMENT="" />
    <EXPORT ORDINAL="1292" NAME="_ZNKSt7__cxx119money_getIcSt19istreambuf_iteratorIcSt11char_traitsIcEEE10_M_extractILb0EEES4_S4_S4_RSt8ios_baseRSt12_Ios_IostateRNS_12basic_stringIcS3_SaIcEEE" PURGE="0" COMMENT="" />
    <EXPORT ORDINAL="1293" NAME="_ZNKSt7__cxx119money_getIcSt19istreambuf_iteratorIcSt11char_traitsIcEEE10_M_extractILb1EEES4_S4_S4_RSt8ios_baseRSt12_Ios_IostateRNS_12basic_stringIcS3_SaIcEEE" PURGE="0" COMMENT="" />
    <EXPORT ORDINAL="1294" NAME="_ZNKSt7__cxx119money_getIcSt19istreambuf_iteratorIcSt11char_traitsIcEEE3getES4_S4_bRSt8ios_baseRSt12_Ios_IostateRNS_12basic_stringIcS3_SaIcEEE" PURGE="0" COMMENT="" />
    <EXPORT ORDINAL="1295" NAME="_ZNKSt7__cxx119money_getIcSt19istreambuf_iteratorIcSt11char_traitsIcEEE3getES4_S4_bRSt8ios_baseRSt12_Ios_IostateRe" PURGE="0" COMMENT="" />
    <EXPORT ORDINAL="1296" NAME="_ZNKSt7__cxx119money_getIcSt19istreambuf_iteratorIcSt11char_traitsIcEEE6do_getES4_S4_bRSt8ios_baseRSt12_Ios_IostateRNS_12basic_stringIcS3_SaIcEEE" PURGE="0" COMMENT="" />
    <EXPORT ORDINAL="1297" NAME="_ZNKSt7__cxx119money_getIcSt19istreambuf_iteratorIcSt11char_traitsIcEEE6do_getES4_S4_bRSt8ios_baseRSt12_Ios_IostateRe" PURGE="0" COMMENT="" />
    <EXPORT ORDINAL="1298" NAME="_ZNKSt7__cxx119money_getIwSt19istreambuf_iteratorIwSt11char_traitsIwEEE10_M_extractILb0EEES4_S4_S4_RSt8ios_baseRSt12_Ios_IostateRNS_12basic_stringIcS2_IcESaIcEEE" PURGE="0" COMMENT="" />
    <EXPORT ORDINAL="1299" NAME="_ZNKSt7__cxx119money_getIwSt19istreambuf_iteratorIwSt11char_traitsIwEEE10_M_extractILb1EEES4_S4_S4_RSt8ios_baseRSt12_Ios_IostateRNS_12basic_stringIcS2_IcESaIcEEE" PURGE="0" COMMENT="" />
    <EXPORT ORDINAL="1300" NAME="_ZNKSt7__cxx119money_getIwSt19istreambuf_iteratorIwSt11char_traitsIwEEE3getES4_S4_bRSt8ios_baseRSt12_Ios_IostateRNS_12basic_stringIwS3_SaIwEEE" PURGE="0" COMMENT="" />
    <EXPORT ORDINAL="1301" NAME="_ZNKSt7__cxx119money_getIwSt19istreambuf_iteratorIwSt11char_traitsIwEEE3getES4_S4_bRSt8ios_baseRSt12_Ios_IostateRe" PURGE="0" COMMENT="" />
    <EXPORT ORDINAL="1302" NAME="_ZNKSt7__cxx119money_getIwSt19istreambuf_iteratorIwSt11char_traitsIwEEE6do_getES4_S4_bRSt8ios_baseRSt12_Ios_IostateRNS_12basic_stringIwS3_SaIwEEE" PURGE="0" COMMENT="" />
    <EXPORT ORDINAL="1303" NAME="_ZNKSt7__cxx119money_getIwSt19istreambuf_iteratorIwSt11char_traitsIwEEE6do_getES4_S4_bRSt8ios_baseRSt12_Ios_IostateRe" PURGE="0" COMMENT="" />
    <EXPORT ORDINAL="1304" NAME="_ZNKSt7__cxx119money_putIcSt19ostreambuf_iteratorIcSt11char_traitsIcEEE3putES4_bRSt8ios_basecRKNS_12basic_stringIcS3_SaIcEEE" PURGE="0" COMMENT="" />
    <EXPORT ORDINAL="1305" NAME="_ZNKSt7__cxx119money_putIcSt19ostreambuf_iteratorIcSt11char_traitsIcEEE3putES4_bRSt8ios_basece" PURGE="0" COMMENT="" />
    <EXPORT ORDINAL="1306" NAME="_ZNKSt7__cxx119money_putIcSt19ostreambuf_iteratorIcSt11char_traitsIcEEE6do_putES4_bRSt8ios_basecRKNS_12basic_stringIcS3_SaIcEEE" PURGE="0" COMMENT="" />
    <EXPORT ORDINAL="1307" NAME="_ZNKSt7__cxx119money_putIcSt19ostreambuf_iteratorIcSt11char_traitsIcEEE6do_putES4_bRSt8ios_basece" PURGE="0" COMMENT="" />
    <EXPORT ORDINAL="1308" NAME="_ZNKSt7__cxx119money_putIcSt19ostreambuf_iteratorIcSt11char_traitsIcEEE9_M_insertILb0EEES4_S4_RSt8ios_basecRKNS_12basic_stringIcS3_SaIcEEE" PURGE="0" COMMENT="" />
    <EXPORT ORDINAL="1309" NAME="_ZNKSt7__cxx119money_putIcSt19ostreambuf_iteratorIcSt11char_traitsIcEEE9_M_insertILb1EEES4_S4_RSt8ios_basecRKNS_12basic_stringIcS3_SaIcEEE" PURGE="0" COMMENT="" />
    <EXPORT ORDINAL="1310" NAME="_ZNKSt7__cxx119money_putIwSt19ostreambuf_iteratorIwSt11char_traitsIwEEE3putES4_bRSt8ios_basewRKNS_12basic_stringIwS3_SaIwEEE" PURGE="0" COMMENT="" />
    <EXPORT ORDINAL="1311" NAME="_ZNKSt7__cxx119money_putIwSt19ostreambuf_iteratorIwSt11char_traitsIwEEE3putES4_bRSt8ios_basewe" PURGE="0" COMMENT="" />
    <EXPORT ORDINAL="1312" NAME="_ZNKSt7__cxx119money_putIwSt19ostreambuf_iteratorIwSt11char_traitsIwEEE6do_putES4_bRSt8ios_basewRKNS_12basic_stringIwS3_SaIwEEE" PURGE="0" COMMENT="" />
    <EXPORT ORDINAL="1313" NAME="_ZNKSt7__cxx119money_putIwSt19ostreambuf_iteratorIwSt11char_traitsIwEEE6do_putES4_bRSt8ios_basewe" PURGE="0" COMMENT="" />
    <EXPORT ORDINAL="1314" NAME="_ZNKSt7__cxx119money_putIwSt19ostreambuf_iteratorIwSt11char_traitsIwEEE9_M_insertILb0EEES4_S4_RSt8ios_basewRKNS_12basic_stringIwS3_SaIwEEE" PURGE="0" COMMENT="" />
    <EXPORT ORDINAL="1315" NAME="_ZNKSt7__cxx119money_putIwSt19ostreambuf_iteratorIwSt11char_traitsIwEEE9_M_insertILb1EEES4_S4_RSt8ios_basewRKNS_12basic_stringIwS3_SaIwEEE" PURGE="0" COMMENT="" />
    <EXPORT ORDINAL="1316" NAME="_ZNKSt7codecvtIDiDuiE10do_unshiftERiPDuS2_RS2_" PURGE="0" COMMENT="" />
    <EXPORT ORDINAL="1317" NAME="_ZNKSt7codecvtIDiDuiE11do_encodingEv" PURGE="0" COMMENT="" />
    <EXPORT ORDINAL="1318" NAME="_ZNKSt7codecvtIDiDuiE13do_max_lengthEv" PURGE="0" COMMENT="" />
    <EXPORT ORDINAL="1319" NAME="_ZNKSt7codecvtIDiDuiE16do_always_noconvEv" PURGE="0" COMMENT="" />
    <EXPORT ORDINAL="1320" NAME="_ZNKSt7codecvtIDiDuiE5do_inERiPKDuS3_RS3_PDiS5_RS5_" PURGE="0" COMMENT="" />
    <EXPORT ORDINAL="1321" NAME="_ZNKSt7codecvtIDiDuiE6do_outERiPKDiS3_RS3_PDuS5_RS5_" PURGE="0" COMMENT="" />
    <EXPORT ORDINAL="1322" NAME="_ZNKSt7codecvtIDiDuiE9do_lengthERiPKDuS3_y" PURGE="0" COMMENT="" />
    <EXPORT ORDINAL="1323" NAME="_ZNKSt7codecvtIDiciE10do_unshiftERiPcS2_RS2_" PURGE="0" COMMENT="" />
    <EXPORT ORDINAL="1324" NAME="_ZNKSt7codecvtIDiciE11do_encodingEv" PURGE="0" COMMENT="" />
    <EXPORT ORDINAL="1325" NAME="_ZNKSt7codecvtIDiciE13do_max_lengthEv" PURGE="0" COMMENT="" />
    <EXPORT ORDINAL="1326" NAME="_ZNKSt7codecvtIDiciE16do_always_noconvEv" PURGE="0" COMMENT="" />
    <EXPORT ORDINAL="1327" NAME="_ZNKSt7codecvtIDiciE5do_inERiPKcS3_RS3_PDiS5_RS5_" PURGE="0" COMMENT="" />
    <EXPORT ORDINAL="1328" NAME="_ZNKSt7codecvtIDiciE6do_outERiPKDiS3_RS3_PcS5_RS5_" PURGE="0" COMMENT="" />
    <EXPORT ORDINAL="1329" NAME="_ZNKSt7codecvtIDiciE9do_lengthERiPKcS3_y" PURGE="0" COMMENT="" />
    <EXPORT ORDINAL="1330" NAME="_ZNKSt7codecvtIDsDuiE10do_unshiftERiPDuS2_RS2_" PURGE="0" COMMENT="" />
    <EXPORT ORDINAL="1331" NAME="_ZNKSt7codecvtIDsDuiE11do_encodingEv" PURGE="0" COMMENT="" />
    <EXPORT ORDINAL="1332" NAME="_ZNKSt7codecvtIDsDuiE13do_max_lengthEv" PURGE="0" COMMENT="" />
    <EXPORT ORDINAL="1333" NAME="_ZNKSt7codecvtIDsDuiE16do_always_noconvEv" PURGE="0" COMMENT="" />
    <EXPORT ORDINAL="1334" NAME="_ZNKSt7codecvtIDsDuiE5do_inERiPKDuS3_RS3_PDsS5_RS5_" PURGE="0" COMMENT="" />
    <EXPORT ORDINAL="1335" NAME="_ZNKSt7codecvtIDsDuiE6do_outERiPKDsS3_RS3_PDuS5_RS5_" PURGE="0" COMMENT="" />
    <EXPORT ORDINAL="1336" NAME="_ZNKSt7codecvtIDsDuiE9do_lengthERiPKDuS3_y" PURGE="0" COMMENT="" />
    <EXPORT ORDINAL="1337" NAME="_ZNKSt7codecvtIDsciE10do_unshiftERiPcS2_RS2_" PURGE="0" COMMENT="" />
    <EXPORT ORDINAL="1338" NAME="_ZNKSt7codecvtIDsciE11do_encodingEv" PURGE="0" COMMENT="" />
    <EXPORT ORDINAL="1339" NAME="_ZNKSt7codecvtIDsciE13do_max_lengthEv" PURGE="0" COMMENT="" />
    <EXPORT ORDINAL="1340" NAME="_ZNKSt7codecvtIDsciE16do_always_noconvEv" PURGE="0" COMMENT="" />
    <EXPORT ORDINAL="1341" NAME="_ZNKSt7codecvtIDsciE5do_inERiPKcS3_RS3_PDsS5_RS5_" PURGE="0" COMMENT="" />
    <EXPORT ORDINAL="1342" NAME="_ZNKSt7codecvtIDsciE6do_outERiPKDsS3_RS3_PcS5_RS5_" PURGE="0" COMMENT="" />
    <EXPORT ORDINAL="1343" NAME="_ZNKSt7codecvtIDsciE9do_lengthERiPKcS3_y" PURGE="0" COMMENT="" />
    <EXPORT ORDINAL="1344" NAME="_ZNKSt7codecvtIcciE10do_unshiftERiPcS2_RS2_" PURGE="0" COMMENT="" />
    <EXPORT ORDINAL="1345" NAME="_ZNKSt7codecvtIcciE11do_encodingEv" PURGE="0" COMMENT="" />
    <EXPORT ORDINAL="1346" NAME="_ZNKSt7codecvtIcciE13do_max_lengthEv" PURGE="0" COMMENT="" />
    <EXPORT ORDINAL="1347" NAME="_ZNKSt7codecvtIcciE16do_always_noconvEv" PURGE="0" COMMENT="" />
    <EXPORT ORDINAL="1348" NAME="_ZNKSt7codecvtIcciE5do_inERiPKcS3_RS3_PcS5_RS5_" PURGE="0" COMMENT="" />
    <EXPORT ORDINAL="1349" NAME="_ZNKSt7codecvtIcciE6do_outERiPKcS3_RS3_PcS5_RS5_" PURGE="0" COMMENT="" />
    <EXPORT ORDINAL="1350" NAME="_ZNKSt7codecvtIcciE9do_lengthERiPKcS3_y" PURGE="0" COMMENT="" />
    <EXPORT ORDINAL="1351" NAME="_ZNKSt7codecvtIwciE10do_unshiftERiPcS2_RS2_" PURGE="0" COMMENT="" />
    <EXPORT ORDINAL="1352" NAME="_ZNKSt7codecvtIwciE11do_encodingEv" PURGE="0" COMMENT="" />
    <EXPORT ORDINAL="1353" NAME="_ZNKSt7codecvtIwciE13do_max_lengthEv" PURGE="0" COMMENT="" />
    <EXPORT ORDINAL="1354" NAME="_ZNKSt7codecvtIwciE16do_always_noconvEv" PURGE="0" COMMENT="" />
    <EXPORT ORDINAL="1355" NAME="_ZNKSt7codecvtIwciE5do_inERiPKcS3_RS3_PwS5_RS5_" PURGE="0" COMMENT="" />
    <EXPORT ORDINAL="1356" NAME="_ZNKSt7codecvtIwciE6do_outERiPKwS3_RS3_PcS5_RS5_" PURGE="0" COMMENT="" />
    <EXPORT ORDINAL="1357" NAME="_ZNKSt7codecvtIwciE9do_lengthERiPKcS3_y" PURGE="0" COMMENT="" />
    <EXPORT ORDINAL="1358" NAME="_ZNKSt7collateIcE10_M_compareEPKcS2_" PURGE="0" COMMENT="" />
    <EXPORT ORDINAL="1359" NAME="_ZNKSt7collateIcE10do_compareEPKcS2_S2_S2_" PURGE="0" COMMENT="" />
    <EXPORT ORDINAL="1360" NAME="_ZNKSt7collateIcE12_M_transformEPcPKcy" PURGE="-1" COMMENT="" />
    <EXPORT ORDINAL="1361" NAME="_ZNKSt7collateIcE12do_transformEPKcS2_" PURGE="0" COMMENT="" />
    <EXPORT ORDINAL="1362" NAME="_ZNKSt7collateIcE4hashEPKcS2_" PURGE="0" COMMENT="" />
    <EXPORT ORDINAL="1363" NAME="_ZNKSt7collateIcE7compareEPKcS2_S2_S2_" PURGE="-1" COMMENT="" />
    <EXPORT ORDINAL="1364" NAME="_ZNKSt7collateIcE7do_hashEPKcS2_" PURGE="0" COMMENT="" />
    <EXPORT ORDINAL="1365" NAME="_ZNKSt7collateIcE9transformEPKcS2_" PURGE="0" COMMENT="" />
    <EXPORT ORDINAL="1366" NAME="_ZNKSt7collateIwE10_M_compareEPKwS2_" PURGE="0" COMMENT="" />
    <EXPORT ORDINAL="1367" NAME="_ZNKSt7collateIwE10do_compareEPKwS2_S2_S2_" PURGE="0" COMMENT="" />
    <EXPORT ORDINAL="1368" NAME="_ZNKSt7collateIwE12_M_transformEPwPKwy" PURGE="-1" COMMENT="" />
    <EXPORT ORDINAL="1369" NAME="_ZNKSt7collateIwE12do_transformEPKwS2_" PURGE="0" COMMENT="" />
    <EXPORT ORDINAL="1370" NAME="_ZNKSt7collateIwE4hashEPKwS2_" PURGE="0" COMMENT="" />
    <EXPORT ORDINAL="1371" NAME="_ZNKSt7collateIwE7compareEPKwS2_S2_S2_" PURGE="-1" COMMENT="" />
    <EXPORT ORDINAL="1372" NAME="_ZNKSt7collateIwE7do_hashEPKwS2_" PURGE="0" COMMENT="" />
    <EXPORT ORDINAL="1373" NAME="_ZNKSt7collateIwE9transformEPKwS2_" PURGE="0" COMMENT="" />
    <EXPORT ORDINAL="1374" NAME="_ZNKSt7num_getIcSt19istreambuf_iteratorIcSt11char_traitsIcEEE14_M_extract_intB5cxx11IjEES3_S3_S3_RSt8ios_baseRSt12_Ios_IostateRT_" PURGE="0" COMMENT="" />
    <EXPORT ORDINAL="1375" NAME="_ZNKSt7num_getIcSt19istreambuf_iteratorIcSt11char_traitsIcEEE14_M_extract_intB5cxx11IlEES3_S3_S3_RSt8ios_baseRSt12_Ios_IostateRT_" PURGE="0" COMMENT="" />
    <EXPORT ORDINAL="1376" NAME="_ZNKSt7num_getIcSt19istreambuf_iteratorIcSt11char_traitsIcEEE14_M_extract_intB5cxx11ImEES3_S3_S3_RSt8ios_baseRSt12_Ios_IostateRT_" PURGE="0" COMMENT="" />
    <EXPORT ORDINAL="1377" NAME="_ZNKSt7num_getIcSt19istreambuf_iteratorIcSt11char_traitsIcEEE14_M_extract_intB5cxx11ItEES3_S3_S3_RSt8ios_baseRSt12_Ios_IostateRT_" PURGE="0" COMMENT="" />
    <EXPORT ORDINAL="1378" NAME="_ZNKSt7num_getIcSt19istreambuf_iteratorIcSt11char_traitsIcEEE14_M_extract_intB5cxx11IxEES3_S3_S3_RSt8ios_baseRSt12_Ios_IostateRT_" PURGE="0" COMMENT="" />
    <EXPORT ORDINAL="1379" NAME="_ZNKSt7num_getIcSt19istreambuf_iteratorIcSt11char_traitsIcEEE14_M_extract_intB5cxx11IyEES3_S3_S3_RSt8ios_baseRSt12_Ios_IostateRT_" PURGE="0" COMMENT="" />
    <EXPORT ORDINAL="1380" NAME="_ZNKSt7num_getIcSt19istreambuf_iteratorIcSt11char_traitsIcEEE14_M_extract_intIjEES3_S3_S3_RSt8ios_baseRSt12_Ios_IostateRT_" PURGE="0" COMMENT="" />
    <EXPORT ORDINAL="1381" NAME="_ZNKSt7num_getIcSt19istreambuf_iteratorIcSt11char_traitsIcEEE14_M_extract_intIlEES3_S3_S3_RSt8ios_baseRSt12_Ios_IostateRT_" PURGE="0" COMMENT="" />
    <EXPORT ORDINAL="1382" NAME="_ZNKSt7num_getIcSt19istreambuf_iteratorIcSt11char_traitsIcEEE14_M_extract_intImEES3_S3_S3_RSt8ios_baseRSt12_Ios_IostateRT_" PURGE="0" COMMENT="" />
    <EXPORT ORDINAL="1383" NAME="_ZNKSt7num_getIcSt19istreambuf_iteratorIcSt11char_traitsIcEEE14_M_extract_intItEES3_S3_S3_RSt8ios_baseRSt12_Ios_IostateRT_" PURGE="0" COMMENT="" />
    <EXPORT ORDINAL="1384" NAME="_ZNKSt7num_getIcSt19istreambuf_iteratorIcSt11char_traitsIcEEE14_M_extract_intIxEES3_S3_S3_RSt8ios_baseRSt12_Ios_IostateRT_" PURGE="0" COMMENT="" />
    <EXPORT ORDINAL="1385" NAME="_ZNKSt7num_getIcSt19istreambuf_iteratorIcSt11char_traitsIcEEE14_M_extract_intIyEES3_S3_S3_RSt8ios_baseRSt12_Ios_IostateRT_" PURGE="0" COMMENT="" />
    <EXPORT ORDINAL="1386" NAME="_ZNKSt7num_getIcSt19istreambuf_iteratorIcSt11char_traitsIcEEE16_M_extract_floatES3_S3_RSt8ios_baseRSt12_Ios_IostateRSs" PURGE="0" COMMENT="" />
    <EXPORT ORDINAL="1387" NAME="_ZNKSt7num_getIcSt19istreambuf_iteratorIcSt11char_traitsIcEEE3getES3_S3_RSt8ios_baseRSt12_Ios_IostateRPv" PURGE="0" COMMENT="" />
    <EXPORT ORDINAL="1388" NAME="_ZNKSt7num_getIcSt19istreambuf_iteratorIcSt11char_traitsIcEEE3getES3_S3_RSt8ios_baseRSt12_Ios_IostateRb" PURGE="0" COMMENT="" />
    <EXPORT ORDINAL="1389" NAME="_ZNKSt7num_getIcSt19istreambuf_iteratorIcSt11char_traitsIcEEE3getES3_S3_RSt8ios_baseRSt12_Ios_IostateRd" PURGE="0" COMMENT="" />
    <EXPORT ORDINAL="1390" NAME="_ZNKSt7num_getIcSt19istreambuf_iteratorIcSt11char_traitsIcEEE3getES3_S3_RSt8ios_baseRSt12_Ios_IostateRe" PURGE="0" COMMENT="" />
    <EXPORT ORDINAL="1391" NAME="_ZNKSt7num_getIcSt19istreambuf_iteratorIcSt11char_traitsIcEEE3getES3_S3_RSt8ios_baseRSt12_Ios_IostateRf" PURGE="0" COMMENT="" />
    <EXPORT ORDINAL="1392" NAME="_ZNKSt7num_getIcSt19istreambuf_iteratorIcSt11char_traitsIcEEE3getES3_S3_RSt8ios_baseRSt12_Ios_IostateRj" PURGE="0" COMMENT="" />
    <EXPORT ORDINAL="1393" NAME="_ZNKSt7num_getIcSt19istreambuf_iteratorIcSt11char_traitsIcEEE3getES3_S3_RSt8ios_baseRSt12_Ios_IostateRl" PURGE="0" COMMENT="" />
    <EXPORT ORDINAL="1394" NAME="_ZNKSt7num_getIcSt19istreambuf_iteratorIcSt11char_traitsIcEEE3getES3_S3_RSt8ios_baseRSt12_Ios_IostateRm" PURGE="0" COMMENT="" />
    <EXPORT ORDINAL="1395" NAME="_ZNKSt7num_getIcSt19istreambuf_iteratorIcSt11char_traitsIcEEE3getES3_S3_RSt8ios_baseRSt12_Ios_IostateRt" PURGE="0" COMMENT="" />
    <EXPORT ORDINAL="1396" NAME="_ZNKSt7num_getIcSt19istreambuf_iteratorIcSt11char_traitsIcEEE3getES3_S3_RSt8ios_baseRSt12_Ios_IostateRx" PURGE="0" COMMENT="" />
    <EXPORT ORDINAL="1397" NAME="_ZNKSt7num_getIcSt19istreambuf_iteratorIcSt11char_traitsIcEEE3getES3_S3_RSt8ios_baseRSt12_Ios_IostateRy" PURGE="0" COMMENT="" />
    <EXPORT ORDINAL="1398" NAME="_ZNKSt7num_getIcSt19istreambuf_iteratorIcSt11char_traitsIcEEE6do_getES3_S3_RSt8ios_baseRSt12_Ios_IostateRPv" PURGE="0" COMMENT="" />
    <EXPORT ORDINAL="1399" NAME="_ZNKSt7num_getIcSt19istreambuf_iteratorIcSt11char_traitsIcEEE6do_getES3_S3_RSt8ios_baseRSt12_Ios_IostateRb" PURGE="0" COMMENT="" />
    <EXPORT ORDINAL="1400" NAME="_ZNKSt7num_getIcSt19istreambuf_iteratorIcSt11char_traitsIcEEE6do_getES3_S3_RSt8ios_baseRSt12_Ios_IostateRd" PURGE="0" COMMENT="" />
    <EXPORT ORDINAL="1401" NAME="_ZNKSt7num_getIcSt19istreambuf_iteratorIcSt11char_traitsIcEEE6do_getES3_S3_RSt8ios_baseRSt12_Ios_IostateRe" PURGE="0" COMMENT="" />
    <EXPORT ORDINAL="1402" NAME="_ZNKSt7num_getIcSt19istreambuf_iteratorIcSt11char_traitsIcEEE6do_getES3_S3_RSt8ios_baseRSt12_Ios_IostateRf" PURGE="0" COMMENT="" />
    <EXPORT ORDINAL="1403" NAME="_ZNKSt7num_getIcSt19istreambuf_iteratorIcSt11char_traitsIcEEE6do_getES3_S3_RSt8ios_baseRSt12_Ios_IostateRj" PURGE="0" COMMENT="" />
    <EXPORT ORDINAL="1404" NAME="_ZNKSt7num_getIcSt19istreambuf_iteratorIcSt11char_traitsIcEEE6do_getES3_S3_RSt8ios_baseRSt12_Ios_IostateRl" PURGE="0" COMMENT="" />
    <EXPORT ORDINAL="1405" NAME="_ZNKSt7num_getIcSt19istreambuf_iteratorIcSt11char_traitsIcEEE6do_getES3_S3_RSt8ios_baseRSt12_Ios_IostateRm" PURGE="0" COMMENT="" />
    <EXPORT ORDINAL="1406" NAME="_ZNKSt7num_getIcSt19istreambuf_iteratorIcSt11char_traitsIcEEE6do_getES3_S3_RSt8ios_baseRSt12_Ios_IostateRt" PURGE="0" COMMENT="" />
    <EXPORT ORDINAL="1407" NAME="_ZNKSt7num_getIcSt19istreambuf_iteratorIcSt11char_traitsIcEEE6do_getES3_S3_RSt8ios_baseRSt12_Ios_IostateRx" PURGE="0" COMMENT="" />
    <EXPORT ORDINAL="1408" NAME="_ZNKSt7num_getIcSt19istreambuf_iteratorIcSt11char_traitsIcEEE6do_getES3_S3_RSt8ios_baseRSt12_Ios_IostateRy" PURGE="0" COMMENT="" />
    <EXPORT ORDINAL="1409" NAME="_ZNKSt7num_getIwSt19istreambuf_iteratorIwSt11char_traitsIwEEE14_M_extract_intB5cxx11IjEES3_S3_S3_RSt8ios_baseRSt12_Ios_IostateRT_" PURGE="0" COMMENT="" />
    <EXPORT ORDINAL="1410" NAME="_ZNKSt7num_getIwSt19istreambuf_iteratorIwSt11char_traitsIwEEE14_M_extract_intB5cxx11IlEES3_S3_S3_RSt8ios_baseRSt12_Ios_IostateRT_" PURGE="0" COMMENT="" />
    <EXPORT ORDINAL="1411" NAME="_ZNKSt7num_getIwSt19istreambuf_iteratorIwSt11char_traitsIwEEE14_M_extract_intB5cxx11ImEES3_S3_S3_RSt8ios_baseRSt12_Ios_IostateRT_" PURGE="0" COMMENT="" />
    <EXPORT ORDINAL="1412" NAME="_ZNKSt7num_getIwSt19istreambuf_iteratorIwSt11char_traitsIwEEE14_M_extract_intB5cxx11ItEES3_S3_S3_RSt8ios_baseRSt12_Ios_IostateRT_" PURGE="0" COMMENT="" />
    <EXPORT ORDINAL="1413" NAME="_ZNKSt7num_getIwSt19istreambuf_iteratorIwSt11char_traitsIwEEE14_M_extract_intB5cxx11IxEES3_S3_S3_RSt8ios_baseRSt12_Ios_IostateRT_" PURGE="0" COMMENT="" />
    <EXPORT ORDINAL="1414" NAME="_ZNKSt7num_getIwSt19istreambuf_iteratorIwSt11char_traitsIwEEE14_M_extract_intB5cxx11IyEES3_S3_S3_RSt8ios_baseRSt12_Ios_IostateRT_" PURGE="0" COMMENT="" />
    <EXPORT ORDINAL="1415" NAME="_ZNKSt7num_getIwSt19istreambuf_iteratorIwSt11char_traitsIwEEE14_M_extract_intIjEES3_S3_S3_RSt8ios_baseRSt12_Ios_IostateRT_" PURGE="0" COMMENT="" />
    <EXPORT ORDINAL="1416" NAME="_ZNKSt7num_getIwSt19istreambuf_iteratorIwSt11char_traitsIwEEE14_M_extract_intIlEES3_S3_S3_RSt8ios_baseRSt12_Ios_IostateRT_" PURGE="0" COMMENT="" />
    <EXPORT ORDINAL="1417" NAME="_ZNKSt7num_getIwSt19istreambuf_iteratorIwSt11char_traitsIwEEE14_M_extract_intImEES3_S3_S3_RSt8ios_baseRSt12_Ios_IostateRT_" PURGE="0" COMMENT="" />
    <EXPORT ORDINAL="1418" NAME="_ZNKSt7num_getIwSt19istreambuf_iteratorIwSt11char_traitsIwEEE14_M_extract_intItEES3_S3_S3_RSt8ios_baseRSt12_Ios_IostateRT_" PURGE="0" COMMENT="" />
    <EXPORT ORDINAL="1419" NAME="_ZNKSt7num_getIwSt19istreambuf_iteratorIwSt11char_traitsIwEEE14_M_extract_intIxEES3_S3_S3_RSt8ios_baseRSt12_Ios_IostateRT_" PURGE="0" COMMENT="" />
    <EXPORT ORDINAL="1420" NAME="_ZNKSt7num_getIwSt19istreambuf_iteratorIwSt11char_traitsIwEEE14_M_extract_intIyEES3_S3_S3_RSt8ios_baseRSt12_Ios_IostateRT_" PURGE="0" COMMENT="" />
    <EXPORT ORDINAL="1421" NAME="_ZNKSt7num_getIwSt19istreambuf_iteratorIwSt11char_traitsIwEEE16_M_extract_floatES3_S3_RSt8ios_baseRSt12_Ios_IostateRSs" PURGE="0" COMMENT="" />
    <EXPORT ORDINAL="1422" NAME="_ZNKSt7num_getIwSt19istreambuf_iteratorIwSt11char_traitsIwEEE3getES3_S3_RSt8ios_baseRSt12_Ios_IostateRPv" PURGE="0" COMMENT="" />
    <EXPORT ORDINAL="1423" NAME="_ZNKSt7num_getIwSt19istreambuf_iteratorIwSt11char_traitsIwEEE3getES3_S3_RSt8ios_baseRSt12_Ios_IostateRb" PURGE="0" COMMENT="" />
    <EXPORT ORDINAL="1424" NAME="_ZNKSt7num_getIwSt19istreambuf_iteratorIwSt11char_traitsIwEEE3getES3_S3_RSt8ios_baseRSt12_Ios_IostateRd" PURGE="0" COMMENT="" />
    <EXPORT ORDINAL="1425" NAME="_ZNKSt7num_getIwSt19istreambuf_iteratorIwSt11char_traitsIwEEE3getES3_S3_RSt8ios_baseRSt12_Ios_IostateRe" PURGE="0" COMMENT="" />
    <EXPORT ORDINAL="1426" NAME="_ZNKSt7num_getIwSt19istreambuf_iteratorIwSt11char_traitsIwEEE3getES3_S3_RSt8ios_baseRSt12_Ios_IostateRf" PURGE="0" COMMENT="" />
    <EXPORT ORDINAL="1427" NAME="_ZNKSt7num_getIwSt19istreambuf_iteratorIwSt11char_traitsIwEEE3getES3_S3_RSt8ios_baseRSt12_Ios_IostateRj" PURGE="0" COMMENT="" />
    <EXPORT ORDINAL="1428" NAME="_ZNKSt7num_getIwSt19istreambuf_iteratorIwSt11char_traitsIwEEE3getES3_S3_RSt8ios_baseRSt12_Ios_IostateRl" PURGE="0" COMMENT="" />
    <EXPORT ORDINAL="1429" NAME="_ZNKSt7num_getIwSt19istreambuf_iteratorIwSt11char_traitsIwEEE3getES3_S3_RSt8ios_baseRSt12_Ios_IostateRm" PURGE="0" COMMENT="" />
    <EXPORT ORDINAL="1430" NAME="_ZNKSt7num_getIwSt19istreambuf_iteratorIwSt11char_traitsIwEEE3getES3_S3_RSt8ios_baseRSt12_Ios_IostateRt" PURGE="0" COMMENT="" />
    <EXPORT ORDINAL="1431" NAME="_ZNKSt7num_getIwSt19istreambuf_iteratorIwSt11char_traitsIwEEE3getES3_S3_RSt8ios_baseRSt12_Ios_IostateRx" PURGE="0" COMMENT="" />
    <EXPORT ORDINAL="1432" NAME="_ZNKSt7num_getIwSt19istreambuf_iteratorIwSt11char_traitsIwEEE3getES3_S3_RSt8ios_baseRSt12_Ios_IostateRy" PURGE="0" COMMENT="" />
    <EXPORT ORDINAL="1433" NAME="_ZNKSt7num_getIwSt19istreambuf_iteratorIwSt11char_traitsIwEEE6do_getES3_S3_RSt8ios_baseRSt12_Ios_IostateRPv" PURGE="0" COMMENT="" />
    <EXPORT ORDINAL="1434" NAME="_ZNKSt7num_getIwSt19istreambuf_iteratorIwSt11char_traitsIwEEE6do_getES3_S3_RSt8ios_baseRSt12_Ios_IostateRb" PURGE="0" COMMENT="" />
    <EXPORT ORDINAL="1435" NAME="_ZNKSt7num_getIwSt19istreambuf_iteratorIwSt11char_traitsIwEEE6do_getES3_S3_RSt8ios_baseRSt12_Ios_IostateRd" PURGE="0" COMMENT="" />
    <EXPORT ORDINAL="1436" NAME="_ZNKSt7num_getIwSt19istreambuf_iteratorIwSt11char_traitsIwEEE6do_getES3_S3_RSt8ios_baseRSt12_Ios_IostateRe" PURGE="0" COMMENT="" />
    <EXPORT ORDINAL="1437" NAME="_ZNKSt7num_getIwSt19istreambuf_iteratorIwSt11char_traitsIwEEE6do_getES3_S3_RSt8ios_baseRSt12_Ios_IostateRf" PURGE="0" COMMENT="" />
    <EXPORT ORDINAL="1438" NAME="_ZNKSt7num_getIwSt19istreambuf_iteratorIwSt11char_traitsIwEEE6do_getES3_S3_RSt8ios_baseRSt12_Ios_IostateRj" PURGE="0" COMMENT="" />
    <EXPORT ORDINAL="1439" NAME="_ZNKSt7num_getIwSt19istreambuf_iteratorIwSt11char_traitsIwEEE6do_getES3_S3_RSt8ios_baseRSt12_Ios_IostateRl" PURGE="0" COMMENT="" />
    <EXPORT ORDINAL="1440" NAME="_ZNKSt7num_getIwSt19istreambuf_iteratorIwSt11char_traitsIwEEE6do_getES3_S3_RSt8ios_baseRSt12_Ios_IostateRm" PURGE="0" COMMENT="" />
    <EXPORT ORDINAL="1441" NAME="_ZNKSt7num_getIwSt19istreambuf_iteratorIwSt11char_traitsIwEEE6do_getES3_S3_RSt8ios_baseRSt12_Ios_IostateRt" PURGE="0" COMMENT="" />
    <EXPORT ORDINAL="1442" NAME="_ZNKSt7num_getIwSt19istreambuf_iteratorIwSt11char_traitsIwEEE6do_getES3_S3_RSt8ios_baseRSt12_Ios_IostateRx" PURGE="0" COMMENT="" />
    <EXPORT ORDINAL="1443" NAME="_ZNKSt7num_getIwSt19istreambuf_iteratorIwSt11char_traitsIwEEE6do_getES3_S3_RSt8ios_baseRSt12_Ios_IostateRy" PURGE="0" COMMENT="" />
    <EXPORT ORDINAL="1444" NAME="_ZNKSt7num_putIcSt19ostreambuf_iteratorIcSt11char_traitsIcEEE12_M_group_intEPKcycRSt8ios_basePcS9_Ri" PURGE="0" COMMENT="" />
    <EXPORT ORDINAL="1445" NAME="_ZNKSt7num_putIcSt19ostreambuf_iteratorIcSt11char_traitsIcEEE13_M_insert_intIlEES3_S3_RSt8ios_basecT_" PURGE="0" COMMENT="" />
    <EXPORT ORDINAL="1446" NAME="_ZNKSt7num_putIcSt19ostreambuf_iteratorIcSt11char_traitsIcEEE13_M_insert_intImEES3_S3_RSt8ios_basecT_" PURGE="0" COMMENT="" />
    <EXPORT ORDINAL="1447" NAME="_ZNKSt7num_putIcSt19ostreambuf_iteratorIcSt11char_traitsIcEEE13_M_insert_intIxEES3_S3_RSt8ios_basecT_" PURGE="0" COMMENT="" />
    <EXPORT ORDINAL="1448" NAME="_ZNKSt7num_putIcSt19ostreambuf_iteratorIcSt11char_traitsIcEEE13_M_insert_intIyEES3_S3_RSt8ios_basecT_" PURGE="0" COMMENT="" />
    <EXPORT ORDINAL="1449" NAME="_ZNKSt7num_putIcSt19ostreambuf_iteratorIcSt11char_traitsIcEEE14_M_group_floatEPKcycS6_PcS7_Ri" PURGE="0" COMMENT="" />
    <EXPORT ORDINAL="1450" NAME="_ZNKSt7num_putIcSt19ostreambuf_iteratorIcSt11char_traitsIcEEE15_M_insert_floatIdEES3_S3_RSt8ios_baseccT_" PURGE="0" COMMENT="" />
    <EXPORT ORDINAL="1451" NAME="_ZNKSt7num_putIcSt19ostreambuf_iteratorIcSt11char_traitsIcEEE15_M_insert_floatIeEES3_S3_RSt8ios_baseccT_" PURGE="0" COMMENT="" />
    <EXPORT ORDINAL="1452" NAME="_ZNKSt7num_putIcSt19ostreambuf_iteratorIcSt11char_traitsIcEEE3putES3_RSt8ios_basecPKv" PURGE="0" COMMENT="" />
    <EXPORT ORDINAL="1453" NAME="_ZNKSt7num_putIcSt19ostreambuf_iteratorIcSt11char_traitsIcEEE3putES3_RSt8ios_basecb" PURGE="0" COMMENT="" />
    <EXPORT ORDINAL="1454" NAME="_ZNKSt7num_putIcSt19ostreambuf_iteratorIcSt11char_traitsIcEEE3putES3_RSt8ios_basecd" PURGE="0" COMMENT="" />
    <EXPORT ORDINAL="1455" NAME="_ZNKSt7num_putIcSt19ostreambuf_iteratorIcSt11char_traitsIcEEE3putES3_RSt8ios_basece" PURGE="0" COMMENT="" />
    <EXPORT ORDINAL="1456" NAME="_ZNKSt7num_putIcSt19ostreambuf_iteratorIcSt11char_traitsIcEEE3putES3_RSt8ios_basecl" PURGE="0" COMMENT="" />
    <EXPORT ORDINAL="1457" NAME="_ZNKSt7num_putIcSt19ostreambuf_iteratorIcSt11char_traitsIcEEE3putES3_RSt8ios_basecm" PURGE="0" COMMENT="" />
    <EXPORT ORDINAL="1458" NAME="_ZNKSt7num_putIcSt19ostreambuf_iteratorIcSt11char_traitsIcEEE3putES3_RSt8ios_basecx" PURGE="0" COMMENT="" />
    <EXPORT ORDINAL="1459" NAME="_ZNKSt7num_putIcSt19ostreambuf_iteratorIcSt11char_traitsIcEEE3putES3_RSt8ios_basecy" PURGE="0" COMMENT="" />
    <EXPORT ORDINAL="1460" NAME="_ZNKSt7num_putIcSt19ostreambuf_iteratorIcSt11char_traitsIcEEE6_M_padEcxRSt8ios_basePcPKcRi" PURGE="0" COMMENT="" />
    <EXPORT ORDINAL="1461" NAME="_ZNKSt7num_putIcSt19ostreambuf_iteratorIcSt11char_traitsIcEEE6do_putES3_RSt8ios_basecPKv" PURGE="0" COMMENT="" />
    <EXPORT ORDINAL="1462" NAME="_ZNKSt7num_putIcSt19ostreambuf_iteratorIcSt11char_traitsIcEEE6do_putES3_RSt8ios_basecb" PURGE="0" COMMENT="" />
    <EXPORT ORDINAL="1463" NAME="_ZNKSt7num_putIcSt19ostreambuf_iteratorIcSt11char_traitsIcEEE6do_putES3_RSt8ios_basecd" PURGE="0" COMMENT="" />
    <EXPORT ORDINAL="1464" NAME="_ZNKSt7num_putIcSt19ostreambuf_iteratorIcSt11char_traitsIcEEE6do_putES3_RSt8ios_basece" PURGE="0" COMMENT="" />
    <EXPORT ORDINAL="1465" NAME="_ZNKSt7num_putIcSt19ostreambuf_iteratorIcSt11char_traitsIcEEE6do_putES3_RSt8ios_basecl" PURGE="0" COMMENT="" />
    <EXPORT ORDINAL="1466" NAME="_ZNKSt7num_putIcSt19ostreambuf_iteratorIcSt11char_traitsIcEEE6do_putES3_RSt8ios_basecm" PURGE="0" COMMENT="" />
    <EXPORT ORDINAL="1467" NAME="_ZNKSt7num_putIcSt19ostreambuf_iteratorIcSt11char_traitsIcEEE6do_putES3_RSt8ios_basecx" PURGE="0" COMMENT="" />
    <EXPORT ORDINAL="1468" NAME="_ZNKSt7num_putIcSt19ostreambuf_iteratorIcSt11char_traitsIcEEE6do_putES3_RSt8ios_basecy" PURGE="0" COMMENT="" />
    <EXPORT ORDINAL="1469" NAME="_ZNKSt7num_putIwSt19ostreambuf_iteratorIwSt11char_traitsIwEEE12_M_group_intEPKcywRSt8ios_basePwS9_Ri" PURGE="0" COMMENT="" />
    <EXPORT ORDINAL="1470" NAME="_ZNKSt7num_putIwSt19ostreambuf_iteratorIwSt11char_traitsIwEEE13_M_insert_intIlEES3_S3_RSt8ios_basewT_" PURGE="0" COMMENT="" />
    <EXPORT ORDINAL="1471" NAME="_ZNKSt7num_putIwSt19ostreambuf_iteratorIwSt11char_traitsIwEEE13_M_insert_intImEES3_S3_RSt8ios_basewT_" PURGE="0" COMMENT="" />
    <EXPORT ORDINAL="1472" NAME="_ZNKSt7num_putIwSt19ostreambuf_iteratorIwSt11char_traitsIwEEE13_M_insert_intIxEES3_S3_RSt8ios_basewT_" PURGE="0" COMMENT="" />
    <EXPORT ORDINAL="1473" NAME="_ZNKSt7num_putIwSt19ostreambuf_iteratorIwSt11char_traitsIwEEE13_M_insert_intIyEES3_S3_RSt8ios_basewT_" PURGE="0" COMMENT="" />
    <EXPORT ORDINAL="1474" NAME="_ZNKSt7num_putIwSt19ostreambuf_iteratorIwSt11char_traitsIwEEE14_M_group_floatEPKcywPKwPwS9_Ri" PURGE="0" COMMENT="" />
    <EXPORT ORDINAL="1475" NAME="_ZNKSt7num_putIwSt19ostreambuf_iteratorIwSt11char_traitsIwEEE15_M_insert_floatIdEES3_S3_RSt8ios_basewcT_" PURGE="0" COMMENT="" />
    <EXPORT ORDINAL="1476" NAME="_ZNKSt7num_putIwSt19ostreambuf_iteratorIwSt11char_traitsIwEEE15_M_insert_floatIeEES3_S3_RSt8ios_basewcT_" PURGE="0" COMMENT="" />
    <EXPORT ORDINAL="1477" NAME="_ZNKSt7num_putIwSt19ostreambuf_iteratorIwSt11char_traitsIwEEE3putES3_RSt8ios_basewPKv" PURGE="0" COMMENT="" />
    <EXPORT ORDINAL="1478" NAME="_ZNKSt7num_putIwSt19ostreambuf_iteratorIwSt11char_traitsIwEEE3putES3_RSt8ios_basewb" PURGE="0" COMMENT="" />
    <EXPORT ORDINAL="1479" NAME="_ZNKSt7num_putIwSt19ostreambuf_iteratorIwSt11char_traitsIwEEE3putES3_RSt8ios_basewd" PURGE="0" COMMENT="" />
    <EXPORT ORDINAL="1480" NAME="_ZNKSt7num_putIwSt19ostreambuf_iteratorIwSt11char_traitsIwEEE3putES3_RSt8ios_basewe" PURGE="0" COMMENT="" />
    <EXPORT ORDINAL="1481" NAME="_ZNKSt7num_putIwSt19ostreambuf_iteratorIwSt11char_traitsIwEEE3putES3_RSt8ios_basewl" PURGE="0" COMMENT="" />
    <EXPORT ORDINAL="1482" NAME="_ZNKSt7num_putIwSt19ostreambuf_iteratorIwSt11char_traitsIwEEE3putES3_RSt8ios_basewm" PURGE="0" COMMENT="" />
    <EXPORT ORDINAL="1483" NAME="_ZNKSt7num_putIwSt19ostreambuf_iteratorIwSt11char_traitsIwEEE3putES3_RSt8ios_basewx" PURGE="0" COMMENT="" />
    <EXPORT ORDINAL="1484" NAME="_ZNKSt7num_putIwSt19ostreambuf_iteratorIwSt11char_traitsIwEEE3putES3_RSt8ios_basewy" PURGE="0" COMMENT="" />
    <EXPORT ORDINAL="1485" NAME="_ZNKSt7num_putIwSt19ostreambuf_iteratorIwSt11char_traitsIwEEE6_M_padEwxRSt8ios_basePwPKwRi" PURGE="0" COMMENT="" />
    <EXPORT ORDINAL="1486" NAME="_ZNKSt7num_putIwSt19ostreambuf_iteratorIwSt11char_traitsIwEEE6do_putES3_RSt8ios_basewPKv" PURGE="0" COMMENT="" />
    <EXPORT ORDINAL="1487" NAME="_ZNKSt7num_putIwSt19ostreambuf_iteratorIwSt11char_traitsIwEEE6do_putES3_RSt8ios_basewb" PURGE="0" COMMENT="" />
    <EXPORT ORDINAL="1488" NAME="_ZNKSt7num_putIwSt19ostreambuf_iteratorIwSt11char_traitsIwEEE6do_putES3_RSt8ios_basewd" PURGE="0" COMMENT="" />
    <EXPORT ORDINAL="1489" NAME="_ZNKSt7num_putIwSt19ostreambuf_iteratorIwSt11char_traitsIwEEE6do_putES3_RSt8ios_basewe" PURGE="0" COMMENT="" />
    <EXPORT ORDINAL="1490" NAME="_ZNKSt7num_putIwSt19ostreambuf_iteratorIwSt11char_traitsIwEEE6do_putES3_RSt8ios_basewl" PURGE="0" COMMENT="" />
    <EXPORT ORDINAL="1491" NAME="_ZNKSt7num_putIwSt19ostreambuf_iteratorIwSt11char_traitsIwEEE6do_putES3_RSt8ios_basewm" PURGE="0" COMMENT="" />
    <EXPORT ORDINAL="1492" NAME="_ZNKSt7num_putIwSt19ostreambuf_iteratorIwSt11char_traitsIwEEE6do_putES3_RSt8ios_basewx" PURGE="0" COMMENT="" />
    <EXPORT ORDINAL="1493" NAME="_ZNKSt7num_putIwSt19ostreambuf_iteratorIwSt11char_traitsIwEEE6do_putES3_RSt8ios_basewy" PURGE="0" COMMENT="" />
    <EXPORT ORDINAL="1494" NAME="_ZNKSt8__detail20_Prime_rehash_policy11_M_next_bktEy" PURGE="0" COMMENT="" />
    <EXPORT ORDINAL="1495" NAME="_ZNKSt8__detail20_Prime_rehash_policy14_M_need_rehashEyyy" PURGE="0" COMMENT="" />
    <EXPORT ORDINAL="1496" NAME="_ZNKSt8bad_cast4whatEv" PURGE="0" COMMENT="" />
    <EXPORT ORDINAL="1497" NAME="_ZNKSt8ios_base7failure4whatEv" PURGE="0" COMMENT="" />
    <EXPORT ORDINAL="1498" NAME="_ZNKSt8ios_base7failureB5cxx114whatEv" PURGE="0" COMMENT="" />
    <EXPORT ORDINAL="1499" NAME="_ZNKSt8messagesIcE18_M_convert_to_charERKSs" PURGE="0" COMMENT="" />
    <EXPORT ORDINAL="1500" NAME="_ZNKSt8messagesIcE20_M_convert_from_charEPc" PURGE="0" COMMENT="" />
    <EXPORT ORDINAL="1501" NAME="_ZNKSt8messagesIcE3getEiiiRKSs" PURGE="0" COMMENT="" />
    <EXPORT ORDINAL="1502" NAME="_ZNKSt8messagesIcE4openERKSsRKSt6locale" PURGE="0" COMMENT="" />
    <EXPORT ORDINAL="1503" NAME="_ZNKSt8messagesIcE4openERKSsRKSt6localePKc" PURGE="0" COMMENT="" />
    <EXPORT ORDINAL="1504" NAME="_ZNKSt8messagesIcE5closeEi" PURGE="0" COMMENT="" />
    <EXPORT ORDINAL="1505" NAME="_ZNKSt8messagesIcE6do_getEiiiRKSs" PURGE="0" COMMENT="" />
    <EXPORT ORDINAL="1506" NAME="_ZNKSt8messagesIcE7do_openERKSsRKSt6locale" PURGE="0" COMMENT="" />
    <EXPORT ORDINAL="1507" NAME="_ZNKSt8messagesIcE8do_closeEi" PURGE="0" COMMENT="" />
    <EXPORT ORDINAL="1508" NAME="_ZNKSt8messagesIwE18_M_convert_to_charERKSbIwSt11char_traitsIwESaIwEE" PURGE="0" COMMENT="" />
    <EXPORT ORDINAL="1509" NAME="_ZNKSt8messagesIwE20_M_convert_from_charEPc" PURGE="0" COMMENT="" />
    <EXPORT ORDINAL="1510" NAME="_ZNKSt8messagesIwE3getEiiiRKSbIwSt11char_traitsIwESaIwEE" PURGE="0" COMMENT="" />
    <EXPORT ORDINAL="1511" NAME="_ZNKSt8messagesIwE4openERKSsRKSt6locale" PURGE="0" COMMENT="" />
    <EXPORT ORDINAL="1512" NAME="_ZNKSt8messagesIwE4openERKSsRKSt6localePKc" PURGE="0" COMMENT="" />
    <EXPORT ORDINAL="1513" NAME="_ZNKSt8messagesIwE5closeEi" PURGE="0" COMMENT="" />
    <EXPORT ORDINAL="1514" NAME="_ZNKSt8messagesIwE6do_getEiiiRKSbIwSt11char_traitsIwESaIwEE" PURGE="0" COMMENT="" />
    <EXPORT ORDINAL="1515" NAME="_ZNKSt8messagesIwE7do_openERKSsRKSt6locale" PURGE="0" COMMENT="" />
    <EXPORT ORDINAL="1516" NAME="_ZNKSt8messagesIwE8do_closeEi" PURGE="0" COMMENT="" />
    <EXPORT ORDINAL="1517" NAME="_ZNKSt8numpunctIcE11do_groupingEv" PURGE="0" COMMENT="" />
    <EXPORT ORDINAL="1518" NAME="_ZNKSt8numpunctIcE11do_truenameEv" PURGE="0" COMMENT="" />
    <EXPORT ORDINAL="1519" NAME="_ZNKSt8numpunctIcE12do_falsenameEv" PURGE="0" COMMENT="" />
    <EXPORT ORDINAL="1520" NAME="_ZNKSt8numpunctIcE13decimal_pointEv" PURGE="0" COMMENT="" />
    <EXPORT ORDINAL="1521" NAME="_ZNKSt8numpunctIcE13thousands_sepEv" PURGE="0" COMMENT="" />
    <EXPORT ORDINAL="1522" NAME="_ZNKSt8numpunctIcE16do_decimal_pointEv" PURGE="0" COMMENT="" />
    <EXPORT ORDINAL="1523" NAME="_ZNKSt8numpunctIcE16do_thousands_sepEv" PURGE="0" COMMENT="" />
    <EXPORT ORDINAL="1524" NAME="_ZNKSt8numpunctIcE8groupingEv" PURGE="0" COMMENT="" />
    <EXPORT ORDINAL="1525" NAME="_ZNKSt8numpunctIcE8truenameEv" PURGE="0" COMMENT="" />
    <EXPORT ORDINAL="1526" NAME="_ZNKSt8numpunctIcE9falsenameEv" PURGE="0" COMMENT="" />
    <EXPORT ORDINAL="1527" NAME="_ZNKSt8numpunctIwE11do_groupingEv" PURGE="0" COMMENT="" />
    <EXPORT ORDINAL="1528" NAME="_ZNKSt8numpunctIwE11do_truenameEv" PURGE="0" COMMENT="" />
    <EXPORT ORDINAL="1529" NAME="_ZNKSt8numpunctIwE12do_falsenameEv" PURGE="0" COMMENT="" />
    <EXPORT ORDINAL="1530" NAME="_ZNKSt8numpunctIwE13decimal_pointEv" PURGE="0" COMMENT="" />
    <EXPORT ORDINAL="1531" NAME="_ZNKSt8numpunctIwE13thousands_sepEv" PURGE="0" COMMENT="" />
    <EXPORT ORDINAL="1532" NAME="_ZNKSt8numpunctIwE16do_decimal_pointEv" PURGE="0" COMMENT="" />
    <EXPORT ORDINAL="1533" NAME="_ZNKSt8numpunctIwE16do_thousands_sepEv" PURGE="0" COMMENT="" />
    <EXPORT ORDINAL="1534" NAME="_ZNKSt8numpunctIwE8groupingEv" PURGE="0" COMMENT="" />
    <EXPORT ORDINAL="1535" NAME="_ZNKSt8numpunctIwE8truenameEv" PURGE="0" COMMENT="" />
    <EXPORT ORDINAL="1536" NAME="_ZNKSt8numpunctIwE9falsenameEv" PURGE="0" COMMENT="" />
    <EXPORT ORDINAL="1537" NAME="_ZNKSt8time_getIcSt19istreambuf_iteratorIcSt11char_traitsIcEEE10date_orderEv" PURGE="0" COMMENT="" />
    <EXPORT ORDINAL="1538" NAME="_ZNKSt8time_getIcSt19istreambuf_iteratorIcSt11char_traitsIcEEE11do_get_dateES3_S3_RSt8ios_baseRSt12_Ios_IostateP2tm" PURGE="0" COMMENT="" />
    <EXPORT ORDINAL="1539" NAME="_ZNKSt8time_getIcSt19istreambuf_iteratorIcSt11char_traitsIcEEE11do_get_timeES3_S3_RSt8ios_baseRSt12_Ios_IostateP2tm" PURGE="0" COMMENT="" />
    <EXPORT ORDINAL="1540" NAME="_ZNKSt8time_getIcSt19istreambuf_iteratorIcSt11char_traitsIcEEE11do_get_yearES3_S3_RSt8ios_baseRSt12_Ios_IostateP2tm" PURGE="0" COMMENT="" />
    <EXPORT ORDINAL="1541" NAME="_ZNKSt8time_getIcSt19istreambuf_iteratorIcSt11char_traitsIcEEE11get_weekdayES3_S3_RSt8ios_baseRSt12_Ios_IostateP2tm" PURGE="0" COMMENT="" />
    <EXPORT ORDINAL="1542" NAME="_ZNKSt8time_getIcSt19istreambuf_iteratorIcSt11char_traitsIcEEE13do_date_orderEv" PURGE="0" COMMENT="" />
    <EXPORT ORDINAL="1543" NAME="_ZNKSt8time_getIcSt19istreambuf_iteratorIcSt11char_traitsIcEEE13get_monthnameES3_S3_RSt8ios_baseRSt12_Ios_IostateP2tm" PURGE="0" COMMENT="" />
    <EXPORT ORDINAL="1544" NAME="_ZNKSt8time_getIcSt19istreambuf_iteratorIcSt11char_traitsIcEEE14_M_extract_numES3_S3_RiiiyRSt8ios_baseRSt12_Ios_Iostate" PURGE="0" COMMENT="" />
    <EXPORT ORDINAL="1545" NAME="_ZNKSt8time_getIcSt19istreambuf_iteratorIcSt11char_traitsIcEEE14do_get_weekdayES3_S3_RSt8ios_baseRSt12_Ios_IostateP2tm" PURGE="0" COMMENT="" />
    <EXPORT ORDINAL="1546" NAME="_ZNKSt8time_getIcSt19istreambuf_iteratorIcSt11char_traitsIcEEE15_M_extract_nameES3_S3_RiPPKcyRSt8ios_baseRSt12_Ios_Iostate" PURGE="0" COMMENT="" />
    <EXPORT ORDINAL="1547" NAME="_ZNKSt8time_getIcSt19istreambuf_iteratorIcSt11char_traitsIcEEE16do_get_monthnameES3_S3_RSt8ios_baseRSt12_Ios_IostateP2tm" PURGE="0" COMMENT="" />
    <EXPORT ORDINAL="1548" NAME="_ZNKSt8time_getIcSt19istreambuf_iteratorIcSt11char_traitsIcEEE21_M_extract_via_formatES3_S3_RSt8ios_baseRSt12_Ios_IostateP2tmPKc" PURGE="0" COMMENT="" />
    <EXPORT ORDINAL="1549" NAME="_ZNKSt8time_getIcSt19istreambuf_iteratorIcSt11char_traitsIcEEE21_M_extract_via_formatES3_S3_RSt8ios_baseRSt12_Ios_IostateP2tmPKcRSt16__time_get_state" PURGE="0" COMMENT="" />
    <EXPORT ORDINAL="1550" NAME="_ZNKSt8time_getIcSt19istreambuf_iteratorIcSt11char_traitsIcEEE24_M_extract_wday_or_monthES3_S3_RiPPKcyRSt8ios_baseRSt12_Ios_Iostate" PURGE="0" COMMENT="" />
    <EXPORT ORDINAL="1551" NAME="_ZNKSt8time_getIcSt19istreambuf_iteratorIcSt11char_traitsIcEEE3getES3_S3_RSt8ios_baseRSt12_Ios_IostateP2tmPKcSC_" PURGE="0" COMMENT="" />
    <EXPORT ORDINAL="1552" NAME="_ZNKSt8time_getIcSt19istreambuf_iteratorIcSt11char_traitsIcEEE3getES3_S3_RSt8ios_baseRSt12_Ios_IostateP2tmcc" PURGE="0" COMMENT="" />
    <EXPORT ORDINAL="1553" NAME="_ZNKSt8time_getIcSt19istreambuf_iteratorIcSt11char_traitsIcEEE6do_getES3_S3_RSt8ios_baseRSt12_Ios_IostateP2tmcc" PURGE="0" COMMENT="" />
    <EXPORT ORDINAL="1554" NAME="_ZNKSt8time_getIcSt19istreambuf_iteratorIcSt11char_traitsIcEEE8get_dateES3_S3_RSt8ios_baseRSt12_Ios_IostateP2tm" PURGE="0" COMMENT="" />
    <EXPORT ORDINAL="1555" NAME="_ZNKSt8time_getIcSt19istreambuf_iteratorIcSt11char_traitsIcEEE8get_timeES3_S3_RSt8ios_baseRSt12_Ios_IostateP2tm" PURGE="0" COMMENT="" />
    <EXPORT ORDINAL="1556" NAME="_ZNKSt8time_getIcSt19istreambuf_iteratorIcSt11char_traitsIcEEE8get_yearES3_S3_RSt8ios_baseRSt12_Ios_IostateP2tm" PURGE="0" COMMENT="" />
    <EXPORT ORDINAL="1557" NAME="_ZNKSt8time_getIwSt19istreambuf_iteratorIwSt11char_traitsIwEEE10date_orderEv" PURGE="0" COMMENT="" />
    <EXPORT ORDINAL="1558" NAME="_ZNKSt8time_getIwSt19istreambuf_iteratorIwSt11char_traitsIwEEE11do_get_dateES3_S3_RSt8ios_baseRSt12_Ios_IostateP2tm" PURGE="0" COMMENT="" />
    <EXPORT ORDINAL="1559" NAME="_ZNKSt8time_getIwSt19istreambuf_iteratorIwSt11char_traitsIwEEE11do_get_timeES3_S3_RSt8ios_baseRSt12_Ios_IostateP2tm" PURGE="0" COMMENT="" />
    <EXPORT ORDINAL="1560" NAME="_ZNKSt8time_getIwSt19istreambuf_iteratorIwSt11char_traitsIwEEE11do_get_yearES3_S3_RSt8ios_baseRSt12_Ios_IostateP2tm" PURGE="0" COMMENT="" />
    <EXPORT ORDINAL="1561" NAME="_ZNKSt8time_getIwSt19istreambuf_iteratorIwSt11char_traitsIwEEE11get_weekdayES3_S3_RSt8ios_baseRSt12_Ios_IostateP2tm" PURGE="0" COMMENT="" />
    <EXPORT ORDINAL="1562" NAME="_ZNKSt8time_getIwSt19istreambuf_iteratorIwSt11char_traitsIwEEE13do_date_orderEv" PURGE="0" COMMENT="" />
    <EXPORT ORDINAL="1563" NAME="_ZNKSt8time_getIwSt19istreambuf_iteratorIwSt11char_traitsIwEEE13get_monthnameES3_S3_RSt8ios_baseRSt12_Ios_IostateP2tm" PURGE="0" COMMENT="" />
    <EXPORT ORDINAL="1564" NAME="_ZNKSt8time_getIwSt19istreambuf_iteratorIwSt11char_traitsIwEEE14_M_extract_numES3_S3_RiiiyRSt8ios_baseRSt12_Ios_Iostate" PURGE="0" COMMENT="" />
    <EXPORT ORDINAL="1565" NAME="_ZNKSt8time_getIwSt19istreambuf_iteratorIwSt11char_traitsIwEEE14do_get_weekdayES3_S3_RSt8ios_baseRSt12_Ios_IostateP2tm" PURGE="0" COMMENT="" />
    <EXPORT ORDINAL="1566" NAME="_ZNKSt8time_getIwSt19istreambuf_iteratorIwSt11char_traitsIwEEE15_M_extract_nameES3_S3_RiPPKwyRSt8ios_baseRSt12_Ios_Iostate" PURGE="0" COMMENT="" />
    <EXPORT ORDINAL="1567" NAME="_ZNKSt8time_getIwSt19istreambuf_iteratorIwSt11char_traitsIwEEE16do_get_monthnameES3_S3_RSt8ios_baseRSt12_Ios_IostateP2tm" PURGE="0" COMMENT="" />
    <EXPORT ORDINAL="1568" NAME="_ZNKSt8time_getIwSt19istreambuf_iteratorIwSt11char_traitsIwEEE21_M_extract_via_formatES3_S3_RSt8ios_baseRSt12_Ios_IostateP2tmPKw" PURGE="0" COMMENT="" />
    <EXPORT ORDINAL="1569" NAME="_ZNKSt8time_getIwSt19istreambuf_iteratorIwSt11char_traitsIwEEE21_M_extract_via_formatES3_S3_RSt8ios_baseRSt12_Ios_IostateP2tmPKwRSt16__time_get_state" PURGE="0" COMMENT="" />
    <EXPORT ORDINAL="1570" NAME="_ZNKSt8time_getIwSt19istreambuf_iteratorIwSt11char_traitsIwEEE24_M_extract_wday_or_monthES3_S3_RiPPKwyRSt8ios_baseRSt12_Ios_Iostate" PURGE="0" COMMENT="" />
    <EXPORT ORDINAL="1571" NAME="_ZNKSt8time_getIwSt19istreambuf_iteratorIwSt11char_traitsIwEEE3getES3_S3_RSt8ios_baseRSt12_Ios_IostateP2tmPKwSC_" PURGE="0" COMMENT="" />
    <EXPORT ORDINAL="1572" NAME="_ZNKSt8time_getIwSt19istreambuf_iteratorIwSt11char_traitsIwEEE3getES3_S3_RSt8ios_baseRSt12_Ios_IostateP2tmcc" PURGE="0" COMMENT="" />
    <EXPORT ORDINAL="1573" NAME="_ZNKSt8time_getIwSt19istreambuf_iteratorIwSt11char_traitsIwEEE6do_getES3_S3_RSt8ios_baseRSt12_Ios_IostateP2tmcc" PURGE="0" COMMENT="" />
    <EXPORT ORDINAL="1574" NAME="_ZNKSt8time_getIwSt19istreambuf_iteratorIwSt11char_traitsIwEEE8get_dateES3_S3_RSt8ios_baseRSt12_Ios_IostateP2tm" PURGE="0" COMMENT="" />
    <EXPORT ORDINAL="1575" NAME="_ZNKSt8time_getIwSt19istreambuf_iteratorIwSt11char_traitsIwEEE8get_timeES3_S3_RSt8ios_baseRSt12_Ios_IostateP2tm" PURGE="0" COMMENT="" />
    <EXPORT ORDINAL="1576" NAME="_ZNKSt8time_getIwSt19istreambuf_iteratorIwSt11char_traitsIwEEE8get_yearES3_S3_RSt8ios_baseRSt12_Ios_IostateP2tm" PURGE="0" COMMENT="" />
    <EXPORT ORDINAL="1577" NAME="_ZNKSt8time_putIcSt19ostreambuf_iteratorIcSt11char_traitsIcEEE3putES3_RSt8ios_basecPK2tmPKcSB_" PURGE="0" COMMENT="" />
    <EXPORT ORDINAL="1578" NAME="_ZNKSt8time_putIcSt19ostreambuf_iteratorIcSt11char_traitsIcEEE3putES3_RSt8ios_basecPK2tmcc" PURGE="0" COMMENT="" />
    <EXPORT ORDINAL="1579" NAME="_ZNKSt8time_putIcSt19ostreambuf_iteratorIcSt11char_traitsIcEEE6do_putES3_RSt8ios_basecPK2tmcc" PURGE="0" COMMENT="" />
    <EXPORT ORDINAL="1580" NAME="_ZNKSt8time_putIwSt19ostreambuf_iteratorIwSt11char_traitsIwEEE3putES3_RSt8ios_basewPK2tmPKwSB_" PURGE="0" COMMENT="" />
    <EXPORT ORDINAL="1581" NAME="_ZNKSt8time_putIwSt19ostreambuf_iteratorIwSt11char_traitsIwEEE3putES3_RSt8ios_basewPK2tmcc" PURGE="0" COMMENT="" />
    <EXPORT ORDINAL="1582" NAME="_ZNKSt8time_putIwSt19ostreambuf_iteratorIwSt11char_traitsIwEEE6do_putES3_RSt8ios_basewPK2tmcc" PURGE="0" COMMENT="" />
    <EXPORT ORDINAL="1583" NAME="_ZNKSt8valarrayIyE4sizeEv" PURGE="0" COMMENT="" />
    <EXPORT ORDINAL="1584" NAME="_ZNKSt9bad_alloc4whatEv" PURGE="0" COMMENT="" />
    <EXPORT ORDINAL="1585" NAME="_ZNKSt9basic_iosIcSt11char_traitsIcEE10exceptionsEv" PURGE="0" COMMENT="" />
    <EXPORT ORDINAL="1586" NAME="_ZNKSt9basic_iosIcSt11char_traitsIcEE3badEv" PURGE="0" COMMENT="" />
    <EXPORT ORDINAL="1587" NAME="_ZNKSt9basic_iosIcSt11char_traitsIcEE3eofEv" PURGE="0" COMMENT="" />
    <EXPORT ORDINAL="1588" NAME="_ZNKSt9basic_iosIcSt11char_traitsIcEE3tieEv" PURGE="0" COMMENT="" />
    <EXPORT ORDINAL="1589" NAME="_ZNKSt9basic_iosIcSt11char_traitsIcEE4failEv" PURGE="0" COMMENT="" />
    <EXPORT ORDINAL="1590" NAME="_ZNKSt9basic_iosIcSt11char_traitsIcEE4fillEv" PURGE="0" COMMENT="" />
    <EXPORT ORDINAL="1591" NAME="_ZNKSt9basic_iosIcSt11char_traitsIcEE4goodEv" PURGE="0" COMMENT="" />
    <EXPORT ORDINAL="1592" NAME="_ZNKSt9basic_iosIcSt11char_traitsIcEE5rdbufEv" PURGE="0" COMMENT="" />
    <EXPORT ORDINAL="1593" NAME="_ZNKSt9basic_iosIcSt11char_traitsIcEE5widenEc" PURGE="0" COMMENT="" />
    <EXPORT ORDINAL="1594" NAME="_ZNKSt9basic_iosIcSt11char_traitsIcEE6narrowEcc" PURGE="0" COMMENT="" />
    <EXPORT ORDINAL="1595" NAME="_ZNKSt9basic_iosIcSt11char_traitsIcEE7rdstateEv" PURGE="0" COMMENT="" />
    <EXPORT ORDINAL="1596" NAME="_ZNKSt9basic_iosIcSt11char_traitsIcEEcvPvEv" PURGE="0" COMMENT="" />
    <EXPORT ORDINAL="1597" NAME="_ZNKSt9basic_iosIcSt11char_traitsIcEEcvbEv" PURGE="0" COMMENT="" />
    <EXPORT ORDINAL="1598" NAME="_ZNKSt9basic_iosIcSt11char_traitsIcEEntEv" PURGE="0" COMMENT="" />
    <EXPORT ORDINAL="1599" NAME="_ZNKSt9basic_iosIwSt11char_traitsIwEE10exceptionsEv" PURGE="0" COMMENT="" />
    <EXPORT ORDINAL="1600" NAME="_ZNKSt9basic_iosIwSt11char_traitsIwEE3badEv" PURGE="0" COMMENT="" />
    <EXPORT ORDINAL="1601" NAME="_ZNKSt9basic_iosIwSt11char_traitsIwEE3eofEv" PURGE="0" COMMENT="" />
    <EXPORT ORDINAL="1602" NAME="_ZNKSt9basic_iosIwSt11char_traitsIwEE3tieEv" PURGE="0" COMMENT="" />
    <EXPORT ORDINAL="1603" NAME="_ZNKSt9basic_iosIwSt11char_traitsIwEE4failEv" PURGE="0" COMMENT="" />
    <EXPORT ORDINAL="1604" NAME="_ZNKSt9basic_iosIwSt11char_traitsIwEE4fillEv" PURGE="0" COMMENT="" />
    <EXPORT ORDINAL="1605" NAME="_ZNKSt9basic_iosIwSt11char_traitsIwEE4goodEv" PURGE="0" COMMENT="" />
    <EXPORT ORDINAL="1606" NAME="_ZNKSt9basic_iosIwSt11char_traitsIwEE5rdbufEv" PURGE="0" COMMENT="" />
    <EXPORT ORDINAL="1607" NAME="_ZNKSt9basic_iosIwSt11char_traitsIwEE5widenEc" PURGE="0" COMMENT="" />
    <EXPORT ORDINAL="1608" NAME="_ZNKSt9basic_iosIwSt11char_traitsIwEE6narrowEwc" PURGE="0" COMMENT="" />
    <EXPORT ORDINAL="1609" NAME="_ZNKSt9basic_iosIwSt11char_traitsIwEE7rdstateEv" PURGE="0" COMMENT="" />
    <EXPORT ORDINAL="1610" NAME="_ZNKSt9basic_iosIwSt11char_traitsIwEEcvPvEv" PURGE="0" COMMENT="" />
    <EXPORT ORDINAL="1611" NAME="_ZNKSt9basic_iosIwSt11char_traitsIwEEcvbEv" PURGE="0" COMMENT="" />
    <EXPORT ORDINAL="1612" NAME="_ZNKSt9basic_iosIwSt11char_traitsIwEEntEv" PURGE="0" COMMENT="" />
    <EXPORT ORDINAL="1613" NAME="_ZNKSt9exception4whatEv" PURGE="0" COMMENT="" />
    <EXPORT ORDINAL="1614" NAME="_ZNKSt9money_getIcSt19istreambuf_iteratorIcSt11char_traitsIcEEE10_M_extractILb0EEES3_S3_S3_RSt8ios_baseRSt12_Ios_IostateRSs" PURGE="0" COMMENT="" />
    <EXPORT ORDINAL="1615" NAME="_ZNKSt9money_getIcSt19istreambuf_iteratorIcSt11char_traitsIcEEE10_M_extractILb1EEES3_S3_S3_RSt8ios_baseRSt12_Ios_IostateRSs" PURGE="0" COMMENT="" />
    <EXPORT ORDINAL="1616" NAME="_ZNKSt9money_getIcSt19istreambuf_iteratorIcSt11char_traitsIcEEE3getES3_S3_bRSt8ios_baseRSt12_Ios_IostateRSs" PURGE="0" COMMENT="" />
    <EXPORT ORDINAL="1617" NAME="_ZNKSt9money_getIcSt19istreambuf_iteratorIcSt11char_traitsIcEEE3getES3_S3_bRSt8ios_baseRSt12_Ios_IostateRe" PURGE="0" COMMENT="" />
    <EXPORT ORDINAL="1618" NAME="_ZNKSt9money_getIcSt19istreambuf_iteratorIcSt11char_traitsIcEEE6do_getES3_S3_bRSt8ios_baseRSt12_Ios_IostateRSs" PURGE="0" COMMENT="" />
    <EXPORT ORDINAL="1619" NAME="_ZNKSt9money_getIcSt19istreambuf_iteratorIcSt11char_traitsIcEEE6do_getES3_S3_bRSt8ios_baseRSt12_Ios_IostateRe" PURGE="0" COMMENT="" />
    <EXPORT ORDINAL="1620" NAME="_ZNKSt9money_getIwSt19istreambuf_iteratorIwSt11char_traitsIwEEE10_M_extractILb0EEES3_S3_S3_RSt8ios_baseRSt12_Ios_IostateRSs" PURGE="0" COMMENT="" />
    <EXPORT ORDINAL="1621" NAME="_ZNKSt9money_getIwSt19istreambuf_iteratorIwSt11char_traitsIwEEE10_M_extractILb1EEES3_S3_S3_RSt8ios_baseRSt12_Ios_IostateRSs" PURGE="0" COMMENT="" />
    <EXPORT ORDINAL="1622" NAME="_ZNKSt9money_getIwSt19istreambuf_iteratorIwSt11char_traitsIwEEE3getES3_S3_bRSt8ios_baseRSt12_Ios_IostateRSbIwS2_SaIwEE" PURGE="0" COMMENT="" />
    <EXPORT ORDINAL="1623" NAME="_ZNKSt9money_getIwSt19istreambuf_iteratorIwSt11char_traitsIwEEE3getES3_S3_bRSt8ios_baseRSt12_Ios_IostateRe" PURGE="0" COMMENT="" />
    <EXPORT ORDINAL="1624" NAME="_ZNKSt9money_getIwSt19istreambuf_iteratorIwSt11char_traitsIwEEE6do_getES3_S3_bRSt8ios_baseRSt12_Ios_IostateRSbIwS2_SaIwEE" PURGE="0" COMMENT="" />
    <EXPORT ORDINAL="1625" NAME="_ZNKSt9money_getIwSt19istreambuf_iteratorIwSt11char_traitsIwEEE6do_getES3_S3_bRSt8ios_baseRSt12_Ios_IostateRe" PURGE="0" COMMENT="" />
    <EXPORT ORDINAL="1626" NAME="_ZNKSt9money_putIcSt19ostreambuf_iteratorIcSt11char_traitsIcEEE3putES3_bRSt8ios_basecRKSs" PURGE="0" COMMENT="" />
    <EXPORT ORDINAL="1627" NAME="_ZNKSt9money_putIcSt19ostreambuf_iteratorIcSt11char_traitsIcEEE3putES3_bRSt8ios_basece" PURGE="0" COMMENT="" />
    <EXPORT ORDINAL="1628" NAME="_ZNKSt9money_putIcSt19ostreambuf_iteratorIcSt11char_traitsIcEEE6do_putES3_bRSt8ios_basecRKSs" PURGE="0" COMMENT="" />
    <EXPORT ORDINAL="1629" NAME="_ZNKSt9money_putIcSt19ostreambuf_iteratorIcSt11char_traitsIcEEE6do_putES3_bRSt8ios_basece" PURGE="0" COMMENT="" />
    <EXPORT ORDINAL="1630" NAME="_ZNKSt9money_putIcSt19ostreambuf_iteratorIcSt11char_traitsIcEEE9_M_insertILb0EEES3_S3_RSt8ios_basecRKSs" PURGE="0" COMMENT="" />
    <EXPORT ORDINAL="1631" NAME="_ZNKSt9money_putIcSt19ostreambuf_iteratorIcSt11char_traitsIcEEE9_M_insertILb1EEES3_S3_RSt8ios_basecRKSs" PURGE="0" COMMENT="" />
    <EXPORT ORDINAL="1632" NAME="_ZNKSt9money_putIwSt19ostreambuf_iteratorIwSt11char_traitsIwEEE3putES3_bRSt8ios_basewRKSbIwS2_SaIwEE" PURGE="0" COMMENT="" />
    <EXPORT ORDINAL="1633" NAME="_ZNKSt9money_putIwSt19ostreambuf_iteratorIwSt11char_traitsIwEEE3putES3_bRSt8ios_basewe" PURGE="0" COMMENT="" />
    <EXPORT ORDINAL="1634" NAME="_ZNKSt9money_putIwSt19ostreambuf_iteratorIwSt11char_traitsIwEEE6do_putES3_bRSt8ios_basewRKSbIwS2_SaIwEE" PURGE="0" COMMENT="" />
    <EXPORT ORDINAL="1635" NAME="_ZNKSt9money_putIwSt19ostreambuf_iteratorIwSt11char_traitsIwEEE6do_putES3_bRSt8ios_basewe" PURGE="0" COMMENT="" />
    <EXPORT ORDINAL="1636" NAME="_ZNKSt9money_putIwSt19ostreambuf_iteratorIwSt11char_traitsIwEEE9_M_insertILb0EEES3_S3_RSt8ios_basewRKSbIwS2_SaIwEE" PURGE="0" COMMENT="" />
    <EXPORT ORDINAL="1637" NAME="_ZNKSt9money_putIwSt19ostreambuf_iteratorIwSt11char_traitsIwEEE9_M_insertILb1EEES3_S3_RSt8ios_basewRKSbIwS2_SaIwEE" PURGE="0" COMMENT="" />
    <EXPORT ORDINAL="1638" NAME="_ZNKSt9strstream5rdbufEv" PURGE="0" COMMENT="" />
    <EXPORT ORDINAL="1639" NAME="_ZNKSt9strstream6pcountEv" PURGE="0" COMMENT="" />
    <EXPORT ORDINAL="1640" NAME="_ZNKSt9type_info10__do_catchEPKS_PPvj" PURGE="0" COMMENT="" />
    <EXPORT ORDINAL="1641" NAME="_ZNKSt9type_info11__do_upcastEPKN10__cxxabiv117__class_type_infoEPPv" PURGE="0" COMMENT="" />
    <EXPORT ORDINAL="1642" NAME="_ZNKSt9type_info14__is_pointer_pEv" PURGE="0" COMMENT="" />
    <EXPORT ORDINAL="1643" NAME="_ZNKSt9type_info15__is_function_pEv" PURGE="0" COMMENT="" />
    <EXPORT ORDINAL="1644" NAME="_ZNKSt9type_info6beforeERKS_" PURGE="0" COMMENT="" />
    <EXPORT ORDINAL="1645" NAME="_ZNKSt9type_info7__equalERKS_" PURGE="0" COMMENT="" />
    <EXPORT ORDINAL="1646" NAME="_ZNKSt9type_infoeqERKS_" PURGE="0" COMMENT="" />
    <EXPORT ORDINAL="1647" NAME="_ZNOSt7__cxx1115basic_stringbufIcSt11char_traitsIcESaIcEE3strEv" PURGE="0" COMMENT="" />
    <EXPORT ORDINAL="1648" NAME="_ZNOSt7__cxx1115basic_stringbufIwSt11char_traitsIwESaIwEE3strEv" PURGE="0" COMMENT="" />
    <EXPORT ORDINAL="1649" NAME="_ZNOSt7__cxx1118basic_stringstreamIcSt11char_traitsIcESaIcEE3strEv" PURGE="0" COMMENT="" />
    <EXPORT ORDINAL="1650" NAME="_ZNOSt7__cxx1118basic_stringstreamIwSt11char_traitsIwESaIwEE3strEv" PURGE="0" COMMENT="" />
    <EXPORT ORDINAL="1651" NAME="_ZNOSt7__cxx1119basic_istringstreamIcSt11char_traitsIcESaIcEE3strEv" PURGE="0" COMMENT="" />
    <EXPORT ORDINAL="1652" NAME="_ZNOSt7__cxx1119basic_istringstreamIwSt11char_traitsIwESaIwEE3strEv" PURGE="0" COMMENT="" />
    <EXPORT ORDINAL="1653" NAME="_ZNOSt7__cxx1119basic_ostringstreamIcSt11char_traitsIcESaIcEE3strEv" PURGE="0" COMMENT="" />
    <EXPORT ORDINAL="1654" NAME="_ZNOSt7__cxx1119basic_ostringstreamIwSt11char_traitsIwESaIwEE3strEv" PURGE="0" COMMENT="" />
    <EXPORT ORDINAL="1655" NAME="_ZNSaIcEC1ERKS_" PURGE="0" COMMENT="" />
    <EXPORT ORDINAL="1656" NAME="_ZNSaIcEC1Ev" PURGE="0" COMMENT="" />
    <EXPORT ORDINAL="1657" NAME="_ZNSaIcEC2ERKS_" PURGE="0" COMMENT="" />
    <EXPORT ORDINAL="1658" NAME="_ZNSaIcEC2Ev" PURGE="0" COMMENT="" />
    <EXPORT ORDINAL="1659" NAME="_ZNSaIcED1Ev" PURGE="0" COMMENT="" />
    <EXPORT ORDINAL="1660" NAME="_ZNSaIcED2Ev" PURGE="0" COMMENT="" />
    <EXPORT ORDINAL="1661" NAME="_ZNSaIwEC1ERKS_" PURGE="0" COMMENT="" />
    <EXPORT ORDINAL="1662" NAME="_ZNSaIwEC1Ev" PURGE="0" COMMENT="" />
    <EXPORT ORDINAL="1663" NAME="_ZNSaIwEC2ERKS_" PURGE="0" COMMENT="" />
    <EXPORT ORDINAL="1664" NAME="_ZNSaIwEC2Ev" PURGE="0" COMMENT="" />
    <EXPORT ORDINAL="1665" NAME="_ZNSaIwED1Ev" PURGE="0" COMMENT="" />
    <EXPORT ORDINAL="1666" NAME="_ZNSaIwED2Ev" PURGE="0" COMMENT="" />
    <EXPORT ORDINAL="1667" NAME="_ZNSbIwSt11char_traitsIwESaIwEE10_S_compareEyy" PURGE="0" COMMENT="" />
    <EXPORT ORDINAL="1668" NAME="_ZNSbIwSt11char_traitsIwESaIwEE12_Alloc_hiderC1EPwRKS1_" PURGE="0" COMMENT="" />
    <EXPORT ORDINAL="1669" NAME="_ZNSbIwSt11char_traitsIwESaIwEE12_Alloc_hiderC2EPwRKS1_" PURGE="0" COMMENT="" />
    <EXPORT ORDINAL="1670" NAME="_ZNSbIwSt11char_traitsIwESaIwEE12_M_leak_hardEv" PURGE="0" COMMENT="" />
    <EXPORT ORDINAL="1671" NAME="_ZNSbIwSt11char_traitsIwESaIwEE12_S_constructEywRKS1_" PURGE="0" COMMENT="" />
    <EXPORT ORDINAL="1672" NAME="_ZNSbIwSt11char_traitsIwESaIwEE12_S_constructIN9__gnu_cxx17__normal_iteratorIPwS2_EEEES6_T_S8_RKS1_St20forward_iterator_tag" PURGE="0" COMMENT="" />
    <EXPORT ORDINAL="1673" NAME="_ZNSbIwSt11char_traitsIwESaIwEE12_S_constructIPKwEEPwT_S7_RKS1_St20forward_iterator_tag" PURGE="0" COMMENT="" />
    <EXPORT ORDINAL="1674" NAME="_ZNSbIwSt11char_traitsIwESaIwEE12_S_constructIPwEES4_T_S5_RKS1_St20forward_iterator_tag" PURGE="0" COMMENT="" />
    <EXPORT ORDINAL="1675" NAME="_ZNSbIwSt11char_traitsIwESaIwEE12_S_empty_repEv" PURGE="0" COMMENT="" />
    <EXPORT ORDINAL="1676" NAME="_ZNSbIwSt11char_traitsIwESaIwEE12__sv_wrapperC1ESt17basic_string_viewIwS0_E" PURGE="0" COMMENT="" />
    <EXPORT ORDINAL="1677" NAME="_ZNSbIwSt11char_traitsIwESaIwEE12__sv_wrapperC2ESt17basic_string_viewIwS0_E" PURGE="0" COMMENT="" />
    <EXPORT ORDINAL="1678" NAME="_ZNSbIwSt11char_traitsIwESaIwEE13_S_copy_charsEPwN9__gnu_cxx17__normal_iteratorIPKwS2_EES8_" PURGE="0" COMMENT="" />
    <EXPORT ORDINAL="1679" NAME="_ZNSbIwSt11char_traitsIwESaIwEE13_S_copy_charsEPwN9__gnu_cxx17__normal_iteratorIS3_S2_EES6_" PURGE="0" COMMENT="" />
    <EXPORT ORDINAL="1680" NAME="_ZNSbIwSt11char_traitsIwESaIwEE13_S_copy_charsEPwPKwS5_" PURGE="0" COMMENT="" />
    <EXPORT ORDINAL="1681" NAME="_ZNSbIwSt11char_traitsIwESaIwEE13_S_copy_charsEPwS3_S3_" PURGE="0" COMMENT="" />
    <EXPORT ORDINAL="1682" NAME="_ZNSbIwSt11char_traitsIwESaIwEE13shrink_to_fitEv" PURGE="0" COMMENT="" />
    <EXPORT ORDINAL="1683" NAME="_ZNSbIwSt11char_traitsIwESaIwEE14_M_replace_auxEyyyw" PURGE="0" COMMENT="" />
    <EXPORT ORDINAL="1684" NAME="_ZNSbIwSt11char_traitsIwESaIwEE15_M_replace_safeEyyPKwy" PURGE="0" COMMENT="" />
    <EXPORT ORDINAL="1685" NAME="_ZNSbIwSt11char_traitsIwESaIwEE17_S_to_string_viewESt17basic_string_viewIwS0_E" PURGE="0" COMMENT="" />
    <EXPORT ORDINAL="1686" NAME="_ZNSbIwSt11char_traitsIwESaIwEE18_S_construct_aux_2EywRKS1_" PURGE="0" COMMENT="" />
    <EXPORT ORDINAL="1687" NAME="_ZNSbIwSt11char_traitsIwESaIwEE2atEy" PURGE="0" COMMENT="" />
    <EXPORT ORDINAL="1688" NAME="_ZNSbIwSt11char_traitsIwESaIwEE3endEv" PURGE="0" COMMENT="" />
    <EXPORT ORDINAL="1689" NAME="_ZNSbIwSt11char_traitsIwESaIwEE4_Rep10_M_destroyERKS1_" PURGE="-1" COMMENT="" />
    <EXPORT ORDINAL="1690" NAME="_ZNSbIwSt11char_traitsIwESaIwEE4_Rep10_M_disposeERKS1_" PURGE="0" COMMENT="" />
    <EXPORT ORDINAL="1691" NAME="_ZNSbIwSt11char_traitsIwESaIwEE4_Rep10_M_refcopyEv" PURGE="0" COMMENT="" />
    <EXPORT ORDINAL="1692" NAME="_ZNSbIwSt11char_traitsIwESaIwEE4_Rep10_M_refdataEv" PURGE="0" COMMENT="" />
    <EXPORT ORDINAL="1693" NAME="_ZNSbIwSt11char_traitsIwESaIwEE4_Rep11_S_max_sizeE" PURGE="-1" COMMENT="" />
    <EXPORT ORDINAL="1694" NAME="_ZNSbIwSt11char_traitsIwESaIwEE4_Rep11_S_terminalE" PURGE="-1" COMMENT="" />
    <EXPORT ORDINAL="1695" NAME="_ZNSbIwSt11char_traitsIwESaIwEE4_Rep12_S_empty_repEv" PURGE="0" COMMENT="" />
    <EXPORT ORDINAL="1696" NAME="_ZNSbIwSt11char_traitsIwESaIwEE4_Rep13_M_set_leakedEv" PURGE="0" COMMENT="" />
    <EXPORT ORDINAL="1697" NAME="_ZNSbIwSt11char_traitsIwESaIwEE4_Rep15_M_set_sharableEv" PURGE="0" COMMENT="" />
    <EXPORT ORDINAL="1698" NAME="_ZNSbIwSt11char_traitsIwESaIwEE4_Rep20_S_empty_rep_storageE" PURGE="-1" COMMENT="" />
    <EXPORT ORDINAL="1699" NAME="_ZNSbIwSt11char_traitsIwESaIwEE4_Rep26_M_set_length_and_sharableEy" PURGE="0" COMMENT="" />
    <EXPORT ORDINAL="1700" NAME="_ZNSbIwSt11char_traitsIwESaIwEE4_Rep7_M_grabERKS1_S5_" PURGE="0" COMMENT="" />
    <EXPORT ORDINAL="1701" NAME="_ZNSbIwSt11char_traitsIwESaIwEE4_Rep8_M_cloneERKS1_y" PURGE="0" COMMENT="" />
    <EXPORT ORDINAL="1702" NAME="_ZNSbIwSt11char_traitsIwESaIwEE4_Rep9_S_createEyyRKS1_" PURGE="0" COMMENT="" />
    <EXPORT ORDINAL="1703" NAME="_ZNSbIwSt11char_traitsIwESaIwEE4backEv" PURGE="0" COMMENT="" />
    <EXPORT ORDINAL="1704" NAME="_ZNSbIwSt11char_traitsIwESaIwEE4dataEv" PURGE="0" COMMENT="" />
    <EXPORT ORDINAL="1705" NAME="_ZNSbIwSt11char_traitsIwESaIwEE4nposE" PURGE="-1" COMMENT="" />
    <EXPORT ORDINAL="1706" NAME="_ZNSbIwSt11char_traitsIwESaIwEE4rendEv" PURGE="0" COMMENT="" />
    <EXPORT ORDINAL="1707" NAME="_ZNSbIwSt11char_traitsIwESaIwEE4swapERS2_" PURGE="0" COMMENT="" />
    <EXPORT ORDINAL="1708" NAME="_ZNSbIwSt11char_traitsIwESaIwEE5beginEv" PURGE="0" COMMENT="" />
    <EXPORT ORDINAL="1709" NAME="_ZNSbIwSt11char_traitsIwESaIwEE5clearEv" PURGE="0" COMMENT="" />
    <EXPORT ORDINAL="1710" NAME="_ZNSbIwSt11char_traitsIwESaIwEE5eraseEN9__gnu_cxx17__normal_iteratorIPwS2_EE" PURGE="0" COMMENT="" />
    <EXPORT ORDINAL="1711" NAME="_ZNSbIwSt11char_traitsIwESaIwEE5eraseEN9__gnu_cxx17__normal_iteratorIPwS2_EES6_" PURGE="0" COMMENT="" />
    <EXPORT ORDINAL="1712" NAME="_ZNSbIwSt11char_traitsIwESaIwEE5eraseEyy" PURGE="0" COMMENT="" />
    <EXPORT ORDINAL="1713" NAME="_ZNSbIwSt11char_traitsIwESaIwEE5frontEv" PURGE="0" COMMENT="" />
    <EXPORT ORDINAL="1714" NAME="_ZNSbIwSt11char_traitsIwESaIwEE6appendEPKw" PURGE="0" COMMENT="" />
    <EXPORT ORDINAL="1715" NAME="_ZNSbIwSt11char_traitsIwESaIwEE6appendEPKwy" PURGE="0" COMMENT="" />
    <EXPORT ORDINAL="1716" NAME="_ZNSbIwSt11char_traitsIwESaIwEE6appendERKS2_" PURGE="0" COMMENT="" />
    <EXPORT ORDINAL="1717" NAME="_ZNSbIwSt11char_traitsIwESaIwEE6appendERKS2_yy" PURGE="0" COMMENT="" />
    <EXPORT ORDINAL="1718" NAME="_ZNSbIwSt11char_traitsIwESaIwEE6appendESt16initializer_listIwE" PURGE="0" COMMENT="" />
    <EXPORT ORDINAL="1719" NAME="_ZNSbIwSt11char_traitsIwESaIwEE6appendEyw" PURGE="0" COMMENT="" />
    <EXPORT ORDINAL="1720" NAME="_ZNSbIwSt11char_traitsIwESaIwEE6assignEOS2_" PURGE="0" COMMENT="" />
    <EXPORT ORDINAL="1721" NAME="_ZNSbIwSt11char_traitsIwESaIwEE6assignEPKw" PURGE="0" COMMENT="" />
    <EXPORT ORDINAL="1722" NAME="_ZNSbIwSt11char_traitsIwESaIwEE6assignEPKwy" PURGE="0" COMMENT="" />
    <EXPORT ORDINAL="1723" NAME="_ZNSbIwSt11char_traitsIwESaIwEE6assignERKS2_" PURGE="0" COMMENT="" />
    <EXPORT ORDINAL="1724" NAME="_ZNSbIwSt11char_traitsIwESaIwEE6assignERKS2_yy" PURGE="0" COMMENT="" />
    <EXPORT ORDINAL="1725" NAME="_ZNSbIwSt11char_traitsIwESaIwEE6assignESt16initializer_listIwE" PURGE="0" COMMENT="" />
    <EXPORT ORDINAL="1726" NAME="_ZNSbIwSt11char_traitsIwESaIwEE6assignEyw" PURGE="0" COMMENT="" />
    <EXPORT ORDINAL="1727" NAME="_ZNSbIwSt11char_traitsIwESaIwEE6insertEN9__gnu_cxx17__normal_iteratorIPwS2_EESt16initializer_listIwE" PURGE="0" COMMENT="" />
    <EXPORT ORDINAL="1728" NAME="_ZNSbIwSt11char_traitsIwESaIwEE6insertEN9__gnu_cxx17__normal_iteratorIPwS2_EEw" PURGE="0" COMMENT="" />
    <EXPORT ORDINAL="1729" NAME="_ZNSbIwSt11char_traitsIwESaIwEE6insertEN9__gnu_cxx17__normal_iteratorIPwS2_EEyw" PURGE="0" COMMENT="" />
    <EXPORT ORDINAL="1730" NAME="_ZNSbIwSt11char_traitsIwESaIwEE6insertEyPKw" PURGE="0" COMMENT="" />
    <EXPORT ORDINAL="1731" NAME="_ZNSbIwSt11char_traitsIwESaIwEE6insertEyPKwy" PURGE="0" COMMENT="" />
    <EXPORT ORDINAL="1732" NAME="_ZNSbIwSt11char_traitsIwESaIwEE6insertEyRKS2_" PURGE="0" COMMENT="" />
    <EXPORT ORDINAL="1733" NAME="_ZNSbIwSt11char_traitsIwESaIwEE6insertEyRKS2_yy" PURGE="0" COMMENT="" />
    <EXPORT ORDINAL="1734" NAME="_ZNSbIwSt11char_traitsIwESaIwEE6insertEyyw" PURGE="0" COMMENT="" />
    <EXPORT ORDINAL="1735" NAME="_ZNSbIwSt11char_traitsIwESaIwEE6rbeginEv" PURGE="0" COMMENT="" />
    <EXPORT ORDINAL="1736" NAME="_ZNSbIwSt11char_traitsIwESaIwEE6resizeEy" PURGE="0" COMMENT="" />
    <EXPORT ORDINAL="1737" NAME="_ZNSbIwSt11char_traitsIwESaIwEE6resizeEyw" PURGE="0" COMMENT="" />
    <EXPORT ORDINAL="1738" NAME="_ZNSbIwSt11char_traitsIwESaIwEE7_M_copyEPwPKwy" PURGE="0" COMMENT="" />
    <EXPORT ORDINAL="1739" NAME="_ZNSbIwSt11char_traitsIwESaIwEE7_M_dataEPw" PURGE="0" COMMENT="" />
    <EXPORT ORDINAL="1740" NAME="_ZNSbIwSt11char_traitsIwESaIwEE7_M_leakEv" PURGE="0" COMMENT="" />
    <EXPORT ORDINAL="1741" NAME="_ZNSbIwSt11char_traitsIwESaIwEE7_M_moveEPwPKwy" PURGE="0" COMMENT="" />
    <EXPORT ORDINAL="1742" NAME="_ZNSbIwSt11char_traitsIwESaIwEE7replaceEN9__gnu_cxx17__normal_iteratorIPwS2_EES6_NS4_IPKwS2_EES9_" PURGE="0" COMMENT="" />
    <EXPORT ORDINAL="1743" NAME="_ZNSbIwSt11char_traitsIwESaIwEE7replaceEN9__gnu_cxx17__normal_iteratorIPwS2_EES6_PKw" PURGE="0" COMMENT="" />
    <EXPORT ORDINAL="1744" NAME="_ZNSbIwSt11char_traitsIwESaIwEE7replaceEN9__gnu_cxx17__normal_iteratorIPwS2_EES6_PKwS8_" PURGE="0" COMMENT="" />
    <EXPORT ORDINAL="1745" NAME="_ZNSbIwSt11char_traitsIwESaIwEE7replaceEN9__gnu_cxx17__normal_iteratorIPwS2_EES6_PKwy" PURGE="0" COMMENT="" />
    <EXPORT ORDINAL="1746" NAME="_ZNSbIwSt11char_traitsIwESaIwEE7replaceEN9__gnu_cxx17__normal_iteratorIPwS2_EES6_RKS2_" PURGE="0" COMMENT="" />
    <EXPORT ORDINAL="1747" NAME="_ZNSbIwSt11char_traitsIwESaIwEE7replaceEN9__gnu_cxx17__normal_iteratorIPwS2_EES6_S5_S5_" PURGE="0" COMMENT="" />
    <EXPORT ORDINAL="1748" NAME="_ZNSbIwSt11char_traitsIwESaIwEE7replaceEN9__gnu_cxx17__normal_iteratorIPwS2_EES6_S6_S6_" PURGE="0" COMMENT="" />
    <EXPORT ORDINAL="1749" NAME="_ZNSbIwSt11char_traitsIwESaIwEE7replaceEN9__gnu_cxx17__normal_iteratorIPwS2_EES6_St16initializer_listIwE" PURGE="0" COMMENT="" />
    <EXPORT ORDINAL="1750" NAME="_ZNSbIwSt11char_traitsIwESaIwEE7replaceEN9__gnu_cxx17__normal_iteratorIPwS2_EES6_yw" PURGE="0" COMMENT="" />
    <EXPORT ORDINAL="1751" NAME="_ZNSbIwSt11char_traitsIwESaIwEE7replaceEyyPKw" PURGE="0" COMMENT="" />
    <EXPORT ORDINAL="1752" NAME="_ZNSbIwSt11char_traitsIwESaIwEE7replaceEyyPKwy" PURGE="0" COMMENT="" />
    <EXPORT ORDINAL="1753" NAME="_ZNSbIwSt11char_traitsIwESaIwEE7replaceEyyRKS2_" PURGE="0" COMMENT="" />
    <EXPORT ORDINAL="1754" NAME="_ZNSbIwSt11char_traitsIwESaIwEE7replaceEyyRKS2_yy" PURGE="0" COMMENT="" />
    <EXPORT ORDINAL="1755" NAME="_ZNSbIwSt11char_traitsIwESaIwEE7replaceEyyyw" PURGE="0" COMMENT="" />
    <EXPORT ORDINAL="1756" NAME="_ZNSbIwSt11char_traitsIwESaIwEE7reserveEv" PURGE="0" COMMENT="" />
    <EXPORT ORDINAL="1757" NAME="_ZNSbIwSt11char_traitsIwESaIwEE7reserveEy" PURGE="0" COMMENT="" />
    <EXPORT ORDINAL="1758" NAME="_ZNSbIwSt11char_traitsIwESaIwEE8pop_backEv" PURGE="0" COMMENT="" />
    <EXPORT ORDINAL="1759" NAME="_ZNSbIwSt11char_traitsIwESaIwEE9_M_assignEPwyw" PURGE="0" COMMENT="" />
    <EXPORT ORDINAL="1760" NAME="_ZNSbIwSt11char_traitsIwESaIwEE9_M_mutateEyyy" PURGE="0" COMMENT="" />
    <EXPORT ORDINAL="1761" NAME="_ZNSbIwSt11char_traitsIwESaIwEE9push_backEw" PURGE="0" COMMENT="" />
    <EXPORT ORDINAL="1762" NAME="_ZNSbIwSt11char_traitsIwESaIwEEC1ENS2_12__sv_wrapperERKS1_" PURGE="0" COMMENT="" />
    <EXPORT ORDINAL="1763" NAME="_ZNSbIwSt11char_traitsIwESaIwEEC1EOS2_" PURGE="0" COMMENT="" />
    <EXPORT ORDINAL="1764" NAME="_ZNSbIwSt11char_traitsIwESaIwEEC1EOS2_RKS1_" PURGE="0" COMMENT="" />
    <EXPORT ORDINAL="1765" NAME="_ZNSbIwSt11char_traitsIwESaIwEEC1EPKwRKS1_" PURGE="0" COMMENT="" />
    <EXPORT ORDINAL="1766" NAME="_ZNSbIwSt11char_traitsIwESaIwEEC1EPKwyRKS1_" PURGE="0" COMMENT="" />
    <EXPORT ORDINAL="1767" NAME="_ZNSbIwSt11char_traitsIwESaIwEEC1ERKS1_" PURGE="0" COMMENT="" />
    <EXPORT ORDINAL="1768" NAME="_ZNSbIwSt11char_traitsIwESaIwEEC1ERKS2_" PURGE="0" COMMENT="" />
    <EXPORT ORDINAL="1769" NAME="_ZNSbIwSt11char_traitsIwESaIwEEC1ERKS2_RKS1_" PURGE="0" COMMENT="" />
    <EXPORT ORDINAL="1770" NAME="_ZNSbIwSt11char_traitsIwESaIwEEC1ERKS2_yRKS1_" PURGE="0" COMMENT="" />
    <EXPORT ORDINAL="1771" NAME="_ZNSbIwSt11char_traitsIwESaIwEEC1ERKS2_yy" PURGE="0" COMMENT="" />
    <EXPORT ORDINAL="1772" NAME="_ZNSbIwSt11char_traitsIwESaIwEEC1ERKS2_yyRKS1_" PURGE="0" COMMENT="" />
    <EXPORT ORDINAL="1773" NAME="_ZNSbIwSt11char_traitsIwESaIwEEC1ESt16initializer_listIwERKS1_" PURGE="0" COMMENT="" />
    <EXPORT ORDINAL="1774" NAME="_ZNSbIwSt11char_traitsIwESaIwEEC1Ev" PURGE="0" COMMENT="" />
    <EXPORT ORDINAL="1775" NAME="_ZNSbIwSt11char_traitsIwESaIwEEC1EywRKS1_" PURGE="0" COMMENT="" />
    <EXPORT ORDINAL="1776" NAME="_ZNSbIwSt11char_traitsIwESaIwEEC1IN9__gnu_cxx17__normal_iteratorIPwS2_EEEET_S8_RKS1_" PURGE="0" COMMENT="" />
    <EXPORT ORDINAL="1777" NAME="_ZNSbIwSt11char_traitsIwESaIwEEC1IPKwEET_S6_RKS1_" PURGE="0" COMMENT="" />
    <EXPORT ORDINAL="1778" NAME="_ZNSbIwSt11char_traitsIwESaIwEEC1IPwEET_S5_RKS1_" PURGE="0" COMMENT="" />
    <EXPORT ORDINAL="1779" NAME="_ZNSbIwSt11char_traitsIwESaIwEEC2ENS2_12__sv_wrapperERKS1_" PURGE="0" COMMENT="" />
    <EXPORT ORDINAL="1780" NAME="_ZNSbIwSt11char_traitsIwESaIwEEC2EOS2_" PURGE="0" COMMENT="" />
    <EXPORT ORDINAL="1781" NAME="_ZNSbIwSt11char_traitsIwESaIwEEC2EOS2_RKS1_" PURGE="0" COMMENT="" />
    <EXPORT ORDINAL="1782" NAME="_ZNSbIwSt11char_traitsIwESaIwEEC2EPKwRKS1_" PURGE="0" COMMENT="" />
    <EXPORT ORDINAL="1783" NAME="_ZNSbIwSt11char_traitsIwESaIwEEC2EPKwyRKS1_" PURGE="0" COMMENT="" />
    <EXPORT ORDINAL="1784" NAME="_ZNSbIwSt11char_traitsIwESaIwEEC2ERKS1_" PURGE="0" COMMENT="" />
    <EXPORT ORDINAL="1785" NAME="_ZNSbIwSt11char_traitsIwESaIwEEC2ERKS2_" PURGE="0" COMMENT="" />
    <EXPORT ORDINAL="1786" NAME="_ZNSbIwSt11char_traitsIwESaIwEEC2ERKS2_RKS1_" PURGE="0" COMMENT="" />
    <EXPORT ORDINAL="1787" NAME="_ZNSbIwSt11char_traitsIwESaIwEEC2ERKS2_yRKS1_" PURGE="0" COMMENT="" />
    <EXPORT ORDINAL="1788" NAME="_ZNSbIwSt11char_traitsIwESaIwEEC2ERKS2_yy" PURGE="0" COMMENT="" />
    <EXPORT ORDINAL="1789" NAME="_ZNSbIwSt11char_traitsIwESaIwEEC2ERKS2_yyRKS1_" PURGE="0" COMMENT="" />
    <EXPORT ORDINAL="1790" NAME="_ZNSbIwSt11char_traitsIwESaIwEEC2ESt16initializer_listIwERKS1_" PURGE="0" COMMENT="" />
    <EXPORT ORDINAL="1791" NAME="_ZNSbIwSt11char_traitsIwESaIwEEC2Ev" PURGE="0" COMMENT="" />
    <EXPORT ORDINAL="1792" NAME="_ZNSbIwSt11char_traitsIwESaIwEEC2EywRKS1_" PURGE="0" COMMENT="" />
    <EXPORT ORDINAL="1793" NAME="_ZNSbIwSt11char_traitsIwESaIwEEC2IN9__gnu_cxx17__normal_iteratorIPwS2_EEEET_S8_RKS1_" PURGE="0" COMMENT="" />
    <EXPORT ORDINAL="1794" NAME="_ZNSbIwSt11char_traitsIwESaIwEEC2IPKwEET_S6_RKS1_" PURGE="0" COMMENT="" />
    <EXPORT ORDINAL="1795" NAME="_ZNSbIwSt11char_traitsIwESaIwEEC2IPwEET_S5_RKS1_" PURGE="0" COMMENT="" />
    <EXPORT ORDINAL="1796" NAME="_ZNSbIwSt11char_traitsIwESaIwEED1Ev" PURGE="0" COMMENT="" />
    <EXPORT ORDINAL="1797" NAME="_ZNSbIwSt11char_traitsIwESaIwEED2Ev" PURGE="0" COMMENT="" />
    <EXPORT ORDINAL="1798" NAME="_ZNSbIwSt11char_traitsIwESaIwEEaSEOS2_" PURGE="0" COMMENT="" />
    <EXPORT ORDINAL="1799" NAME="_ZNSbIwSt11char_traitsIwESaIwEEaSEPKw" PURGE="0" COMMENT="" />
    <EXPORT ORDINAL="1800" NAME="_ZNSbIwSt11char_traitsIwESaIwEEaSERKS2_" PURGE="0" COMMENT="" />
    <EXPORT ORDINAL="1801" NAME="_ZNSbIwSt11char_traitsIwESaIwEEaSESt16initializer_listIwE" PURGE="0" COMMENT="" />
    <EXPORT ORDINAL="1802" NAME="_ZNSbIwSt11char_traitsIwESaIwEEaSEw" PURGE="0" COMMENT="" />
    <EXPORT ORDINAL="1803" NAME="_ZNSbIwSt11char_traitsIwESaIwEEixEy" PURGE="0" COMMENT="" />
    <EXPORT ORDINAL="1804" NAME="_ZNSbIwSt11char_traitsIwESaIwEEpLEPKw" PURGE="0" COMMENT="" />
    <EXPORT ORDINAL="1805" NAME="_ZNSbIwSt11char_traitsIwESaIwEEpLERKS2_" PURGE="0" COMMENT="" />
    <EXPORT ORDINAL="1806" NAME="_ZNSbIwSt11char_traitsIwESaIwEEpLESt16initializer_listIwE" PURGE="0" COMMENT="" />
    <EXPORT ORDINAL="1807" NAME="_ZNSbIwSt11char_traitsIwESaIwEEpLEw" PURGE="0" COMMENT="" />
    <EXPORT ORDINAL="1808" NAME="_ZNSd4swapERSd" PURGE="0" COMMENT="" />
    <EXPORT ORDINAL="1809" NAME="_ZNSdC1EOSd" PURGE="0" COMMENT="" />
    <EXPORT ORDINAL="1810" NAME="_ZNSdC1EPSt15basic_streambufIcSt11char_traitsIcEE" PURGE="0" COMMENT="" />
    <EXPORT ORDINAL="1811" NAME="_ZNSdC1Ev" PURGE="0" COMMENT="" />
    <EXPORT ORDINAL="1812" NAME="_ZNSdC2EOSd" PURGE="0" COMMENT="" />
    <EXPORT ORDINAL="1813" NAME="_ZNSdC2EPSt15basic_streambufIcSt11char_traitsIcEE" PURGE="0" COMMENT="" />
    <EXPORT ORDINAL="1814" NAME="_ZNSdC2Ev" PURGE="0" COMMENT="" />
    <EXPORT ORDINAL="1815" NAME="_ZNSdD0Ev" PURGE="-1" COMMENT="" />
    <EXPORT ORDINAL="1816" NAME="_ZNSdD1Ev" PURGE="0" COMMENT="" />
    <EXPORT ORDINAL="1817" NAME="_ZNSdD2Ev" PURGE="0" COMMENT="" />
    <EXPORT ORDINAL="1818" NAME="_ZNSdaSEOSd" PURGE="0" COMMENT="" />
    <EXPORT ORDINAL="1819" NAME="_ZNSi10_M_extractIPvEERSiRT_" PURGE="0" COMMENT="" />
    <EXPORT ORDINAL="1820" NAME="_ZNSi10_M_extractIbEERSiRT_" PURGE="0" COMMENT="" />
    <EXPORT ORDINAL="1821" NAME="_ZNSi10_M_extractIdEERSiRT_" PURGE="0" COMMENT="" />
    <EXPORT ORDINAL="1822" NAME="_ZNSi10_M_extractIeEERSiRT_" PURGE="0" COMMENT="" />
    <EXPORT ORDINAL="1823" NAME="_ZNSi10_M_extractIfEERSiRT_" PURGE="0" COMMENT="" />
    <EXPORT ORDINAL="1824" NAME="_ZNSi10_M_extractIjEERSiRT_" PURGE="0" COMMENT="" />
    <EXPORT ORDINAL="1825" NAME="_ZNSi10_M_extractIlEERSiRT_" PURGE="0" COMMENT="" />
    <EXPORT ORDINAL="1826" NAME="_ZNSi10_M_extractImEERSiRT_" PURGE="0" COMMENT="" />
    <EXPORT ORDINAL="1827" NAME="_ZNSi10_M_extractItEERSiRT_" PURGE="0" COMMENT="" />
    <EXPORT ORDINAL="1828" NAME="_ZNSi10_M_extractIxEERSiRT_" PURGE="0" COMMENT="" />
    <EXPORT ORDINAL="1829" NAME="_ZNSi10_M_extractIyEERSiRT_" PURGE="0" COMMENT="" />
    <EXPORT ORDINAL="1830" NAME="_ZNSi3getEPcx" PURGE="0" COMMENT="" />
    <EXPORT ORDINAL="1831" NAME="_ZNSi3getEPcxc" PURGE="0" COMMENT="" />
    <EXPORT ORDINAL="1832" NAME="_ZNSi3getERSt15basic_streambufIcSt11char_traitsIcEE" PURGE="0" COMMENT="" />
    <EXPORT ORDINAL="1833" NAME="_ZNSi3getERSt15basic_streambufIcSt11char_traitsIcEEc" PURGE="0" COMMENT="" />
    <EXPORT ORDINAL="1834" NAME="_ZNSi3getERc" PURGE="0" COMMENT="" />
    <EXPORT ORDINAL="1835" NAME="_ZNSi3getEv" PURGE="0" COMMENT="" />
    <EXPORT ORDINAL="1836" NAME="_ZNSi4peekEv" PURGE="0" COMMENT="" />
    <EXPORT ORDINAL="1837" NAME="_ZNSi4readEPcx" PURGE="0" COMMENT="" />
    <EXPORT ORDINAL="1838" NAME="_ZNSi4swapERSi" PURGE="0" COMMENT="" />
    <EXPORT ORDINAL="1839" NAME="_ZNSi4syncEv" PURGE="0" COMMENT="" />
    <EXPORT ORDINAL="1840" NAME="_ZNSi5seekgESt4fposIiE" PURGE="0" COMMENT="" />
    <EXPORT ORDINAL="1841" NAME="_ZNSi5seekgExSt12_Ios_Seekdir" PURGE="0" COMMENT="" />
    <EXPORT ORDINAL="1842" NAME="_ZNSi5tellgEv" PURGE="0" COMMENT="" />
    <EXPORT ORDINAL="1843" NAME="_ZNSi5ungetEv" PURGE="0" COMMENT="" />
    <EXPORT ORDINAL="1844" NAME="_ZNSi6ignoreEv" PURGE="0" COMMENT="" />
    <EXPORT ORDINAL="1845" NAME="_ZNSi6ignoreEx" PURGE="0" COMMENT="" />
    <EXPORT ORDINAL="1846" NAME="_ZNSi6ignoreExi" PURGE="0" COMMENT="" />
    <EXPORT ORDINAL="1847" NAME="_ZNSi6sentryC1ERSib" PURGE="0" COMMENT="" />
    <EXPORT ORDINAL="1848" NAME="_ZNSi6sentryC2ERSib" PURGE="0" COMMENT="" />
    <EXPORT ORDINAL="1849" NAME="_ZNSi7getlineEPcx" PURGE="0" COMMENT="" />
    <EXPORT ORDINAL="1850" NAME="_ZNSi7getlineEPcxc" PURGE="0" COMMENT="" />
    <EXPORT ORDINAL="1851" NAME="_ZNSi7putbackEc" PURGE="0" COMMENT="" />
    <EXPORT ORDINAL="1852" NAME="_ZNSi8readsomeEPcx" PURGE="0" COMMENT="" />
    <EXPORT ORDINAL="1853" NAME="_ZNSiC1EOSi" PURGE="0" COMMENT="" />
    <EXPORT ORDINAL="1854" NAME="_ZNSiC1EPSt15basic_streambufIcSt11char_traitsIcEE" PURGE="0" COMMENT="" />
    <EXPORT ORDINAL="1855" NAME="_ZNSiC1Ev" PURGE="0" COMMENT="" />
    <EXPORT ORDINAL="1856" NAME="_ZNSiC2EOSi" PURGE="0" COMMENT="" />
    <EXPORT ORDINAL="1857" NAME="_ZNSiC2EPSt15basic_streambufIcSt11char_traitsIcEE" PURGE="0" COMMENT="" />
    <EXPORT ORDINAL="1858" NAME="_ZNSiC2Ev" PURGE="0" COMMENT="" />
    <EXPORT ORDINAL="1859" NAME="_ZNSiD0Ev" PURGE="-1" COMMENT="" />
    <EXPORT ORDINAL="1860" NAME="_ZNSiD1Ev" PURGE="0" COMMENT="" />
    <EXPORT ORDINAL="1861" NAME="_ZNSiD2Ev" PURGE="0" COMMENT="" />
    <EXPORT ORDINAL="1862" NAME="_ZNSiaSEOSi" PURGE="0" COMMENT="" />
    <EXPORT ORDINAL="1863" NAME="_ZNSirsEPFRSiS_E" PURGE="-1" COMMENT="" />
    <EXPORT ORDINAL="1864" NAME="_ZNSirsEPFRSt8ios_baseS0_E" PURGE="0" COMMENT="" />
    <EXPORT ORDINAL="1865" NAME="_ZNSirsEPFRSt9basic_iosIcSt11char_traitsIcEES3_E" PURGE="0" COMMENT="" />
    <EXPORT ORDINAL="1866" NAME="_ZNSirsEPSt15basic_streambufIcSt11char_traitsIcEE" PURGE="0" COMMENT="" />
    <EXPORT ORDINAL="1867" NAME="_ZNSirsERPv" PURGE="0" COMMENT="" />
    <EXPORT ORDINAL="1868" NAME="_ZNSirsERb" PURGE="0" COMMENT="" />
    <EXPORT ORDINAL="1869" NAME="_ZNSirsERd" PURGE="0" COMMENT="" />
    <EXPORT ORDINAL="1870" NAME="_ZNSirsERe" PURGE="0" COMMENT="" />
    <EXPORT ORDINAL="1871" NAME="_ZNSirsERf" PURGE="0" COMMENT="" />
    <EXPORT ORDINAL="1872" NAME="_ZNSirsERi" PURGE="0" COMMENT="" />
    <EXPORT ORDINAL="1873" NAME="_ZNSirsERj" PURGE="0" COMMENT="" />
    <EXPORT ORDINAL="1874" NAME="_ZNSirsERl" PURGE="0" COMMENT="" />
    <EXPORT ORDINAL="1875" NAME="_ZNSirsERm" PURGE="0" COMMENT="" />
    <EXPORT ORDINAL="1876" NAME="_ZNSirsERs" PURGE="0" COMMENT="" />
    <EXPORT ORDINAL="1877" NAME="_ZNSirsERt" PURGE="0" COMMENT="" />
    <EXPORT ORDINAL="1878" NAME="_ZNSirsERx" PURGE="0" COMMENT="" />
    <EXPORT ORDINAL="1879" NAME="_ZNSirsERy" PURGE="0" COMMENT="" />
    <EXPORT ORDINAL="1880" NAME="_ZNSo3putEc" PURGE="0" COMMENT="" />
    <EXPORT ORDINAL="1881" NAME="_ZNSo4swapERSo" PURGE="0" COMMENT="" />
    <EXPORT ORDINAL="1882" NAME="_ZNSo5flushEv" PURGE="0" COMMENT="" />
    <EXPORT ORDINAL="1883" NAME="_ZNSo5seekpESt4fposIiE" PURGE="0" COMMENT="" />
    <EXPORT ORDINAL="1884" NAME="_ZNSo5seekpExSt12_Ios_Seekdir" PURGE="0" COMMENT="" />
    <EXPORT ORDINAL="1885" NAME="_ZNSo5tellpEv" PURGE="0" COMMENT="" />
    <EXPORT ORDINAL="1886" NAME="_ZNSo5writeEPKcx" PURGE="0" COMMENT="" />
    <EXPORT ORDINAL="1887" NAME="_ZNSo6sentryC1ERSo" PURGE="0" COMMENT="" />
    <EXPORT ORDINAL="1888" NAME="_ZNSo6sentryC2ERSo" PURGE="0" COMMENT="" />
    <EXPORT ORDINAL="1889" NAME="_ZNSo6sentryD1Ev" PURGE="0" COMMENT="" />
    <EXPORT ORDINAL="1890" NAME="_ZNSo6sentryD2Ev" PURGE="0" COMMENT="" />
    <EXPORT ORDINAL="1891" NAME="_ZNSo8_M_writeEPKcx" PURGE="0" COMMENT="" />
    <EXPORT ORDINAL="1892" NAME="_ZNSo9_M_insertIPKvEERSoT_" PURGE="0" COMMENT="" />
    <EXPORT ORDINAL="1893" NAME="_ZNSo9_M_insertIbEERSoT_" PURGE="0" COMMENT="" />
    <EXPORT ORDINAL="1894" NAME="_ZNSo9_M_insertIdEERSoT_" PURGE="0" COMMENT="" />
    <EXPORT ORDINAL="1895" NAME="_ZNSo9_M_insertIeEERSoT_" PURGE="0" COMMENT="" />
    <EXPORT ORDINAL="1896" NAME="_ZNSo9_M_insertIlEERSoT_" PURGE="0" COMMENT="" />
    <EXPORT ORDINAL="1897" NAME="_ZNSo9_M_insertImEERSoT_" PURGE="0" COMMENT="" />
    <EXPORT ORDINAL="1898" NAME="_ZNSo9_M_insertIxEERSoT_" PURGE="0" COMMENT="" />
    <EXPORT ORDINAL="1899" NAME="_ZNSo9_M_insertIyEERSoT_" PURGE="0" COMMENT="" />
    <EXPORT ORDINAL="1900" NAME="_ZNSoC1EOSo" PURGE="0" COMMENT="" />
    <EXPORT ORDINAL="1901" NAME="_ZNSoC1EPSt15basic_streambufIcSt11char_traitsIcEE" PURGE="0" COMMENT="" />
    <EXPORT ORDINAL="1902" NAME="_ZNSoC1ERSd" PURGE="0" COMMENT="" />
    <EXPORT ORDINAL="1903" NAME="_ZNSoC1Ev" PURGE="0" COMMENT="" />
    <EXPORT ORDINAL="1904" NAME="_ZNSoC2EOSo" PURGE="0" COMMENT="" />
    <EXPORT ORDINAL="1905" NAME="_ZNSoC2EPSt15basic_streambufIcSt11char_traitsIcEE" PURGE="0" COMMENT="" />
    <EXPORT ORDINAL="1906" NAME="_ZNSoC2ERSd" PURGE="0" COMMENT="" />
    <EXPORT ORDINAL="1907" NAME="_ZNSoC2Ev" PURGE="0" COMMENT="" />
    <EXPORT ORDINAL="1908" NAME="_ZNSoD0Ev" PURGE="-1" COMMENT="" />
    <EXPORT ORDINAL="1909" NAME="_ZNSoD1Ev" PURGE="0" COMMENT="" />
    <EXPORT ORDINAL="1910" NAME="_ZNSoD2Ev" PURGE="0" COMMENT="" />
    <EXPORT ORDINAL="1911" NAME="_ZNSoaSEOSo" PURGE="0" COMMENT="" />
    <EXPORT ORDINAL="1912" NAME="_ZNSolsEDn" PURGE="0" COMMENT="" />
    <EXPORT ORDINAL="1913" NAME="_ZNSolsEPFRSoS_E" PURGE="-1" COMMENT="" />
    <EXPORT ORDINAL="1914" NAME="_ZNSolsEPFRSt8ios_baseS0_E" PURGE="0" COMMENT="" />
    <EXPORT ORDINAL="1915" NAME="_ZNSolsEPFRSt9basic_iosIcSt11char_traitsIcEES3_E" PURGE="0" COMMENT="" />
    <EXPORT ORDINAL="1916" NAME="_ZNSolsEPKv" PURGE="0" COMMENT="" />
    <EXPORT ORDINAL="1917" NAME="_ZNSolsEPSt15basic_streambufIcSt11char_traitsIcEE" PURGE="0" COMMENT="" />
    <EXPORT ORDINAL="1918" NAME="_ZNSolsEb" PURGE="0" COMMENT="" />
    <EXPORT ORDINAL="1919" NAME="_ZNSolsEd" PURGE="0" COMMENT="" />
    <EXPORT ORDINAL="1920" NAME="_ZNSolsEe" PURGE="0" COMMENT="" />
    <EXPORT ORDINAL="1921" NAME="_ZNSolsEf" PURGE="0" COMMENT="" />
    <EXPORT ORDINAL="1922" NAME="_ZNSolsEi" PURGE="0" COMMENT="" />
    <EXPORT ORDINAL="1923" NAME="_ZNSolsEj" PURGE="0" COMMENT="" />
    <EXPORT ORDINAL="1924" NAME="_ZNSolsEl" PURGE="0" COMMENT="" />
    <EXPORT ORDINAL="1925" NAME="_ZNSolsEm" PURGE="0" COMMENT="" />
    <EXPORT ORDINAL="1926" NAME="_ZNSolsEs" PURGE="0" COMMENT="" />
    <EXPORT ORDINAL="1927" NAME="_ZNSolsEt" PURGE="0" COMMENT="" />
    <EXPORT ORDINAL="1928" NAME="_ZNSolsEx" PURGE="0" COMMENT="" />
    <EXPORT ORDINAL="1929" NAME="_ZNSolsEy" PURGE="0" COMMENT="" />
    <EXPORT ORDINAL="1930" NAME="_ZNSs10_S_compareEyy" PURGE="0" COMMENT="" />
    <EXPORT ORDINAL="1931" NAME="_ZNSs12_Alloc_hiderC1EPcRKSaIcE" PURGE="0" COMMENT="" />
    <EXPORT ORDINAL="1932" NAME="_ZNSs12_Alloc_hiderC2EPcRKSaIcE" PURGE="0" COMMENT="" />
    <EXPORT ORDINAL="1933" NAME="_ZNSs12_M_leak_hardEv" PURGE="0" COMMENT="" />
    <EXPORT ORDINAL="1934" NAME="_ZNSs12_S_constructEycRKSaIcE" PURGE="0" COMMENT="" />
    <EXPORT ORDINAL="1935" NAME="_ZNSs12_S_constructIN9__gnu_cxx17__normal_iteratorIPcSsEEEES2_T_S4_RKSaIcESt20forward_iterator_tag" PURGE="0" COMMENT="" />
    <EXPORT ORDINAL="1936" NAME="_ZNSs12_S_constructIPKcEEPcT_S3_RKSaIcESt20forward_iterator_tag" PURGE="0" COMMENT="" />
    <EXPORT ORDINAL="1937" NAME="_ZNSs12_S_constructIPcEES0_T_S1_RKSaIcESt20forward_iterator_tag" PURGE="0" COMMENT="" />
    <EXPORT ORDINAL="1938" NAME="_ZNSs12_S_empty_repEv" PURGE="0" COMMENT="" />
    <EXPORT ORDINAL="1939" NAME="_ZNSs12__sv_wrapperC1ESt17basic_string_viewIcSt11char_traitsIcEE" PURGE="0" COMMENT="" />
    <EXPORT ORDINAL="1940" NAME="_ZNSs12__sv_wrapperC2ESt17basic_string_viewIcSt11char_traitsIcEE" PURGE="0" COMMENT="" />
    <EXPORT ORDINAL="1941" NAME="_ZNSs13_S_copy_charsEPcN9__gnu_cxx17__normal_iteratorIPKcSsEES4_" PURGE="0" COMMENT="" />
    <EXPORT ORDINAL="1942" NAME="_ZNSs13_S_copy_charsEPcN9__gnu_cxx17__normal_iteratorIS_SsEES2_" PURGE="0" COMMENT="" />
    <EXPORT ORDINAL="1943" NAME="_ZNSs13_S_copy_charsEPcPKcS1_" PURGE="0" COMMENT="" />
    <EXPORT ORDINAL="1944" NAME="_ZNSs13_S_copy_charsEPcS_S_" PURGE="0" COMMENT="" />
    <EXPORT ORDINAL="1945" NAME="_ZNSs13shrink_to_fitEv" PURGE="0" COMMENT="" />
    <EXPORT ORDINAL="1946" NAME="_ZNSs14_M_replace_auxEyyyc" PURGE="0" COMMENT="" />
    <EXPORT ORDINAL="1947" NAME="_ZNSs15_M_replace_safeEyyPKcy" PURGE="0" COMMENT="" />
    <EXPORT ORDINAL="1948" NAME="_ZNSs17_S_to_string_viewESt17basic_string_viewIcSt11char_traitsIcEE" PURGE="0" COMMENT="" />
    <EXPORT ORDINAL="1949" NAME="_ZNSs18_S_construct_aux_2EycRKSaIcE" PURGE="0" COMMENT="" />
    <EXPORT ORDINAL="1950" NAME="_ZNSs2atEy" PURGE="0" COMMENT="" />
    <EXPORT ORDINAL="1951" NAME="_ZNSs3endEv" PURGE="0" COMMENT="" />
    <EXPORT ORDINAL="1952" NAME="_ZNSs4_Rep10_M_destroyERKSaIcE" PURGE="-1" COMMENT="" />
    <EXPORT ORDINAL="1953" NAME="_ZNSs4_Rep10_M_disposeERKSaIcE" PURGE="0" COMMENT="" />
    <EXPORT ORDINAL="1954" NAME="_ZNSs4_Rep10_M_refcopyEv" PURGE="0" COMMENT="" />
    <EXPORT ORDINAL="1955" NAME="_ZNSs4_Rep10_M_refdataEv" PURGE="0" COMMENT="" />
    <EXPORT ORDINAL="1956" NAME="_ZNSs4_Rep11_S_max_sizeE" PURGE="-1" COMMENT="" />
    <EXPORT ORDINAL="1957" NAME="_ZNSs4_Rep11_S_terminalE" PURGE="-1" COMMENT="" />
    <EXPORT ORDINAL="1958" NAME="_ZNSs4_Rep12_S_empty_repEv" PURGE="0" COMMENT="" />
    <EXPORT ORDINAL="1959" NAME="_ZNSs4_Rep13_M_set_leakedEv" PURGE="0" COMMENT="" />
    <EXPORT ORDINAL="1960" NAME="_ZNSs4_Rep15_M_set_sharableEv" PURGE="0" COMMENT="" />
    <EXPORT ORDINAL="1961" NAME="_ZNSs4_Rep20_S_empty_rep_storageE" PURGE="-1" COMMENT="" />
    <EXPORT ORDINAL="1962" NAME="_ZNSs4_Rep26_M_set_length_and_sharableEy" PURGE="0" COMMENT="" />
    <EXPORT ORDINAL="1963" NAME="_ZNSs4_Rep7_M_grabERKSaIcES2_" PURGE="0" COMMENT="" />
    <EXPORT ORDINAL="1964" NAME="_ZNSs4_Rep8_M_cloneERKSaIcEy" PURGE="0" COMMENT="" />
    <EXPORT ORDINAL="1965" NAME="_ZNSs4_Rep9_S_createEyyRKSaIcE" PURGE="0" COMMENT="" />
    <EXPORT ORDINAL="1966" NAME="_ZNSs4backEv" PURGE="0" COMMENT="" />
    <EXPORT ORDINAL="1967" NAME="_ZNSs4dataEv" PURGE="0" COMMENT="" />
    <EXPORT ORDINAL="1968" NAME="_ZNSs4nposE" PURGE="-1" COMMENT="" />
    <EXPORT ORDINAL="1969" NAME="_ZNSs4rendEv" PURGE="0" COMMENT="" />
    <EXPORT ORDINAL="1970" NAME="_ZNSs4swapERSs" PURGE="0" COMMENT="" />
    <EXPORT ORDINAL="1971" NAME="_ZNSs5beginEv" PURGE="0" COMMENT="" />
    <EXPORT ORDINAL="1972" NAME="_ZNSs5clearEv" PURGE="0" COMMENT="" />
    <EXPORT ORDINAL="1973" NAME="_ZNSs5eraseEN9__gnu_cxx17__normal_iteratorIPcSsEE" PURGE="0" COMMENT="" />
    <EXPORT ORDINAL="1974" NAME="_ZNSs5eraseEN9__gnu_cxx17__normal_iteratorIPcSsEES2_" PURGE="0" COMMENT="" />
    <EXPORT ORDINAL="1975" NAME="_ZNSs5eraseEyy" PURGE="0" COMMENT="" />
    <EXPORT ORDINAL="1976" NAME="_ZNSs5frontEv" PURGE="0" COMMENT="" />
    <EXPORT ORDINAL="1977" NAME="_ZNSs6appendEPKc" PURGE="0" COMMENT="" />
    <EXPORT ORDINAL="1978" NAME="_ZNSs6appendEPKcy" PURGE="0" COMMENT="" />
    <EXPORT ORDINAL="1979" NAME="_ZNSs6appendERKSs" PURGE="0" COMMENT="" />
    <EXPORT ORDINAL="1980" NAME="_ZNSs6appendERKSsyy" PURGE="0" COMMENT="" />
    <EXPORT ORDINAL="1981" NAME="_ZNSs6appendESt16initializer_listIcE" PURGE="0" COMMENT="" />
    <EXPORT ORDINAL="1982" NAME="_ZNSs6appendEyc" PURGE="0" COMMENT="" />
    <EXPORT ORDINAL="1983" NAME="_ZNSs6assignEOSs" PURGE="0" COMMENT="" />
    <EXPORT ORDINAL="1984" NAME="_ZNSs6assignEPKc" PURGE="0" COMMENT="" />
    <EXPORT ORDINAL="1985" NAME="_ZNSs6assignEPKcy" PURGE="0" COMMENT="" />
    <EXPORT ORDINAL="1986" NAME="_ZNSs6assignERKSs" PURGE="0" COMMENT="" />
    <EXPORT ORDINAL="1987" NAME="_ZNSs6assignERKSsyy" PURGE="0" COMMENT="" />
    <EXPORT ORDINAL="1988" NAME="_ZNSs6assignESt16initializer_listIcE" PURGE="0" COMMENT="" />
    <EXPORT ORDINAL="1989" NAME="_ZNSs6assignEyc" PURGE="0" COMMENT="" />
    <EXPORT ORDINAL="1990" NAME="_ZNSs6insertEN9__gnu_cxx17__normal_iteratorIPcSsEESt16initializer_listIcE" PURGE="0" COMMENT="" />
    <EXPORT ORDINAL="1991" NAME="_ZNSs6insertEN9__gnu_cxx17__normal_iteratorIPcSsEEc" PURGE="0" COMMENT="" />
    <EXPORT ORDINAL="1992" NAME="_ZNSs6insertEN9__gnu_cxx17__normal_iteratorIPcSsEEyc" PURGE="0" COMMENT="" />
    <EXPORT ORDINAL="1993" NAME="_ZNSs6insertEyPKc" PURGE="0" COMMENT="" />
    <EXPORT ORDINAL="1994" NAME="_ZNSs6insertEyPKcy" PURGE="0" COMMENT="" />
    <EXPORT ORDINAL="1995" NAME="_ZNSs6insertEyRKSs" PURGE="0" COMMENT="" />
    <EXPORT ORDINAL="1996" NAME="_ZNSs6insertEyRKSsyy" PURGE="0" COMMENT="" />
    <EXPORT ORDINAL="1997" NAME="_ZNSs6insertEyyc" PURGE="0" COMMENT="" />
    <EXPORT ORDINAL="1998" NAME="_ZNSs6rbeginEv" PURGE="0" COMMENT="" />
    <EXPORT ORDINAL="1999" NAME="_ZNSs6resizeEy" PURGE="0" COMMENT="" />
    <EXPORT ORDINAL="2000" NAME="_ZNSs6resizeEyc" PURGE="0" COMMENT="" />
    <EXPORT ORDINAL="2001" NAME="_ZNSs7_M_copyEPcPKcy" PURGE="0" COMMENT="" />
    <EXPORT ORDINAL="2002" NAME="_ZNSs7_M_dataEPc" PURGE="0" COMMENT="" />
    <EXPORT ORDINAL="2003" NAME="_ZNSs7_M_leakEv" PURGE="0" COMMENT="" />
    <EXPORT ORDINAL="2004" NAME="_ZNSs7_M_moveEPcPKcy" PURGE="0" COMMENT="" />
    <EXPORT ORDINAL="2005" NAME="_ZNSs7replaceEN9__gnu_cxx17__normal_iteratorIPcSsEES2_NS0_IPKcSsEES5_" PURGE="0" COMMENT="" />
    <EXPORT ORDINAL="2006" NAME="_ZNSs7replaceEN9__gnu_cxx17__normal_iteratorIPcSsEES2_PKc" PURGE="0" COMMENT="" />
    <EXPORT ORDINAL="2007" NAME="_ZNSs7replaceEN9__gnu_cxx17__normal_iteratorIPcSsEES2_PKcS4_" PURGE="0" COMMENT="" />
    <EXPORT ORDINAL="2008" NAME="_ZNSs7replaceEN9__gnu_cxx17__normal_iteratorIPcSsEES2_PKcy" PURGE="0" COMMENT="" />
    <EXPORT ORDINAL="2009" NAME="_ZNSs7replaceEN9__gnu_cxx17__normal_iteratorIPcSsEES2_RKSs" PURGE="0" COMMENT="" />
    <EXPORT ORDINAL="2010" NAME="_ZNSs7replaceEN9__gnu_cxx17__normal_iteratorIPcSsEES2_S1_S1_" PURGE="0" COMMENT="" />
    <EXPORT ORDINAL="2011" NAME="_ZNSs7replaceEN9__gnu_cxx17__normal_iteratorIPcSsEES2_S2_S2_" PURGE="0" COMMENT="" />
    <EXPORT ORDINAL="2012" NAME="_ZNSs7replaceEN9__gnu_cxx17__normal_iteratorIPcSsEES2_St16initializer_listIcE" PURGE="0" COMMENT="" />
    <EXPORT ORDINAL="2013" NAME="_ZNSs7replaceEN9__gnu_cxx17__normal_iteratorIPcSsEES2_yc" PURGE="0" COMMENT="" />
    <EXPORT ORDINAL="2014" NAME="_ZNSs7replaceEyyPKc" PURGE="0" COMMENT="" />
    <EXPORT ORDINAL="2015" NAME="_ZNSs7replaceEyyPKcy" PURGE="0" COMMENT="" />
    <EXPORT ORDINAL="2016" NAME="_ZNSs7replaceEyyRKSs" PURGE="0" COMMENT="" />
    <EXPORT ORDINAL="2017" NAME="_ZNSs7replaceEyyRKSsyy" PURGE="0" COMMENT="" />
    <EXPORT ORDINAL="2018" NAME="_ZNSs7replaceEyyyc" PURGE="0" COMMENT="" />
    <EXPORT ORDINAL="2019" NAME="_ZNSs7reserveEv" PURGE="0" COMMENT="" />
    <EXPORT ORDINAL="2020" NAME="_ZNSs7reserveEy" PURGE="0" COMMENT="" />
    <EXPORT ORDINAL="2021" NAME="_ZNSs8pop_backEv" PURGE="0" COMMENT="" />
    <EXPORT ORDINAL="2022" NAME="_ZNSs9_M_assignEPcyc" PURGE="0" COMMENT="" />
    <EXPORT ORDINAL="2023" NAME="_ZNSs9_M_mutateEyyy" PURGE="0" COMMENT="" />
    <EXPORT ORDINAL="2024" NAME="_ZNSs9push_backEc" PURGE="0" COMMENT="" />
    <EXPORT ORDINAL="2025" NAME="_ZNSsC1ENSs12__sv_wrapperERKSaIcE" PURGE="0" COMMENT="" />
    <EXPORT ORDINAL="2026" NAME="_ZNSsC1EOSs" PURGE="0" COMMENT="" />
    <EXPORT ORDINAL="2027" NAME="_ZNSsC1EOSsRKSaIcE" PURGE="0" COMMENT="" />
    <EXPORT ORDINAL="2028" NAME="_ZNSsC1EPKcRKSaIcE" PURGE="0" COMMENT="" />
    <EXPORT ORDINAL="2029" NAME="_ZNSsC1EPKcyRKSaIcE" PURGE="0" COMMENT="" />
    <EXPORT ORDINAL="2030" NAME="_ZNSsC1ERKSaIcE" PURGE="0" COMMENT="" />
    <EXPORT ORDINAL="2031" NAME="_ZNSsC1ERKSs" PURGE="0" COMMENT="" />
    <EXPORT ORDINAL="2032" NAME="_ZNSsC1ERKSsRKSaIcE" PURGE="0" COMMENT="" />
    <EXPORT ORDINAL="2033" NAME="_ZNSsC1ERKSsyRKSaIcE" PURGE="0" COMMENT="" />
    <EXPORT ORDINAL="2034" NAME="_ZNSsC1ERKSsyy" PURGE="0" COMMENT="" />
    <EXPORT ORDINAL="2035" NAME="_ZNSsC1ERKSsyyRKSaIcE" PURGE="0" COMMENT="" />
    <EXPORT ORDINAL="2036" NAME="_ZNSsC1ESt16initializer_listIcERKSaIcE" PURGE="0" COMMENT="" />
    <EXPORT ORDINAL="2037" NAME="_ZNSsC1Ev" PURGE="0" COMMENT="" />
    <EXPORT ORDINAL="2038" NAME="_ZNSsC1EycRKSaIcE" PURGE="0" COMMENT="" />
    <EXPORT ORDINAL="2039" NAME="_ZNSsC1IN9__gnu_cxx17__normal_iteratorIPcSsEEEET_S4_RKSaIcE" PURGE="0" COMMENT="" />
    <EXPORT ORDINAL="2040" NAME="_ZNSsC1IPKcEET_S2_RKSaIcE" PURGE="0" COMMENT="" />
    <EXPORT ORDINAL="2041" NAME="_ZNSsC1IPcEET_S1_RKSaIcE" PURGE="0" COMMENT="" />
    <EXPORT ORDINAL="2042" NAME="_ZNSsC1ISaIcEEEPKcRKS0_" PURGE="0" COMMENT="" />
    <EXPORT ORDINAL="2043" NAME="_ZNSsC2ENSs12__sv_wrapperERKSaIcE" PURGE="0" COMMENT="" />
    <EXPORT ORDINAL="2044" NAME="_ZNSsC2EOSs" PURGE="0" COMMENT="" />
    <EXPORT ORDINAL="2045" NAME="_ZNSsC2EOSsRKSaIcE" PURGE="0" COMMENT="" />
    <EXPORT ORDINAL="2046" NAME="_ZNSsC2EPKcRKSaIcE" PURGE="0" COMMENT="" />
    <EXPORT ORDINAL="2047" NAME="_ZNSsC2EPKcyRKSaIcE" PURGE="0" COMMENT="" />
    <EXPORT ORDINAL="2048" NAME="_ZNSsC2ERKSaIcE" PURGE="0" COMMENT="" />
    <EXPORT ORDINAL="2049" NAME="_ZNSsC2ERKSs" PURGE="0" COMMENT="" />
    <EXPORT ORDINAL="2050" NAME="_ZNSsC2ERKSsRKSaIcE" PURGE="0" COMMENT="" />
    <EXPORT ORDINAL="2051" NAME="_ZNSsC2ERKSsyRKSaIcE" PURGE="0" COMMENT="" />
    <EXPORT ORDINAL="2052" NAME="_ZNSsC2ERKSsyy" PURGE="0" COMMENT="" />
    <EXPORT ORDINAL="2053" NAME="_ZNSsC2ERKSsyyRKSaIcE" PURGE="0" COMMENT="" />
    <EXPORT ORDINAL="2054" NAME="_ZNSsC2ESt16initializer_listIcERKSaIcE" PURGE="0" COMMENT="" />
    <EXPORT ORDINAL="2055" NAME="_ZNSsC2Ev" PURGE="0" COMMENT="" />
    <EXPORT ORDINAL="2056" NAME="_ZNSsC2EycRKSaIcE" PURGE="0" COMMENT="" />
    <EXPORT ORDINAL="2057" NAME="_ZNSsC2IN9__gnu_cxx17__normal_iteratorIPcSsEEEET_S4_RKSaIcE" PURGE="0" COMMENT="" />
    <EXPORT ORDINAL="2058" NAME="_ZNSsC2IPKcEET_S2_RKSaIcE" PURGE="0" COMMENT="" />
    <EXPORT ORDINAL="2059" NAME="_ZNSsC2IPcEET_S1_RKSaIcE" PURGE="0" COMMENT="" />
    <EXPORT ORDINAL="2060" NAME="_ZNSsD1Ev" PURGE="0" COMMENT="" />
    <EXPORT ORDINAL="2061" NAME="_ZNSsD2Ev" PURGE="0" COMMENT="" />
    <EXPORT ORDINAL="2062" NAME="_ZNSsaSEOSs" PURGE="0" COMMENT="" />
    <EXPORT ORDINAL="2063" NAME="_ZNSsaSEPKc" PURGE="0" COMMENT="" />
    <EXPORT ORDINAL="2064" NAME="_ZNSsaSERKSs" PURGE="0" COMMENT="" />
    <EXPORT ORDINAL="2065" NAME="_ZNSsaSESt16initializer_listIcE" PURGE="0" COMMENT="" />
    <EXPORT ORDINAL="2066" NAME="_ZNSsaSEc" PURGE="0" COMMENT="" />
    <EXPORT ORDINAL="2067" NAME="_ZNSsixEy" PURGE="0" COMMENT="" />
    <EXPORT ORDINAL="2068" NAME="_ZNSspLEPKc" PURGE="0" COMMENT="" />
    <EXPORT ORDINAL="2069" NAME="_ZNSspLERKSs" PURGE="0" COMMENT="" />
    <EXPORT ORDINAL="2070" NAME="_ZNSspLESt16initializer_listIcE" PURGE="0" COMMENT="" />
    <EXPORT ORDINAL="2071" NAME="_ZNSspLEc" PURGE="0" COMMENT="" />
    <EXPORT ORDINAL="2072" NAME="_ZNSt10_Sp_lockerC1EPKv" PURGE="0" COMMENT="" />
    <EXPORT ORDINAL="2073" NAME="_ZNSt10_Sp_lockerC1EPKvS1_" PURGE="0" COMMENT="" />
    <EXPORT ORDINAL="2074" NAME="_ZNSt10_Sp_lockerC2EPKv" PURGE="0" COMMENT="" />
    <EXPORT ORDINAL="2075" NAME="_ZNSt10_Sp_lockerC2EPKvS1_" PURGE="0" COMMENT="" />
    <EXPORT ORDINAL="2076" NAME="_ZNSt10_Sp_lockerD1Ev" PURGE="0" COMMENT="" />
    <EXPORT ORDINAL="2077" NAME="_ZNSt10_Sp_lockerD2Ev" PURGE="0" COMMENT="" />
    <EXPORT ORDINAL="2078" NAME="_ZNSt10__num_base11_S_atoms_inE" PURGE="-1" COMMENT="" />
    <EXPORT ORDINAL="2079" NAME="_ZNSt10__num_base12_S_atoms_outE" PURGE="-1" COMMENT="" />
    <EXPORT ORDINAL="2080" NAME="_ZNSt10__num_base15_S_format_floatERKSt8ios_basePcc" PURGE="0" COMMENT="" />
    <EXPORT ORDINAL="2081" NAME="_ZNSt10bad_typeidD0Ev" PURGE="-1" COMMENT="" />
    <EXPORT ORDINAL="2082" NAME="_ZNSt10bad_typeidD1Ev" PURGE="0" COMMENT="" />
    <EXPORT ORDINAL="2083" NAME="_ZNSt10bad_typeidD2Ev" PURGE="0" COMMENT="" />
    <EXPORT ORDINAL="2084" NAME="_ZNSt10ctype_base5alnumE" PURGE="-1" COMMENT="" />
    <EXPORT ORDINAL="2085" NAME="_ZNSt10ctype_base5alphaE" PURGE="-1" COMMENT="" />
    <EXPORT ORDINAL="2086" NAME="_ZNSt10ctype_base5blankE" PURGE="-1" COMMENT="" />
    <EXPORT ORDINAL="2087" NAME="_ZNSt10ctype_base5cntrlE" PURGE="-1" COMMENT="" />
    <EXPORT ORDINAL="2088" NAME="_ZNSt10ctype_base5digitE" PURGE="-1" COMMENT="" />
    <EXPORT ORDINAL="2089" NAME="_ZNSt10ctype_base5graphE" PURGE="-1" COMMENT="" />
    <EXPORT ORDINAL="2090" NAME="_ZNSt10ctype_base5lowerE" PURGE="-1" COMMENT="" />
    <EXPORT ORDINAL="2091" NAME="_ZNSt10ctype_base5printE" PURGE="-1" COMMENT="" />
    <EXPORT ORDINAL="2092" NAME="_ZNSt10ctype_base5punctE" PURGE="-1" COMMENT="" />
    <EXPORT ORDINAL="2093" NAME="_ZNSt10ctype_base5spaceE" PURGE="-1" COMMENT="" />
    <EXPORT ORDINAL="2094" NAME="_ZNSt10ctype_base5upperE" PURGE="-1" COMMENT="" />
    <EXPORT ORDINAL="2095" NAME="_ZNSt10ctype_base6xdigitE" PURGE="-1" COMMENT="" />
    <EXPORT ORDINAL="2096" NAME="_ZNSt10filesystem10equivalentERKNS_4pathES2_" PURGE="0" COMMENT="" />
    <EXPORT ORDINAL="2097" NAME="_ZNSt10filesystem10equivalentERKNS_4pathES2_RSt10error_code" PURGE="0" COMMENT="" />
    <EXPORT ORDINAL="2098" NAME="_ZNSt10filesystem10equivalentERKNS_7__cxx114pathES3_" PURGE="0" COMMENT="" />
    <EXPORT ORDINAL="2099" NAME="_ZNSt10filesystem10equivalentERKNS_7__cxx114pathES3_RSt10error_code" PURGE="0" COMMENT="" />
    <EXPORT ORDINAL="2100" NAME="_ZNSt10filesystem10hash_valueERKNS_4pathE" PURGE="0" COMMENT="" />
    <EXPORT ORDINAL="2101" NAME="_ZNSt10filesystem10remove_allERKNS_4pathE" PURGE="0" COMMENT="" />
    <EXPORT ORDINAL="2102" NAME="_ZNSt10filesystem10remove_allERKNS_4pathERSt10error_code" PURGE="0" COMMENT="" />
    <EXPORT ORDINAL="2103" NAME="_ZNSt10filesystem10remove_allERKNS_7__cxx114pathE" PURGE="0" COMMENT="" />
    <EXPORT ORDINAL="2104" NAME="_ZNSt10filesystem10remove_allERKNS_7__cxx114pathERSt10error_code" PURGE="0" COMMENT="" />
    <EXPORT ORDINAL="2105" NAME="_ZNSt10filesystem11permissionsERKNS_4pathENS_5permsENS_12perm_optionsE" PURGE="0" COMMENT="" />
    <EXPORT ORDINAL="2106" NAME="_ZNSt10filesystem11permissionsERKNS_4pathENS_5permsENS_12perm_optionsERSt10error_code" PURGE="0" COMMENT="" />
    <EXPORT ORDINAL="2107" NAME="_ZNSt10filesystem11permissionsERKNS_7__cxx114pathENS_5permsENS_12perm_optionsE" PURGE="0" COMMENT="" />
    <EXPORT ORDINAL="2108" NAME="_ZNSt10filesystem11permissionsERKNS_7__cxx114pathENS_5permsENS_12perm_optionsERSt10error_code" PURGE="0" COMMENT="" />
    <EXPORT ORDINAL="2109" NAME="_ZNSt10filesystem11resize_fileERKNS_4pathEy" PURGE="0" COMMENT="" />
    <EXPORT ORDINAL="2110" NAME="_ZNSt10filesystem11resize_fileERKNS_4pathEyRSt10error_code" PURGE="0" COMMENT="" />
    <EXPORT ORDINAL="2111" NAME="_ZNSt10filesystem11resize_fileERKNS_7__cxx114pathEy" PURGE="0" COMMENT="" />
    <EXPORT ORDINAL="2112" NAME="_ZNSt10filesystem11resize_fileERKNS_7__cxx114pathEyRSt10error_code" PURGE="0" COMMENT="" />
    <EXPORT ORDINAL="2113" NAME="_ZNSt10filesystem12copy_symlinkERKNS_4pathES2_" PURGE="0" COMMENT="" />
    <EXPORT ORDINAL="2114" NAME="_ZNSt10filesystem12copy_symlinkERKNS_4pathES2_RSt10error_code" PURGE="0" COMMENT="" />
    <EXPORT ORDINAL="2115" NAME="_ZNSt10filesystem12copy_symlinkERKNS_7__cxx114pathES3_" PURGE="0" COMMENT="" />
    <EXPORT ORDINAL="2116" NAME="_ZNSt10filesystem12copy_symlinkERKNS_7__cxx114pathES3_RSt10error_code" PURGE="0" COMMENT="" />
    <EXPORT ORDINAL="2117" NAME="_ZNSt10filesystem12current_pathB5cxx11ERSt10error_code" PURGE="0" COMMENT="" />
    <EXPORT ORDINAL="2118" NAME="_ZNSt10filesystem12current_pathB5cxx11Ev" PURGE="0" COMMENT="" />
    <EXPORT ORDINAL="2119" NAME="_ZNSt10filesystem12current_pathERKNS_4pathE" PURGE="0" COMMENT="" />
    <EXPORT ORDINAL="2120" NAME="_ZNSt10filesystem12current_pathERKNS_4pathERSt10error_code" PURGE="0" COMMENT="" />
    <EXPORT ORDINAL="2121" NAME="_ZNSt10filesystem12current_pathERKNS_7__cxx114pathE" PURGE="0" COMMENT="" />
    <EXPORT ORDINAL="2122" NAME="_ZNSt10filesystem12current_pathERKNS_7__cxx114pathERSt10error_code" PURGE="0" COMMENT="" />
    <EXPORT ORDINAL="2123" NAME="_ZNSt10filesystem12current_pathERSt10error_code" PURGE="0" COMMENT="" />
    <EXPORT ORDINAL="2124" NAME="_ZNSt10filesystem12current_pathEv" PURGE="0" COMMENT="" />
    <EXPORT ORDINAL="2125" NAME="_ZNSt10filesystem12do_copy_fileEPKwS1_NS_26copy_options_existing_fileEP7_stat64S4_RSt10error_code" PURGE="0" COMMENT="" />
    <EXPORT ORDINAL="2126" NAME="_ZNSt10filesystem12read_symlinkERKNS_4pathE" PURGE="0" COMMENT="" />
    <EXPORT ORDINAL="2127" NAME="_ZNSt10filesystem12read_symlinkERKNS_4pathERSt10error_code" PURGE="0" COMMENT="" />
    <EXPORT ORDINAL="2128" NAME="_ZNSt10filesystem12read_symlinkERKNS_7__cxx114pathE" PURGE="-1" COMMENT="" />
    <EXPORT ORDINAL="2129" NAME="_ZNSt10filesystem12read_symlinkERKNS_7__cxx114pathERSt10error_code" PURGE="0" COMMENT="" />
    <EXPORT ORDINAL="2130" NAME="_ZNSt10filesystem14create_symlinkERKNS_4pathES2_" PURGE="0" COMMENT="" />
    <EXPORT ORDINAL="2131" NAME="_ZNSt10filesystem14create_symlinkERKNS_4pathES2_RSt10error_code" PURGE="0" COMMENT="" />
    <EXPORT ORDINAL="2132" NAME="_ZNSt10filesystem14create_symlinkERKNS_7__cxx114pathES3_" PURGE="0" COMMENT="" />
    <EXPORT ORDINAL="2133" NAME="_ZNSt10filesystem14create_symlinkERKNS_7__cxx114pathES3_RSt10error_code" PURGE="0" COMMENT="" />
    <EXPORT ORDINAL="2134" NAME="_ZNSt10filesystem14symlink_statusERKNS_4pathE" PURGE="0" COMMENT="" />
    <EXPORT ORDINAL="2135" NAME="_ZNSt10filesystem14symlink_statusERKNS_4pathERSt10error_code" PURGE="0" COMMENT="" />
    <EXPORT ORDINAL="2136" NAME="_ZNSt10filesystem14symlink_statusERKNS_7__cxx114pathE" PURGE="0" COMMENT="" />
    <EXPORT ORDINAL="2137" NAME="_ZNSt10filesystem14symlink_statusERKNS_7__cxx114pathERSt10error_code" PURGE="0" COMMENT="" />
    <EXPORT ORDINAL="2138" NAME="_ZNSt10filesystem15hard_link_countERKNS_4pathE" PURGE="0" COMMENT="" />
    <EXPORT ORDINAL="2139" NAME="_ZNSt10filesystem15hard_link_countERKNS_4pathERSt10error_code" PURGE="0" COMMENT="" />
    <EXPORT ORDINAL="2140" NAME="_ZNSt10filesystem15hard_link_countERKNS_7__cxx114pathE" PURGE="0" COMMENT="" />
    <EXPORT ORDINAL="2141" NAME="_ZNSt10filesystem15hard_link_countERKNS_7__cxx114pathERSt10error_code" PURGE="0" COMMENT="" />
    <EXPORT ORDINAL="2142" NAME="_ZNSt10filesystem15last_write_timeERKNS_4pathE" PURGE="0" COMMENT="" />
    <EXPORT ORDINAL="2143" NAME="_ZNSt10filesystem15last_write_timeERKNS_4pathENSt6chrono10time_pointINS_12__file_clockENS3_8durationIxSt5ratioILx1ELx1000000000EEEEEE" PURGE="0" COMMENT="" />
    <EXPORT ORDINAL="2144" NAME="_ZNSt10filesystem15last_write_timeERKNS_4pathENSt6chrono10time_pointINS_12__file_clockENS3_8durationIxSt5ratioILx1ELx1000000000EEEEEERSt10error_code" PURGE="0" COMMENT="" />
    <EXPORT ORDINAL="2145" NAME="_ZNSt10filesystem15last_write_timeERKNS_4pathERSt10error_code" PURGE="0" COMMENT="" />
    <EXPORT ORDINAL="2146" NAME="_ZNSt10filesystem15last_write_timeERKNS_7__cxx114pathE" PURGE="0" COMMENT="" />
    <EXPORT ORDINAL="2147" NAME="_ZNSt10filesystem15last_write_timeERKNS_7__cxx114pathENSt6chrono10time_pointINS_12__file_clockENS4_8durationIxSt5ratioILx1ELx1000000000EEEEEE" PURGE="0" COMMENT="" />
    <EXPORT ORDINAL="2148" NAME="_ZNSt10filesystem15last_write_timeERKNS_7__cxx114pathENSt6chrono10time_pointINS_12__file_clockENS4_8durationIxSt5ratioILx1ELx1000000000EEEEEERSt10error_code" PURGE="0" COMMENT="" />
    <EXPORT ORDINAL="2149" NAME="_ZNSt10filesystem15last_write_timeERKNS_7__cxx114pathERSt10error_code" PURGE="0" COMMENT="" />
    <EXPORT ORDINAL="2150" NAME="_ZNSt10filesystem16create_directoryERKNS_4pathE" PURGE="0" COMMENT="" />
    <EXPORT ORDINAL="2151" NAME="_ZNSt10filesystem16create_directoryERKNS_4pathERSt10error_code" PURGE="0" COMMENT="" />
    <EXPORT ORDINAL="2152" NAME="_ZNSt10filesystem16create_directoryERKNS_4pathES2_" PURGE="0" COMMENT="" />
    <EXPORT ORDINAL="2153" NAME="_ZNSt10filesystem16create_directoryERKNS_4pathES2_RSt10error_code" PURGE="0" COMMENT="" />
    <EXPORT ORDINAL="2154" NAME="_ZNSt10filesystem16create_directoryERKNS_7__cxx114pathE" PURGE="0" COMMENT="" />
    <EXPORT ORDINAL="2155" NAME="_ZNSt10filesystem16create_directoryERKNS_7__cxx114pathERSt10error_code" PURGE="0" COMMENT="" />
    <EXPORT ORDINAL="2156" NAME="_ZNSt10filesystem16create_directoryERKNS_7__cxx114pathES3_" PURGE="0" COMMENT="" />
    <EXPORT ORDINAL="2157" NAME="_ZNSt10filesystem16create_directoryERKNS_7__cxx114pathES3_RSt10error_code" PURGE="0" COMMENT="" />
    <EXPORT ORDINAL="2158" NAME="_ZNSt10filesystem16create_hard_linkERKNS_4pathES2_" PURGE="0" COMMENT="" />
    <EXPORT ORDINAL="2159" NAME="_ZNSt10filesystem16create_hard_linkERKNS_4pathES2_RSt10error_code" PURGE="0" COMMENT="" />
    <EXPORT ORDINAL="2160" NAME="_ZNSt10filesystem16create_hard_linkERKNS_7__cxx114pathES3_" PURGE="0" COMMENT="" />
    <EXPORT ORDINAL="2161" NAME="_ZNSt10filesystem16create_hard_linkERKNS_7__cxx114pathES3_RSt10error_code" PURGE="0" COMMENT="" />
    <EXPORT ORDINAL="2162" NAME="_ZNSt10filesystem16filesystem_error5_Impl9make_whatESt17basic_string_viewIcSt11char_traitsIcEEPKNS_4pathES8_" PURGE="0" COMMENT="" />
    <EXPORT ORDINAL="2163" NAME="_ZNSt10filesystem16filesystem_errorC1ERKSsRKNS_4pathES5_St10error_code" PURGE="0" COMMENT="" />
    <EXPORT ORDINAL="2164" NAME="_ZNSt10filesystem16filesystem_errorC1ERKSsRKNS_4pathESt10error_code" PURGE="0" COMMENT="" />
    <EXPORT ORDINAL="2165" NAME="_ZNSt10filesystem16filesystem_errorC1ERKSsSt10error_code" PURGE="0" COMMENT="" />
    <EXPORT ORDINAL="2166" NAME="_ZNSt10filesystem16filesystem_errorC2ERKSsRKNS_4pathES5_St10error_code" PURGE="0" COMMENT="" />
    <EXPORT ORDINAL="2167" NAME="_ZNSt10filesystem16filesystem_errorC2ERKSsRKNS_4pathESt10error_code" PURGE="0" COMMENT="" />
    <EXPORT ORDINAL="2168" NAME="_ZNSt10filesystem16filesystem_errorC2ERKSsSt10error_code" PURGE="0" COMMENT="" />
    <EXPORT ORDINAL="2169" NAME="_ZNSt10filesystem16filesystem_errorD0Ev" PURGE="-1" COMMENT="" />
    <EXPORT ORDINAL="2170" NAME="_ZNSt10filesystem16filesystem_errorD1Ev" PURGE="0" COMMENT="" />
    <EXPORT ORDINAL="2171" NAME="_ZNSt10filesystem16filesystem_errorD2Ev" PURGE="0" COMMENT="" />
    <EXPORT ORDINAL="2172" NAME="_ZNSt10filesystem16weakly_canonicalERKNS_4pathE" PURGE="0" COMMENT="" />
    <EXPORT ORDINAL="2173" NAME="_ZNSt10filesystem16weakly_canonicalERKNS_4pathERSt10error_code" PURGE="0" COMMENT="" />
    <EXPORT ORDINAL="2174" NAME="_ZNSt10filesystem16weakly_canonicalERKNS_7__cxx114pathE" PURGE="0" COMMENT="" />
    <EXPORT ORDINAL="2175" NAME="_ZNSt10filesystem16weakly_canonicalERKNS_7__cxx114pathERSt10error_code" PURGE="0" COMMENT="" />
    <EXPORT ORDINAL="2176" NAME="_ZNSt10filesystem18create_directoriesERKNS_4pathE" PURGE="0" COMMENT="" />
    <EXPORT ORDINAL="2177" NAME="_ZNSt10filesystem18create_directoriesERKNS_4pathERSt10error_code" PURGE="0" COMMENT="" />
    <EXPORT ORDINAL="2178" NAME="_ZNSt10filesystem18create_directoriesERKNS_7__cxx114pathE" PURGE="0" COMMENT="" />
    <EXPORT ORDINAL="2179" NAME="_ZNSt10filesystem18create_directoriesERKNS_7__cxx114pathERSt10error_code" PURGE="0" COMMENT="" />
    <EXPORT ORDINAL="2180" NAME="_ZNSt10filesystem18directory_iterator9incrementERSt10error_code" PURGE="0" COMMENT="" />
    <EXPORT ORDINAL="2181" NAME="_ZNSt10filesystem18directory_iteratorC1ERKNS_4pathENS_17directory_optionsEPSt10error_code" PURGE="0" COMMENT="" />
    <EXPORT ORDINAL="2182" NAME="_ZNSt10filesystem18directory_iteratorC2ERKNS_4pathENS_17directory_optionsEPSt10error_code" PURGE="0" COMMENT="" />
    <EXPORT ORDINAL="2183" NAME="_ZNSt10filesystem18directory_iteratorppEv" PURGE="0" COMMENT="" />
    <EXPORT ORDINAL="2184" NAME="_ZNSt10filesystem19temp_directory_pathB5cxx11ERSt10error_code" PURGE="0" COMMENT="" />
    <EXPORT ORDINAL="2185" NAME="_ZNSt10filesystem19temp_directory_pathB5cxx11Ev" PURGE="0" COMMENT="" />
    <EXPORT ORDINAL="2186" NAME="_ZNSt10filesystem19temp_directory_pathERSt10error_code" PURGE="0" COMMENT="" />
    <EXPORT ORDINAL="2187" NAME="_ZNSt10filesystem19temp_directory_pathEv" PURGE="0" COMMENT="" />
    <EXPORT ORDINAL="2188" NAME="_ZNSt10filesystem24create_directory_symlinkERKNS_4pathES2_" PURGE="0" COMMENT="" />
    <EXPORT ORDINAL="2189" NAME="_ZNSt10filesystem24create_directory_symlinkERKNS_4pathES2_RSt10error_code" PURGE="0" COMMENT="" />
    <EXPORT ORDINAL="2190" NAME="_ZNSt10filesystem24create_directory_symlinkERKNS_7__cxx114pathES3_" PURGE="0" COMMENT="" />
    <EXPORT ORDINAL="2191" NAME="_ZNSt10filesystem24create_directory_symlinkERKNS_7__cxx114pathES3_RSt10error_code" PURGE="0" COMMENT="" />
    <EXPORT ORDINAL="2192" NAME="_ZNSt10filesystem28recursive_directory_iterator25disable_recursion_pendingEv" PURGE="0" COMMENT="" />
    <EXPORT ORDINAL="2193" NAME="_ZNSt10filesystem28recursive_directory_iterator3popERSt10error_code" PURGE="0" COMMENT="" />
    <EXPORT ORDINAL="2194" NAME="_ZNSt10filesystem28recursive_directory_iterator3popEv" PURGE="0" COMMENT="" />
    <EXPORT ORDINAL="2195" NAME="_ZNSt10filesystem28recursive_directory_iterator7__eraseEPSt10error_code" PURGE="0" COMMENT="" />
    <EXPORT ORDINAL="2196" NAME="_ZNSt10filesystem28recursive_directory_iterator9incrementERSt10error_code" PURGE="0" COMMENT="" />
    <EXPORT ORDINAL="2197" NAME="_ZNSt10filesystem28recursive_directory_iteratorC1ERKNS_4pathENS_17directory_optionsEPSt10error_code" PURGE="0" COMMENT="" />
    <EXPORT ORDINAL="2198" NAME="_ZNSt10filesystem28recursive_directory_iteratorC2ERKNS_4pathENS_17directory_optionsEPSt10error_code" PURGE="0" COMMENT="" />
    <EXPORT ORDINAL="2199" NAME="_ZNSt10filesystem28recursive_directory_iteratorD1Ev" PURGE="0" COMMENT="" />
    <EXPORT ORDINAL="2200" NAME="_ZNSt10filesystem28recursive_directory_iteratorD2Ev" PURGE="0" COMMENT="" />
    <EXPORT ORDINAL="2201" NAME="_ZNSt10filesystem28recursive_directory_iteratoraSEOS0_" PURGE="0" COMMENT="" />
    <EXPORT ORDINAL="2202" NAME="_ZNSt10filesystem28recursive_directory_iteratoraSERKS0_" PURGE="0" COMMENT="" />
    <EXPORT ORDINAL="2203" NAME="_ZNSt10filesystem28recursive_directory_iteratorppEv" PURGE="0" COMMENT="" />
    <EXPORT ORDINAL="2204" NAME="_ZNSt10filesystem4_Dir7advanceEbRSt10error_code" PURGE="0" COMMENT="" />
    <EXPORT ORDINAL="2205" NAME="_ZNSt10filesystem4_DirD1Ev" PURGE="0" COMMENT="" />
    <EXPORT ORDINAL="2206" NAME="_ZNSt10filesystem4copyERKNS_4pathES2_NS_12copy_optionsE" PURGE="0" COMMENT="" />
    <EXPORT ORDINAL="2207" NAME="_ZNSt10filesystem4copyERKNS_4pathES2_NS_12copy_optionsERSt10error_code" PURGE="0" COMMENT="" />
    <EXPORT ORDINAL="2208" NAME="_ZNSt10filesystem4copyERKNS_7__cxx114pathES3_NS_12copy_optionsE" PURGE="0" COMMENT="" />
    <EXPORT ORDINAL="2209" NAME="_ZNSt10filesystem4copyERKNS_7__cxx114pathES3_NS_12copy_optionsERSt10error_code" PURGE="0" COMMENT="" />
    <EXPORT ORDINAL="2210" NAME="_ZNSt10filesystem4path10_S_convertIcEEDaPKT_S4_" PURGE="0" COMMENT="" />
    <EXPORT ORDINAL="2211" NAME="_ZNSt10filesystem4path14_M_split_cmptsEv" PURGE="0" COMMENT="" />
    <EXPORT ORDINAL="2212" NAME="_ZNSt10filesystem4path14_S_convert_locEPKcS2_RKSt6locale" PURGE="0" COMMENT="" />
    <EXPORT ORDINAL="2213" NAME="_ZNSt10filesystem4path15remove_filenameEv" PURGE="0" COMMENT="" />
    <EXPORT ORDINAL="2214" NAME="_ZNSt10filesystem4path16replace_filenameERKS0_" PURGE="0" COMMENT="" />
    <EXPORT ORDINAL="2215" NAME="_ZNSt10filesystem4path17replace_extensionERKS0_" PURGE="0" COMMENT="" />
    <EXPORT ORDINAL="2216" NAME="_ZNSt10filesystem4path5_List5_Impl13_M_erase_fromEPKNS0_5_CmptE" PURGE="0" COMMENT="" />
    <EXPORT ORDINAL="2217" NAME="_ZNSt10filesystem4path5_List5clearEv" PURGE="0" COMMENT="" />
    <EXPORT ORDINAL="2218" NAME="_ZNSt10filesystem4path5_List7reserveEib" PURGE="0" COMMENT="" />
    <EXPORT ORDINAL="2219" NAME="_ZNSt10filesystem4path5_ListC1ERKS1_" PURGE="0" COMMENT="" />
    <EXPORT ORDINAL="2220" NAME="_ZNSt10filesystem4path5_ListC1Ev" PURGE="0" COMMENT="" />
    <EXPORT ORDINAL="2221" NAME="_ZNSt10filesystem4path5_ListC2ERKS1_" PURGE="0" COMMENT="" />
    <EXPORT ORDINAL="2222" NAME="_ZNSt10filesystem4path5_ListC2Ev" PURGE="0" COMMENT="" />
    <EXPORT ORDINAL="2223" NAME="_ZNSt10filesystem4path5_ListaSERKS1_" PURGE="0" COMMENT="" />
    <EXPORT ORDINAL="2224" NAME="_ZNSt10filesystem4path7_Parser4nextEv" PURGE="0" COMMENT="" />
    <EXPORT ORDINAL="2225" NAME="_ZNSt10filesystem4path7_Parser9root_pathEv" PURGE="0" COMMENT="" />
    <EXPORT ORDINAL="2226" NAME="_ZNSt10filesystem4path8_CodecvtIwED0Ev" PURGE="-1" COMMENT="" />
    <EXPORT ORDINAL="2227" NAME="_ZNSt10filesystem4path8_CodecvtIwED1Ev" PURGE="0" COMMENT="" />
    <EXPORT ORDINAL="2228" NAME="_ZNSt10filesystem4path9_M_appendESt17basic_string_viewIwSt11char_traitsIwEE" PURGE="0" COMMENT="" />
    <EXPORT ORDINAL="2229" NAME="_ZNSt10filesystem4path9_M_concatESt17basic_string_viewIwSt11char_traitsIwEE" PURGE="0" COMMENT="" />
    <EXPORT ORDINAL="2230" NAME="_ZNSt10filesystem4pathD1Ev" PURGE="0" COMMENT="" />
    <EXPORT ORDINAL="2231" NAME="_ZNSt10filesystem4pathD2Ev" PURGE="0" COMMENT="" />
    <EXPORT ORDINAL="2232" NAME="_ZNSt10filesystem4pathaSERKS0_" PURGE="0" COMMENT="" />
    <EXPORT ORDINAL="2233" NAME="_ZNSt10filesystem4pathdVERKS0_" PURGE="0" COMMENT="" />
    <EXPORT ORDINAL="2234" NAME="_ZNSt10filesystem4pathpLERKS0_" PURGE="0" COMMENT="" />
    <EXPORT ORDINAL="2235" NAME="_ZNSt10filesystem5spaceERKNS_4pathE" PURGE="0" COMMENT="" />
    <EXPORT ORDINAL="2236" NAME="_ZNSt10filesystem5spaceERKNS_4pathERSt10error_code" PURGE="0" COMMENT="" />
    <EXPORT ORDINAL="2237" NAME="_ZNSt10filesystem5spaceERKNS_7__cxx114pathE" PURGE="0" COMMENT="" />
    <EXPORT ORDINAL="2238" NAME="_ZNSt10filesystem5spaceERKNS_7__cxx114pathERSt10error_code" PURGE="0" COMMENT="" />
    <EXPORT ORDINAL="2239" NAME="_ZNSt10filesystem6removeERKNS_4pathE" PURGE="0" COMMENT="" />
    <EXPORT ORDINAL="2240" NAME="_ZNSt10filesystem6removeERKNS_4pathERSt10error_code" PURGE="0" COMMENT="" />
    <EXPORT ORDINAL="2241" NAME="_ZNSt10filesystem6removeERKNS_7__cxx114pathE" PURGE="0" COMMENT="" />
    <EXPORT ORDINAL="2242" NAME="_ZNSt10filesystem6removeERKNS_7__cxx114pathERSt10error_code" PURGE="0" COMMENT="" />
    <EXPORT ORDINAL="2243" NAME="_ZNSt10filesystem6renameERKNS_4pathES2_" PURGE="0" COMMENT="" />
    <EXPORT ORDINAL="2244" NAME="_ZNSt10filesystem6renameERKNS_4pathES2_RSt10error_code" PURGE="0" COMMENT="" />
    <EXPORT ORDINAL="2245" NAME="_ZNSt10filesystem6renameERKNS_7__cxx114pathES3_" PURGE="0" COMMENT="" />
    <EXPORT ORDINAL="2246" NAME="_ZNSt10filesystem6renameERKNS_7__cxx114pathES3_RSt10error_code" PURGE="0" COMMENT="" />
    <EXPORT ORDINAL="2247" NAME="_ZNSt10filesystem6statusERKNS_4pathE" PURGE="0" COMMENT="" />
    <EXPORT ORDINAL="2248" NAME="_ZNSt10filesystem6statusERKNS_4pathERSt10error_code" PURGE="0" COMMENT="" />
    <EXPORT ORDINAL="2249" NAME="_ZNSt10filesystem6statusERKNS_7__cxx114pathE" PURGE="0" COMMENT="" />
    <EXPORT ORDINAL="2250" NAME="_ZNSt10filesystem6statusERKNS_7__cxx114pathERSt10error_code" PURGE="0" COMMENT="" />
    <EXPORT ORDINAL="2251" NAME="_ZNSt10filesystem7__cxx1110hash_valueERKNS0_4pathE" PURGE="0" COMMENT="" />
    <EXPORT ORDINAL="2252" NAME="_ZNSt10filesystem7__cxx1116filesystem_error5_Impl9make_whatESt17basic_string_viewIcSt11char_traitsIcEEPKNS0_4pathES9_" PURGE="0" COMMENT="" />
    <EXPORT ORDINAL="2253" NAME="_ZNSt10filesystem7__cxx1116filesystem_errorC1ERKNSt7__cxx1112basic_stringIcSt11char_traitsIcESaIcEEERKNS0_4pathESC_St10error_code" PURGE="0" COMMENT="" />
    <EXPORT ORDINAL="2254" NAME="_ZNSt10filesystem7__cxx1116filesystem_errorC1ERKNSt7__cxx1112basic_stringIcSt11char_traitsIcESaIcEEERKNS0_4pathESt10error_code" PURGE="0" COMMENT="" />
    <EXPORT ORDINAL="2255" NAME="_ZNSt10filesystem7__cxx1116filesystem_errorC1ERKNSt7__cxx1112basic_stringIcSt11char_traitsIcESaIcEEESt10error_code" PURGE="0" COMMENT="" />
    <EXPORT ORDINAL="2256" NAME="_ZNSt10filesystem7__cxx1116filesystem_errorC2ERKNSt7__cxx1112basic_stringIcSt11char_traitsIcESaIcEEERKNS0_4pathESC_St10error_code" PURGE="0" COMMENT="" />
    <EXPORT ORDINAL="2257" NAME="_ZNSt10filesystem7__cxx1116filesystem_errorC2ERKNSt7__cxx1112basic_stringIcSt11char_traitsIcESaIcEEERKNS0_4pathESt10error_code" PURGE="0" COMMENT="" />
    <EXPORT ORDINAL="2258" NAME="_ZNSt10filesystem7__cxx1116filesystem_errorC2ERKNSt7__cxx1112basic_stringIcSt11char_traitsIcESaIcEEESt10error_code" PURGE="0" COMMENT="" />
    <EXPORT ORDINAL="2259" NAME="_ZNSt10filesystem7__cxx1116filesystem_errorD0Ev" PURGE="-1" COMMENT="" />
    <EXPORT ORDINAL="2260" NAME="_ZNSt10filesystem7__cxx1116filesystem_errorD1Ev" PURGE="0" COMMENT="" />
    <EXPORT ORDINAL="2261" NAME="_ZNSt10filesystem7__cxx1116filesystem_errorD2Ev" PURGE="0" COMMENT="" />
    <EXPORT ORDINAL="2262" NAME="_ZNSt10filesystem7__cxx1118directory_iterator9incrementERSt10error_code" PURGE="0" COMMENT="" />
    <EXPORT ORDINAL="2263" NAME="_ZNSt10filesystem7__cxx1118directory_iteratorC1ERKNS0_4pathENS_17directory_optionsEPSt10error_code" PURGE="0" COMMENT="" />
    <EXPORT ORDINAL="2264" NAME="_ZNSt10filesystem7__cxx1118directory_iteratorC2ERKNS0_4pathENS_17directory_optionsEPSt10error_code" PURGE="0" COMMENT="" />
    <EXPORT ORDINAL="2265" NAME="_ZNSt10filesystem7__cxx1118directory_iteratorppEv" PURGE="0" COMMENT="" />
    <EXPORT ORDINAL="2266" NAME="_ZNSt10filesystem7__cxx1128recursive_directory_iterator25disable_recursion_pendingEv" PURGE="0" COMMENT="" />
    <EXPORT ORDINAL="2267" NAME="_ZNSt10filesystem7__cxx1128recursive_directory_iterator3popERSt10error_code" PURGE="0" COMMENT="" />
    <EXPORT ORDINAL="2268" NAME="_ZNSt10filesystem7__cxx1128recursive_directory_iterator3popEv" PURGE="0" COMMENT="" />
    <EXPORT ORDINAL="2269" NAME="_ZNSt10filesystem7__cxx1128recursive_directory_iterator7__eraseEPSt10error_code" PURGE="0" COMMENT="" />
    <EXPORT ORDINAL="2270" NAME="_ZNSt10filesystem7__cxx1128recursive_directory_iterator9incrementERSt10error_code" PURGE="0" COMMENT="" />
    <EXPORT ORDINAL="2271" NAME="_ZNSt10filesystem7__cxx1128recursive_directory_iteratorC1ERKNS0_4pathENS_17directory_optionsEPSt10error_code" PURGE="0" COMMENT="" />
    <EXPORT ORDINAL="2272" NAME="_ZNSt10filesystem7__cxx1128recursive_directory_iteratorC2ERKNS0_4pathENS_17directory_optionsEPSt10error_code" PURGE="0" COMMENT="" />
    <EXPORT ORDINAL="2273" NAME="_ZNSt10filesystem7__cxx1128recursive_directory_iteratorD1Ev" PURGE="0" COMMENT="" />
    <EXPORT ORDINAL="2274" NAME="_ZNSt10filesystem7__cxx1128recursive_directory_iteratorD2Ev" PURGE="0" COMMENT="" />
    <EXPORT ORDINAL="2275" NAME="_ZNSt10filesystem7__cxx1128recursive_directory_iteratoraSEOS1_" PURGE="0" COMMENT="" />
    <EXPORT ORDINAL="2276" NAME="_ZNSt10filesystem7__cxx1128recursive_directory_iteratoraSERKS1_" PURGE="0" COMMENT="" />
    <EXPORT ORDINAL="2277" NAME="_ZNSt10filesystem7__cxx1128recursive_directory_iteratorppEv" PURGE="0" COMMENT="" />
    <EXPORT ORDINAL="2278" NAME="_ZNSt10filesystem7__cxx114_Dir7advanceEbRSt10error_code" PURGE="0" COMMENT="" />
    <EXPORT ORDINAL="2279" NAME="_ZNSt10filesystem7__cxx114_DirD1Ev" PURGE="0" COMMENT="" />
    <EXPORT ORDINAL="2280" NAME="_ZNSt10filesystem7__cxx114path10_S_convertIcEEDaPKT_S5_" PURGE="0" COMMENT="" />
    <EXPORT ORDINAL="2281" NAME="_ZNSt10filesystem7__cxx114path14_M_split_cmptsEv" PURGE="0" COMMENT="" />
    <EXPORT ORDINAL="2282" NAME="_ZNSt10filesystem7__cxx114path14_S_convert_locEPKcS3_RKSt6locale" PURGE="0" COMMENT="" />
    <EXPORT ORDINAL="2283" NAME="_ZNSt10filesystem7__cxx114path15remove_filenameEv" PURGE="0" COMMENT="" />
    <EXPORT ORDINAL="2284" NAME="_ZNSt10filesystem7__cxx114path16replace_filenameERKS1_" PURGE="0" COMMENT="" />
    <EXPORT ORDINAL="2285" NAME="_ZNSt10filesystem7__cxx114path17replace_extensionERKS1_" PURGE="0" COMMENT="" />
    <EXPORT ORDINAL="2286" NAME="_ZNSt10filesystem7__cxx114path5_List5_Impl13_M_erase_fromEPKNS1_5_CmptE" PURGE="0" COMMENT="" />
    <EXPORT ORDINAL="2287" NAME="_ZNSt10filesystem7__cxx114path5_List5clearEv" PURGE="0" COMMENT="" />
    <EXPORT ORDINAL="2288" NAME="_ZNSt10filesystem7__cxx114path5_List7reserveEib" PURGE="0" COMMENT="" />
    <EXPORT ORDINAL="2289" NAME="_ZNSt10filesystem7__cxx114path5_ListC1ERKS2_" PURGE="0" COMMENT="" />
    <EXPORT ORDINAL="2290" NAME="_ZNSt10filesystem7__cxx114path5_ListC1Ev" PURGE="0" COMMENT="" />
    <EXPORT ORDINAL="2291" NAME="_ZNSt10filesystem7__cxx114path5_ListC2ERKS2_" PURGE="0" COMMENT="" />
    <EXPORT ORDINAL="2292" NAME="_ZNSt10filesystem7__cxx114path5_ListC2Ev" PURGE="0" COMMENT="" />
    <EXPORT ORDINAL="2293" NAME="_ZNSt10filesystem7__cxx114path5_ListaSERKS2_" PURGE="0" COMMENT="" />
    <EXPORT ORDINAL="2294" NAME="_ZNSt10filesystem7__cxx114path7_Parser4nextEv" PURGE="0" COMMENT="" />
    <EXPORT ORDINAL="2295" NAME="_ZNSt10filesystem7__cxx114path7_Parser9root_pathEv" PURGE="0" COMMENT="" />
    <EXPORT ORDINAL="2296" NAME="_ZNSt10filesystem7__cxx114path8_CodecvtIwED0Ev" PURGE="-1" COMMENT="" />
    <EXPORT ORDINAL="2297" NAME="_ZNSt10filesystem7__cxx114path8_CodecvtIwED1Ev" PURGE="0" COMMENT="" />
    <EXPORT ORDINAL="2298" NAME="_ZNSt10filesystem7__cxx114path9_M_appendESt17basic_string_viewIwSt11char_traitsIwEE" PURGE="0" COMMENT="" />
    <EXPORT ORDINAL="2299" NAME="_ZNSt10filesystem7__cxx114path9_M_concatESt17basic_string_viewIwSt11char_traitsIwEE" PURGE="0" COMMENT="" />
    <EXPORT ORDINAL="2300" NAME="_ZNSt10filesystem7__cxx114pathaSERKS1_" PURGE="0" COMMENT="" />
    <EXPORT ORDINAL="2301" NAME="_ZNSt10filesystem7__cxx114pathdVERKS1_" PURGE="0" COMMENT="" />
    <EXPORT ORDINAL="2302" NAME="_ZNSt10filesystem7__cxx114pathpLERKS1_" PURGE="0" COMMENT="" />
    <EXPORT ORDINAL="2303" NAME="_ZNSt10filesystem7__cxx118__detail24__throw_conversion_errorEv" PURGE="0" COMMENT="" />
    <EXPORT ORDINAL="2304" NAME="_ZNSt10filesystem8__detail24__throw_conversion_errorEv" PURGE="0" COMMENT="" />
    <EXPORT ORDINAL="2305" NAME="_ZNSt10filesystem8absoluteERKNS_4pathE" PURGE="0" COMMENT="" />
    <EXPORT ORDINAL="2306" NAME="_ZNSt10filesystem8absoluteERKNS_4pathERSt10error_code" PURGE="0" COMMENT="" />
    <EXPORT ORDINAL="2307" NAME="_ZNSt10filesystem8absoluteERKNS_7__cxx114pathE" PURGE="0" COMMENT="" />
    <EXPORT ORDINAL="2308" NAME="_ZNSt10filesystem8absoluteERKNS_7__cxx114pathERSt10error_code" PURGE="0" COMMENT="" />
    <EXPORT ORDINAL="2309" NAME="_ZNSt10filesystem8do_spaceEPKwRyS2_S2_RSt10error_code" PURGE="0" COMMENT="" />
    <EXPORT ORDINAL="2310" NAME="_ZNSt10filesystem8is_emptyERKNS_4pathE" PURGE="0" COMMENT="" />
    <EXPORT ORDINAL="2311" NAME="_ZNSt10filesystem8is_emptyERKNS_4pathERSt10error_code" PURGE="0" COMMENT="" />
    <EXPORT ORDINAL="2312" NAME="_ZNSt10filesystem8is_emptyERKNS_7__cxx114pathE" PURGE="0" COMMENT="" />
    <EXPORT ORDINAL="2313" NAME="_ZNSt10filesystem8is_emptyERKNS_7__cxx114pathERSt10error_code" PURGE="0" COMMENT="" />
    <EXPORT ORDINAL="2314" NAME="_ZNSt10filesystem8relativeERKNS_4pathES2_" PURGE="0" COMMENT="" />
    <EXPORT ORDINAL="2315" NAME="_ZNSt10filesystem8relativeERKNS_4pathES2_RSt10error_code" PURGE="0" COMMENT="" />
    <EXPORT ORDINAL="2316" NAME="_ZNSt10filesystem8relativeERKNS_7__cxx114pathES3_" PURGE="0" COMMENT="" />
    <EXPORT ORDINAL="2317" NAME="_ZNSt10filesystem8relativeERKNS_7__cxx114pathES3_RSt10error_code" PURGE="0" COMMENT="" />
    <EXPORT ORDINAL="2318" NAME="_ZNSt10filesystem9_Dir_base7advanceEbRSt10error_code" PURGE="0" COMMENT="" />
    <EXPORT ORDINAL="2319" NAME="_ZNSt10filesystem9canonicalERKNS_4pathE" PURGE="0" COMMENT="" />
    <EXPORT ORDINAL="2320" NAME="_ZNSt10filesystem9canonicalERKNS_4pathERSt10error_code" PURGE="0" COMMENT="" />
    <EXPORT ORDINAL="2321" NAME="_ZNSt10filesystem9canonicalERKNS_7__cxx114pathE" PURGE="0" COMMENT="" />
    <EXPORT ORDINAL="2322" NAME="_ZNSt10filesystem9canonicalERKNS_7__cxx114pathERSt10error_code" PURGE="0" COMMENT="" />
    <EXPORT ORDINAL="2323" NAME="_ZNSt10filesystem9copy_fileERKNS_4pathES2_NS_12copy_optionsE" PURGE="0" COMMENT="" />
    <EXPORT ORDINAL="2324" NAME="_ZNSt10filesystem9copy_fileERKNS_4pathES2_NS_12copy_optionsERSt10error_code" PURGE="0" COMMENT="" />
    <EXPORT ORDINAL="2325" NAME="_ZNSt10filesystem9copy_fileERKNS_7__cxx114pathES3_NS_12copy_optionsE" PURGE="0" COMMENT="" />
    <EXPORT ORDINAL="2326" NAME="_ZNSt10filesystem9copy_fileERKNS_7__cxx114pathES3_NS_12copy_optionsERSt10error_code" PURGE="0" COMMENT="" />
    <EXPORT ORDINAL="2327" NAME="_ZNSt10filesystem9file_sizeERKNS_4pathE" PURGE="0" COMMENT="" />
    <EXPORT ORDINAL="2328" NAME="_ZNSt10filesystem9file_sizeERKNS_4pathERSt10error_code" PURGE="0" COMMENT="" />
    <EXPORT ORDINAL="2329" NAME="_ZNSt10filesystem9file_sizeERKNS_7__cxx114pathE" PURGE="0" COMMENT="" />
    <EXPORT ORDINAL="2330" NAME="_ZNSt10filesystem9file_sizeERKNS_7__cxx114pathERSt10error_code" PURGE="0" COMMENT="" />
    <EXPORT ORDINAL="2331" NAME="_ZNSt10filesystem9proximateERKNS_4pathES2_" PURGE="0" COMMENT="" />
    <EXPORT ORDINAL="2332" NAME="_ZNSt10filesystem9proximateERKNS_4pathES2_RSt10error_code" PURGE="0" COMMENT="" />
    <EXPORT ORDINAL="2333" NAME="_ZNSt10filesystem9proximateERKNS_7__cxx114pathES3_" PURGE="0" COMMENT="" />
    <EXPORT ORDINAL="2334" NAME="_ZNSt10filesystem9proximateERKNS_7__cxx114pathES3_RSt10error_code" PURGE="0" COMMENT="" />
    <EXPORT ORDINAL="2335" NAME="_ZNSt10istrstream3strEv" PURGE="0" COMMENT="" />
    <EXPORT ORDINAL="2336" NAME="_ZNSt10istrstreamC1EPKc" PURGE="0" COMMENT="" />
    <EXPORT ORDINAL="2337" NAME="_ZNSt10istrstreamC1EPKcx" PURGE="0" COMMENT="" />
    <EXPORT ORDINAL="2338" NAME="_ZNSt10istrstreamC1EPc" PURGE="0" COMMENT="" />
    <EXPORT ORDINAL="2339" NAME="_ZNSt10istrstreamC1EPcx" PURGE="0" COMMENT="" />
    <EXPORT ORDINAL="2340" NAME="_ZNSt10istrstreamC2EPKc" PURGE="0" COMMENT="" />
    <EXPORT ORDINAL="2341" NAME="_ZNSt10istrstreamC2EPKcx" PURGE="0" COMMENT="" />
    <EXPORT ORDINAL="2342" NAME="_ZNSt10istrstreamC2EPc" PURGE="0" COMMENT="" />
    <EXPORT ORDINAL="2343" NAME="_ZNSt10istrstreamC2EPcx" PURGE="0" COMMENT="" />
    <EXPORT ORDINAL="2344" NAME="_ZNSt10istrstreamD0Ev" PURGE="-1" COMMENT="" />
    <EXPORT ORDINAL="2345" NAME="_ZNSt10istrstreamD1Ev" PURGE="0" COMMENT="" />
    <EXPORT ORDINAL="2346" NAME="_ZNSt10istrstreamD2Ev" PURGE="0" COMMENT="" />
    <EXPORT ORDINAL="2347" NAME="_ZNSt10lock_errorD0Ev" PURGE="-1" COMMENT="" />
    <EXPORT ORDINAL="2348" NAME="_ZNSt10lock_errorD1Ev" PURGE="0" COMMENT="" />
    <EXPORT ORDINAL="2349" NAME="_ZNSt10money_base18_S_default_patternE" PURGE="-1" COMMENT="" />
    <EXPORT ORDINAL="2350" NAME="_ZNSt10money_base20_S_construct_patternEccc" PURGE="0" COMMENT="" />
    <EXPORT ORDINAL="2351" NAME="_ZNSt10money_base8_S_atomsE" PURGE="-1" COMMENT="" />
    <EXPORT ORDINAL="2352" NAME="_ZNSt10moneypunctIcLb0EE24_M_initialize_moneypunctEPiPKc" PURGE="0" COMMENT="" />
    <EXPORT ORDINAL="2353" NAME="_ZNSt10moneypunctIcLb0EE2idE" PURGE="-1" COMMENT="" />
    <EXPORT ORDINAL="2354" NAME="_ZNSt10moneypunctIcLb0EE4intlE" PURGE="-1" COMMENT="" />
    <EXPORT ORDINAL="2355" NAME="_ZNSt10moneypunctIcLb0EEC1EPSt18__moneypunct_cacheIcLb0EEy" PURGE="0" COMMENT="" />
    <EXPORT ORDINAL="2356" NAME="_ZNSt10moneypunctIcLb0EEC1EPiPKcy" PURGE="0" COMMENT="" />
    <EXPORT ORDINAL="2357" NAME="_ZNSt10moneypunctIcLb0EEC1Ey" PURGE="0" COMMENT="" />
    <EXPORT ORDINAL="2358" NAME="_ZNSt10moneypunctIcLb0EEC2EPSt18__moneypunct_cacheIcLb0EEy" PURGE="0" COMMENT="" />
    <EXPORT ORDINAL="2359" NAME="_ZNSt10moneypunctIcLb0EEC2EPiPKcy" PURGE="0" COMMENT="" />
    <EXPORT ORDINAL="2360" NAME="_ZNSt10moneypunctIcLb0EEC2Ey" PURGE="0" COMMENT="" />
    <EXPORT ORDINAL="2361" NAME="_ZNSt10moneypunctIcLb0EED0Ev" PURGE="-1" COMMENT="" />
    <EXPORT ORDINAL="2362" NAME="_ZNSt10moneypunctIcLb0EED1Ev" PURGE="0" COMMENT="" />
    <EXPORT ORDINAL="2363" NAME="_ZNSt10moneypunctIcLb0EED2Ev" PURGE="0" COMMENT="" />
    <EXPORT ORDINAL="2364" NAME="_ZNSt10moneypunctIcLb1EE24_M_initialize_moneypunctEPiPKc" PURGE="0" COMMENT="" />
    <EXPORT ORDINAL="2365" NAME="_ZNSt10moneypunctIcLb1EE2idE" PURGE="-1" COMMENT="" />
    <EXPORT ORDINAL="2366" NAME="_ZNSt10moneypunctIcLb1EE4intlE" PURGE="-1" COMMENT="" />
    <EXPORT ORDINAL="2367" NAME="_ZNSt10moneypunctIcLb1EEC1EPSt18__moneypunct_cacheIcLb1EEy" PURGE="0" COMMENT="" />
    <EXPORT ORDINAL="2368" NAME="_ZNSt10moneypunctIcLb1EEC1EPiPKcy" PURGE="0" COMMENT="" />
    <EXPORT ORDINAL="2369" NAME="_ZNSt10moneypunctIcLb1EEC1Ey" PURGE="0" COMMENT="" />
    <EXPORT ORDINAL="2370" NAME="_ZNSt10moneypunctIcLb1EEC2EPSt18__moneypunct_cacheIcLb1EEy" PURGE="0" COMMENT="" />
    <EXPORT ORDINAL="2371" NAME="_ZNSt10moneypunctIcLb1EEC2EPiPKcy" PURGE="0" COMMENT="" />
    <EXPORT ORDINAL="2372" NAME="_ZNSt10moneypunctIcLb1EEC2Ey" PURGE="0" COMMENT="" />
    <EXPORT ORDINAL="2373" NAME="_ZNSt10moneypunctIcLb1EED0Ev" PURGE="-1" COMMENT="" />
    <EXPORT ORDINAL="2374" NAME="_ZNSt10moneypunctIcLb1EED1Ev" PURGE="0" COMMENT="" />
    <EXPORT ORDINAL="2375" NAME="_ZNSt10moneypunctIcLb1EED2Ev" PURGE="0" COMMENT="" />
    <EXPORT ORDINAL="2376" NAME="_ZNSt10moneypunctIwLb0EE24_M_initialize_moneypunctEPiPKc" PURGE="0" COMMENT="" />
    <EXPORT ORDINAL="2377" NAME="_ZNSt10moneypunctIwLb0EE2idE" PURGE="-1" COMMENT="" />
    <EXPORT ORDINAL="2378" NAME="_ZNSt10moneypunctIwLb0EE4intlE" PURGE="-1" COMMENT="" />
    <EXPORT ORDINAL="2379" NAME="_ZNSt10moneypunctIwLb0EEC1EPSt18__moneypunct_cacheIwLb0EEy" PURGE="0" COMMENT="" />
    <EXPORT ORDINAL="2380" NAME="_ZNSt10moneypunctIwLb0EEC1EPiPKcy" PURGE="0" COMMENT="" />
    <EXPORT ORDINAL="2381" NAME="_ZNSt10moneypunctIwLb0EEC1Ey" PURGE="0" COMMENT="" />
    <EXPORT ORDINAL="2382" NAME="_ZNSt10moneypunctIwLb0EEC2EPSt18__moneypunct_cacheIwLb0EEy" PURGE="0" COMMENT="" />
    <EXPORT ORDINAL="2383" NAME="_ZNSt10moneypunctIwLb0EEC2EPiPKcy" PURGE="0" COMMENT="" />
    <EXPORT ORDINAL="2384" NAME="_ZNSt10moneypunctIwLb0EEC2Ey" PURGE="0" COMMENT="" />
    <EXPORT ORDINAL="2385" NAME="_ZNSt10moneypunctIwLb0EED0Ev" PURGE="-1" COMMENT="" />
    <EXPORT ORDINAL="2386" NAME="_ZNSt10moneypunctIwLb0EED1Ev" PURGE="0" COMMENT="" />
    <EXPORT ORDINAL="2387" NAME="_ZNSt10moneypunctIwLb0EED2Ev" PURGE="0" COMMENT="" />
    <EXPORT ORDINAL="2388" NAME="_ZNSt10moneypunctIwLb1EE24_M_initialize_moneypunctEPiPKc" PURGE="0" COMMENT="" />
    <EXPORT ORDINAL="2389" NAME="_ZNSt10moneypunctIwLb1EE2idE" PURGE="-1" COMMENT="" />
    <EXPORT ORDINAL="2390" NAME="_ZNSt10moneypunctIwLb1EE4intlE" PURGE="-1" COMMENT="" />
    <EXPORT ORDINAL="2391" NAME="_ZNSt10moneypunctIwLb1EEC1EPSt18__moneypunct_cacheIwLb1EEy" PURGE="0" COMMENT="" />
    <EXPORT ORDINAL="2392" NAME="_ZNSt10moneypunctIwLb1EEC1EPiPKcy" PURGE="0" COMMENT="" />
    <EXPORT ORDINAL="2393" NAME="_ZNSt10moneypunctIwLb1EEC1Ey" PURGE="0" COMMENT="" />
    <EXPORT ORDINAL="2394" NAME="_ZNSt10moneypunctIwLb1EEC2EPSt18__moneypunct_cacheIwLb1EEy" PURGE="0" COMMENT="" />
    <EXPORT ORDINAL="2395" NAME="_ZNSt10moneypunctIwLb1EEC2EPiPKcy" PURGE="0" COMMENT="" />
    <EXPORT ORDINAL="2396" NAME="_ZNSt10moneypunctIwLb1EEC2Ey" PURGE="0" COMMENT="" />
    <EXPORT ORDINAL="2397" NAME="_ZNSt10moneypunctIwLb1EED0Ev" PURGE="-1" COMMENT="" />
    <EXPORT ORDINAL="2398" NAME="_ZNSt10moneypunctIwLb1EED1Ev" PURGE="0" COMMENT="" />
    <EXPORT ORDINAL="2399" NAME="_ZNSt10moneypunctIwLb1EED2Ev" PURGE="0" COMMENT="" />
    <EXPORT ORDINAL="2400" NAME="_ZNSt10ostrstream3strEv" PURGE="0" COMMENT="" />
    <EXPORT ORDINAL="2401" NAME="_ZNSt10ostrstream6freezeEb" PURGE="0" COMMENT="" />
    <EXPORT ORDINAL="2402" NAME="_ZNSt10ostrstreamC1EPciSt13_Ios_Openmode" PURGE="0" COMMENT="" />
    <EXPORT ORDINAL="2403" NAME="_ZNSt10ostrstreamC1Ev" PURGE="0" COMMENT="" />
    <EXPORT ORDINAL="2404" NAME="_ZNSt10ostrstreamC2EPciSt13_Ios_Openmode" PURGE="0" COMMENT="" />
    <EXPORT ORDINAL="2405" NAME="_ZNSt10ostrstreamC2Ev" PURGE="0" COMMENT="" />
    <EXPORT ORDINAL="2406" NAME="_ZNSt10ostrstreamD0Ev" PURGE="-1" COMMENT="" />
    <EXPORT ORDINAL="2407" NAME="_ZNSt10ostrstreamD1Ev" PURGE="0" COMMENT="" />
    <EXPORT ORDINAL="2408" NAME="_ZNSt10ostrstreamD2Ev" PURGE="0" COMMENT="" />
    <EXPORT ORDINAL="2409" NAME="_ZNSt10unique_ptrINSt10filesystem4path5_List5_ImplENS2_13_Impl_deleterEED1Ev" PURGE="0" COMMENT="" />
    <EXPORT ORDINAL="2410" NAME="_ZNSt10unique_ptrINSt10filesystem7__cxx114path5_List5_ImplENS3_13_Impl_deleterEED1Ev" PURGE="0" COMMENT="" />
    <EXPORT ORDINAL="2411" NAME="_ZNSt11_Deque_baseINSt10filesystem4pathESaIS1_EE17_M_initialize_mapEy" PURGE="0" COMMENT="" />
    <EXPORT ORDINAL="2412" NAME="_ZNSt11_Deque_baseINSt10filesystem7__cxx114pathESaIS2_EE17_M_initialize_mapEy" PURGE="0" COMMENT="" />
    <EXPORT ORDINAL="2413" NAME="_ZNSt11__timepunctIcE23_M_initialize_timepunctEPi" PURGE="0" COMMENT="" />
    <EXPORT ORDINAL="2414" NAME="_ZNSt11__timepunctIcE2idE" PURGE="-1" COMMENT="" />
    <EXPORT ORDINAL="2415" NAME="_ZNSt11__timepunctIcEC1EPSt17__timepunct_cacheIcEy" PURGE="0" COMMENT="" />
    <EXPORT ORDINAL="2416" NAME="_ZNSt11__timepunctIcEC1EPiPKcy" PURGE="0" COMMENT="" />
    <EXPORT ORDINAL="2417" NAME="_ZNSt11__timepunctIcEC1Ey" PURGE="0" COMMENT="" />
    <EXPORT ORDINAL="2418" NAME="_ZNSt11__timepunctIcEC2EPSt17__timepunct_cacheIcEy" PURGE="0" COMMENT="" />
    <EXPORT ORDINAL="2419" NAME="_ZNSt11__timepunctIcEC2EPiPKcy" PURGE="0" COMMENT="" />
    <EXPORT ORDINAL="2420" NAME="_ZNSt11__timepunctIcEC2Ey" PURGE="0" COMMENT="" />
    <EXPORT ORDINAL="2421" NAME="_ZNSt11__timepunctIcED0Ev" PURGE="-1" COMMENT="" />
    <EXPORT ORDINAL="2422" NAME="_ZNSt11__timepunctIcED1Ev" PURGE="0" COMMENT="" />
    <EXPORT ORDINAL="2423" NAME="_ZNSt11__timepunctIcED2Ev" PURGE="0" COMMENT="" />
    <EXPORT ORDINAL="2424" NAME="_ZNSt11__timepunctIwE23_M_initialize_timepunctEPi" PURGE="0" COMMENT="" />
    <EXPORT ORDINAL="2425" NAME="_ZNSt11__timepunctIwE2idE" PURGE="-1" COMMENT="" />
    <EXPORT ORDINAL="2426" NAME="_ZNSt11__timepunctIwEC1EPSt17__timepunct_cacheIwEy" PURGE="0" COMMENT="" />
    <EXPORT ORDINAL="2427" NAME="_ZNSt11__timepunctIwEC1EPiPKcy" PURGE="0" COMMENT="" />
    <EXPORT ORDINAL="2428" NAME="_ZNSt11__timepunctIwEC1Ey" PURGE="0" COMMENT="" />
    <EXPORT ORDINAL="2429" NAME="_ZNSt11__timepunctIwEC2EPSt17__timepunct_cacheIwEy" PURGE="0" COMMENT="" />
    <EXPORT ORDINAL="2430" NAME="_ZNSt11__timepunctIwEC2EPiPKcy" PURGE="0" COMMENT="" />
    <EXPORT ORDINAL="2431" NAME="_ZNSt11__timepunctIwEC2Ey" PURGE="0" COMMENT="" />
    <EXPORT ORDINAL="2432" NAME="_ZNSt11__timepunctIwED0Ev" PURGE="-1" COMMENT="" />
    <EXPORT ORDINAL="2433" NAME="_ZNSt11__timepunctIwED1Ev" PURGE="0" COMMENT="" />
    <EXPORT ORDINAL="2434" NAME="_ZNSt11__timepunctIwED2Ev" PURGE="0" COMMENT="" />
    <EXPORT ORDINAL="2435" NAME="_ZNSt11logic_errorC1EOS_" PURGE="0" COMMENT="" />
    <EXPORT ORDINAL="2436" NAME="_ZNSt11logic_errorC1EPKc" PURGE="0" COMMENT="" />
    <EXPORT ORDINAL="2437" NAME="_ZNSt11logic_errorC1ERKNSt7__cxx1112basic_stringIcSt11char_traitsIcESaIcEEE" PURGE="0" COMMENT="" />
    <EXPORT ORDINAL="2438" NAME="_ZNSt11logic_errorC1ERKS_" PURGE="0" COMMENT="" />
    <EXPORT ORDINAL="2439" NAME="_ZNSt11logic_errorC1ERKSs" PURGE="0" COMMENT="" />
    <EXPORT ORDINAL="2440" NAME="_ZNSt11logic_errorC2EOS_" PURGE="0" COMMENT="" />
    <EXPORT ORDINAL="2441" NAME="_ZNSt11logic_errorC2EPKc" PURGE="0" COMMENT="" />
    <EXPORT ORDINAL="2442" NAME="_ZNSt11logic_errorC2ERKNSt7__cxx1112basic_stringIcSt11char_traitsIcESaIcEEE" PURGE="0" COMMENT="" />
    <EXPORT ORDINAL="2443" NAME="_ZNSt11logic_errorC2ERKS_" PURGE="0" COMMENT="" />
    <EXPORT ORDINAL="2444" NAME="_ZNSt11logic_errorC2ERKSs" PURGE="0" COMMENT="" />
    <EXPORT ORDINAL="2445" NAME="_ZNSt11logic_errorD0Ev" PURGE="-1" COMMENT="" />
    <EXPORT ORDINAL="2446" NAME="_ZNSt11logic_errorD1Ev" PURGE="0" COMMENT="" />
    <EXPORT ORDINAL="2447" NAME="_ZNSt11logic_errorD2Ev" PURGE="0" COMMENT="" />
    <EXPORT ORDINAL="2448" NAME="_ZNSt11logic_erroraSEOS_" PURGE="0" COMMENT="" />
    <EXPORT ORDINAL="2449" NAME="_ZNSt11logic_erroraSERKS_" PURGE="0" COMMENT="" />
    <EXPORT ORDINAL="2450" NAME="_ZNSt11range_errorC1EPKc" PURGE="0" COMMENT="" />
    <EXPORT ORDINAL="2451" NAME="_ZNSt11range_errorC1ERKNSt7__cxx1112basic_stringIcSt11char_traitsIcESaIcEEE" PURGE="0" COMMENT="" />
    <EXPORT ORDINAL="2452" NAME="_ZNSt11range_errorC1ERKSs" PURGE="0" COMMENT="" />
    <EXPORT ORDINAL="2453" NAME="_ZNSt11range_errorC2EPKc" PURGE="0" COMMENT="" />
    <EXPORT ORDINAL="2454" NAME="_ZNSt11range_errorC2ERKNSt7__cxx1112basic_stringIcSt11char_traitsIcESaIcEEE" PURGE="0" COMMENT="" />
    <EXPORT ORDINAL="2455" NAME="_ZNSt11range_errorC2ERKSs" PURGE="0" COMMENT="" />
    <EXPORT ORDINAL="2456" NAME="_ZNSt11range_errorD0Ev" PURGE="-1" COMMENT="" />
    <EXPORT ORDINAL="2457" NAME="_ZNSt11range_errorD1Ev" PURGE="0" COMMENT="" />
    <EXPORT ORDINAL="2458" NAME="_ZNSt11range_errorD2Ev" PURGE="0" COMMENT="" />
    <EXPORT ORDINAL="2459" NAME="_ZNSt11regex_errorC1ENSt15regex_constants10error_typeE" PURGE="0" COMMENT="" />
    <EXPORT ORDINAL="2460" NAME="_ZNSt11regex_errorC2ENSt15regex_constants10error_typeE" PURGE="0" COMMENT="" />
    <EXPORT ORDINAL="2461" NAME="_ZNSt11regex_errorD0Ev" PURGE="-1" COMMENT="" />
    <EXPORT ORDINAL="2462" NAME="_ZNSt11regex_errorD1Ev" PURGE="0" COMMENT="" />
    <EXPORT ORDINAL="2463" NAME="_ZNSt11regex_errorD2Ev" PURGE="0" COMMENT="" />
    <EXPORT ORDINAL="2464" NAME="_ZNSt11this_thread11__sleep_forENSt6chrono8durationIxSt5ratioILx1ELx1EEEENS1_IxS2_ILx1ELx1000000000EEEE" PURGE="0" COMMENT="" />
    <EXPORT ORDINAL="2465" NAME="_ZNSt12_Destroy_auxILb0EE9__destroyIPNSt10filesystem7__cxx114path5_CmptEEEvT_S7_" PURGE="0" COMMENT="" />
    <EXPORT ORDINAL="2466" NAME="_ZNSt12_Vector_baseINSt3pmr15__pool_resource9_BigBlockENS0_21polymorphic_allocatorIS2_EEED2Ev" PURGE="0" COMMENT="" />
    <EXPORT ORDINAL="2467" NAME="_ZNSt12_Vector_baseINSt6chrono11leap_secondESaIS1_EED2Ev" PURGE="0" COMMENT="" />
    <EXPORT ORDINAL="2468" NAME="_ZNSt12__basic_fileIcE2fdEv" PURGE="0" COMMENT="" />
    <EXPORT ORDINAL="2469" NAME="_ZNSt12__basic_fileIcE4fileEv" PURGE="0" COMMENT="" />
    <EXPORT ORDINAL="2470" NAME="_ZNSt12__basic_fileIcE4openEPKcSt13_Ios_Openmodei" PURGE="0" COMMENT="" />
    <EXPORT ORDINAL="2471" NAME="_ZNSt12__basic_fileIcE4openEPKwSt13_Ios_Openmode" PURGE="0" COMMENT="" />
    <EXPORT ORDINAL="2472" NAME="_ZNSt12__basic_fileIcE4syncEv" PURGE="-1" COMMENT="" />
    <EXPORT ORDINAL="2473" NAME="_ZNSt12__basic_fileIcE5closeEv" PURGE="0" COMMENT="" />
    <EXPORT ORDINAL="2474" NAME="_ZNSt12__basic_fileIcE6xsgetnEPcx" PURGE="0" COMMENT="" />
    <EXPORT ORDINAL="2475" NAME="_ZNSt12__basic_fileIcE6xsputnEPKcx" PURGE="0" COMMENT="" />
    <EXPORT ORDINAL="2476" NAME="_ZNSt12__basic_fileIcE7seekoffExSt12_Ios_Seekdir" PURGE="0" COMMENT="" />
    <EXPORT ORDINAL="2477" NAME="_ZNSt12__basic_fileIcE8sys_openEP6_iobufSt13_Ios_Openmode" PURGE="0" COMMENT="" />
    <EXPORT ORDINAL="2478" NAME="_ZNSt12__basic_fileIcE8sys_openEiSt13_Ios_Openmode" PURGE="0" COMMENT="" />
    <EXPORT ORDINAL="2479" NAME="_ZNSt12__basic_fileIcE8xsputn_2EPKcxS2_x" PURGE="0" COMMENT="" />
    <EXPORT ORDINAL="2480" NAME="_ZNSt12__basic_fileIcE9showmanycEv" PURGE="0" COMMENT="" />
    <EXPORT ORDINAL="2481" NAME="_ZNSt12__basic_fileIcEC1EPx" PURGE="0" COMMENT="" />
    <EXPORT ORDINAL="2482" NAME="_ZNSt12__basic_fileIcEC2EPx" PURGE="0" COMMENT="" />
    <EXPORT ORDINAL="2483" NAME="_ZNSt12__basic_fileIcED1Ev" PURGE="0" COMMENT="" />
    <EXPORT ORDINAL="2484" NAME="_ZNSt12__basic_fileIcED2Ev" PURGE="0" COMMENT="" />
    <EXPORT ORDINAL="2485" NAME="_ZNSt12__cow_stringC1EOS_" PURGE="0" COMMENT="" />
    <EXPORT ORDINAL="2486" NAME="_ZNSt12__cow_stringC1EPKcy" PURGE="0" COMMENT="" />
    <EXPORT ORDINAL="2487" NAME="_ZNSt12__cow_stringC1ERKNSt7__cxx1112basic_stringIcSt11char_traitsIcESaIcEEE" PURGE="0" COMMENT="" />
    <EXPORT ORDINAL="2488" NAME="_ZNSt12__cow_stringC1ERKS_" PURGE="0" COMMENT="" />
    <EXPORT ORDINAL="2489" NAME="_ZNSt12__cow_stringC1ERKSs" PURGE="0" COMMENT="" />
    <EXPORT ORDINAL="2490" NAME="_ZNSt12__cow_stringC1Ev" PURGE="0" COMMENT="" />
    <EXPORT ORDINAL="2491" NAME="_ZNSt12__cow_stringC2EOS_" PURGE="0" COMMENT="" />
    <EXPORT ORDINAL="2492" NAME="_ZNSt12__cow_stringC2EPKcy" PURGE="0" COMMENT="" />
    <EXPORT ORDINAL="2493" NAME="_ZNSt12__cow_stringC2ERKNSt7__cxx1112basic_stringIcSt11char_traitsIcESaIcEEE" PURGE="0" COMMENT="" />
    <EXPORT ORDINAL="2494" NAME="_ZNSt12__cow_stringC2ERKS_" PURGE="0" COMMENT="" />
    <EXPORT ORDINAL="2495" NAME="_ZNSt12__cow_stringC2ERKSs" PURGE="0" COMMENT="" />
    <EXPORT ORDINAL="2496" NAME="_ZNSt12__cow_stringC2Ev" PURGE="0" COMMENT="" />
    <EXPORT ORDINAL="2497" NAME="_ZNSt12__cow_stringD1Ev" PURGE="0" COMMENT="" />
    <EXPORT ORDINAL="2498" NAME="_ZNSt12__cow_stringD2Ev" PURGE="0" COMMENT="" />
    <EXPORT ORDINAL="2499" NAME="_ZNSt12__cow_stringaSEOS_" PURGE="0" COMMENT="" />
    <EXPORT ORDINAL="2500" NAME="_ZNSt12__cow_stringaSERKS_" PURGE="0" COMMENT="" />
    <EXPORT ORDINAL="2501" NAME="_ZNSt12__shared_ptrIKNSt10filesystem16filesystem_error5_ImplELN9__gnu_cxx12_Lock_policyE2EE4swapERS6_" PURGE="0" COMMENT="" />
    <EXPORT ORDINAL="2502" NAME="_ZNSt12__shared_ptrIKNSt10filesystem16filesystem_error5_ImplELN9__gnu_cxx12_Lock_policyE2EE5resetEv" PURGE="0" COMMENT="" />
    <EXPORT ORDINAL="2503" NAME="_ZNSt12__shared_ptrIKNSt10filesystem16filesystem_error5_ImplELN9__gnu_cxx12_Lock_policyE2EEC1EDn" PURGE="0" COMMENT="" />
    <EXPORT ORDINAL="2504" NAME="_ZNSt12__shared_ptrIKNSt10filesystem16filesystem_error5_ImplELN9__gnu_cxx12_Lock_policyE2EEC1EOS6_" PURGE="0" COMMENT="" />
    <EXPORT ORDINAL="2505" NAME="_ZNSt12__shared_ptrIKNSt10filesystem16filesystem_error5_ImplELN9__gnu_cxx12_Lock_policyE2EEC1ERKSt10__weak_ptrIS3_LS5_2EESt9nothrow_t" PURGE="0" COMMENT="" />
    <EXPORT ORDINAL="2506" NAME="_ZNSt12__shared_ptrIKNSt10filesystem16filesystem_error5_ImplELN9__gnu_cxx12_Lock_policyE2EEC1Ev" PURGE="0" COMMENT="" />
    <EXPORT ORDINAL="2507" NAME="_ZNSt12__shared_ptrIKNSt10filesystem16filesystem_error5_ImplELN9__gnu_cxx12_Lock_policyE2EEC2EDn" PURGE="0" COMMENT="" />
    <EXPORT ORDINAL="2508" NAME="_ZNSt12__shared_ptrIKNSt10filesystem16filesystem_error5_ImplELN9__gnu_cxx12_Lock_policyE2EEC2EOS6_" PURGE="0" COMMENT="" />
    <EXPORT ORDINAL="2509" NAME="_ZNSt12__shared_ptrIKNSt10filesystem16filesystem_error5_ImplELN9__gnu_cxx12_Lock_policyE2EEC2ERKSt10__weak_ptrIS3_LS5_2EESt9nothrow_t" PURGE="0" COMMENT="" />
    <EXPORT ORDINAL="2510" NAME="_ZNSt12__shared_ptrIKNSt10filesystem16filesystem_error5_ImplELN9__gnu_cxx12_Lock_policyE2EEC2Ev" PURGE="0" COMMENT="" />
    <EXPORT ORDINAL="2511" NAME="_ZNSt12__shared_ptrIKNSt10filesystem16filesystem_error5_ImplELN9__gnu_cxx12_Lock_policyE2EEaSEOS6_" PURGE="0" COMMENT="" />
    <EXPORT ORDINAL="2512" NAME="_ZNSt12__shared_ptrIKNSt10filesystem7__cxx1116filesystem_error5_ImplELN9__gnu_cxx12_Lock_policyE2EE4swapERS7_" PURGE="0" COMMENT="" />
    <EXPORT ORDINAL="2513" NAME="_ZNSt12__shared_ptrIKNSt10filesystem7__cxx1116filesystem_error5_ImplELN9__gnu_cxx12_Lock_policyE2EE5resetEv" PURGE="0" COMMENT="" />
    <EXPORT ORDINAL="2514" NAME="_ZNSt12__shared_ptrIKNSt10filesystem7__cxx1116filesystem_error5_ImplELN9__gnu_cxx12_Lock_policyE2EEC1EDn" PURGE="0" COMMENT="" />
    <EXPORT ORDINAL="2515" NAME="_ZNSt12__shared_ptrIKNSt10filesystem7__cxx1116filesystem_error5_ImplELN9__gnu_cxx12_Lock_policyE2EEC1EOS7_" PURGE="0" COMMENT="" />
    <EXPORT ORDINAL="2516" NAME="_ZNSt12__shared_ptrIKNSt10filesystem7__cxx1116filesystem_error5_ImplELN9__gnu_cxx12_Lock_policyE2EEC1ERKSt10__weak_ptrIS4_LS6_2EESt9nothrow_t" PURGE="0" COMMENT="" />
    <EXPORT ORDINAL="2517" NAME="_ZNSt12__shared_ptrIKNSt10filesystem7__cxx1116filesystem_error5_ImplELN9__gnu_cxx12_Lock_policyE2EEC1Ev" PURGE="0" COMMENT="" />
    <EXPORT ORDINAL="2518" NAME="_ZNSt12__shared_ptrIKNSt10filesystem7__cxx1116filesystem_error5_ImplELN9__gnu_cxx12_Lock_policyE2EEC2EDn" PURGE="0" COMMENT="" />
    <EXPORT ORDINAL="2519" NAME="_ZNSt12__shared_ptrIKNSt10filesystem7__cxx1116filesystem_error5_ImplELN9__gnu_cxx12_Lock_policyE2EEC2EOS7_" PURGE="0" COMMENT="" />
    <EXPORT ORDINAL="2520" NAME="_ZNSt12__shared_ptrIKNSt10filesystem7__cxx1116filesystem_error5_ImplELN9__gnu_cxx12_Lock_policyE2EEC2ERKSt10__weak_ptrIS4_LS6_2EESt9nothrow_t" PURGE="0" COMMENT="" />
    <EXPORT ORDINAL="2521" NAME="_ZNSt12__shared_ptrIKNSt10filesystem7__cxx1116filesystem_error5_ImplELN9__gnu_cxx12_Lock_policyE2EEC2Ev" PURGE="0" COMMENT="" />
    <EXPORT ORDINAL="2522" NAME="_ZNSt12__shared_ptrIKNSt10filesystem7__cxx1116filesystem_error5_ImplELN9__gnu_cxx12_Lock_policyE2EEaSEOS7_" PURGE="0" COMMENT="" />
    <EXPORT ORDINAL="2523" NAME="_ZNSt12__shared_ptrINSt10filesystem28recursive_directory_iterator10_Dir_stackELN9__gnu_cxx12_Lock_policyE2EE4swapERS5_" PURGE="0" COMMENT="" />
    <EXPORT ORDINAL="2524" NAME="_ZNSt12__shared_ptrINSt10filesystem28recursive_directory_iterator10_Dir_stackELN9__gnu_cxx12_Lock_policyE2EE5resetEv" PURGE="0" COMMENT="" />
    <EXPORT ORDINAL="2525" NAME="_ZNSt12__shared_ptrINSt10filesystem28recursive_directory_iterator10_Dir_stackELN9__gnu_cxx12_Lock_policyE2EEC1EDn" PURGE="0" COMMENT="" />
    <EXPORT ORDINAL="2526" NAME="_ZNSt12__shared_ptrINSt10filesystem28recursive_directory_iterator10_Dir_stackELN9__gnu_cxx12_Lock_policyE2EEC1EOS5_" PURGE="0" COMMENT="" />
    <EXPORT ORDINAL="2527" NAME="_ZNSt12__shared_ptrINSt10filesystem28recursive_directory_iterator10_Dir_stackELN9__gnu_cxx12_Lock_policyE2EEC1ERKSt10__weak_ptrIS2_LS4_2EESt9nothrow_t" PURGE="0" COMMENT="" />
    <EXPORT ORDINAL="2528" NAME="_ZNSt12__shared_ptrINSt10filesystem28recursive_directory_iterator10_Dir_stackELN9__gnu_cxx12_Lock_policyE2EEC1Ev" PURGE="0" COMMENT="" />
    <EXPORT ORDINAL="2529" NAME="_ZNSt12__shared_ptrINSt10filesystem28recursive_directory_iterator10_Dir_stackELN9__gnu_cxx12_Lock_policyE2EEC2EDn" PURGE="0" COMMENT="" />
    <EXPORT ORDINAL="2530" NAME="_ZNSt12__shared_ptrINSt10filesystem28recursive_directory_iterator10_Dir_stackELN9__gnu_cxx12_Lock_policyE2EEC2EOS5_" PURGE="0" COMMENT="" />
    <EXPORT ORDINAL="2531" NAME="_ZNSt12__shared_ptrINSt10filesystem28recursive_directory_iterator10_Dir_stackELN9__gnu_cxx12_Lock_policyE2EEC2ERKSt10__weak_ptrIS2_LS4_2EESt9nothrow_t" PURGE="0" COMMENT="" />
    <EXPORT ORDINAL="2532" NAME="_ZNSt12__shared_ptrINSt10filesystem28recursive_directory_iterator10_Dir_stackELN9__gnu_cxx12_Lock_policyE2EEC2Ev" PURGE="0" COMMENT="" />
    <EXPORT ORDINAL="2533" NAME="_ZNSt12__shared_ptrINSt10filesystem28recursive_directory_iterator10_Dir_stackELN9__gnu_cxx12_Lock_policyE2EEaSEOS5_" PURGE="0" COMMENT="" />
    <EXPORT ORDINAL="2534" NAME="_ZNSt12__shared_ptrINSt10filesystem4_DirELN9__gnu_cxx12_Lock_policyE2EE4swapERS4_" PURGE="0" COMMENT="" />
    <EXPORT ORDINAL="2535" NAME="_ZNSt12__shared_ptrINSt10filesystem4_DirELN9__gnu_cxx12_Lock_policyE2EE5resetEv" PURGE="0" COMMENT="" />
    <EXPORT ORDINAL="2536" NAME="_ZNSt12__shared_ptrINSt10filesystem4_DirELN9__gnu_cxx12_Lock_policyE2EEC1EDn" PURGE="0" COMMENT="" />
    <EXPORT ORDINAL="2537" NAME="_ZNSt12__shared_ptrINSt10filesystem4_DirELN9__gnu_cxx12_Lock_policyE2EEC1EOS4_" PURGE="0" COMMENT="" />
    <EXPORT ORDINAL="2538" NAME="_ZNSt12__shared_ptrINSt10filesystem4_DirELN9__gnu_cxx12_Lock_policyE2EEC1ERKSt10__weak_ptrIS1_LS3_2EESt9nothrow_t" PURGE="0" COMMENT="" />
    <EXPORT ORDINAL="2539" NAME="_ZNSt12__shared_ptrINSt10filesystem4_DirELN9__gnu_cxx12_Lock_policyE2EEC1Ev" PURGE="0" COMMENT="" />
    <EXPORT ORDINAL="2540" NAME="_ZNSt12__shared_ptrINSt10filesystem4_DirELN9__gnu_cxx12_Lock_policyE2EEC2EDn" PURGE="0" COMMENT="" />
    <EXPORT ORDINAL="2541" NAME="_ZNSt12__shared_ptrINSt10filesystem4_DirELN9__gnu_cxx12_Lock_policyE2EEC2EOS4_" PURGE="0" COMMENT="" />
    <EXPORT ORDINAL="2542" NAME="_ZNSt12__shared_ptrINSt10filesystem4_DirELN9__gnu_cxx12_Lock_policyE2EEC2ERKSt10__weak_ptrIS1_LS3_2EESt9nothrow_t" PURGE="0" COMMENT="" />
    <EXPORT ORDINAL="2543" NAME="_ZNSt12__shared_ptrINSt10filesystem4_DirELN9__gnu_cxx12_Lock_policyE2EEC2Ev" PURGE="0" COMMENT="" />
    <EXPORT ORDINAL="2544" NAME="_ZNSt12__shared_ptrINSt10filesystem4_DirELN9__gnu_cxx12_Lock_policyE2EEaSEOS4_" PURGE="0" COMMENT="" />
    <EXPORT ORDINAL="2545" NAME="_ZNSt12__shared_ptrINSt10filesystem7__cxx1128recursive_directory_iterator10_Dir_stackELN9__gnu_cxx12_Lock_policyE2EE4swapERS6_" PURGE="0" COMMENT="" />
    <EXPORT ORDINAL="2546" NAME="_ZNSt12__shared_ptrINSt10filesystem7__cxx1128recursive_directory_iterator10_Dir_stackELN9__gnu_cxx12_Lock_policyE2EE5resetEv" PURGE="0" COMMENT="" />
    <EXPORT ORDINAL="2547" NAME="_ZNSt12__shared_ptrINSt10filesystem7__cxx1128recursive_directory_iterator10_Dir_stackELN9__gnu_cxx12_Lock_policyE2EEC1EDn" PURGE="0" COMMENT="" />
    <EXPORT ORDINAL="2548" NAME="_ZNSt12__shared_ptrINSt10filesystem7__cxx1128recursive_directory_iterator10_Dir_stackELN9__gnu_cxx12_Lock_policyE2EEC1EOS6_" PURGE="0" COMMENT="" />
    <EXPORT ORDINAL="2549" NAME="_ZNSt12__shared_ptrINSt10filesystem7__cxx1128recursive_directory_iterator10_Dir_stackELN9__gnu_cxx12_Lock_policyE2EEC1ERKSt10__weak_ptrIS3_LS5_2EESt9nothrow_t" PURGE="0" COMMENT="" />
    <EXPORT ORDINAL="2550" NAME="_ZNSt12__shared_ptrINSt10filesystem7__cxx1128recursive_directory_iterator10_Dir_stackELN9__gnu_cxx12_Lock_policyE2EEC1Ev" PURGE="0" COMMENT="" />
    <EXPORT ORDINAL="2551" NAME="_ZNSt12__shared_ptrINSt10filesystem7__cxx1128recursive_directory_iterator10_Dir_stackELN9__gnu_cxx12_Lock_policyE2EEC2EDn" PURGE="0" COMMENT="" />
    <EXPORT ORDINAL="2552" NAME="_ZNSt12__shared_ptrINSt10filesystem7__cxx1128recursive_directory_iterator10_Dir_stackELN9__gnu_cxx12_Lock_policyE2EEC2EOS6_" PURGE="0" COMMENT="" />
    <EXPORT ORDINAL="2553" NAME="_ZNSt12__shared_ptrINSt10filesystem7__cxx1128recursive_directory_iterator10_Dir_stackELN9__gnu_cxx12_Lock_policyE2EEC2ERKSt10__weak_ptrIS3_LS5_2EESt9nothrow_t" PURGE="0" COMMENT="" />
    <EXPORT ORDINAL="2554" NAME="_ZNSt12__shared_ptrINSt10filesystem7__cxx1128recursive_directory_iterator10_Dir_stackELN9__gnu_cxx12_Lock_policyE2EEC2Ev" PURGE="0" COMMENT="" />
    <EXPORT ORDINAL="2555" NAME="_ZNSt12__shared_ptrINSt10filesystem7__cxx1128recursive_directory_iterator10_Dir_stackELN9__gnu_cxx12_Lock_policyE2EEaSEOS6_" PURGE="0" COMMENT="" />
    <EXPORT ORDINAL="2556" NAME="_ZNSt12__shared_ptrINSt10filesystem7__cxx114_DirELN9__gnu_cxx12_Lock_policyE2EE4swapERS5_" PURGE="0" COMMENT="" />
    <EXPORT ORDINAL="2557" NAME="_ZNSt12__shared_ptrINSt10filesystem7__cxx114_DirELN9__gnu_cxx12_Lock_policyE2EE5resetEv" PURGE="0" COMMENT="" />
    <EXPORT ORDINAL="2558" NAME="_ZNSt12__shared_ptrINSt10filesystem7__cxx114_DirELN9__gnu_cxx12_Lock_policyE2EEC1EDn" PURGE="0" COMMENT="" />
    <EXPORT ORDINAL="2559" NAME="_ZNSt12__shared_ptrINSt10filesystem7__cxx114_DirELN9__gnu_cxx12_Lock_policyE2EEC1EOS5_" PURGE="0" COMMENT="" />
    <EXPORT ORDINAL="2560" NAME="_ZNSt12__shared_ptrINSt10filesystem7__cxx114_DirELN9__gnu_cxx12_Lock_policyE2EEC1ERKSt10__weak_ptrIS2_LS4_2EESt9nothrow_t" PURGE="0" COMMENT="" />
    <EXPORT ORDINAL="2561" NAME="_ZNSt12__shared_ptrINSt10filesystem7__cxx114_DirELN9__gnu_cxx12_Lock_policyE2EEC1Ev" PURGE="0" COMMENT="" />
    <EXPORT ORDINAL="2562" NAME="_ZNSt12__shared_ptrINSt10filesystem7__cxx114_DirELN9__gnu_cxx12_Lock_policyE2EEC2EDn" PURGE="0" COMMENT="" />
    <EXPORT ORDINAL="2563" NAME="_ZNSt12__shared_ptrINSt10filesystem7__cxx114_DirELN9__gnu_cxx12_Lock_policyE2EEC2EOS5_" PURGE="0" COMMENT="" />
    <EXPORT ORDINAL="2564" NAME="_ZNSt12__shared_ptrINSt10filesystem7__cxx114_DirELN9__gnu_cxx12_Lock_policyE2EEC2ERKSt10__weak_ptrIS2_LS4_2EESt9nothrow_t" PURGE="0" COMMENT="" />
    <EXPORT ORDINAL="2565" NAME="_ZNSt12__shared_ptrINSt10filesystem7__cxx114_DirELN9__gnu_cxx12_Lock_policyE2EEC2Ev" PURGE="0" COMMENT="" />
    <EXPORT ORDINAL="2566" NAME="_ZNSt12__shared_ptrINSt10filesystem7__cxx114_DirELN9__gnu_cxx12_Lock_policyE2EEaSEOS5_" PURGE="0" COMMENT="" />
    <EXPORT ORDINAL="2567" NAME="_ZNSt12__sso_stringC1EOS_" PURGE="0" COMMENT="" />
    <EXPORT ORDINAL="2568" NAME="_ZNSt12__sso_stringC1EPKcy" PURGE="0" COMMENT="" />
    <EXPORT ORDINAL="2569" NAME="_ZNSt12__sso_stringC1ERKNSt7__cxx1112basic_stringIcSt11char_traitsIcESaIcEEE" PURGE="0" COMMENT="" />
    <EXPORT ORDINAL="2570" NAME="_ZNSt12__sso_stringC1ERKS_" PURGE="0" COMMENT="" />
    <EXPORT ORDINAL="2571" NAME="_ZNSt12__sso_stringC1ERKSs" PURGE="0" COMMENT="" />
    <EXPORT ORDINAL="2572" NAME="_ZNSt12__sso_stringC1Ev" PURGE="0" COMMENT="" />
    <EXPORT ORDINAL="2573" NAME="_ZNSt12__sso_stringC2EOS_" PURGE="0" COMMENT="" />
    <EXPORT ORDINAL="2574" NAME="_ZNSt12__sso_stringC2EPKcy" PURGE="0" COMMENT="" />
    <EXPORT ORDINAL="2575" NAME="_ZNSt12__sso_stringC2ERKNSt7__cxx1112basic_stringIcSt11char_traitsIcESaIcEEE" PURGE="0" COMMENT="" />
    <EXPORT ORDINAL="2576" NAME="_ZNSt12__sso_stringC2ERKS_" PURGE="0" COMMENT="" />
    <EXPORT ORDINAL="2577" NAME="_ZNSt12__sso_stringC2ERKSs" PURGE="0" COMMENT="" />
    <EXPORT ORDINAL="2578" NAME="_ZNSt12__sso_stringC2Ev" PURGE="0" COMMENT="" />
    <EXPORT ORDINAL="2579" NAME="_ZNSt12__sso_stringD1Ev" PURGE="0" COMMENT="" />
    <EXPORT ORDINAL="2580" NAME="_ZNSt12__sso_stringD2Ev" PURGE="0" COMMENT="" />
    <EXPORT ORDINAL="2581" NAME="_ZNSt12__sso_stringaSEOS_" PURGE="0" COMMENT="" />
    <EXPORT ORDINAL="2582" NAME="_ZNSt12__sso_stringaSERKS_" PURGE="0" COMMENT="" />
    <EXPORT ORDINAL="2583" NAME="_ZNSt12bad_weak_ptrD0Ev" PURGE="-1" COMMENT="" />
    <EXPORT ORDINAL="2584" NAME="_ZNSt12bad_weak_ptrD1Ev" PURGE="0" COMMENT="" />
    <EXPORT ORDINAL="2585" NAME="_ZNSt12bad_weak_ptrD2Ev" PURGE="0" COMMENT="" />
    <EXPORT ORDINAL="2586" NAME="_ZNSt12ctype_bynameIcEC1EPKcy" PURGE="0" COMMENT="" />
    <EXPORT ORDINAL="2587" NAME="_ZNSt12ctype_bynameIcEC1ERKNSt7__cxx1112basic_stringIcSt11char_traitsIcESaIcEEEy" PURGE="0" COMMENT="" />
    <EXPORT ORDINAL="2588" NAME="_ZNSt12ctype_bynameIcEC1ERKSsy" PURGE="0" COMMENT="" />
    <EXPORT ORDINAL="2589" NAME="_ZNSt12ctype_bynameIcEC2EPKcy" PURGE="0" COMMENT="" />
    <EXPORT ORDINAL="2590" NAME="_ZNSt12ctype_bynameIcEC2ERKNSt7__cxx1112basic_stringIcSt11char_traitsIcESaIcEEEy" PURGE="0" COMMENT="" />
    <EXPORT ORDINAL="2591" NAME="_ZNSt12ctype_bynameIcEC2ERKSsy" PURGE="0" COMMENT="" />
    <EXPORT ORDINAL="2592" NAME="_ZNSt12ctype_bynameIcED0Ev" PURGE="-1" COMMENT="" />
    <EXPORT ORDINAL="2593" NAME="_ZNSt12ctype_bynameIcED1Ev" PURGE="0" COMMENT="" />
    <EXPORT ORDINAL="2594" NAME="_ZNSt12ctype_bynameIcED2Ev" PURGE="0" COMMENT="" />
    <EXPORT ORDINAL="2595" NAME="_ZNSt12ctype_bynameIwEC1EPKcy" PURGE="0" COMMENT="" />
    <EXPORT ORDINAL="2596" NAME="_ZNSt12ctype_bynameIwEC1ERKNSt7__cxx1112basic_stringIcSt11char_traitsIcESaIcEEEy" PURGE="0" COMMENT="" />
    <EXPORT ORDINAL="2597" NAME="_ZNSt12ctype_bynameIwEC1ERKSsy" PURGE="0" COMMENT="" />
    <EXPORT ORDINAL="2598" NAME="_ZNSt12ctype_bynameIwEC2EPKcy" PURGE="0" COMMENT="" />
    <EXPORT ORDINAL="2599" NAME="_ZNSt12ctype_bynameIwEC2ERKNSt7__cxx1112basic_stringIcSt11char_traitsIcESaIcEEEy" PURGE="0" COMMENT="" />
    <EXPORT ORDINAL="2600" NAME="_ZNSt12ctype_bynameIwEC2ERKSsy" PURGE="0" COMMENT="" />
    <EXPORT ORDINAL="2601" NAME="_ZNSt12ctype_bynameIwED0Ev" PURGE="-1" COMMENT="" />
    <EXPORT ORDINAL="2602" NAME="_ZNSt12ctype_bynameIwED1Ev" PURGE="0" COMMENT="" />
    <EXPORT ORDINAL="2603" NAME="_ZNSt12ctype_bynameIwED2Ev" PURGE="0" COMMENT="" />
    <EXPORT ORDINAL="2604" NAME="_ZNSt12domain_errorC1EPKc" PURGE="0" COMMENT="" />
    <EXPORT ORDINAL="2605" NAME="_ZNSt12domain_errorC1ERKNSt7__cxx1112basic_stringIcSt11char_traitsIcESaIcEEE" PURGE="0" COMMENT="" />
    <EXPORT ORDINAL="2606" NAME="_ZNSt12domain_errorC1ERKSs" PURGE="0" COMMENT="" />
    <EXPORT ORDINAL="2607" NAME="_ZNSt12domain_errorC2EPKc" PURGE="0" COMMENT="" />
    <EXPORT ORDINAL="2608" NAME="_ZNSt12domain_errorC2ERKNSt7__cxx1112basic_stringIcSt11char_traitsIcESaIcEEE" PURGE="0" COMMENT="" />
    <EXPORT ORDINAL="2609" NAME="_ZNSt12domain_errorC2ERKSs" PURGE="0" COMMENT="" />
    <EXPORT ORDINAL="2610" NAME="_ZNSt12domain_errorD0Ev" PURGE="-1" COMMENT="" />
    <EXPORT ORDINAL="2611" NAME="_ZNSt12domain_errorD1Ev" PURGE="0" COMMENT="" />
    <EXPORT ORDINAL="2612" NAME="_ZNSt12domain_errorD2Ev" PURGE="0" COMMENT="" />
    <EXPORT ORDINAL="2613" NAME="_ZNSt12future_errorC1ESt10error_code" PURGE="0" COMMENT="" />
    <EXPORT ORDINAL="2614" NAME="_ZNSt12future_errorD0Ev" PURGE="-1" COMMENT="" />
    <EXPORT ORDINAL="2615" NAME="_ZNSt12future_errorD1Ev" PURGE="0" COMMENT="" />
    <EXPORT ORDINAL="2616" NAME="_ZNSt12future_errorD2Ev" PURGE="0" COMMENT="" />
    <EXPORT ORDINAL="2617" NAME="_ZNSt12length_errorC1EPKc" PURGE="0" COMMENT="" />
    <EXPORT ORDINAL="2618" NAME="_ZNSt12length_errorC1ERKNSt7__cxx1112basic_stringIcSt11char_traitsIcESaIcEEE" PURGE="0" COMMENT="" />
    <EXPORT ORDINAL="2619" NAME="_ZNSt12length_errorC1ERKSs" PURGE="0" COMMENT="" />
    <EXPORT ORDINAL="2620" NAME="_ZNSt12length_errorC2EPKc" PURGE="0" COMMENT="" />
    <EXPORT ORDINAL="2621" NAME="_ZNSt12length_errorC2ERKNSt7__cxx1112basic_stringIcSt11char_traitsIcESaIcEEE" PURGE="0" COMMENT="" />
    <EXPORT ORDINAL="2622" NAME="_ZNSt12length_errorC2ERKSs" PURGE="0" COMMENT="" />
    <EXPORT ORDINAL="2623" NAME="_ZNSt12length_errorD0Ev" PURGE="-1" COMMENT="" />
    <EXPORT ORDINAL="2624" NAME="_ZNSt12length_errorD1Ev" PURGE="0" COMMENT="" />
    <EXPORT ORDINAL="2625" NAME="_ZNSt12length_errorD2Ev" PURGE="0" COMMENT="" />
    <EXPORT ORDINAL="2626" NAME="_ZNSt12out_of_rangeC1EPKc" PURGE="0" COMMENT="" />
    <EXPORT ORDINAL="2627" NAME="_ZNSt12out_of_rangeC1ERKNSt7__cxx1112basic_stringIcSt11char_traitsIcESaIcEEE" PURGE="0" COMMENT="" />
    <EXPORT ORDINAL="2628" NAME="_ZNSt12out_of_rangeC1ERKSs" PURGE="0" COMMENT="" />
    <EXPORT ORDINAL="2629" NAME="_ZNSt12out_of_rangeC2EPKc" PURGE="0" COMMENT="" />
    <EXPORT ORDINAL="2630" NAME="_ZNSt12out_of_rangeC2ERKNSt7__cxx1112basic_stringIcSt11char_traitsIcESaIcEEE" PURGE="0" COMMENT="" />
    <EXPORT ORDINAL="2631" NAME="_ZNSt12out_of_rangeC2ERKSs" PURGE="0" COMMENT="" />
    <EXPORT ORDINAL="2632" NAME="_ZNSt12out_of_rangeD0Ev" PURGE="-1" COMMENT="" />
    <EXPORT ORDINAL="2633" NAME="_ZNSt12out_of_rangeD1Ev" PURGE="0" COMMENT="" />
    <EXPORT ORDINAL="2634" NAME="_ZNSt12out_of_rangeD2Ev" PURGE="0" COMMENT="" />
    <EXPORT ORDINAL="2635" NAME="_ZNSt12placeholders2_1E" PURGE="-1" COMMENT="" />
    <EXPORT ORDINAL="2636" NAME="_ZNSt12placeholders2_2E" PURGE="-1" COMMENT="" />
    <EXPORT ORDINAL="2637" NAME="_ZNSt12placeholders2_3E" PURGE="-1" COMMENT="" />
    <EXPORT ORDINAL="2638" NAME="_ZNSt12placeholders2_4E" PURGE="-1" COMMENT="" />
    <EXPORT ORDINAL="2639" NAME="_ZNSt12placeholders2_5E" PURGE="-1" COMMENT="" />
    <EXPORT ORDINAL="2640" NAME="_ZNSt12placeholders2_6E" PURGE="-1" COMMENT="" />
    <EXPORT ORDINAL="2641" NAME="_ZNSt12placeholders2_7E" PURGE="-1" COMMENT="" />
    <EXPORT ORDINAL="2642" NAME="_ZNSt12placeholders2_8E" PURGE="-1" COMMENT="" />
    <EXPORT ORDINAL="2643" NAME="_ZNSt12placeholders2_9E" PURGE="-1" COMMENT="" />
    <EXPORT ORDINAL="2644" NAME="_ZNSt12placeholders3_10E" PURGE="-1" COMMENT="" />
    <EXPORT ORDINAL="2645" NAME="_ZNSt12placeholders3_11E" PURGE="-1" COMMENT="" />
    <EXPORT ORDINAL="2646" NAME="_ZNSt12placeholders3_12E" PURGE="-1" COMMENT="" />
    <EXPORT ORDINAL="2647" NAME="_ZNSt12placeholders3_13E" PURGE="-1" COMMENT="" />
    <EXPORT ORDINAL="2648" NAME="_ZNSt12placeholders3_14E" PURGE="-1" COMMENT="" />
    <EXPORT ORDINAL="2649" NAME="_ZNSt12placeholders3_15E" PURGE="-1" COMMENT="" />
    <EXPORT ORDINAL="2650" NAME="_ZNSt12placeholders3_16E" PURGE="-1" COMMENT="" />
    <EXPORT ORDINAL="2651" NAME="_ZNSt12placeholders3_17E" PURGE="-1" COMMENT="" />
    <EXPORT ORDINAL="2652" NAME="_ZNSt12placeholders3_18E" PURGE="-1" COMMENT="" />
    <EXPORT ORDINAL="2653" NAME="_ZNSt12placeholders3_19E" PURGE="-1" COMMENT="" />
    <EXPORT ORDINAL="2654" NAME="_ZNSt12placeholders3_20E" PURGE="-1" COMMENT="" />
    <EXPORT ORDINAL="2655" NAME="_ZNSt12placeholders3_21E" PURGE="-1" COMMENT="" />
    <EXPORT ORDINAL="2656" NAME="_ZNSt12placeholders3_22E" PURGE="-1" COMMENT="" />
    <EXPORT ORDINAL="2657" NAME="_ZNSt12placeholders3_23E" PURGE="-1" COMMENT="" />
    <EXPORT ORDINAL="2658" NAME="_ZNSt12placeholders3_24E" PURGE="-1" COMMENT="" />
    <EXPORT ORDINAL="2659" NAME="_ZNSt12placeholders3_25E" PURGE="-1" COMMENT="" />
    <EXPORT ORDINAL="2660" NAME="_ZNSt12placeholders3_26E" PURGE="-1" COMMENT="" />
    <EXPORT ORDINAL="2661" NAME="_ZNSt12placeholders3_27E" PURGE="-1" COMMENT="" />
    <EXPORT ORDINAL="2662" NAME="_ZNSt12placeholders3_28E" PURGE="-1" COMMENT="" />
    <EXPORT ORDINAL="2663" NAME="_ZNSt12placeholders3_29E" PURGE="-1" COMMENT="" />
    <EXPORT ORDINAL="2664" NAME="_ZNSt12strstreambuf3strEv" PURGE="0" COMMENT="" />
    <EXPORT ORDINAL="2665" NAME="_ZNSt12strstreambuf6freezeEb" PURGE="0" COMMENT="" />
    <EXPORT ORDINAL="2666" NAME="_ZNSt12strstreambuf6setbufEPcx" PURGE="0" COMMENT="" />
    <EXPORT ORDINAL="2667" NAME="_ZNSt12strstreambuf7_M_freeEPc" PURGE="0" COMMENT="" />
    <EXPORT ORDINAL="2668" NAME="_ZNSt12strstreambuf7seekoffExSt12_Ios_SeekdirSt13_Ios_Openmode" PURGE="0" COMMENT="" />
    <EXPORT ORDINAL="2669" NAME="_ZNSt12strstreambuf7seekposESt4fposIiESt13_Ios_Openmode" PURGE="0" COMMENT="" />
    <EXPORT ORDINAL="2670" NAME="_ZNSt12strstreambuf8_M_allocEy" PURGE="0" COMMENT="" />
    <EXPORT ORDINAL="2671" NAME="_ZNSt12strstreambuf8_M_setupEPcS0_x" PURGE="0" COMMENT="" />
    <EXPORT ORDINAL="2672" NAME="_ZNSt12strstreambuf8overflowEi" PURGE="0" COMMENT="" />
    <EXPORT ORDINAL="2673" NAME="_ZNSt12strstreambuf9pbackfailEi" PURGE="0" COMMENT="" />
    <EXPORT ORDINAL="2674" NAME="_ZNSt12strstreambuf9underflowEv" PURGE="0" COMMENT="" />
    <EXPORT ORDINAL="2675" NAME="_ZNSt12strstreambufC1EPFPvyEPFvS0_E" PURGE="0" COMMENT="" />
    <EXPORT ORDINAL="2676" NAME="_ZNSt12strstreambufC1EPKax" PURGE="0" COMMENT="" />
    <EXPORT ORDINAL="2677" NAME="_ZNSt12strstreambufC1EPKcx" PURGE="0" COMMENT="" />
    <EXPORT ORDINAL="2678" NAME="_ZNSt12strstreambufC1EPKhx" PURGE="0" COMMENT="" />
    <EXPORT ORDINAL="2679" NAME="_ZNSt12strstreambufC1EPaxS0_" PURGE="0" COMMENT="" />
    <EXPORT ORDINAL="2680" NAME="_ZNSt12strstreambufC1EPcxS0_" PURGE="0" COMMENT="" />
    <EXPORT ORDINAL="2681" NAME="_ZNSt12strstreambufC1EPhxS0_" PURGE="0" COMMENT="" />
    <EXPORT ORDINAL="2682" NAME="_ZNSt12strstreambufC1Ex" PURGE="0" COMMENT="" />
    <EXPORT ORDINAL="2683" NAME="_ZNSt12strstreambufC2EPFPvyEPFvS0_E" PURGE="0" COMMENT="" />
    <EXPORT ORDINAL="2684" NAME="_ZNSt12strstreambufC2EPKax" PURGE="0" COMMENT="" />
    <EXPORT ORDINAL="2685" NAME="_ZNSt12strstreambufC2EPKcx" PURGE="0" COMMENT="" />
    <EXPORT ORDINAL="2686" NAME="_ZNSt12strstreambufC2EPKhx" PURGE="0" COMMENT="" />
    <EXPORT ORDINAL="2687" NAME="_ZNSt12strstreambufC2EPaxS0_" PURGE="0" COMMENT="" />
    <EXPORT ORDINAL="2688" NAME="_ZNSt12strstreambufC2EPcxS0_" PURGE="0" COMMENT="" />
    <EXPORT ORDINAL="2689" NAME="_ZNSt12strstreambufC2EPhxS0_" PURGE="0" COMMENT="" />
    <EXPORT ORDINAL="2690" NAME="_ZNSt12strstreambufC2Ex" PURGE="0" COMMENT="" />
    <EXPORT ORDINAL="2691" NAME="_ZNSt12strstreambufD0Ev" PURGE="-1" COMMENT="" />
    <EXPORT ORDINAL="2692" NAME="_ZNSt12strstreambufD1Ev" PURGE="0" COMMENT="" />
    <EXPORT ORDINAL="2693" NAME="_ZNSt12strstreambufD2Ev" PURGE="0" COMMENT="" />
    <EXPORT ORDINAL="2694" NAME="_ZNSt12system_errorC2ESt10error_codePKc" PURGE="0" COMMENT="" />
    <EXPORT ORDINAL="2695" NAME="_ZNSt12system_errorC2ESt10error_codeRKNSt7__cxx1112basic_stringIcSt11char_traitsIcESaIcEEE" PURGE="0" COMMENT="" />
    <EXPORT ORDINAL="2696" NAME="_ZNSt12system_errorC2ESt10error_codeRKSs" PURGE="0" COMMENT="" />
    <EXPORT ORDINAL="2697" NAME="_ZNSt12system_errorD0Ev" PURGE="-1" COMMENT="" />
    <EXPORT ORDINAL="2698" NAME="_ZNSt12system_errorD1Ev" PURGE="0" COMMENT="" />
    <EXPORT ORDINAL="2699" NAME="_ZNSt12system_errorD2Ev" PURGE="0" COMMENT="" />
    <EXPORT ORDINAL="2700" NAME="_ZNSt13__facet_shims10__time_getIcEESt19istreambuf_iteratorIT_St11char_traitsIS2_EESt17integral_constantIbLb0EEPKNSt6locale5facetES5_S5_RSt8ios_baseRSt12_Ios_IostateP2tmc" PURGE="-1" COMMENT="" />
    <EXPORT ORDINAL="2701" NAME="_ZNSt13__facet_shims10__time_getIcEESt19istreambuf_iteratorIT_St11char_traitsIS2_EESt17integral_constantIbLb1EEPKNSt6locale5facetES5_S5_RSt8ios_baseRSt12_Ios_IostateP2tmc" PURGE="-1" COMMENT="" />
    <EXPORT ORDINAL="2702" NAME="_ZNSt13__facet_shims10__time_getIwEESt19istreambuf_iteratorIT_St11char_traitsIS2_EESt17integral_constantIbLb0EEPKNSt6locale5facetES5_S5_RSt8ios_baseRSt12_Ios_IostateP2tmc" PURGE="-1" COMMENT="" />
    <EXPORT ORDINAL="2703" NAME="_ZNSt13__facet_shims10__time_getIwEESt19istreambuf_iteratorIT_St11char_traitsIS2_EESt17integral_constantIbLb1EEPKNSt6locale5facetES5_S5_RSt8ios_baseRSt12_Ios_IostateP2tmc" PURGE="-1" COMMENT="" />
    <EXPORT ORDINAL="2704" NAME="_ZNSt13__facet_shims11__money_getIcEESt19istreambuf_iteratorIT_St11char_traitsIS2_EESt17integral_constantIbLb0EEPKNSt6locale5facetES5_S5_bRSt8ios_baseRSt12_Ios_IostatePePNS_12__any_stringE" PURGE="0" COMMENT="" />
    <EXPORT ORDINAL="2705" NAME="_ZNSt13__facet_shims11__money_getIcEESt19istreambuf_iteratorIT_St11char_traitsIS2_EESt17integral_constantIbLb1EEPKNSt6locale5facetES5_S5_bRSt8ios_baseRSt12_Ios_IostatePePNS_12__any_stringE" PURGE="0" COMMENT="" />
    <EXPORT ORDINAL="2706" NAME="_ZNSt13__facet_shims11__money_getIwEESt19istreambuf_iteratorIT_St11char_traitsIS2_EESt17integral_constantIbLb0EEPKNSt6locale5facetES5_S5_bRSt8ios_baseRSt12_Ios_IostatePePNS_12__any_stringE" PURGE="0" COMMENT="" />
    <EXPORT ORDINAL="2707" NAME="_ZNSt13__facet_shims11__money_getIwEESt19istreambuf_iteratorIT_St11char_traitsIS2_EESt17integral_constantIbLb1EEPKNSt6locale5facetES5_S5_bRSt8ios_baseRSt12_Ios_IostatePePNS_12__any_stringE" PURGE="0" COMMENT="" />
    <EXPORT ORDINAL="2708" NAME="_ZNSt13__facet_shims11__money_putIcEESt19ostreambuf_iteratorIT_St11char_traitsIS2_EESt17integral_constantIbLb0EEPKNSt6locale5facetES5_bRSt8ios_baseS2_ePKNS_12__any_stringE" PURGE="0" COMMENT="" />
    <EXPORT ORDINAL="2709" NAME="_ZNSt13__facet_shims11__money_putIcEESt19ostreambuf_iteratorIT_St11char_traitsIS2_EESt17integral_constantIbLb1EEPKNSt6locale5facetES5_bRSt8ios_baseS2_ePKNS_12__any_stringE" PURGE="0" COMMENT="" />
    <EXPORT ORDINAL="2710" NAME="_ZNSt13__facet_shims11__money_putIwEESt19ostreambuf_iteratorIT_St11char_traitsIS2_EESt17integral_constantIbLb0EEPKNSt6locale5facetES5_bRSt8ios_baseS2_ePKNS_12__any_stringE" PURGE="0" COMMENT="" />
    <EXPORT ORDINAL="2711" NAME="_ZNSt13__facet_shims11__money_putIwEESt19ostreambuf_iteratorIT_St11char_traitsIS2_EESt17integral_constantIbLb1EEPKNSt6locale5facetES5_bRSt8ios_baseS2_ePKNS_12__any_stringE" PURGE="0" COMMENT="" />
    <EXPORT ORDINAL="2712" NAME="_ZNSt13__facet_shims14__messages_getIcEEvSt17integral_constantIbLb0EEPKNSt6locale5facetERNS_12__any_stringEiiiPKT_y" PURGE="0" COMMENT="" />
    <EXPORT ORDINAL="2713" NAME="_ZNSt13__facet_shims14__messages_getIcEEvSt17integral_constantIbLb1EEPKNSt6locale5facetERNS_12__any_stringEiiiPKT_y" PURGE="0" COMMENT="" />
    <EXPORT ORDINAL="2714" NAME="_ZNSt13__facet_shims14__messages_getIwEEvSt17integral_constantIbLb0EEPKNSt6locale5facetERNS_12__any_stringEiiiPKT_y" PURGE="0" COMMENT="" />
    <EXPORT ORDINAL="2715" NAME="_ZNSt13__facet_shims14__messages_getIwEEvSt17integral_constantIbLb1EEPKNSt6locale5facetERNS_12__any_stringEiiiPKT_y" PURGE="0" COMMENT="" />
    <EXPORT ORDINAL="2716" NAME="_ZNSt13__facet_shims15__messages_openIcEEiSt17integral_constantIbLb0EEPKNSt6locale5facetEPKcyRKS3_" PURGE="0" COMMENT="" />
    <EXPORT ORDINAL="2717" NAME="_ZNSt13__facet_shims15__messages_openIcEEiSt17integral_constantIbLb1EEPKNSt6locale5facetEPKcyRKS3_" PURGE="0" COMMENT="" />
    <EXPORT ORDINAL="2718" NAME="_ZNSt13__facet_shims15__messages_openIwEEiSt17integral_constantIbLb0EEPKNSt6locale5facetEPKcyRKS3_" PURGE="0" COMMENT="" />
    <EXPORT ORDINAL="2719" NAME="_ZNSt13__facet_shims15__messages_openIwEEiSt17integral_constantIbLb1EEPKNSt6locale5facetEPKcyRKS3_" PURGE="0" COMMENT="" />
    <EXPORT ORDINAL="2720" NAME="_ZNSt13__facet_shims16__messages_closeIcEEvSt17integral_constantIbLb0EEPKNSt6locale5facetEi" PURGE="-1" COMMENT="" />
    <EXPORT ORDINAL="2721" NAME="_ZNSt13__facet_shims16__messages_closeIcEEvSt17integral_constantIbLb1EEPKNSt6locale5facetEi" PURGE="-1" COMMENT="" />
    <EXPORT ORDINAL="2722" NAME="_ZNSt13__facet_shims16__messages_closeIwEEvSt17integral_constantIbLb0EEPKNSt6locale5facetEi" PURGE="-1" COMMENT="" />
    <EXPORT ORDINAL="2723" NAME="_ZNSt13__facet_shims16__messages_closeIwEEvSt17integral_constantIbLb1EEPKNSt6locale5facetEi" PURGE="-1" COMMENT="" />
    <EXPORT ORDINAL="2724" NAME="_ZNSt13__facet_shims17__collate_compareIcEEiSt17integral_constantIbLb0EEPKNSt6locale5facetEPKT_S9_S9_S9_" PURGE="-1" COMMENT="" />
    <EXPORT ORDINAL="2725" NAME="_ZNSt13__facet_shims17__collate_compareIcEEiSt17integral_constantIbLb1EEPKNSt6locale5facetEPKT_S9_S9_S9_" PURGE="-1" COMMENT="" />
    <EXPORT ORDINAL="2726" NAME="_ZNSt13__facet_shims17__collate_compareIwEEiSt17integral_constantIbLb0EEPKNSt6locale5facetEPKT_S9_S9_S9_" PURGE="-1" COMMENT="" />
    <EXPORT ORDINAL="2727" NAME="_ZNSt13__facet_shims17__collate_compareIwEEiSt17integral_constantIbLb1EEPKNSt6locale5facetEPKT_S9_S9_S9_" PURGE="-1" COMMENT="" />
    <EXPORT ORDINAL="2728" NAME="_ZNSt13__facet_shims19__collate_transformIcEEvSt17integral_constantIbLb0EEPKNSt6locale5facetERNS_12__any_stringEPKT_SB_" PURGE="0" COMMENT="" />
    <EXPORT ORDINAL="2729" NAME="_ZNSt13__facet_shims19__collate_transformIcEEvSt17integral_constantIbLb1EEPKNSt6locale5facetERNS_12__any_stringEPKT_SB_" PURGE="0" COMMENT="" />
    <EXPORT ORDINAL="2730" NAME="_ZNSt13__facet_shims19__collate_transformIwEEvSt17integral_constantIbLb0EEPKNSt6locale5facetERNS_12__any_stringEPKT_SB_" PURGE="0" COMMENT="" />
    <EXPORT ORDINAL="2731" NAME="_ZNSt13__facet_shims19__collate_transformIwEEvSt17integral_constantIbLb1EEPKNSt6locale5facetERNS_12__any_stringEPKT_SB_" PURGE="0" COMMENT="" />
    <EXPORT ORDINAL="2732" NAME="_ZNSt13__facet_shims20__time_get_dateorderIcEENSt9time_base9dateorderESt17integral_constantIbLb0EEPKNSt6locale5facetE" PURGE="-1" COMMENT="" />
    <EXPORT ORDINAL="2733" NAME="_ZNSt13__facet_shims20__time_get_dateorderIcEENSt9time_base9dateorderESt17integral_constantIbLb1EEPKNSt6locale5facetE" PURGE="-1" COMMENT="" />
    <EXPORT ORDINAL="2734" NAME="_ZNSt13__facet_shims20__time_get_dateorderIwEENSt9time_base9dateorderESt17integral_constantIbLb0EEPKNSt6locale5facetE" PURGE="-1" COMMENT="" />
    <EXPORT ORDINAL="2735" NAME="_ZNSt13__facet_shims20__time_get_dateorderIwEENSt9time_base9dateorderESt17integral_constantIbLb1EEPKNSt6locale5facetE" PURGE="-1" COMMENT="" />
    <EXPORT ORDINAL="2736" NAME="_ZNSt13__facet_shims21__numpunct_fill_cacheIcEEvSt17integral_constantIbLb0EEPKNSt6locale5facetEPSt16__numpunct_cacheIT_E" PURGE="0" COMMENT="" />
    <EXPORT ORDINAL="2737" NAME="_ZNSt13__facet_shims21__numpunct_fill_cacheIcEEvSt17integral_constantIbLb1EEPKNSt6locale5facetEPSt16__numpunct_cacheIT_E" PURGE="0" COMMENT="" />
    <EXPORT ORDINAL="2738" NAME="_ZNSt13__facet_shims21__numpunct_fill_cacheIwEEvSt17integral_constantIbLb0EEPKNSt6locale5facetEPSt16__numpunct_cacheIT_E" PURGE="0" COMMENT="" />
    <EXPORT ORDINAL="2739" NAME="_ZNSt13__facet_shims21__numpunct_fill_cacheIwEEvSt17integral_constantIbLb1EEPKNSt6locale5facetEPSt16__numpunct_cacheIT_E" PURGE="0" COMMENT="" />
    <EXPORT ORDINAL="2740" NAME="_ZNSt13__facet_shims23__moneypunct_fill_cacheIcLb0EEEvSt17integral_constantIbLb0EEPKNSt6locale5facetEPSt18__moneypunct_cacheIT_XT0_EE" PURGE="0" COMMENT="" />
    <EXPORT ORDINAL="2741" NAME="_ZNSt13__facet_shims23__moneypunct_fill_cacheIcLb0EEEvSt17integral_constantIbLb1EEPKNSt6locale5facetEPSt18__moneypunct_cacheIT_XT0_EE" PURGE="0" COMMENT="" />
    <EXPORT ORDINAL="2742" NAME="_ZNSt13__facet_shims23__moneypunct_fill_cacheIcLb1EEEvSt17integral_constantIbLb0EEPKNSt6locale5facetEPSt18__moneypunct_cacheIT_XT0_EE" PURGE="0" COMMENT="" />
    <EXPORT ORDINAL="2743" NAME="_ZNSt13__facet_shims23__moneypunct_fill_cacheIcLb1EEEvSt17integral_constantIbLb1EEPKNSt6locale5facetEPSt18__moneypunct_cacheIT_XT0_EE" PURGE="0" COMMENT="" />
    <EXPORT ORDINAL="2744" NAME="_ZNSt13__facet_shims23__moneypunct_fill_cacheIwLb0EEEvSt17integral_constantIbLb0EEPKNSt6locale5facetEPSt18__moneypunct_cacheIT_XT0_EE" PURGE="0" COMMENT="" />
    <EXPORT ORDINAL="2745" NAME="_ZNSt13__facet_shims23__moneypunct_fill_cacheIwLb0EEEvSt17integral_constantIbLb1EEPKNSt6locale5facetEPSt18__moneypunct_cacheIT_XT0_EE" PURGE="0" COMMENT="" />
    <EXPORT ORDINAL="2746" NAME="_ZNSt13__facet_shims23__moneypunct_fill_cacheIwLb1EEEvSt17integral_constantIbLb0EEPKNSt6locale5facetEPSt18__moneypunct_cacheIT_XT0_EE" PURGE="0" COMMENT="" />
    <EXPORT ORDINAL="2747" NAME="_ZNSt13__facet_shims23__moneypunct_fill_cacheIwLb1EEEvSt17integral_constantIbLb1EEPKNSt6locale5facetEPSt18__moneypunct_cacheIT_XT0_EE" PURGE="0" COMMENT="" />
    <EXPORT ORDINAL="2748" NAME="_ZNSt13__future_base11_State_base15_M_run_deferredEv" PURGE="0" COMMENT="" />
    <EXPORT ORDINAL="2749" NAME="_ZNSt13__future_base11_State_baseD0Ev" PURGE="-1" COMMENT="" />
    <EXPORT ORDINAL="2750" NAME="_ZNSt13__future_base11_State_baseD1Ev" PURGE="0" COMMENT="" />
    <EXPORT ORDINAL="2751" NAME="_ZNSt13__future_base11_State_baseD2Ev" PURGE="0" COMMENT="" />
    <EXPORT ORDINAL="2752" NAME="_ZNSt13__future_base12_Result_baseC1Ev" PURGE="0" COMMENT="" />
    <EXPORT ORDINAL="2753" NAME="_ZNSt13__future_base12_Result_baseC2Ev" PURGE="0" COMMENT="" />
    <EXPORT ORDINAL="2754" NAME="_ZNSt13__future_base12_Result_baseD0Ev" PURGE="-1" COMMENT="" />
    <EXPORT ORDINAL="2755" NAME="_ZNSt13__future_base12_Result_baseD1Ev" PURGE="0" COMMENT="" />
    <EXPORT ORDINAL="2756" NAME="_ZNSt13__future_base12_Result_baseD2Ev" PURGE="0" COMMENT="" />
    <EXPORT ORDINAL="2757" NAME="_ZNSt13__future_base13_State_baseV211_Make_ready6_M_setEv" PURGE="-1" COMMENT="" />
    <EXPORT ORDINAL="2758" NAME="_ZNSt13__future_base13_State_baseV211_Make_ready6_S_runEPv" PURGE="-1" COMMENT="" />
    <EXPORT ORDINAL="2759" NAME="_ZNSt13__future_base19_Async_state_common15_M_run_deferredEv" PURGE="0" COMMENT="" />
    <EXPORT ORDINAL="2760" NAME="_ZNSt13__future_base19_Async_state_commonD0Ev" PURGE="0" COMMENT="" />
    <EXPORT ORDINAL="2761" NAME="_ZNSt13__future_base19_Async_state_commonD1Ev" PURGE="0" COMMENT="" />
    <EXPORT ORDINAL="2762" NAME="_ZNSt13__future_base19_Async_state_commonD2Ev" PURGE="0" COMMENT="" />
    <EXPORT ORDINAL="2763" NAME="_ZNSt13__future_base7_ResultIvE10_M_destroyEv" PURGE="-1" COMMENT="" />
    <EXPORT ORDINAL="2764" NAME="_ZNSt13__ios_failureD0Ev" PURGE="-1" COMMENT="" />
    <EXPORT ORDINAL="2765" NAME="_ZNSt13__ios_failureD1Ev" PURGE="0" COMMENT="" />
    <EXPORT ORDINAL="2766" NAME="_ZNSt13bad_exceptionD0Ev" PURGE="-1" COMMENT="" />
    <EXPORT ORDINAL="2767" NAME="_ZNSt13bad_exceptionD1Ev" PURGE="0" COMMENT="" />
    <EXPORT ORDINAL="2768" NAME="_ZNSt13bad_exceptionD2Ev" PURGE="0" COMMENT="" />
    <EXPORT ORDINAL="2769" NAME="_ZNSt13basic_filebufIcSt11char_traitsIcEE13_M_set_bufferEx" PURGE="0" COMMENT="" />
    <EXPORT ORDINAL="2770" NAME="_ZNSt13basic_filebufIcSt11char_traitsIcEE14_M_get_ext_posERi" PURGE="0" COMMENT="" />
    <EXPORT ORDINAL="2771" NAME="_ZNSt13basic_filebufIcSt11char_traitsIcEE15_M_create_pbackEv" PURGE="0" COMMENT="" />
    <EXPORT ORDINAL="2772" NAME="_ZNSt13basic_filebufIcSt11char_traitsIcEE16_M_destroy_pbackEv" PURGE="0" COMMENT="" />
    <EXPORT ORDINAL="2773" NAME="_ZNSt13basic_filebufIcSt11char_traitsIcEE19_M_terminate_outputEv" PURGE="0" COMMENT="" />
    <EXPORT ORDINAL="2774" NAME="_ZNSt13basic_filebufIcSt11char_traitsIcEE22_M_convert_to_externalEPcx" PURGE="0" COMMENT="" />
    <EXPORT ORDINAL="2775" NAME="_ZNSt13basic_filebufIcSt11char_traitsIcEE26_M_destroy_internal_bufferEv" PURGE="0" COMMENT="" />
    <EXPORT ORDINAL="2776" NAME="_ZNSt13basic_filebufIcSt11char_traitsIcEE27_M_allocate_internal_bufferEv" PURGE="0" COMMENT="" />
    <EXPORT ORDINAL="2777" NAME="_ZNSt13basic_filebufIcSt11char_traitsIcEE4openEPKcSt13_Ios_Openmode" PURGE="0" COMMENT="" />
    <EXPORT ORDINAL="2778" NAME="_ZNSt13basic_filebufIcSt11char_traitsIcEE4openEPKwSt13_Ios_Openmode" PURGE="0" COMMENT="" />
    <EXPORT ORDINAL="2779" NAME="_ZNSt13basic_filebufIcSt11char_traitsIcEE4openERKNSt7__cxx1112basic_stringIcS1_SaIcEEESt13_Ios_Openmode" PURGE="0" COMMENT="" />
    <EXPORT ORDINAL="2780" NAME="_ZNSt13basic_filebufIcSt11char_traitsIcEE4openERKSsSt13_Ios_Openmode" PURGE="0" COMMENT="" />
    <EXPORT ORDINAL="2781" NAME="_ZNSt13basic_filebufIcSt11char_traitsIcEE4swapERS2_" PURGE="0" COMMENT="" />
    <EXPORT ORDINAL="2782" NAME="_ZNSt13basic_filebufIcSt11char_traitsIcEE4syncEv" PURGE="0" COMMENT="" />
    <EXPORT ORDINAL="2783" NAME="_ZNSt13basic_filebufIcSt11char_traitsIcEE5closeEv" PURGE="0" COMMENT="" />
    <EXPORT ORDINAL="2784" NAME="_ZNSt13basic_filebufIcSt11char_traitsIcEE5imbueERKSt6locale" PURGE="0" COMMENT="" />
    <EXPORT ORDINAL="2785" NAME="_ZNSt13basic_filebufIcSt11char_traitsIcEE6setbufEPcx" PURGE="0" COMMENT="" />
    <EXPORT ORDINAL="2786" NAME="_ZNSt13basic_filebufIcSt11char_traitsIcEE6xsgetnEPcx" PURGE="0" COMMENT="" />
    <EXPORT ORDINAL="2787" NAME="_ZNSt13basic_filebufIcSt11char_traitsIcEE6xsputnEPKcx" PURGE="0" COMMENT="" />
    <EXPORT ORDINAL="2788" NAME="_ZNSt13basic_filebufIcSt11char_traitsIcEE7_M_seekExSt12_Ios_Seekdiri" PURGE="0" COMMENT="" />
    <EXPORT ORDINAL="2789" NAME="_ZNSt13basic_filebufIcSt11char_traitsIcEE7seekoffExSt12_Ios_SeekdirSt13_Ios_Openmode" PURGE="0" COMMENT="" />
    <EXPORT ORDINAL="2790" NAME="_ZNSt13basic_filebufIcSt11char_traitsIcEE7seekposESt4fposIiESt13_Ios_Openmode" PURGE="0" COMMENT="" />
    <EXPORT ORDINAL="2791" NAME="_ZNSt13basic_filebufIcSt11char_traitsIcEE8overflowEi" PURGE="0" COMMENT="" />
    <EXPORT ORDINAL="2792" NAME="_ZNSt13basic_filebufIcSt11char_traitsIcEE9pbackfailEi" PURGE="0" COMMENT="" />
    <EXPORT ORDINAL="2793" NAME="_ZNSt13basic_filebufIcSt11char_traitsIcEE9showmanycEv" PURGE="0" COMMENT="" />
    <EXPORT ORDINAL="2794" NAME="_ZNSt13basic_filebufIcSt11char_traitsIcEE9underflowEv" PURGE="0" COMMENT="" />
    <EXPORT ORDINAL="2795" NAME="_ZNSt13basic_filebufIcSt11char_traitsIcEEC1EOS2_" PURGE="0" COMMENT="" />
    <EXPORT ORDINAL="2796" NAME="_ZNSt13basic_filebufIcSt11char_traitsIcEEC1Ev" PURGE="0" COMMENT="" />
    <EXPORT ORDINAL="2797" NAME="_ZNSt13basic_filebufIcSt11char_traitsIcEEC2EOS2_" PURGE="0" COMMENT="" />
    <EXPORT ORDINAL="2798" NAME="_ZNSt13basic_filebufIcSt11char_traitsIcEEC2Ev" PURGE="0" COMMENT="" />
    <EXPORT ORDINAL="2799" NAME="_ZNSt13basic_filebufIcSt11char_traitsIcEED0Ev" PURGE="-1" COMMENT="" />
    <EXPORT ORDINAL="2800" NAME="_ZNSt13basic_filebufIcSt11char_traitsIcEED1Ev" PURGE="0" COMMENT="" />
    <EXPORT ORDINAL="2801" NAME="_ZNSt13basic_filebufIcSt11char_traitsIcEED2Ev" PURGE="0" COMMENT="" />
    <EXPORT ORDINAL="2802" NAME="_ZNSt13basic_filebufIcSt11char_traitsIcEEaSEOS2_" PURGE="0" COMMENT="" />
    <EXPORT ORDINAL="2803" NAME="_ZNSt13basic_filebufIwSt11char_traitsIwEE13_M_set_bufferEx" PURGE="0" COMMENT="" />
    <EXPORT ORDINAL="2804" NAME="_ZNSt13basic_filebufIwSt11char_traitsIwEE14_M_get_ext_posERi" PURGE="0" COMMENT="" />
    <EXPORT ORDINAL="2805" NAME="_ZNSt13basic_filebufIwSt11char_traitsIwEE15_M_create_pbackEv" PURGE="0" COMMENT="" />
    <EXPORT ORDINAL="2806" NAME="_ZNSt13basic_filebufIwSt11char_traitsIwEE16_M_destroy_pbackEv" PURGE="0" COMMENT="" />
    <EXPORT ORDINAL="2807" NAME="_ZNSt13basic_filebufIwSt11char_traitsIwEE19_M_terminate_outputEv" PURGE="0" COMMENT="" />
    <EXPORT ORDINAL="2808" NAME="_ZNSt13basic_filebufIwSt11char_traitsIwEE22_M_convert_to_externalEPwx" PURGE="0" COMMENT="" />
    <EXPORT ORDINAL="2809" NAME="_ZNSt13basic_filebufIwSt11char_traitsIwEE26_M_destroy_internal_bufferEv" PURGE="0" COMMENT="" />
    <EXPORT ORDINAL="2810" NAME="_ZNSt13basic_filebufIwSt11char_traitsIwEE27_M_allocate_internal_bufferEv" PURGE="0" COMMENT="" />
    <EXPORT ORDINAL="2811" NAME="_ZNSt13basic_filebufIwSt11char_traitsIwEE4openEPKcSt13_Ios_Openmode" PURGE="0" COMMENT="" />
    <EXPORT ORDINAL="2812" NAME="_ZNSt13basic_filebufIwSt11char_traitsIwEE4openEPKwSt13_Ios_Openmode" PURGE="0" COMMENT="" />
    <EXPORT ORDINAL="2813" NAME="_ZNSt13basic_filebufIwSt11char_traitsIwEE4openERKNSt7__cxx1112basic_stringIcS0_IcESaIcEEESt13_Ios_Openmode" PURGE="0" COMMENT="" />
    <EXPORT ORDINAL="2814" NAME="_ZNSt13basic_filebufIwSt11char_traitsIwEE4openERKSsSt13_Ios_Openmode" PURGE="0" COMMENT="" />
    <EXPORT ORDINAL="2815" NAME="_ZNSt13basic_filebufIwSt11char_traitsIwEE4swapERS2_" PURGE="0" COMMENT="" />
    <EXPORT ORDINAL="2816" NAME="_ZNSt13basic_filebufIwSt11char_traitsIwEE4syncEv" PURGE="0" COMMENT="" />
    <EXPORT ORDINAL="2817" NAME="_ZNSt13basic_filebufIwSt11char_traitsIwEE5closeEv" PURGE="0" COMMENT="" />
    <EXPORT ORDINAL="2818" NAME="_ZNSt13basic_filebufIwSt11char_traitsIwEE5imbueERKSt6locale" PURGE="0" COMMENT="" />
    <EXPORT ORDINAL="2819" NAME="_ZNSt13basic_filebufIwSt11char_traitsIwEE6setbufEPwx" PURGE="0" COMMENT="" />
    <EXPORT ORDINAL="2820" NAME="_ZNSt13basic_filebufIwSt11char_traitsIwEE6xsgetnEPwx" PURGE="0" COMMENT="" />
    <EXPORT ORDINAL="2821" NAME="_ZNSt13basic_filebufIwSt11char_traitsIwEE6xsputnEPKwx" PURGE="0" COMMENT="" />
    <EXPORT ORDINAL="2822" NAME="_ZNSt13basic_filebufIwSt11char_traitsIwEE7_M_seekExSt12_Ios_Seekdiri" PURGE="0" COMMENT="" />
    <EXPORT ORDINAL="2823" NAME="_ZNSt13basic_filebufIwSt11char_traitsIwEE7seekoffExSt12_Ios_SeekdirSt13_Ios_Openmode" PURGE="0" COMMENT="" />
    <EXPORT ORDINAL="2824" NAME="_ZNSt13basic_filebufIwSt11char_traitsIwEE7seekposESt4fposIiESt13_Ios_Openmode" PURGE="0" COMMENT="" />
    <EXPORT ORDINAL="2825" NAME="_ZNSt13basic_filebufIwSt11char_traitsIwEE8overflowEt" PURGE="0" COMMENT="" />
    <EXPORT ORDINAL="2826" NAME="_ZNSt13basic_filebufIwSt11char_traitsIwEE9pbackfailEt" PURGE="0" COMMENT="" />
    <EXPORT ORDINAL="2827" NAME="_ZNSt13basic_filebufIwSt11char_traitsIwEE9showmanycEv" PURGE="0" COMMENT="" />
    <EXPORT ORDINAL="2828" NAME="_ZNSt13basic_filebufIwSt11char_traitsIwEE9underflowEv" PURGE="0" COMMENT="" />
    <EXPORT ORDINAL="2829" NAME="_ZNSt13basic_filebufIwSt11char_traitsIwEEC1EOS2_" PURGE="0" COMMENT="" />
    <EXPORT ORDINAL="2830" NAME="_ZNSt13basic_filebufIwSt11char_traitsIwEEC1Ev" PURGE="0" COMMENT="" />
    <EXPORT ORDINAL="2831" NAME="_ZNSt13basic_filebufIwSt11char_traitsIwEEC2EOS2_" PURGE="0" COMMENT="" />
    <EXPORT ORDINAL="2832" NAME="_ZNSt13basic_filebufIwSt11char_traitsIwEEC2Ev" PURGE="0" COMMENT="" />
    <EXPORT ORDINAL="2833" NAME="_ZNSt13basic_filebufIwSt11char_traitsIwEED0Ev" PURGE="-1" COMMENT="" />
    <EXPORT ORDINAL="2834" NAME="_ZNSt13basic_filebufIwSt11char_traitsIwEED1Ev" PURGE="0" COMMENT="" />
    <EXPORT ORDINAL="2835" NAME="_ZNSt13basic_filebufIwSt11char_traitsIwEED2Ev" PURGE="0" COMMENT="" />
    <EXPORT ORDINAL="2836" NAME="_ZNSt13basic_filebufIwSt11char_traitsIwEEaSEOS2_" PURGE="0" COMMENT="" />
    <EXPORT ORDINAL="2837" NAME="_ZNSt13basic_fstreamIcSt11char_traitsIcEE4openEPKcSt13_Ios_Openmode" PURGE="0" COMMENT="" />
    <EXPORT ORDINAL="2838" NAME="_ZNSt13basic_fstreamIcSt11char_traitsIcEE4openEPKwSt13_Ios_Openmode" PURGE="0" COMMENT="" />
    <EXPORT ORDINAL="2839" NAME="_ZNSt13basic_fstreamIcSt11char_traitsIcEE4openERKNSt7__cxx1112basic_stringIcS1_SaIcEEESt13_Ios_Openmode" PURGE="0" COMMENT="" />
    <EXPORT ORDINAL="2840" NAME="_ZNSt13basic_fstreamIcSt11char_traitsIcEE4openERKSsSt13_Ios_Openmode" PURGE="0" COMMENT="" />
    <EXPORT ORDINAL="2841" NAME="_ZNSt13basic_fstreamIcSt11char_traitsIcEE4swapERS2_" PURGE="0" COMMENT="" />
    <EXPORT ORDINAL="2842" NAME="_ZNSt13basic_fstreamIcSt11char_traitsIcEE5closeEv" PURGE="0" COMMENT="" />
    <EXPORT ORDINAL="2843" NAME="_ZNSt13basic_fstreamIcSt11char_traitsIcEE7is_openEv" PURGE="0" COMMENT="" />
    <EXPORT ORDINAL="2844" NAME="_ZNSt13basic_fstreamIcSt11char_traitsIcEEC1EOS2_" PURGE="0" COMMENT="" />
    <EXPORT ORDINAL="2845" NAME="_ZNSt13basic_fstreamIcSt11char_traitsIcEEC1EPKcSt13_Ios_Openmode" PURGE="0" COMMENT="" />
    <EXPORT ORDINAL="2846" NAME="_ZNSt13basic_fstreamIcSt11char_traitsIcEEC1EPKwSt13_Ios_Openmode" PURGE="0" COMMENT="" />
    <EXPORT ORDINAL="2847" NAME="_ZNSt13basic_fstreamIcSt11char_traitsIcEEC1ERKNSt7__cxx1112basic_stringIcS1_SaIcEEESt13_Ios_Openmode" PURGE="0" COMMENT="" />
    <EXPORT ORDINAL="2848" NAME="_ZNSt13basic_fstreamIcSt11char_traitsIcEEC1ERKSsSt13_Ios_Openmode" PURGE="0" COMMENT="" />
    <EXPORT ORDINAL="2849" NAME="_ZNSt13basic_fstreamIcSt11char_traitsIcEEC1Ev" PURGE="0" COMMENT="" />
    <EXPORT ORDINAL="2850" NAME="_ZNSt13basic_fstreamIcSt11char_traitsIcEEC2EOS2_" PURGE="0" COMMENT="" />
    <EXPORT ORDINAL="2851" NAME="_ZNSt13basic_fstreamIcSt11char_traitsIcEEC2EPKcSt13_Ios_Openmode" PURGE="0" COMMENT="" />
    <EXPORT ORDINAL="2852" NAME="_ZNSt13basic_fstreamIcSt11char_traitsIcEEC2EPKwSt13_Ios_Openmode" PURGE="0" COMMENT="" />
    <EXPORT ORDINAL="2853" NAME="_ZNSt13basic_fstreamIcSt11char_traitsIcEEC2ERKNSt7__cxx1112basic_stringIcS1_SaIcEEESt13_Ios_Openmode" PURGE="0" COMMENT="" />
    <EXPORT ORDINAL="2854" NAME="_ZNSt13basic_fstreamIcSt11char_traitsIcEEC2ERKSsSt13_Ios_Openmode" PURGE="0" COMMENT="" />
    <EXPORT ORDINAL="2855" NAME="_ZNSt13basic_fstreamIcSt11char_traitsIcEEC2Ev" PURGE="0" COMMENT="" />
    <EXPORT ORDINAL="2856" NAME="_ZNSt13basic_fstreamIcSt11char_traitsIcEED0Ev" PURGE="-1" COMMENT="" />
    <EXPORT ORDINAL="2857" NAME="_ZNSt13basic_fstreamIcSt11char_traitsIcEED1Ev" PURGE="0" COMMENT="" />
    <EXPORT ORDINAL="2858" NAME="_ZNSt13basic_fstreamIcSt11char_traitsIcEED2Ev" PURGE="0" COMMENT="" />
    <EXPORT ORDINAL="2859" NAME="_ZNSt13basic_fstreamIcSt11char_traitsIcEEaSEOS2_" PURGE="0" COMMENT="" />
    <EXPORT ORDINAL="2860" NAME="_ZNSt13basic_fstreamIwSt11char_traitsIwEE4openEPKcSt13_Ios_Openmode" PURGE="0" COMMENT="" />
    <EXPORT ORDINAL="2861" NAME="_ZNSt13basic_fstreamIwSt11char_traitsIwEE4openEPKwSt13_Ios_Openmode" PURGE="0" COMMENT="" />
    <EXPORT ORDINAL="2862" NAME="_ZNSt13basic_fstreamIwSt11char_traitsIwEE4openERKNSt7__cxx1112basic_stringIcS0_IcESaIcEEESt13_Ios_Openmode" PURGE="0" COMMENT="" />
    <EXPORT ORDINAL="2863" NAME="_ZNSt13basic_fstreamIwSt11char_traitsIwEE4openERKSsSt13_Ios_Openmode" PURGE="0" COMMENT="" />
    <EXPORT ORDINAL="2864" NAME="_ZNSt13basic_fstreamIwSt11char_traitsIwEE4swapERS2_" PURGE="0" COMMENT="" />
    <EXPORT ORDINAL="2865" NAME="_ZNSt13basic_fstreamIwSt11char_traitsIwEE5closeEv" PURGE="0" COMMENT="" />
    <EXPORT ORDINAL="2866" NAME="_ZNSt13basic_fstreamIwSt11char_traitsIwEE7is_openEv" PURGE="0" COMMENT="" />
    <EXPORT ORDINAL="2867" NAME="_ZNSt13basic_fstreamIwSt11char_traitsIwEEC1EOS2_" PURGE="0" COMMENT="" />
    <EXPORT ORDINAL="2868" NAME="_ZNSt13basic_fstreamIwSt11char_traitsIwEEC1EPKcSt13_Ios_Openmode" PURGE="0" COMMENT="" />
    <EXPORT ORDINAL="2869" NAME="_ZNSt13basic_fstreamIwSt11char_traitsIwEEC1EPKwSt13_Ios_Openmode" PURGE="0" COMMENT="" />
    <EXPORT ORDINAL="2870" NAME="_ZNSt13basic_fstreamIwSt11char_traitsIwEEC1ERKNSt7__cxx1112basic_stringIcS0_IcESaIcEEESt13_Ios_Openmode" PURGE="0" COMMENT="" />
    <EXPORT ORDINAL="2871" NAME="_ZNSt13basic_fstreamIwSt11char_traitsIwEEC1ERKSsSt13_Ios_Openmode" PURGE="0" COMMENT="" />
    <EXPORT ORDINAL="2872" NAME="_ZNSt13basic_fstreamIwSt11char_traitsIwEEC1Ev" PURGE="0" COMMENT="" />
    <EXPORT ORDINAL="2873" NAME="_ZNSt13basic_fstreamIwSt11char_traitsIwEEC2EOS2_" PURGE="0" COMMENT="" />
    <EXPORT ORDINAL="2874" NAME="_ZNSt13basic_fstreamIwSt11char_traitsIwEEC2EPKcSt13_Ios_Openmode" PURGE="0" COMMENT="" />
    <EXPORT ORDINAL="2875" NAME="_ZNSt13basic_fstreamIwSt11char_traitsIwEEC2EPKwSt13_Ios_Openmode" PURGE="0" COMMENT="" />
    <EXPORT ORDINAL="2876" NAME="_ZNSt13basic_fstreamIwSt11char_traitsIwEEC2ERKNSt7__cxx1112basic_stringIcS0_IcESaIcEEESt13_Ios_Openmode" PURGE="0" COMMENT="" />
    <EXPORT ORDINAL="2877" NAME="_ZNSt13basic_fstreamIwSt11char_traitsIwEEC2ERKSsSt13_Ios_Openmode" PURGE="0" COMMENT="" />
    <EXPORT ORDINAL="2878" NAME="_ZNSt13basic_fstreamIwSt11char_traitsIwEEC2Ev" PURGE="0" COMMENT="" />
    <EXPORT ORDINAL="2879" NAME="_ZNSt13basic_fstreamIwSt11char_traitsIwEED0Ev" PURGE="-1" COMMENT="" />
    <EXPORT ORDINAL="2880" NAME="_ZNSt13basic_fstreamIwSt11char_traitsIwEED1Ev" PURGE="0" COMMENT="" />
    <EXPORT ORDINAL="2881" NAME="_ZNSt13basic_fstreamIwSt11char_traitsIwEED2Ev" PURGE="0" COMMENT="" />
    <EXPORT ORDINAL="2882" NAME="_ZNSt13basic_fstreamIwSt11char_traitsIwEEaSEOS2_" PURGE="0" COMMENT="" />
    <EXPORT ORDINAL="2883" NAME="_ZNSt13basic_istreamIwSt11char_traitsIwEE10_M_extractIPvEERS2_RT_" PURGE="0" COMMENT="" />
    <EXPORT ORDINAL="2884" NAME="_ZNSt13basic_istreamIwSt11char_traitsIwEE10_M_extractIbEERS2_RT_" PURGE="0" COMMENT="" />
    <EXPORT ORDINAL="2885" NAME="_ZNSt13basic_istreamIwSt11char_traitsIwEE10_M_extractIdEERS2_RT_" PURGE="0" COMMENT="" />
    <EXPORT ORDINAL="2886" NAME="_ZNSt13basic_istreamIwSt11char_traitsIwEE10_M_extractIeEERS2_RT_" PURGE="0" COMMENT="" />
    <EXPORT ORDINAL="2887" NAME="_ZNSt13basic_istreamIwSt11char_traitsIwEE10_M_extractIfEERS2_RT_" PURGE="0" COMMENT="" />
    <EXPORT ORDINAL="2888" NAME="_ZNSt13basic_istreamIwSt11char_traitsIwEE10_M_extractIjEERS2_RT_" PURGE="0" COMMENT="" />
    <EXPORT ORDINAL="2889" NAME="_ZNSt13basic_istreamIwSt11char_traitsIwEE10_M_extractIlEERS2_RT_" PURGE="0" COMMENT="" />
    <EXPORT ORDINAL="2890" NAME="_ZNSt13basic_istreamIwSt11char_traitsIwEE10_M_extractImEERS2_RT_" PURGE="0" COMMENT="" />
    <EXPORT ORDINAL="2891" NAME="_ZNSt13basic_istreamIwSt11char_traitsIwEE10_M_extractItEERS2_RT_" PURGE="0" COMMENT="" />
    <EXPORT ORDINAL="2892" NAME="_ZNSt13basic_istreamIwSt11char_traitsIwEE10_M_extractIxEERS2_RT_" PURGE="0" COMMENT="" />
    <EXPORT ORDINAL="2893" NAME="_ZNSt13basic_istreamIwSt11char_traitsIwEE10_M_extractIyEERS2_RT_" PURGE="0" COMMENT="" />
    <EXPORT ORDINAL="2894" NAME="_ZNSt13basic_istreamIwSt11char_traitsIwEE3getEPwx" PURGE="0" COMMENT="" />
    <EXPORT ORDINAL="2895" NAME="_ZNSt13basic_istreamIwSt11char_traitsIwEE3getEPwxw" PURGE="0" COMMENT="" />
    <EXPORT ORDINAL="2896" NAME="_ZNSt13basic_istreamIwSt11char_traitsIwEE3getERSt15basic_streambufIwS1_E" PURGE="0" COMMENT="" />
    <EXPORT ORDINAL="2897" NAME="_ZNSt13basic_istreamIwSt11char_traitsIwEE3getERSt15basic_streambufIwS1_Ew" PURGE="0" COMMENT="" />
    <EXPORT ORDINAL="2898" NAME="_ZNSt13basic_istreamIwSt11char_traitsIwEE3getERw" PURGE="0" COMMENT="" />
    <EXPORT ORDINAL="2899" NAME="_ZNSt13basic_istreamIwSt11char_traitsIwEE3getEv" PURGE="0" COMMENT="" />
    <EXPORT ORDINAL="2900" NAME="_ZNSt13basic_istreamIwSt11char_traitsIwEE4peekEv" PURGE="0" COMMENT="" />
    <EXPORT ORDINAL="2901" NAME="_ZNSt13basic_istreamIwSt11char_traitsIwEE4readEPwx" PURGE="0" COMMENT="" />
    <EXPORT ORDINAL="2902" NAME="_ZNSt13basic_istreamIwSt11char_traitsIwEE4swapERS2_" PURGE="0" COMMENT="" />
    <EXPORT ORDINAL="2903" NAME="_ZNSt13basic_istreamIwSt11char_traitsIwEE4syncEv" PURGE="0" COMMENT="" />
    <EXPORT ORDINAL="2904" NAME="_ZNSt13basic_istreamIwSt11char_traitsIwEE5seekgESt4fposIiE" PURGE="0" COMMENT="" />
    <EXPORT ORDINAL="2905" NAME="_ZNSt13basic_istreamIwSt11char_traitsIwEE5seekgExSt12_Ios_Seekdir" PURGE="0" COMMENT="" />
    <EXPORT ORDINAL="2906" NAME="_ZNSt13basic_istreamIwSt11char_traitsIwEE5tellgEv" PURGE="0" COMMENT="" />
    <EXPORT ORDINAL="2907" NAME="_ZNSt13basic_istreamIwSt11char_traitsIwEE5ungetEv" PURGE="0" COMMENT="" />
    <EXPORT ORDINAL="2908" NAME="_ZNSt13basic_istreamIwSt11char_traitsIwEE6ignoreEv" PURGE="0" COMMENT="" />
    <EXPORT ORDINAL="2909" NAME="_ZNSt13basic_istreamIwSt11char_traitsIwEE6ignoreEx" PURGE="0" COMMENT="" />
    <EXPORT ORDINAL="2910" NAME="_ZNSt13basic_istreamIwSt11char_traitsIwEE6ignoreExt" PURGE="0" COMMENT="" />
    <EXPORT ORDINAL="2911" NAME="_ZNSt13basic_istreamIwSt11char_traitsIwEE6sentryC1ERS2_b" PURGE="0" COMMENT="" />
    <EXPORT ORDINAL="2912" NAME="_ZNSt13basic_istreamIwSt11char_traitsIwEE6sentryC2ERS2_b" PURGE="0" COMMENT="" />
    <EXPORT ORDINAL="2913" NAME="_ZNSt13basic_istreamIwSt11char_traitsIwEE7getlineEPwx" PURGE="0" COMMENT="" />
    <EXPORT ORDINAL="2914" NAME="_ZNSt13basic_istreamIwSt11char_traitsIwEE7getlineEPwxw" PURGE="0" COMMENT="" />
    <EXPORT ORDINAL="2915" NAME="_ZNSt13basic_istreamIwSt11char_traitsIwEE7putbackEw" PURGE="0" COMMENT="" />
    <EXPORT ORDINAL="2916" NAME="_ZNSt13basic_istreamIwSt11char_traitsIwEE8readsomeEPwx" PURGE="0" COMMENT="" />
    <EXPORT ORDINAL="2917" NAME="_ZNSt13basic_istreamIwSt11char_traitsIwEEC1EOS2_" PURGE="0" COMMENT="" />
    <EXPORT ORDINAL="2918" NAME="_ZNSt13basic_istreamIwSt11char_traitsIwEEC1EPSt15basic_streambufIwS1_E" PURGE="0" COMMENT="" />
    <EXPORT ORDINAL="2919" NAME="_ZNSt13basic_istreamIwSt11char_traitsIwEEC1Ev" PURGE="0" COMMENT="" />
    <EXPORT ORDINAL="2920" NAME="_ZNSt13basic_istreamIwSt11char_traitsIwEEC2EOS2_" PURGE="0" COMMENT="" />
    <EXPORT ORDINAL="2921" NAME="_ZNSt13basic_istreamIwSt11char_traitsIwEEC2EPSt15basic_streambufIwS1_E" PURGE="0" COMMENT="" />
    <EXPORT ORDINAL="2922" NAME="_ZNSt13basic_istreamIwSt11char_traitsIwEEC2Ev" PURGE="0" COMMENT="" />
    <EXPORT ORDINAL="2923" NAME="_ZNSt13basic_istreamIwSt11char_traitsIwEED0Ev" PURGE="-1" COMMENT="" />
    <EXPORT ORDINAL="2924" NAME="_ZNSt13basic_istreamIwSt11char_traitsIwEED1Ev" PURGE="0" COMMENT="" />
    <EXPORT ORDINAL="2925" NAME="_ZNSt13basic_istreamIwSt11char_traitsIwEED2Ev" PURGE="0" COMMENT="" />
    <EXPORT ORDINAL="2926" NAME="_ZNSt13basic_istreamIwSt11char_traitsIwEEaSEOS2_" PURGE="0" COMMENT="" />
    <EXPORT ORDINAL="2927" NAME="_ZNSt13basic_istreamIwSt11char_traitsIwEErsEPFRS2_S3_E" PURGE="-1" COMMENT="" />
    <EXPORT ORDINAL="2928" NAME="_ZNSt13basic_istreamIwSt11char_traitsIwEErsEPFRSt8ios_baseS4_E" PURGE="0" COMMENT="" />
    <EXPORT ORDINAL="2929" NAME="_ZNSt13basic_istreamIwSt11char_traitsIwEErsEPFRSt9basic_iosIwS1_ES5_E" PURGE="0" COMMENT="" />
    <EXPORT ORDINAL="2930" NAME="_ZNSt13basic_istreamIwSt11char_traitsIwEErsEPSt15basic_streambufIwS1_E" PURGE="0" COMMENT="" />
    <EXPORT ORDINAL="2931" NAME="_ZNSt13basic_istreamIwSt11char_traitsIwEErsERPv" PURGE="0" COMMENT="" />
    <EXPORT ORDINAL="2932" NAME="_ZNSt13basic_istreamIwSt11char_traitsIwEErsERb" PURGE="0" COMMENT="" />
    <EXPORT ORDINAL="2933" NAME="_ZNSt13basic_istreamIwSt11char_traitsIwEErsERd" PURGE="0" COMMENT="" />
    <EXPORT ORDINAL="2934" NAME="_ZNSt13basic_istreamIwSt11char_traitsIwEErsERe" PURGE="0" COMMENT="" />
    <EXPORT ORDINAL="2935" NAME="_ZNSt13basic_istreamIwSt11char_traitsIwEErsERf" PURGE="0" COMMENT="" />
    <EXPORT ORDINAL="2936" NAME="_ZNSt13basic_istreamIwSt11char_traitsIwEErsERi" PURGE="0" COMMENT="" />
    <EXPORT ORDINAL="2937" NAME="_ZNSt13basic_istreamIwSt11char_traitsIwEErsERj" PURGE="0" COMMENT="" />
    <EXPORT ORDINAL="2938" NAME="_ZNSt13basic_istreamIwSt11char_traitsIwEErsERl" PURGE="0" COMMENT="" />
    <EXPORT ORDINAL="2939" NAME="_ZNSt13basic_istreamIwSt11char_traitsIwEErsERm" PURGE="0" COMMENT="" />
    <EXPORT ORDINAL="2940" NAME="_ZNSt13basic_istreamIwSt11char_traitsIwEErsERs" PURGE="0" COMMENT="" />
    <EXPORT ORDINAL="2941" NAME="_ZNSt13basic_istreamIwSt11char_traitsIwEErsERt" PURGE="0" COMMENT="" />
    <EXPORT ORDINAL="2942" NAME="_ZNSt13basic_istreamIwSt11char_traitsIwEErsERx" PURGE="0" COMMENT="" />
    <EXPORT ORDINAL="2943" NAME="_ZNSt13basic_istreamIwSt11char_traitsIwEErsERy" PURGE="0" COMMENT="" />
    <EXPORT ORDINAL="2944" NAME="_ZNSt13basic_ostreamIwSt11char_traitsIwEE3putEw" PURGE="0" COMMENT="" />
    <EXPORT ORDINAL="2945" NAME="_ZNSt13basic_ostreamIwSt11char_traitsIwEE4swapERS2_" PURGE="0" COMMENT="" />
    <EXPORT ORDINAL="2946" NAME="_ZNSt13basic_ostreamIwSt11char_traitsIwEE5flushEv" PURGE="0" COMMENT="" />
    <EXPORT ORDINAL="2947" NAME="_ZNSt13basic_ostreamIwSt11char_traitsIwEE5seekpESt4fposIiE" PURGE="0" COMMENT="" />
    <EXPORT ORDINAL="2948" NAME="_ZNSt13basic_ostreamIwSt11char_traitsIwEE5seekpExSt12_Ios_Seekdir" PURGE="0" COMMENT="" />
    <EXPORT ORDINAL="2949" NAME="_ZNSt13basic_ostreamIwSt11char_traitsIwEE5tellpEv" PURGE="0" COMMENT="" />
    <EXPORT ORDINAL="2950" NAME="_ZNSt13basic_ostreamIwSt11char_traitsIwEE5writeEPKwx" PURGE="0" COMMENT="" />
    <EXPORT ORDINAL="2951" NAME="_ZNSt13basic_ostreamIwSt11char_traitsIwEE6sentryC1ERS2_" PURGE="0" COMMENT="" />
    <EXPORT ORDINAL="2952" NAME="_ZNSt13basic_ostreamIwSt11char_traitsIwEE6sentryC2ERS2_" PURGE="0" COMMENT="" />
    <EXPORT ORDINAL="2953" NAME="_ZNSt13basic_ostreamIwSt11char_traitsIwEE6sentryD1Ev" PURGE="0" COMMENT="" />
    <EXPORT ORDINAL="2954" NAME="_ZNSt13basic_ostreamIwSt11char_traitsIwEE6sentryD2Ev" PURGE="0" COMMENT="" />
    <EXPORT ORDINAL="2955" NAME="_ZNSt13basic_ostreamIwSt11char_traitsIwEE8_M_writeEPKwx" PURGE="0" COMMENT="" />
    <EXPORT ORDINAL="2956" NAME="_ZNSt13basic_ostreamIwSt11char_traitsIwEE9_M_insertIPKvEERS2_T_" PURGE="0" COMMENT="" />
    <EXPORT ORDINAL="2957" NAME="_ZNSt13basic_ostreamIwSt11char_traitsIwEE9_M_insertIbEERS2_T_" PURGE="0" COMMENT="" />
    <EXPORT ORDINAL="2958" NAME="_ZNSt13basic_ostreamIwSt11char_traitsIwEE9_M_insertIdEERS2_T_" PURGE="0" COMMENT="" />
    <EXPORT ORDINAL="2959" NAME="_ZNSt13basic_ostreamIwSt11char_traitsIwEE9_M_insertIeEERS2_T_" PURGE="0" COMMENT="" />
    <EXPORT ORDINAL="2960" NAME="_ZNSt13basic_ostreamIwSt11char_traitsIwEE9_M_insertIlEERS2_T_" PURGE="0" COMMENT="" />
    <EXPORT ORDINAL="2961" NAME="_ZNSt13basic_ostreamIwSt11char_traitsIwEE9_M_insertImEERS2_T_" PURGE="0" COMMENT="" />
    <EXPORT ORDINAL="2962" NAME="_ZNSt13basic_ostreamIwSt11char_traitsIwEE9_M_insertIxEERS2_T_" PURGE="0" COMMENT="" />
    <EXPORT ORDINAL="2963" NAME="_ZNSt13basic_ostreamIwSt11char_traitsIwEE9_M_insertIyEERS2_T_" PURGE="0" COMMENT="" />
    <EXPORT ORDINAL="2964" NAME="_ZNSt13basic_ostreamIwSt11char_traitsIwEEC1EOS2_" PURGE="0" COMMENT="" />
    <EXPORT ORDINAL="2965" NAME="_ZNSt13basic_ostreamIwSt11char_traitsIwEEC1EPSt15basic_streambufIwS1_E" PURGE="0" COMMENT="" />
    <EXPORT ORDINAL="2966" NAME="_ZNSt13basic_ostreamIwSt11char_traitsIwEEC1ERSt14basic_iostreamIwS1_E" PURGE="0" COMMENT="" />
    <EXPORT ORDINAL="2967" NAME="_ZNSt13basic_ostreamIwSt11char_traitsIwEEC1Ev" PURGE="0" COMMENT="" />
    <EXPORT ORDINAL="2968" NAME="_ZNSt13basic_ostreamIwSt11char_traitsIwEEC2EOS2_" PURGE="0" COMMENT="" />
    <EXPORT ORDINAL="2969" NAME="_ZNSt13basic_ostreamIwSt11char_traitsIwEEC2EPSt15basic_streambufIwS1_E" PURGE="0" COMMENT="" />
    <EXPORT ORDINAL="2970" NAME="_ZNSt13basic_ostreamIwSt11char_traitsIwEEC2ERSt14basic_iostreamIwS1_E" PURGE="0" COMMENT="" />
    <EXPORT ORDINAL="2971" NAME="_ZNSt13basic_ostreamIwSt11char_traitsIwEEC2Ev" PURGE="0" COMMENT="" />
    <EXPORT ORDINAL="2972" NAME="_ZNSt13basic_ostreamIwSt11char_traitsIwEED0Ev" PURGE="-1" COMMENT="" />
    <EXPORT ORDINAL="2973" NAME="_ZNSt13basic_ostreamIwSt11char_traitsIwEED1Ev" PURGE="0" COMMENT="" />
    <EXPORT ORDINAL="2974" NAME="_ZNSt13basic_ostreamIwSt11char_traitsIwEED2Ev" PURGE="0" COMMENT="" />
    <EXPORT ORDINAL="2975" NAME="_ZNSt13basic_ostreamIwSt11char_traitsIwEEaSEOS2_" PURGE="0" COMMENT="" />
    <EXPORT ORDINAL="2976" NAME="_ZNSt13basic_ostreamIwSt11char_traitsIwEElsEDn" PURGE="0" COMMENT="" />
    <EXPORT ORDINAL="2977" NAME="_ZNSt13basic_ostreamIwSt11char_traitsIwEElsEPFRS2_S3_E" PURGE="-1" COMMENT="" />
    <EXPORT ORDINAL="2978" NAME="_ZNSt13basic_ostreamIwSt11char_traitsIwEElsEPFRSt8ios_baseS4_E" PURGE="0" COMMENT="" />
    <EXPORT ORDINAL="2979" NAME="_ZNSt13basic_ostreamIwSt11char_traitsIwEElsEPFRSt9basic_iosIwS1_ES5_E" PURGE="0" COMMENT="" />
    <EXPORT ORDINAL="2980" NAME="_ZNSt13basic_ostreamIwSt11char_traitsIwEElsEPKv" PURGE="0" COMMENT="" />
    <EXPORT ORDINAL="2981" NAME="_ZNSt13basic_ostreamIwSt11char_traitsIwEElsEPSt15basic_streambufIwS1_E" PURGE="0" COMMENT="" />
    <EXPORT ORDINAL="2982" NAME="_ZNSt13basic_ostreamIwSt11char_traitsIwEElsEb" PURGE="0" COMMENT="" />
    <EXPORT ORDINAL="2983" NAME="_ZNSt13basic_ostreamIwSt11char_traitsIwEElsEd" PURGE="0" COMMENT="" />
    <EXPORT ORDINAL="2984" NAME="_ZNSt13basic_ostreamIwSt11char_traitsIwEElsEe" PURGE="0" COMMENT="" />
    <EXPORT ORDINAL="2985" NAME="_ZNSt13basic_ostreamIwSt11char_traitsIwEElsEf" PURGE="0" COMMENT="" />
    <EXPORT ORDINAL="2986" NAME="_ZNSt13basic_ostreamIwSt11char_traitsIwEElsEi" PURGE="0" COMMENT="" />
    <EXPORT ORDINAL="2987" NAME="_ZNSt13basic_ostreamIwSt11char_traitsIwEElsEj" PURGE="0" COMMENT="" />
    <EXPORT ORDINAL="2988" NAME="_ZNSt13basic_ostreamIwSt11char_traitsIwEElsEl" PURGE="0" COMMENT="" />
    <EXPORT ORDINAL="2989" NAME="_ZNSt13basic_ostreamIwSt11char_traitsIwEElsEm" PURGE="0" COMMENT="" />
    <EXPORT ORDINAL="2990" NAME="_ZNSt13basic_ostreamIwSt11char_traitsIwEElsEs" PURGE="0" COMMENT="" />
    <EXPORT ORDINAL="2991" NAME="_ZNSt13basic_ostreamIwSt11char_traitsIwEElsEt" PURGE="0" COMMENT="" />
    <EXPORT ORDINAL="2992" NAME="_ZNSt13basic_ostreamIwSt11char_traitsIwEElsEx" PURGE="0" COMMENT="" />
    <EXPORT ORDINAL="2993" NAME="_ZNSt13basic_ostreamIwSt11char_traitsIwEElsEy" PURGE="0" COMMENT="" />
    <EXPORT ORDINAL="2994" NAME="_ZNSt13random_device14_M_init_pretr1ERKNSt7__cxx1112basic_stringIcSt11char_traitsIcESaIcEEE" PURGE="0" COMMENT="" />
    <EXPORT ORDINAL="2995" NAME="_ZNSt13random_device14_M_init_pretr1ERKSs" PURGE="0" COMMENT="" />
    <EXPORT ORDINAL="2996" NAME="_ZNSt13random_device16_M_getval_pretr1Ev" PURGE="0" COMMENT="" />
    <EXPORT ORDINAL="2997" NAME="_ZNSt13random_device7_M_finiEv" PURGE="0" COMMENT="" />
    <EXPORT ORDINAL="2998" NAME="_ZNSt13random_device7_M_initEPKcy" PURGE="0" COMMENT="" />
    <EXPORT ORDINAL="2999" NAME="_ZNSt13random_device7_M_initERKNSt7__cxx1112basic_stringIcSt11char_traitsIcESaIcEEE" PURGE="0" COMMENT="" />
    <EXPORT ORDINAL="3000" NAME="_ZNSt13random_device7_M_initERKSs" PURGE="0" COMMENT="" />
    <EXPORT ORDINAL="3001" NAME="_ZNSt13random_device9_M_getvalEv" PURGE="0" COMMENT="" />
    <EXPORT ORDINAL="3002" NAME="_ZNSt13runtime_errorC1EOS_" PURGE="0" COMMENT="" />
    <EXPORT ORDINAL="3003" NAME="_ZNSt13runtime_errorC1EPKc" PURGE="0" COMMENT="" />
    <EXPORT ORDINAL="3004" NAME="_ZNSt13runtime_errorC1ERKNSt7__cxx1112basic_stringIcSt11char_traitsIcESaIcEEE" PURGE="0" COMMENT="" />
    <EXPORT ORDINAL="3005" NAME="_ZNSt13runtime_errorC1ERKS_" PURGE="0" COMMENT="" />
    <EXPORT ORDINAL="3006" NAME="_ZNSt13runtime_errorC1ERKSs" PURGE="0" COMMENT="" />
    <EXPORT ORDINAL="3007" NAME="_ZNSt13runtime_errorC2EOS_" PURGE="0" COMMENT="" />
    <EXPORT ORDINAL="3008" NAME="_ZNSt13runtime_errorC2EPKc" PURGE="0" COMMENT="" />
    <EXPORT ORDINAL="3009" NAME="_ZNSt13runtime_errorC2ERKNSt7__cxx1112basic_stringIcSt11char_traitsIcESaIcEEE" PURGE="0" COMMENT="" />
    <EXPORT ORDINAL="3010" NAME="_ZNSt13runtime_errorC2ERKS_" PURGE="0" COMMENT="" />
    <EXPORT ORDINAL="3011" NAME="_ZNSt13runtime_errorC2ERKSs" PURGE="0" COMMENT="" />
    <EXPORT ORDINAL="3012" NAME="_ZNSt13runtime_errorD0Ev" PURGE="-1" COMMENT="" />
    <EXPORT ORDINAL="3013" NAME="_ZNSt13runtime_errorD1Ev" PURGE="0" COMMENT="" />
    <EXPORT ORDINAL="3014" NAME="_ZNSt13runtime_errorD2Ev" PURGE="0" COMMENT="" />
    <EXPORT ORDINAL="3015" NAME="_ZNSt13runtime_erroraSEOS_" PURGE="0" COMMENT="" />
    <EXPORT ORDINAL="3016" NAME="_ZNSt13runtime_erroraSERKS_" PURGE="0" COMMENT="" />
    <EXPORT ORDINAL="3017" NAME="_ZNSt14basic_ifstreamIcSt11char_traitsIcEE4openEPKcSt13_Ios_Openmode" PURGE="0" COMMENT="" />
    <EXPORT ORDINAL="3018" NAME="_ZNSt14basic_ifstreamIcSt11char_traitsIcEE4openEPKwSt13_Ios_Openmode" PURGE="0" COMMENT="" />
    <EXPORT ORDINAL="3019" NAME="_ZNSt14basic_ifstreamIcSt11char_traitsIcEE4openERKNSt7__cxx1112basic_stringIcS1_SaIcEEESt13_Ios_Openmode" PURGE="0" COMMENT="" />
    <EXPORT ORDINAL="3020" NAME="_ZNSt14basic_ifstreamIcSt11char_traitsIcEE4openERKSsSt13_Ios_Openmode" PURGE="0" COMMENT="" />
    <EXPORT ORDINAL="3021" NAME="_ZNSt14basic_ifstreamIcSt11char_traitsIcEE4swapERS2_" PURGE="0" COMMENT="" />
    <EXPORT ORDINAL="3022" NAME="_ZNSt14basic_ifstreamIcSt11char_traitsIcEE5closeEv" PURGE="0" COMMENT="" />
    <EXPORT ORDINAL="3023" NAME="_ZNSt14basic_ifstreamIcSt11char_traitsIcEE7is_openEv" PURGE="0" COMMENT="" />
    <EXPORT ORDINAL="3024" NAME="_ZNSt14basic_ifstreamIcSt11char_traitsIcEEC1EOS2_" PURGE="0" COMMENT="" />
    <EXPORT ORDINAL="3025" NAME="_ZNSt14basic_ifstreamIcSt11char_traitsIcEEC1EPKcSt13_Ios_Openmode" PURGE="0" COMMENT="" />
    <EXPORT ORDINAL="3026" NAME="_ZNSt14basic_ifstreamIcSt11char_traitsIcEEC1EPKwSt13_Ios_Openmode" PURGE="0" COMMENT="" />
    <EXPORT ORDINAL="3027" NAME="_ZNSt14basic_ifstreamIcSt11char_traitsIcEEC1ERKNSt7__cxx1112basic_stringIcS1_SaIcEEESt13_Ios_Openmode" PURGE="0" COMMENT="" />
    <EXPORT ORDINAL="3028" NAME="_ZNSt14basic_ifstreamIcSt11char_traitsIcEEC1ERKSsSt13_Ios_Openmode" PURGE="0" COMMENT="" />
    <EXPORT ORDINAL="3029" NAME="_ZNSt14basic_ifstreamIcSt11char_traitsIcEEC1Ev" PURGE="0" COMMENT="" />
    <EXPORT ORDINAL="3030" NAME="_ZNSt14basic_ifstreamIcSt11char_traitsIcEEC2EOS2_" PURGE="0" COMMENT="" />
    <EXPORT ORDINAL="3031" NAME="_ZNSt14basic_ifstreamIcSt11char_traitsIcEEC2EPKcSt13_Ios_Openmode" PURGE="0" COMMENT="" />
    <EXPORT ORDINAL="3032" NAME="_ZNSt14basic_ifstreamIcSt11char_traitsIcEEC2EPKwSt13_Ios_Openmode" PURGE="0" COMMENT="" />
    <EXPORT ORDINAL="3033" NAME="_ZNSt14basic_ifstreamIcSt11char_traitsIcEEC2ERKNSt7__cxx1112basic_stringIcS1_SaIcEEESt13_Ios_Openmode" PURGE="0" COMMENT="" />
    <EXPORT ORDINAL="3034" NAME="_ZNSt14basic_ifstreamIcSt11char_traitsIcEEC2ERKSsSt13_Ios_Openmode" PURGE="0" COMMENT="" />
    <EXPORT ORDINAL="3035" NAME="_ZNSt14basic_ifstreamIcSt11char_traitsIcEEC2Ev" PURGE="0" COMMENT="" />
    <EXPORT ORDINAL="3036" NAME="_ZNSt14basic_ifstreamIcSt11char_traitsIcEED0Ev" PURGE="-1" COMMENT="" />
    <EXPORT ORDINAL="3037" NAME="_ZNSt14basic_ifstreamIcSt11char_traitsIcEED1Ev" PURGE="0" COMMENT="" />
    <EXPORT ORDINAL="3038" NAME="_ZNSt14basic_ifstreamIcSt11char_traitsIcEED2Ev" PURGE="0" COMMENT="" />
    <EXPORT ORDINAL="3039" NAME="_ZNSt14basic_ifstreamIcSt11char_traitsIcEEaSEOS2_" PURGE="0" COMMENT="" />
    <EXPORT ORDINAL="3040" NAME="_ZNSt14basic_ifstreamIwSt11char_traitsIwEE4openEPKcSt13_Ios_Openmode" PURGE="0" COMMENT="" />
    <EXPORT ORDINAL="3041" NAME="_ZNSt14basic_ifstreamIwSt11char_traitsIwEE4openEPKwSt13_Ios_Openmode" PURGE="0" COMMENT="" />
    <EXPORT ORDINAL="3042" NAME="_ZNSt14basic_ifstreamIwSt11char_traitsIwEE4openERKNSt7__cxx1112basic_stringIcS0_IcESaIcEEESt13_Ios_Openmode" PURGE="0" COMMENT="" />
    <EXPORT ORDINAL="3043" NAME="_ZNSt14basic_ifstreamIwSt11char_traitsIwEE4openERKSsSt13_Ios_Openmode" PURGE="0" COMMENT="" />
    <EXPORT ORDINAL="3044" NAME="_ZNSt14basic_ifstreamIwSt11char_traitsIwEE4swapERS2_" PURGE="0" COMMENT="" />
    <EXPORT ORDINAL="3045" NAME="_ZNSt14basic_ifstreamIwSt11char_traitsIwEE5closeEv" PURGE="0" COMMENT="" />
    <EXPORT ORDINAL="3046" NAME="_ZNSt14basic_ifstreamIwSt11char_traitsIwEE7is_openEv" PURGE="0" COMMENT="" />
    <EXPORT ORDINAL="3047" NAME="_ZNSt14basic_ifstreamIwSt11char_traitsIwEEC1EOS2_" PURGE="0" COMMENT="" />
    <EXPORT ORDINAL="3048" NAME="_ZNSt14basic_ifstreamIwSt11char_traitsIwEEC1EPKcSt13_Ios_Openmode" PURGE="0" COMMENT="" />
    <EXPORT ORDINAL="3049" NAME="_ZNSt14basic_ifstreamIwSt11char_traitsIwEEC1EPKwSt13_Ios_Openmode" PURGE="0" COMMENT="" />
    <EXPORT ORDINAL="3050" NAME="_ZNSt14basic_ifstreamIwSt11char_traitsIwEEC1ERKNSt7__cxx1112basic_stringIcS0_IcESaIcEEESt13_Ios_Openmode" PURGE="0" COMMENT="" />
    <EXPORT ORDINAL="3051" NAME="_ZNSt14basic_ifstreamIwSt11char_traitsIwEEC1ERKSsSt13_Ios_Openmode" PURGE="0" COMMENT="" />
    <EXPORT ORDINAL="3052" NAME="_ZNSt14basic_ifstreamIwSt11char_traitsIwEEC1Ev" PURGE="0" COMMENT="" />
    <EXPORT ORDINAL="3053" NAME="_ZNSt14basic_ifstreamIwSt11char_traitsIwEEC2EOS2_" PURGE="0" COMMENT="" />
    <EXPORT ORDINAL="3054" NAME="_ZNSt14basic_ifstreamIwSt11char_traitsIwEEC2EPKcSt13_Ios_Openmode" PURGE="0" COMMENT="" />
    <EXPORT ORDINAL="3055" NAME="_ZNSt14basic_ifstreamIwSt11char_traitsIwEEC2EPKwSt13_Ios_Openmode" PURGE="0" COMMENT="" />
    <EXPORT ORDINAL="3056" NAME="_ZNSt14basic_ifstreamIwSt11char_traitsIwEEC2ERKNSt7__cxx1112basic_stringIcS0_IcESaIcEEESt13_Ios_Openmode" PURGE="0" COMMENT="" />
    <EXPORT ORDINAL="3057" NAME="_ZNSt14basic_ifstreamIwSt11char_traitsIwEEC2ERKSsSt13_Ios_Openmode" PURGE="0" COMMENT="" />
    <EXPORT ORDINAL="3058" NAME="_ZNSt14basic_ifstreamIwSt11char_traitsIwEEC2Ev" PURGE="0" COMMENT="" />
    <EXPORT ORDINAL="3059" NAME="_ZNSt14basic_ifstreamIwSt11char_traitsIwEED0Ev" PURGE="-1" COMMENT="" />
    <EXPORT ORDINAL="3060" NAME="_ZNSt14basic_ifstreamIwSt11char_traitsIwEED1Ev" PURGE="0" COMMENT="" />
    <EXPORT ORDINAL="3061" NAME="_ZNSt14basic_ifstreamIwSt11char_traitsIwEED2Ev" PURGE="0" COMMENT="" />
    <EXPORT ORDINAL="3062" NAME="_ZNSt14basic_ifstreamIwSt11char_traitsIwEEaSEOS2_" PURGE="0" COMMENT="" />
    <EXPORT ORDINAL="3063" NAME="_ZNSt14basic_iostreamIwSt11char_traitsIwEE4swapERS2_" PURGE="0" COMMENT="" />
    <EXPORT ORDINAL="3064" NAME="_ZNSt14basic_iostreamIwSt11char_traitsIwEEC1EOS2_" PURGE="0" COMMENT="" />
    <EXPORT ORDINAL="3065" NAME="_ZNSt14basic_iostreamIwSt11char_traitsIwEEC1EPSt15basic_streambufIwS1_E" PURGE="0" COMMENT="" />
    <EXPORT ORDINAL="3066" NAME="_ZNSt14basic_iostreamIwSt11char_traitsIwEEC1Ev" PURGE="0" COMMENT="" />
    <EXPORT ORDINAL="3067" NAME="_ZNSt14basic_iostreamIwSt11char_traitsIwEEC2EOS2_" PURGE="0" COMMENT="" />
    <EXPORT ORDINAL="3068" NAME="_ZNSt14basic_iostreamIwSt11char_traitsIwEEC2EPSt15basic_streambufIwS1_E" PURGE="0" COMMENT="" />
    <EXPORT ORDINAL="3069" NAME="_ZNSt14basic_iostreamIwSt11char_traitsIwEEC2Ev" PURGE="0" COMMENT="" />
    <EXPORT ORDINAL="3070" NAME="_ZNSt14basic_iostreamIwSt11char_traitsIwEED0Ev" PURGE="-1" COMMENT="" />
    <EXPORT ORDINAL="3071" NAME="_ZNSt14basic_iostreamIwSt11char_traitsIwEED1Ev" PURGE="0" COMMENT="" />
    <EXPORT ORDINAL="3072" NAME="_ZNSt14basic_iostreamIwSt11char_traitsIwEED2Ev" PURGE="0" COMMENT="" />
    <EXPORT ORDINAL="3073" NAME="_ZNSt14basic_iostreamIwSt11char_traitsIwEEaSEOS2_" PURGE="0" COMMENT="" />
    <EXPORT ORDINAL="3074" NAME="_ZNSt14basic_ofstreamIcSt11char_traitsIcEE4openEPKcSt13_Ios_Openmode" PURGE="0" COMMENT="" />
    <EXPORT ORDINAL="3075" NAME="_ZNSt14basic_ofstreamIcSt11char_traitsIcEE4openEPKwSt13_Ios_Openmode" PURGE="0" COMMENT="" />
    <EXPORT ORDINAL="3076" NAME="_ZNSt14basic_ofstreamIcSt11char_traitsIcEE4openERKNSt7__cxx1112basic_stringIcS1_SaIcEEESt13_Ios_Openmode" PURGE="0" COMMENT="" />
    <EXPORT ORDINAL="3077" NAME="_ZNSt14basic_ofstreamIcSt11char_traitsIcEE4openERKSsSt13_Ios_Openmode" PURGE="0" COMMENT="" />
    <EXPORT ORDINAL="3078" NAME="_ZNSt14basic_ofstreamIcSt11char_traitsIcEE4swapERS2_" PURGE="0" COMMENT="" />
    <EXPORT ORDINAL="3079" NAME="_ZNSt14basic_ofstreamIcSt11char_traitsIcEE5closeEv" PURGE="0" COMMENT="" />
    <EXPORT ORDINAL="3080" NAME="_ZNSt14basic_ofstreamIcSt11char_traitsIcEE7is_openEv" PURGE="0" COMMENT="" />
    <EXPORT ORDINAL="3081" NAME="_ZNSt14basic_ofstreamIcSt11char_traitsIcEEC1EOS2_" PURGE="0" COMMENT="" />
    <EXPORT ORDINAL="3082" NAME="_ZNSt14basic_ofstreamIcSt11char_traitsIcEEC1EPKcSt13_Ios_Openmode" PURGE="0" COMMENT="" />
    <EXPORT ORDINAL="3083" NAME="_ZNSt14basic_ofstreamIcSt11char_traitsIcEEC1EPKwSt13_Ios_Openmode" PURGE="0" COMMENT="" />
    <EXPORT ORDINAL="3084" NAME="_ZNSt14basic_ofstreamIcSt11char_traitsIcEEC1ERKNSt7__cxx1112basic_stringIcS1_SaIcEEESt13_Ios_Openmode" PURGE="0" COMMENT="" />
    <EXPORT ORDINAL="3085" NAME="_ZNSt14basic_ofstreamIcSt11char_traitsIcEEC1ERKSsSt13_Ios_Openmode" PURGE="0" COMMENT="" />
    <EXPORT ORDINAL="3086" NAME="_ZNSt14basic_ofstreamIcSt11char_traitsIcEEC1Ev" PURGE="0" COMMENT="" />
    <EXPORT ORDINAL="3087" NAME="_ZNSt14basic_ofstreamIcSt11char_traitsIcEEC2EOS2_" PURGE="0" COMMENT="" />
    <EXPORT ORDINAL="3088" NAME="_ZNSt14basic_ofstreamIcSt11char_traitsIcEEC2EPKcSt13_Ios_Openmode" PURGE="0" COMMENT="" />
    <EXPORT ORDINAL="3089" NAME="_ZNSt14basic_ofstreamIcSt11char_traitsIcEEC2EPKwSt13_Ios_Openmode" PURGE="0" COMMENT="" />
    <EXPORT ORDINAL="3090" NAME="_ZNSt14basic_ofstreamIcSt11char_traitsIcEEC2ERKNSt7__cxx1112basic_stringIcS1_SaIcEEESt13_Ios_Openmode" PURGE="0" COMMENT="" />
    <EXPORT ORDINAL="3091" NAME="_ZNSt14basic_ofstreamIcSt11char_traitsIcEEC2ERKSsSt13_Ios_Openmode" PURGE="0" COMMENT="" />
    <EXPORT ORDINAL="3092" NAME="_ZNSt14basic_ofstreamIcSt11char_traitsIcEEC2Ev" PURGE="0" COMMENT="" />
    <EXPORT ORDINAL="3093" NAME="_ZNSt14basic_ofstreamIcSt11char_traitsIcEED0Ev" PURGE="-1" COMMENT="" />
    <EXPORT ORDINAL="3094" NAME="_ZNSt14basic_ofstreamIcSt11char_traitsIcEED1Ev" PURGE="0" COMMENT="" />
    <EXPORT ORDINAL="3095" NAME="_ZNSt14basic_ofstreamIcSt11char_traitsIcEED2Ev" PURGE="0" COMMENT="" />
    <EXPORT ORDINAL="3096" NAME="_ZNSt14basic_ofstreamIcSt11char_traitsIcEEaSEOS2_" PURGE="0" COMMENT="" />
    <EXPORT ORDINAL="3097" NAME="_ZNSt14basic_ofstreamIwSt11char_traitsIwEE4openEPKcSt13_Ios_Openmode" PURGE="0" COMMENT="" />
    <EXPORT ORDINAL="3098" NAME="_ZNSt14basic_ofstreamIwSt11char_traitsIwEE4openEPKwSt13_Ios_Openmode" PURGE="0" COMMENT="" />
    <EXPORT ORDINAL="3099" NAME="_ZNSt14basic_ofstreamIwSt11char_traitsIwEE4openERKNSt7__cxx1112basic_stringIcS0_IcESaIcEEESt13_Ios_Openmode" PURGE="0" COMMENT="" />
    <EXPORT ORDINAL="3100" NAME="_ZNSt14basic_ofstreamIwSt11char_traitsIwEE4openERKSsSt13_Ios_Openmode" PURGE="0" COMMENT="" />
    <EXPORT ORDINAL="3101" NAME="_ZNSt14basic_ofstreamIwSt11char_traitsIwEE4swapERS2_" PURGE="0" COMMENT="" />
    <EXPORT ORDINAL="3102" NAME="_ZNSt14basic_ofstreamIwSt11char_traitsIwEE5closeEv" PURGE="0" COMMENT="" />
    <EXPORT ORDINAL="3103" NAME="_ZNSt14basic_ofstreamIwSt11char_traitsIwEE7is_openEv" PURGE="0" COMMENT="" />
    <EXPORT ORDINAL="3104" NAME="_ZNSt14basic_ofstreamIwSt11char_traitsIwEEC1EOS2_" PURGE="0" COMMENT="" />
    <EXPORT ORDINAL="3105" NAME="_ZNSt14basic_ofstreamIwSt11char_traitsIwEEC1EPKcSt13_Ios_Openmode" PURGE="0" COMMENT="" />
    <EXPORT ORDINAL="3106" NAME="_ZNSt14basic_ofstreamIwSt11char_traitsIwEEC1EPKwSt13_Ios_Openmode" PURGE="0" COMMENT="" />
    <EXPORT ORDINAL="3107" NAME="_ZNSt14basic_ofstreamIwSt11char_traitsIwEEC1ERKNSt7__cxx1112basic_stringIcS0_IcESaIcEEESt13_Ios_Openmode" PURGE="0" COMMENT="" />
    <EXPORT ORDINAL="3108" NAME="_ZNSt14basic_ofstreamIwSt11char_traitsIwEEC1ERKSsSt13_Ios_Openmode" PURGE="0" COMMENT="" />
    <EXPORT ORDINAL="3109" NAME="_ZNSt14basic_ofstreamIwSt11char_traitsIwEEC1Ev" PURGE="0" COMMENT="" />
    <EXPORT ORDINAL="3110" NAME="_ZNSt14basic_ofstreamIwSt11char_traitsIwEEC2EOS2_" PURGE="0" COMMENT="" />
    <EXPORT ORDINAL="3111" NAME="_ZNSt14basic_ofstreamIwSt11char_traitsIwEEC2EPKcSt13_Ios_Openmode" PURGE="0" COMMENT="" />
    <EXPORT ORDINAL="3112" NAME="_ZNSt14basic_ofstreamIwSt11char_traitsIwEEC2EPKwSt13_Ios_Openmode" PURGE="0" COMMENT="" />
    <EXPORT ORDINAL="3113" NAME="_ZNSt14basic_ofstreamIwSt11char_traitsIwEEC2ERKNSt7__cxx1112basic_stringIcS0_IcESaIcEEESt13_Ios_Openmode" PURGE="0" COMMENT="" />
    <EXPORT ORDINAL="3114" NAME="_ZNSt14basic_ofstreamIwSt11char_traitsIwEEC2ERKSsSt13_Ios_Openmode" PURGE="0" COMMENT="" />
    <EXPORT ORDINAL="3115" NAME="_ZNSt14basic_ofstreamIwSt11char_traitsIwEEC2Ev" PURGE="0" COMMENT="" />
    <EXPORT ORDINAL="3116" NAME="_ZNSt14basic_ofstreamIwSt11char_traitsIwEED0Ev" PURGE="-1" COMMENT="" />
    <EXPORT ORDINAL="3117" NAME="_ZNSt14basic_ofstreamIwSt11char_traitsIwEED1Ev" PURGE="0" COMMENT="" />
    <EXPORT ORDINAL="3118" NAME="_ZNSt14basic_ofstreamIwSt11char_traitsIwEED2Ev" PURGE="0" COMMENT="" />
    <EXPORT ORDINAL="3119" NAME="_ZNSt14basic_ofstreamIwSt11char_traitsIwEEaSEOS2_" PURGE="0" COMMENT="" />
    <EXPORT ORDINAL="3120" NAME="_ZNSt14codecvt_bynameIcciEC1EPKcy" PURGE="0" COMMENT="" />
    <EXPORT ORDINAL="3121" NAME="_ZNSt14codecvt_bynameIcciEC1ERKNSt7__cxx1112basic_stringIcSt11char_traitsIcESaIcEEEy" PURGE="0" COMMENT="" />
    <EXPORT ORDINAL="3122" NAME="_ZNSt14codecvt_bynameIcciEC1ERKSsy" PURGE="0" COMMENT="" />
    <EXPORT ORDINAL="3123" NAME="_ZNSt14codecvt_bynameIcciEC2EPKcy" PURGE="0" COMMENT="" />
    <EXPORT ORDINAL="3124" NAME="_ZNSt14codecvt_bynameIcciEC2ERKNSt7__cxx1112basic_stringIcSt11char_traitsIcESaIcEEEy" PURGE="0" COMMENT="" />
    <EXPORT ORDINAL="3125" NAME="_ZNSt14codecvt_bynameIcciEC2ERKSsy" PURGE="0" COMMENT="" />
    <EXPORT ORDINAL="3126" NAME="_ZNSt14codecvt_bynameIcciED0Ev" PURGE="-1" COMMENT="" />
    <EXPORT ORDINAL="3127" NAME="_ZNSt14codecvt_bynameIcciED1Ev" PURGE="0" COMMENT="" />
    <EXPORT ORDINAL="3128" NAME="_ZNSt14codecvt_bynameIcciED2Ev" PURGE="0" COMMENT="" />
    <EXPORT ORDINAL="3129" NAME="_ZNSt14codecvt_bynameIwciEC1EPKcy" PURGE="0" COMMENT="" />
    <EXPORT ORDINAL="3130" NAME="_ZNSt14codecvt_bynameIwciEC1ERKNSt7__cxx1112basic_stringIcSt11char_traitsIcESaIcEEEy" PURGE="0" COMMENT="" />
    <EXPORT ORDINAL="3131" NAME="_ZNSt14codecvt_bynameIwciEC1ERKSsy" PURGE="0" COMMENT="" />
    <EXPORT ORDINAL="3132" NAME="_ZNSt14codecvt_bynameIwciEC2EPKcy" PURGE="0" COMMENT="" />
    <EXPORT ORDINAL="3133" NAME="_ZNSt14codecvt_bynameIwciEC2ERKNSt7__cxx1112basic_stringIcSt11char_traitsIcESaIcEEEy" PURGE="0" COMMENT="" />
    <EXPORT ORDINAL="3134" NAME="_ZNSt14codecvt_bynameIwciEC2ERKSsy" PURGE="0" COMMENT="" />
    <EXPORT ORDINAL="3135" NAME="_ZNSt14codecvt_bynameIwciED0Ev" PURGE="-1" COMMENT="" />
    <EXPORT ORDINAL="3136" NAME="_ZNSt14codecvt_bynameIwciED1Ev" PURGE="0" COMMENT="" />
    <EXPORT ORDINAL="3137" NAME="_ZNSt14codecvt_bynameIwciED2Ev" PURGE="0" COMMENT="" />
    <EXPORT ORDINAL="3138" NAME="_ZNSt14collate_bynameIcEC1EPKcy" PURGE="0" COMMENT="" />
    <EXPORT ORDINAL="3139" NAME="_ZNSt14collate_bynameIcEC1ERKSsy" PURGE="0" COMMENT="" />
    <EXPORT ORDINAL="3140" NAME="_ZNSt14collate_bynameIcEC2EPKcy" PURGE="0" COMMENT="" />
    <EXPORT ORDINAL="3141" NAME="_ZNSt14collate_bynameIcEC2ERKSsy" PURGE="0" COMMENT="" />
    <EXPORT ORDINAL="3142" NAME="_ZNSt14collate_bynameIcED0Ev" PURGE="-1" COMMENT="" />
    <EXPORT ORDINAL="3143" NAME="_ZNSt14collate_bynameIcED1Ev" PURGE="0" COMMENT="" />
    <EXPORT ORDINAL="3144" NAME="_ZNSt14collate_bynameIcED2Ev" PURGE="0" COMMENT="" />
    <EXPORT ORDINAL="3145" NAME="_ZNSt14collate_bynameIwEC1EPKcy" PURGE="0" COMMENT="" />
    <EXPORT ORDINAL="3146" NAME="_ZNSt14collate_bynameIwEC1ERKSsy" PURGE="0" COMMENT="" />
    <EXPORT ORDINAL="3147" NAME="_ZNSt14collate_bynameIwEC2EPKcy" PURGE="0" COMMENT="" />
    <EXPORT ORDINAL="3148" NAME="_ZNSt14collate_bynameIwEC2ERKSsy" PURGE="0" COMMENT="" />
    <EXPORT ORDINAL="3149" NAME="_ZNSt14collate_bynameIwED0Ev" PURGE="-1" COMMENT="" />
    <EXPORT ORDINAL="3150" NAME="_ZNSt14collate_bynameIwED1Ev" PURGE="0" COMMENT="" />
    <EXPORT ORDINAL="3151" NAME="_ZNSt14collate_bynameIwED2Ev" PURGE="0" COMMENT="" />
    <EXPORT ORDINAL="3152" NAME="_ZNSt14error_categoryC1Ev" PURGE="0" COMMENT="" />
    <EXPORT ORDINAL="3153" NAME="_ZNSt14error_categoryC2Ev" PURGE="0" COMMENT="" />
    <EXPORT ORDINAL="3154" NAME="_ZNSt14error_categoryD0Ev" PURGE="-1" COMMENT="" />
    <EXPORT ORDINAL="3155" NAME="_ZNSt14error_categoryD1Ev" PURGE="0" COMMENT="" />
    <EXPORT ORDINAL="3156" NAME="_ZNSt14error_categoryD2Ev" PURGE="0" COMMENT="" />
    <EXPORT ORDINAL="3157" NAME="_ZNSt14numeric_limitsIDiE10has_denormE" PURGE="-1" COMMENT="" />
    <EXPORT ORDINAL="3158" NAME="_ZNSt14numeric_limitsIDiE10is_boundedE" PURGE="-1" COMMENT="" />
    <EXPORT ORDINAL="3159" NAME="_ZNSt14numeric_limitsIDiE10is_integerE" PURGE="-1" COMMENT="" />
    <EXPORT ORDINAL="3160" NAME="_ZNSt14numeric_limitsIDiE11round_styleE" PURGE="-1" COMMENT="" />
    <EXPORT ORDINAL="3161" NAME="_ZNSt14numeric_limitsIDiE12has_infinityE" PURGE="-1" COMMENT="" />
    <EXPORT ORDINAL="3162" NAME="_ZNSt14numeric_limitsIDiE12max_digits10E" PURGE="-1" COMMENT="" />
    <EXPORT ORDINAL="3163" NAME="_ZNSt14numeric_limitsIDiE12max_exponentE" PURGE="-1" COMMENT="" />
    <EXPORT ORDINAL="3164" NAME="_ZNSt14numeric_limitsIDiE12min_exponentE" PURGE="-1" COMMENT="" />
    <EXPORT ORDINAL="3165" NAME="_ZNSt14numeric_limitsIDiE13has_quiet_NaNE" PURGE="-1" COMMENT="" />
    <EXPORT ORDINAL="3166" NAME="_ZNSt14numeric_limitsIDiE14is_specializedE" PURGE="-1" COMMENT="" />
    <EXPORT ORDINAL="3167" NAME="_ZNSt14numeric_limitsIDiE14max_exponent10E" PURGE="-1" COMMENT="" />
    <EXPORT ORDINAL="3168" NAME="_ZNSt14numeric_limitsIDiE14min_exponent10E" PURGE="-1" COMMENT="" />
    <EXPORT ORDINAL="3169" NAME="_ZNSt14numeric_limitsIDiE15has_denorm_lossE" PURGE="-1" COMMENT="" />
    <EXPORT ORDINAL="3170" NAME="_ZNSt14numeric_limitsIDiE15tinyness_beforeE" PURGE="-1" COMMENT="" />
    <EXPORT ORDINAL="3171" NAME="_ZNSt14numeric_limitsIDiE17has_signaling_NaNE" PURGE="-1" COMMENT="" />
    <EXPORT ORDINAL="3172" NAME="_ZNSt14numeric_limitsIDiE5radixE" PURGE="-1" COMMENT="" />
    <EXPORT ORDINAL="3173" NAME="_ZNSt14numeric_limitsIDiE5trapsE" PURGE="-1" COMMENT="" />
    <EXPORT ORDINAL="3174" NAME="_ZNSt14numeric_limitsIDiE6digitsE" PURGE="-1" COMMENT="" />
    <EXPORT ORDINAL="3175" NAME="_ZNSt14numeric_limitsIDiE8digits10E" PURGE="-1" COMMENT="" />
    <EXPORT ORDINAL="3176" NAME="_ZNSt14numeric_limitsIDiE8is_exactE" PURGE="-1" COMMENT="" />
    <EXPORT ORDINAL="3177" NAME="_ZNSt14numeric_limitsIDiE9is_iec559E" PURGE="-1" COMMENT="" />
    <EXPORT ORDINAL="3178" NAME="_ZNSt14numeric_limitsIDiE9is_moduloE" PURGE="-1" COMMENT="" />
    <EXPORT ORDINAL="3179" NAME="_ZNSt14numeric_limitsIDiE9is_signedE" PURGE="-1" COMMENT="" />
    <EXPORT ORDINAL="3180" NAME="_ZNSt14numeric_limitsIDsE10has_denormE" PURGE="-1" COMMENT="" />
    <EXPORT ORDINAL="3181" NAME="_ZNSt14numeric_limitsIDsE10is_boundedE" PURGE="-1" COMMENT="" />
    <EXPORT ORDINAL="3182" NAME="_ZNSt14numeric_limitsIDsE10is_integerE" PURGE="-1" COMMENT="" />
    <EXPORT ORDINAL="3183" NAME="_ZNSt14numeric_limitsIDsE11round_styleE" PURGE="-1" COMMENT="" />
    <EXPORT ORDINAL="3184" NAME="_ZNSt14numeric_limitsIDsE12has_infinityE" PURGE="-1" COMMENT="" />
    <EXPORT ORDINAL="3185" NAME="_ZNSt14numeric_limitsIDsE12max_digits10E" PURGE="-1" COMMENT="" />
    <EXPORT ORDINAL="3186" NAME="_ZNSt14numeric_limitsIDsE12max_exponentE" PURGE="-1" COMMENT="" />
    <EXPORT ORDINAL="3187" NAME="_ZNSt14numeric_limitsIDsE12min_exponentE" PURGE="-1" COMMENT="" />
    <EXPORT ORDINAL="3188" NAME="_ZNSt14numeric_limitsIDsE13has_quiet_NaNE" PURGE="-1" COMMENT="" />
    <EXPORT ORDINAL="3189" NAME="_ZNSt14numeric_limitsIDsE14is_specializedE" PURGE="-1" COMMENT="" />
    <EXPORT ORDINAL="3190" NAME="_ZNSt14numeric_limitsIDsE14max_exponent10E" PURGE="-1" COMMENT="" />
    <EXPORT ORDINAL="3191" NAME="_ZNSt14numeric_limitsIDsE14min_exponent10E" PURGE="-1" COMMENT="" />
    <EXPORT ORDINAL="3192" NAME="_ZNSt14numeric_limitsIDsE15has_denorm_lossE" PURGE="-1" COMMENT="" />
    <EXPORT ORDINAL="3193" NAME="_ZNSt14numeric_limitsIDsE15tinyness_beforeE" PURGE="-1" COMMENT="" />
    <EXPORT ORDINAL="3194" NAME="_ZNSt14numeric_limitsIDsE17has_signaling_NaNE" PURGE="-1" COMMENT="" />
    <EXPORT ORDINAL="3195" NAME="_ZNSt14numeric_limitsIDsE5radixE" PURGE="-1" COMMENT="" />
    <EXPORT ORDINAL="3196" NAME="_ZNSt14numeric_limitsIDsE5trapsE" PURGE="-1" COMMENT="" />
    <EXPORT ORDINAL="3197" NAME="_ZNSt14numeric_limitsIDsE6digitsE" PURGE="-1" COMMENT="" />
    <EXPORT ORDINAL="3198" NAME="_ZNSt14numeric_limitsIDsE8digits10E" PURGE="-1" COMMENT="" />
    <EXPORT ORDINAL="3199" NAME="_ZNSt14numeric_limitsIDsE8is_exactE" PURGE="-1" COMMENT="" />
    <EXPORT ORDINAL="3200" NAME="_ZNSt14numeric_limitsIDsE9is_iec559E" PURGE="-1" COMMENT="" />
    <EXPORT ORDINAL="3201" NAME="_ZNSt14numeric_limitsIDsE9is_moduloE" PURGE="-1" COMMENT="" />
    <EXPORT ORDINAL="3202" NAME="_ZNSt14numeric_limitsIDsE9is_signedE" PURGE="-1" COMMENT="" />
    <EXPORT ORDINAL="3203" NAME="_ZNSt14numeric_limitsIDuE10has_denormE" PURGE="-1" COMMENT="" />
    <EXPORT ORDINAL="3204" NAME="_ZNSt14numeric_limitsIDuE10is_boundedE" PURGE="-1" COMMENT="" />
    <EXPORT ORDINAL="3205" NAME="_ZNSt14numeric_limitsIDuE10is_integerE" PURGE="-1" COMMENT="" />
    <EXPORT ORDINAL="3206" NAME="_ZNSt14numeric_limitsIDuE11round_styleE" PURGE="-1" COMMENT="" />
    <EXPORT ORDINAL="3207" NAME="_ZNSt14numeric_limitsIDuE12has_infinityE" PURGE="-1" COMMENT="" />
    <EXPORT ORDINAL="3208" NAME="_ZNSt14numeric_limitsIDuE12max_digits10E" PURGE="-1" COMMENT="" />
    <EXPORT ORDINAL="3209" NAME="_ZNSt14numeric_limitsIDuE12max_exponentE" PURGE="-1" COMMENT="" />
    <EXPORT ORDINAL="3210" NAME="_ZNSt14numeric_limitsIDuE12min_exponentE" PURGE="-1" COMMENT="" />
    <EXPORT ORDINAL="3211" NAME="_ZNSt14numeric_limitsIDuE13has_quiet_NaNE" PURGE="-1" COMMENT="" />
    <EXPORT ORDINAL="3212" NAME="_ZNSt14numeric_limitsIDuE14is_specializedE" PURGE="-1" COMMENT="" />
    <EXPORT ORDINAL="3213" NAME="_ZNSt14numeric_limitsIDuE14max_exponent10E" PURGE="-1" COMMENT="" />
    <EXPORT ORDINAL="3214" NAME="_ZNSt14numeric_limitsIDuE14min_exponent10E" PURGE="-1" COMMENT="" />
    <EXPORT ORDINAL="3215" NAME="_ZNSt14numeric_limitsIDuE15has_denorm_lossE" PURGE="-1" COMMENT="" />
    <EXPORT ORDINAL="3216" NAME="_ZNSt14numeric_limitsIDuE15tinyness_beforeE" PURGE="-1" COMMENT="" />
    <EXPORT ORDINAL="3217" NAME="_ZNSt14numeric_limitsIDuE17has_signaling_NaNE" PURGE="-1" COMMENT="" />
    <EXPORT ORDINAL="3218" NAME="_ZNSt14numeric_limitsIDuE5radixE" PURGE="-1" COMMENT="" />
    <EXPORT ORDINAL="3219" NAME="_ZNSt14numeric_limitsIDuE5trapsE" PURGE="-1" COMMENT="" />
    <EXPORT ORDINAL="3220" NAME="_ZNSt14numeric_limitsIDuE6digitsE" PURGE="-1" COMMENT="" />
    <EXPORT ORDINAL="3221" NAME="_ZNSt14numeric_limitsIDuE8digits10E" PURGE="-1" COMMENT="" />
    <EXPORT ORDINAL="3222" NAME="_ZNSt14numeric_limitsIDuE8is_exactE" PURGE="-1" COMMENT="" />
    <EXPORT ORDINAL="3223" NAME="_ZNSt14numeric_limitsIDuE9is_iec559E" PURGE="-1" COMMENT="" />
    <EXPORT ORDINAL="3224" NAME="_ZNSt14numeric_limitsIDuE9is_moduloE" PURGE="-1" COMMENT="" />
    <EXPORT ORDINAL="3225" NAME="_ZNSt14numeric_limitsIDuE9is_signedE" PURGE="-1" COMMENT="" />
    <EXPORT ORDINAL="3226" NAME="_ZNSt14numeric_limitsIaE10has_denormE" PURGE="-1" COMMENT="" />
    <EXPORT ORDINAL="3227" NAME="_ZNSt14numeric_limitsIaE10is_boundedE" PURGE="-1" COMMENT="" />
    <EXPORT ORDINAL="3228" NAME="_ZNSt14numeric_limitsIaE10is_integerE" PURGE="-1" COMMENT="" />
    <EXPORT ORDINAL="3229" NAME="_ZNSt14numeric_limitsIaE11round_styleE" PURGE="-1" COMMENT="" />
    <EXPORT ORDINAL="3230" NAME="_ZNSt14numeric_limitsIaE12has_infinityE" PURGE="-1" COMMENT="" />
    <EXPORT ORDINAL="3231" NAME="_ZNSt14numeric_limitsIaE12max_digits10E" PURGE="-1" COMMENT="" />
    <EXPORT ORDINAL="3232" NAME="_ZNSt14numeric_limitsIaE12max_exponentE" PURGE="-1" COMMENT="" />
    <EXPORT ORDINAL="3233" NAME="_ZNSt14numeric_limitsIaE12min_exponentE" PURGE="-1" COMMENT="" />
    <EXPORT ORDINAL="3234" NAME="_ZNSt14numeric_limitsIaE13has_quiet_NaNE" PURGE="-1" COMMENT="" />
    <EXPORT ORDINAL="3235" NAME="_ZNSt14numeric_limitsIaE14is_specializedE" PURGE="-1" COMMENT="" />
    <EXPORT ORDINAL="3236" NAME="_ZNSt14numeric_limitsIaE14max_exponent10E" PURGE="-1" COMMENT="" />
    <EXPORT ORDINAL="3237" NAME="_ZNSt14numeric_limitsIaE14min_exponent10E" PURGE="-1" COMMENT="" />
    <EXPORT ORDINAL="3238" NAME="_ZNSt14numeric_limitsIaE15has_denorm_lossE" PURGE="-1" COMMENT="" />
    <EXPORT ORDINAL="3239" NAME="_ZNSt14numeric_limitsIaE15tinyness_beforeE" PURGE="-1" COMMENT="" />
    <EXPORT ORDINAL="3240" NAME="_ZNSt14numeric_limitsIaE17has_signaling_NaNE" PURGE="-1" COMMENT="" />
    <EXPORT ORDINAL="3241" NAME="_ZNSt14numeric_limitsIaE5radixE" PURGE="-1" COMMENT="" />
    <EXPORT ORDINAL="3242" NAME="_ZNSt14numeric_limitsIaE5trapsE" PURGE="-1" COMMENT="" />
    <EXPORT ORDINAL="3243" NAME="_ZNSt14numeric_limitsIaE6digitsE" PURGE="-1" COMMENT="" />
    <EXPORT ORDINAL="3244" NAME="_ZNSt14numeric_limitsIaE8digits10E" PURGE="-1" COMMENT="" />
    <EXPORT ORDINAL="3245" NAME="_ZNSt14numeric_limitsIaE8is_exactE" PURGE="-1" COMMENT="" />
    <EXPORT ORDINAL="3246" NAME="_ZNSt14numeric_limitsIaE9is_iec559E" PURGE="-1" COMMENT="" />
    <EXPORT ORDINAL="3247" NAME="_ZNSt14numeric_limitsIaE9is_moduloE" PURGE="-1" COMMENT="" />
    <EXPORT ORDINAL="3248" NAME="_ZNSt14numeric_limitsIaE9is_signedE" PURGE="-1" COMMENT="" />
    <EXPORT ORDINAL="3249" NAME="_ZNSt14numeric_limitsIbE10has_denormE" PURGE="-1" COMMENT="" />
    <EXPORT ORDINAL="3250" NAME="_ZNSt14numeric_limitsIbE10is_boundedE" PURGE="-1" COMMENT="" />
    <EXPORT ORDINAL="3251" NAME="_ZNSt14numeric_limitsIbE10is_integerE" PURGE="-1" COMMENT="" />
    <EXPORT ORDINAL="3252" NAME="_ZNSt14numeric_limitsIbE11round_styleE" PURGE="-1" COMMENT="" />
    <EXPORT ORDINAL="3253" NAME="_ZNSt14numeric_limitsIbE12has_infinityE" PURGE="-1" COMMENT="" />
    <EXPORT ORDINAL="3254" NAME="_ZNSt14numeric_limitsIbE12max_digits10E" PURGE="-1" COMMENT="" />
    <EXPORT ORDINAL="3255" NAME="_ZNSt14numeric_limitsIbE12max_exponentE" PURGE="-1" COMMENT="" />
    <EXPORT ORDINAL="3256" NAME="_ZNSt14numeric_limitsIbE12min_exponentE" PURGE="-1" COMMENT="" />
    <EXPORT ORDINAL="3257" NAME="_ZNSt14numeric_limitsIbE13has_quiet_NaNE" PURGE="-1" COMMENT="" />
    <EXPORT ORDINAL="3258" NAME="_ZNSt14numeric_limitsIbE14is_specializedE" PURGE="-1" COMMENT="" />
    <EXPORT ORDINAL="3259" NAME="_ZNSt14numeric_limitsIbE14max_exponent10E" PURGE="-1" COMMENT="" />
    <EXPORT ORDINAL="3260" NAME="_ZNSt14numeric_limitsIbE14min_exponent10E" PURGE="-1" COMMENT="" />
    <EXPORT ORDINAL="3261" NAME="_ZNSt14numeric_limitsIbE15has_denorm_lossE" PURGE="-1" COMMENT="" />
    <EXPORT ORDINAL="3262" NAME="_ZNSt14numeric_limitsIbE15tinyness_beforeE" PURGE="-1" COMMENT="" />
    <EXPORT ORDINAL="3263" NAME="_ZNSt14numeric_limitsIbE17has_signaling_NaNE" PURGE="-1" COMMENT="" />
    <EXPORT ORDINAL="3264" NAME="_ZNSt14numeric_limitsIbE5radixE" PURGE="-1" COMMENT="" />
    <EXPORT ORDINAL="3265" NAME="_ZNSt14numeric_limitsIbE5trapsE" PURGE="-1" COMMENT="" />
    <EXPORT ORDINAL="3266" NAME="_ZNSt14numeric_limitsIbE6digitsE" PURGE="-1" COMMENT="" />
    <EXPORT ORDINAL="3267" NAME="_ZNSt14numeric_limitsIbE8digits10E" PURGE="-1" COMMENT="" />
    <EXPORT ORDINAL="3268" NAME="_ZNSt14numeric_limitsIbE8is_exactE" PURGE="-1" COMMENT="" />
    <EXPORT ORDINAL="3269" NAME="_ZNSt14numeric_limitsIbE9is_iec559E" PURGE="-1" COMMENT="" />
    <EXPORT ORDINAL="3270" NAME="_ZNSt14numeric_limitsIbE9is_moduloE" PURGE="-1" COMMENT="" />
    <EXPORT ORDINAL="3271" NAME="_ZNSt14numeric_limitsIbE9is_signedE" PURGE="-1" COMMENT="" />
    <EXPORT ORDINAL="3272" NAME="_ZNSt14numeric_limitsIcE10has_denormE" PURGE="-1" COMMENT="" />
    <EXPORT ORDINAL="3273" NAME="_ZNSt14numeric_limitsIcE10is_boundedE" PURGE="-1" COMMENT="" />
    <EXPORT ORDINAL="3274" NAME="_ZNSt14numeric_limitsIcE10is_integerE" PURGE="-1" COMMENT="" />
    <EXPORT ORDINAL="3275" NAME="_ZNSt14numeric_limitsIcE11round_styleE" PURGE="-1" COMMENT="" />
    <EXPORT ORDINAL="3276" NAME="_ZNSt14numeric_limitsIcE12has_infinityE" PURGE="-1" COMMENT="" />
    <EXPORT ORDINAL="3277" NAME="_ZNSt14numeric_limitsIcE12max_digits10E" PURGE="-1" COMMENT="" />
    <EXPORT ORDINAL="3278" NAME="_ZNSt14numeric_limitsIcE12max_exponentE" PURGE="-1" COMMENT="" />
    <EXPORT ORDINAL="3279" NAME="_ZNSt14numeric_limitsIcE12min_exponentE" PURGE="-1" COMMENT="" />
    <EXPORT ORDINAL="3280" NAME="_ZNSt14numeric_limitsIcE13has_quiet_NaNE" PURGE="-1" COMMENT="" />
    <EXPORT ORDINAL="3281" NAME="_ZNSt14numeric_limitsIcE14is_specializedE" PURGE="-1" COMMENT="" />
    <EXPORT ORDINAL="3282" NAME="_ZNSt14numeric_limitsIcE14max_exponent10E" PURGE="-1" COMMENT="" />
    <EXPORT ORDINAL="3283" NAME="_ZNSt14numeric_limitsIcE14min_exponent10E" PURGE="-1" COMMENT="" />
    <EXPORT ORDINAL="3284" NAME="_ZNSt14numeric_limitsIcE15has_denorm_lossE" PURGE="-1" COMMENT="" />
    <EXPORT ORDINAL="3285" NAME="_ZNSt14numeric_limitsIcE15tinyness_beforeE" PURGE="-1" COMMENT="" />
    <EXPORT ORDINAL="3286" NAME="_ZNSt14numeric_limitsIcE17has_signaling_NaNE" PURGE="-1" COMMENT="" />
    <EXPORT ORDINAL="3287" NAME="_ZNSt14numeric_limitsIcE5radixE" PURGE="-1" COMMENT="" />
    <EXPORT ORDINAL="3288" NAME="_ZNSt14numeric_limitsIcE5trapsE" PURGE="-1" COMMENT="" />
    <EXPORT ORDINAL="3289" NAME="_ZNSt14numeric_limitsIcE6digitsE" PURGE="-1" COMMENT="" />
    <EXPORT ORDINAL="3290" NAME="_ZNSt14numeric_limitsIcE8digits10E" PURGE="-1" COMMENT="" />
    <EXPORT ORDINAL="3291" NAME="_ZNSt14numeric_limitsIcE8is_exactE" PURGE="-1" COMMENT="" />
    <EXPORT ORDINAL="3292" NAME="_ZNSt14numeric_limitsIcE9is_iec559E" PURGE="-1" COMMENT="" />
    <EXPORT ORDINAL="3293" NAME="_ZNSt14numeric_limitsIcE9is_moduloE" PURGE="-1" COMMENT="" />
    <EXPORT ORDINAL="3294" NAME="_ZNSt14numeric_limitsIcE9is_signedE" PURGE="-1" COMMENT="" />
    <EXPORT ORDINAL="3295" NAME="_ZNSt14numeric_limitsIdE10has_denormE" PURGE="-1" COMMENT="" />
    <EXPORT ORDINAL="3296" NAME="_ZNSt14numeric_limitsIdE10is_boundedE" PURGE="-1" COMMENT="" />
    <EXPORT ORDINAL="3297" NAME="_ZNSt14numeric_limitsIdE10is_integerE" PURGE="-1" COMMENT="" />
    <EXPORT ORDINAL="3298" NAME="_ZNSt14numeric_limitsIdE11round_styleE" PURGE="-1" COMMENT="" />
    <EXPORT ORDINAL="3299" NAME="_ZNSt14numeric_limitsIdE12has_infinityE" PURGE="-1" COMMENT="" />
    <EXPORT ORDINAL="3300" NAME="_ZNSt14numeric_limitsIdE12max_digits10E" PURGE="-1" COMMENT="" />
    <EXPORT ORDINAL="3301" NAME="_ZNSt14numeric_limitsIdE12max_exponentE" PURGE="-1" COMMENT="" />
    <EXPORT ORDINAL="3302" NAME="_ZNSt14numeric_limitsIdE12min_exponentE" PURGE="-1" COMMENT="" />
    <EXPORT ORDINAL="3303" NAME="_ZNSt14numeric_limitsIdE13has_quiet_NaNE" PURGE="-1" COMMENT="" />
    <EXPORT ORDINAL="3304" NAME="_ZNSt14numeric_limitsIdE14is_specializedE" PURGE="-1" COMMENT="" />
    <EXPORT ORDINAL="3305" NAME="_ZNSt14numeric_limitsIdE14max_exponent10E" PURGE="-1" COMMENT="" />
    <EXPORT ORDINAL="3306" NAME="_ZNSt14numeric_limitsIdE14min_exponent10E" PURGE="-1" COMMENT="" />
    <EXPORT ORDINAL="3307" NAME="_ZNSt14numeric_limitsIdE15has_denorm_lossE" PURGE="-1" COMMENT="" />
    <EXPORT ORDINAL="3308" NAME="_ZNSt14numeric_limitsIdE15tinyness_beforeE" PURGE="-1" COMMENT="" />
    <EXPORT ORDINAL="3309" NAME="_ZNSt14numeric_limitsIdE17has_signaling_NaNE" PURGE="-1" COMMENT="" />
    <EXPORT ORDINAL="3310" NAME="_ZNSt14numeric_limitsIdE5radixE" PURGE="-1" COMMENT="" />
    <EXPORT ORDINAL="3311" NAME="_ZNSt14numeric_limitsIdE5trapsE" PURGE="-1" COMMENT="" />
    <EXPORT ORDINAL="3312" NAME="_ZNSt14numeric_limitsIdE6digitsE" PURGE="-1" COMMENT="" />
    <EXPORT ORDINAL="3313" NAME="_ZNSt14numeric_limitsIdE8digits10E" PURGE="-1" COMMENT="" />
    <EXPORT ORDINAL="3314" NAME="_ZNSt14numeric_limitsIdE8is_exactE" PURGE="-1" COMMENT="" />
    <EXPORT ORDINAL="3315" NAME="_ZNSt14numeric_limitsIdE9is_iec559E" PURGE="-1" COMMENT="" />
    <EXPORT ORDINAL="3316" NAME="_ZNSt14numeric_limitsIdE9is_moduloE" PURGE="-1" COMMENT="" />
    <EXPORT ORDINAL="3317" NAME="_ZNSt14numeric_limitsIdE9is_signedE" PURGE="-1" COMMENT="" />
    <EXPORT ORDINAL="3318" NAME="_ZNSt14numeric_limitsIeE10has_denormE" PURGE="-1" COMMENT="" />
    <EXPORT ORDINAL="3319" NAME="_ZNSt14numeric_limitsIeE10is_boundedE" PURGE="-1" COMMENT="" />
    <EXPORT ORDINAL="3320" NAME="_ZNSt14numeric_limitsIeE10is_integerE" PURGE="-1" COMMENT="" />
    <EXPORT ORDINAL="3321" NAME="_ZNSt14numeric_limitsIeE11round_styleE" PURGE="-1" COMMENT="" />
    <EXPORT ORDINAL="3322" NAME="_ZNSt14numeric_limitsIeE12has_infinityE" PURGE="-1" COMMENT="" />
    <EXPORT ORDINAL="3323" NAME="_ZNSt14numeric_limitsIeE12max_digits10E" PURGE="-1" COMMENT="" />
    <EXPORT ORDINAL="3324" NAME="_ZNSt14numeric_limitsIeE12max_exponentE" PURGE="-1" COMMENT="" />
    <EXPORT ORDINAL="3325" NAME="_ZNSt14numeric_limitsIeE12min_exponentE" PURGE="-1" COMMENT="" />
    <EXPORT ORDINAL="3326" NAME="_ZNSt14numeric_limitsIeE13has_quiet_NaNE" PURGE="-1" COMMENT="" />
    <EXPORT ORDINAL="3327" NAME="_ZNSt14numeric_limitsIeE14is_specializedE" PURGE="-1" COMMENT="" />
    <EXPORT ORDINAL="3328" NAME="_ZNSt14numeric_limitsIeE14max_exponent10E" PURGE="-1" COMMENT="" />
    <EXPORT ORDINAL="3329" NAME="_ZNSt14numeric_limitsIeE14min_exponent10E" PURGE="-1" COMMENT="" />
    <EXPORT ORDINAL="3330" NAME="_ZNSt14numeric_limitsIeE15has_denorm_lossE" PURGE="-1" COMMENT="" />
    <EXPORT ORDINAL="3331" NAME="_ZNSt14numeric_limitsIeE15tinyness_beforeE" PURGE="-1" COMMENT="" />
    <EXPORT ORDINAL="3332" NAME="_ZNSt14numeric_limitsIeE17has_signaling_NaNE" PURGE="-1" COMMENT="" />
    <EXPORT ORDINAL="3333" NAME="_ZNSt14numeric_limitsIeE5radixE" PURGE="-1" COMMENT="" />
    <EXPORT ORDINAL="3334" NAME="_ZNSt14numeric_limitsIeE5trapsE" PURGE="-1" COMMENT="" />
    <EXPORT ORDINAL="3335" NAME="_ZNSt14numeric_limitsIeE6digitsE" PURGE="-1" COMMENT="" />
    <EXPORT ORDINAL="3336" NAME="_ZNSt14numeric_limitsIeE8digits10E" PURGE="-1" COMMENT="" />
    <EXPORT ORDINAL="3337" NAME="_ZNSt14numeric_limitsIeE8is_exactE" PURGE="-1" COMMENT="" />
    <EXPORT ORDINAL="3338" NAME="_ZNSt14numeric_limitsIeE9is_iec559E" PURGE="-1" COMMENT="" />
    <EXPORT ORDINAL="3339" NAME="_ZNSt14numeric_limitsIeE9is_moduloE" PURGE="-1" COMMENT="" />
    <EXPORT ORDINAL="3340" NAME="_ZNSt14numeric_limitsIeE9is_signedE" PURGE="-1" COMMENT="" />
    <EXPORT ORDINAL="3341" NAME="_ZNSt14numeric_limitsIfE10has_denormE" PURGE="-1" COMMENT="" />
    <EXPORT ORDINAL="3342" NAME="_ZNSt14numeric_limitsIfE10is_boundedE" PURGE="-1" COMMENT="" />
    <EXPORT ORDINAL="3343" NAME="_ZNSt14numeric_limitsIfE10is_integerE" PURGE="-1" COMMENT="" />
    <EXPORT ORDINAL="3344" NAME="_ZNSt14numeric_limitsIfE11round_styleE" PURGE="-1" COMMENT="" />
    <EXPORT ORDINAL="3345" NAME="_ZNSt14numeric_limitsIfE12has_infinityE" PURGE="-1" COMMENT="" />
    <EXPORT ORDINAL="3346" NAME="_ZNSt14numeric_limitsIfE12max_digits10E" PURGE="-1" COMMENT="" />
    <EXPORT ORDINAL="3347" NAME="_ZNSt14numeric_limitsIfE12max_exponentE" PURGE="-1" COMMENT="" />
    <EXPORT ORDINAL="3348" NAME="_ZNSt14numeric_limitsIfE12min_exponentE" PURGE="-1" COMMENT="" />
    <EXPORT ORDINAL="3349" NAME="_ZNSt14numeric_limitsIfE13has_quiet_NaNE" PURGE="-1" COMMENT="" />
    <EXPORT ORDINAL="3350" NAME="_ZNSt14numeric_limitsIfE14is_specializedE" PURGE="-1" COMMENT="" />
    <EXPORT ORDINAL="3351" NAME="_ZNSt14numeric_limitsIfE14max_exponent10E" PURGE="-1" COMMENT="" />
    <EXPORT ORDINAL="3352" NAME="_ZNSt14numeric_limitsIfE14min_exponent10E" PURGE="-1" COMMENT="" />
    <EXPORT ORDINAL="3353" NAME="_ZNSt14numeric_limitsIfE15has_denorm_lossE" PURGE="-1" COMMENT="" />
    <EXPORT ORDINAL="3354" NAME="_ZNSt14numeric_limitsIfE15tinyness_beforeE" PURGE="-1" COMMENT="" />
    <EXPORT ORDINAL="3355" NAME="_ZNSt14numeric_limitsIfE17has_signaling_NaNE" PURGE="-1" COMMENT="" />
    <EXPORT ORDINAL="3356" NAME="_ZNSt14numeric_limitsIfE5radixE" PURGE="-1" COMMENT="" />
    <EXPORT ORDINAL="3357" NAME="_ZNSt14numeric_limitsIfE5trapsE" PURGE="-1" COMMENT="" />
    <EXPORT ORDINAL="3358" NAME="_ZNSt14numeric_limitsIfE6digitsE" PURGE="-1" COMMENT="" />
    <EXPORT ORDINAL="3359" NAME="_ZNSt14numeric_limitsIfE8digits10E" PURGE="-1" COMMENT="" />
    <EXPORT ORDINAL="3360" NAME="_ZNSt14numeric_limitsIfE8is_exactE" PURGE="-1" COMMENT="" />
    <EXPORT ORDINAL="3361" NAME="_ZNSt14numeric_limitsIfE9is_iec559E" PURGE="-1" COMMENT="" />
    <EXPORT ORDINAL="3362" NAME="_ZNSt14numeric_limitsIfE9is_moduloE" PURGE="-1" COMMENT="" />
    <EXPORT ORDINAL="3363" NAME="_ZNSt14numeric_limitsIfE9is_signedE" PURGE="-1" COMMENT="" />
    <EXPORT ORDINAL="3364" NAME="_ZNSt14numeric_limitsIhE10has_denormE" PURGE="-1" COMMENT="" />
    <EXPORT ORDINAL="3365" NAME="_ZNSt14numeric_limitsIhE10is_boundedE" PURGE="-1" COMMENT="" />
    <EXPORT ORDINAL="3366" NAME="_ZNSt14numeric_limitsIhE10is_integerE" PURGE="-1" COMMENT="" />
    <EXPORT ORDINAL="3367" NAME="_ZNSt14numeric_limitsIhE11round_styleE" PURGE="-1" COMMENT="" />
    <EXPORT ORDINAL="3368" NAME="_ZNSt14numeric_limitsIhE12has_infinityE" PURGE="-1" COMMENT="" />
    <EXPORT ORDINAL="3369" NAME="_ZNSt14numeric_limitsIhE12max_digits10E" PURGE="-1" COMMENT="" />
    <EXPORT ORDINAL="3370" NAME="_ZNSt14numeric_limitsIhE12max_exponentE" PURGE="-1" COMMENT="" />
    <EXPORT ORDINAL="3371" NAME="_ZNSt14numeric_limitsIhE12min_exponentE" PURGE="-1" COMMENT="" />
    <EXPORT ORDINAL="3372" NAME="_ZNSt14numeric_limitsIhE13has_quiet_NaNE" PURGE="-1" COMMENT="" />
    <EXPORT ORDINAL="3373" NAME="_ZNSt14numeric_limitsIhE14is_specializedE" PURGE="-1" COMMENT="" />
    <EXPORT ORDINAL="3374" NAME="_ZNSt14numeric_limitsIhE14max_exponent10E" PURGE="-1" COMMENT="" />
    <EXPORT ORDINAL="3375" NAME="_ZNSt14numeric_limitsIhE14min_exponent10E" PURGE="-1" COMMENT="" />
    <EXPORT ORDINAL="3376" NAME="_ZNSt14numeric_limitsIhE15has_denorm_lossE" PURGE="-1" COMMENT="" />
    <EXPORT ORDINAL="3377" NAME="_ZNSt14numeric_limitsIhE15tinyness_beforeE" PURGE="-1" COMMENT="" />
    <EXPORT ORDINAL="3378" NAME="_ZNSt14numeric_limitsIhE17has_signaling_NaNE" PURGE="-1" COMMENT="" />
    <EXPORT ORDINAL="3379" NAME="_ZNSt14numeric_limitsIhE5radixE" PURGE="-1" COMMENT="" />
    <EXPORT ORDINAL="3380" NAME="_ZNSt14numeric_limitsIhE5trapsE" PURGE="-1" COMMENT="" />
    <EXPORT ORDINAL="3381" NAME="_ZNSt14numeric_limitsIhE6digitsE" PURGE="-1" COMMENT="" />
    <EXPORT ORDINAL="3382" NAME="_ZNSt14numeric_limitsIhE8digits10E" PURGE="-1" COMMENT="" />
    <EXPORT ORDINAL="3383" NAME="_ZNSt14numeric_limitsIhE8is_exactE" PURGE="-1" COMMENT="" />
    <EXPORT ORDINAL="3384" NAME="_ZNSt14numeric_limitsIhE9is_iec559E" PURGE="-1" COMMENT="" />
    <EXPORT ORDINAL="3385" NAME="_ZNSt14numeric_limitsIhE9is_moduloE" PURGE="-1" COMMENT="" />
    <EXPORT ORDINAL="3386" NAME="_ZNSt14numeric_limitsIhE9is_signedE" PURGE="-1" COMMENT="" />
    <EXPORT ORDINAL="3387" NAME="_ZNSt14numeric_limitsIiE10has_denormE" PURGE="-1" COMMENT="" />
    <EXPORT ORDINAL="3388" NAME="_ZNSt14numeric_limitsIiE10is_boundedE" PURGE="-1" COMMENT="" />
    <EXPORT ORDINAL="3389" NAME="_ZNSt14numeric_limitsIiE10is_integerE" PURGE="-1" COMMENT="" />
    <EXPORT ORDINAL="3390" NAME="_ZNSt14numeric_limitsIiE11round_styleE" PURGE="-1" COMMENT="" />
    <EXPORT ORDINAL="3391" NAME="_ZNSt14numeric_limitsIiE12has_infinityE" PURGE="-1" COMMENT="" />
    <EXPORT ORDINAL="3392" NAME="_ZNSt14numeric_limitsIiE12max_digits10E" PURGE="-1" COMMENT="" />
    <EXPORT ORDINAL="3393" NAME="_ZNSt14numeric_limitsIiE12max_exponentE" PURGE="-1" COMMENT="" />
    <EXPORT ORDINAL="3394" NAME="_ZNSt14numeric_limitsIiE12min_exponentE" PURGE="-1" COMMENT="" />
    <EXPORT ORDINAL="3395" NAME="_ZNSt14numeric_limitsIiE13has_quiet_NaNE" PURGE="-1" COMMENT="" />
    <EXPORT ORDINAL="3396" NAME="_ZNSt14numeric_limitsIiE14is_specializedE" PURGE="-1" COMMENT="" />
    <EXPORT ORDINAL="3397" NAME="_ZNSt14numeric_limitsIiE14max_exponent10E" PURGE="-1" COMMENT="" />
    <EXPORT ORDINAL="3398" NAME="_ZNSt14numeric_limitsIiE14min_exponent10E" PURGE="-1" COMMENT="" />
    <EXPORT ORDINAL="3399" NAME="_ZNSt14numeric_limitsIiE15has_denorm_lossE" PURGE="-1" COMMENT="" />
    <EXPORT ORDINAL="3400" NAME="_ZNSt14numeric_limitsIiE15tinyness_beforeE" PURGE="-1" COMMENT="" />
    <EXPORT ORDINAL="3401" NAME="_ZNSt14numeric_limitsIiE17has_signaling_NaNE" PURGE="-1" COMMENT="" />
    <EXPORT ORDINAL="3402" NAME="_ZNSt14numeric_limitsIiE5radixE" PURGE="-1" COMMENT="" />
    <EXPORT ORDINAL="3403" NAME="_ZNSt14numeric_limitsIiE5trapsE" PURGE="-1" COMMENT="" />
    <EXPORT ORDINAL="3404" NAME="_ZNSt14numeric_limitsIiE6digitsE" PURGE="-1" COMMENT="" />
    <EXPORT ORDINAL="3405" NAME="_ZNSt14numeric_limitsIiE8digits10E" PURGE="-1" COMMENT="" />
    <EXPORT ORDINAL="3406" NAME="_ZNSt14numeric_limitsIiE8is_exactE" PURGE="-1" COMMENT="" />
    <EXPORT ORDINAL="3407" NAME="_ZNSt14numeric_limitsIiE9is_iec559E" PURGE="-1" COMMENT="" />
    <EXPORT ORDINAL="3408" NAME="_ZNSt14numeric_limitsIiE9is_moduloE" PURGE="-1" COMMENT="" />
    <EXPORT ORDINAL="3409" NAME="_ZNSt14numeric_limitsIiE9is_signedE" PURGE="-1" COMMENT="" />
    <EXPORT ORDINAL="3410" NAME="_ZNSt14numeric_limitsIjE10has_denormE" PURGE="-1" COMMENT="" />
    <EXPORT ORDINAL="3411" NAME="_ZNSt14numeric_limitsIjE10is_boundedE" PURGE="-1" COMMENT="" />
    <EXPORT ORDINAL="3412" NAME="_ZNSt14numeric_limitsIjE10is_integerE" PURGE="-1" COMMENT="" />
    <EXPORT ORDINAL="3413" NAME="_ZNSt14numeric_limitsIjE11round_styleE" PURGE="-1" COMMENT="" />
    <EXPORT ORDINAL="3414" NAME="_ZNSt14numeric_limitsIjE12has_infinityE" PURGE="-1" COMMENT="" />
    <EXPORT ORDINAL="3415" NAME="_ZNSt14numeric_limitsIjE12max_digits10E" PURGE="-1" COMMENT="" />
    <EXPORT ORDINAL="3416" NAME="_ZNSt14numeric_limitsIjE12max_exponentE" PURGE="-1" COMMENT="" />
    <EXPORT ORDINAL="3417" NAME="_ZNSt14numeric_limitsIjE12min_exponentE" PURGE="-1" COMMENT="" />
    <EXPORT ORDINAL="3418" NAME="_ZNSt14numeric_limitsIjE13has_quiet_NaNE" PURGE="-1" COMMENT="" />
    <EXPORT ORDINAL="3419" NAME="_ZNSt14numeric_limitsIjE14is_specializedE" PURGE="-1" COMMENT="" />
    <EXPORT ORDINAL="3420" NAME="_ZNSt14numeric_limitsIjE14max_exponent10E" PURGE="-1" COMMENT="" />
    <EXPORT ORDINAL="3421" NAME="_ZNSt14numeric_limitsIjE14min_exponent10E" PURGE="-1" COMMENT="" />
    <EXPORT ORDINAL="3422" NAME="_ZNSt14numeric_limitsIjE15has_denorm_lossE" PURGE="-1" COMMENT="" />
    <EXPORT ORDINAL="3423" NAME="_ZNSt14numeric_limitsIjE15tinyness_beforeE" PURGE="-1" COMMENT="" />
    <EXPORT ORDINAL="3424" NAME="_ZNSt14numeric_limitsIjE17has_signaling_NaNE" PURGE="-1" COMMENT="" />
    <EXPORT ORDINAL="3425" NAME="_ZNSt14numeric_limitsIjE5radixE" PURGE="-1" COMMENT="" />
    <EXPORT ORDINAL="3426" NAME="_ZNSt14numeric_limitsIjE5trapsE" PURGE="-1" COMMENT="" />
    <EXPORT ORDINAL="3427" NAME="_ZNSt14numeric_limitsIjE6digitsE" PURGE="-1" COMMENT="" />
    <EXPORT ORDINAL="3428" NAME="_ZNSt14numeric_limitsIjE8digits10E" PURGE="-1" COMMENT="" />
    <EXPORT ORDINAL="3429" NAME="_ZNSt14numeric_limitsIjE8is_exactE" PURGE="-1" COMMENT="" />
    <EXPORT ORDINAL="3430" NAME="_ZNSt14numeric_limitsIjE9is_iec559E" PURGE="-1" COMMENT="" />
    <EXPORT ORDINAL="3431" NAME="_ZNSt14numeric_limitsIjE9is_moduloE" PURGE="-1" COMMENT="" />
    <EXPORT ORDINAL="3432" NAME="_ZNSt14numeric_limitsIjE9is_signedE" PURGE="-1" COMMENT="" />
    <EXPORT ORDINAL="3433" NAME="_ZNSt14numeric_limitsIlE10has_denormE" PURGE="-1" COMMENT="" />
    <EXPORT ORDINAL="3434" NAME="_ZNSt14numeric_limitsIlE10is_boundedE" PURGE="-1" COMMENT="" />
    <EXPORT ORDINAL="3435" NAME="_ZNSt14numeric_limitsIlE10is_integerE" PURGE="-1" COMMENT="" />
    <EXPORT ORDINAL="3436" NAME="_ZNSt14numeric_limitsIlE11round_styleE" PURGE="-1" COMMENT="" />
    <EXPORT ORDINAL="3437" NAME="_ZNSt14numeric_limitsIlE12has_infinityE" PURGE="-1" COMMENT="" />
    <EXPORT ORDINAL="3438" NAME="_ZNSt14numeric_limitsIlE12max_digits10E" PURGE="-1" COMMENT="" />
    <EXPORT ORDINAL="3439" NAME="_ZNSt14numeric_limitsIlE12max_exponentE" PURGE="-1" COMMENT="" />
    <EXPORT ORDINAL="3440" NAME="_ZNSt14numeric_limitsIlE12min_exponentE" PURGE="-1" COMMENT="" />
    <EXPORT ORDINAL="3441" NAME="_ZNSt14numeric_limitsIlE13has_quiet_NaNE" PURGE="-1" COMMENT="" />
    <EXPORT ORDINAL="3442" NAME="_ZNSt14numeric_limitsIlE14is_specializedE" PURGE="-1" COMMENT="" />
    <EXPORT ORDINAL="3443" NAME="_ZNSt14numeric_limitsIlE14max_exponent10E" PURGE="-1" COMMENT="" />
    <EXPORT ORDINAL="3444" NAME="_ZNSt14numeric_limitsIlE14min_exponent10E" PURGE="-1" COMMENT="" />
    <EXPORT ORDINAL="3445" NAME="_ZNSt14numeric_limitsIlE15has_denorm_lossE" PURGE="-1" COMMENT="" />
    <EXPORT ORDINAL="3446" NAME="_ZNSt14numeric_limitsIlE15tinyness_beforeE" PURGE="-1" COMMENT="" />
    <EXPORT ORDINAL="3447" NAME="_ZNSt14numeric_limitsIlE17has_signaling_NaNE" PURGE="-1" COMMENT="" />
    <EXPORT ORDINAL="3448" NAME="_ZNSt14numeric_limitsIlE5radixE" PURGE="-1" COMMENT="" />
    <EXPORT ORDINAL="3449" NAME="_ZNSt14numeric_limitsIlE5trapsE" PURGE="-1" COMMENT="" />
    <EXPORT ORDINAL="3450" NAME="_ZNSt14numeric_limitsIlE6digitsE" PURGE="-1" COMMENT="" />
    <EXPORT ORDINAL="3451" NAME="_ZNSt14numeric_limitsIlE8digits10E" PURGE="-1" COMMENT="" />
    <EXPORT ORDINAL="3452" NAME="_ZNSt14numeric_limitsIlE8is_exactE" PURGE="-1" COMMENT="" />
    <EXPORT ORDINAL="3453" NAME="_ZNSt14numeric_limitsIlE9is_iec559E" PURGE="-1" COMMENT="" />
    <EXPORT ORDINAL="3454" NAME="_ZNSt14numeric_limitsIlE9is_moduloE" PURGE="-1" COMMENT="" />
    <EXPORT ORDINAL="3455" NAME="_ZNSt14numeric_limitsIlE9is_signedE" PURGE="-1" COMMENT="" />
    <EXPORT ORDINAL="3456" NAME="_ZNSt14numeric_limitsImE10has_denormE" PURGE="-1" COMMENT="" />
    <EXPORT ORDINAL="3457" NAME="_ZNSt14numeric_limitsImE10is_boundedE" PURGE="-1" COMMENT="" />
    <EXPORT ORDINAL="3458" NAME="_ZNSt14numeric_limitsImE10is_integerE" PURGE="-1" COMMENT="" />
    <EXPORT ORDINAL="3459" NAME="_ZNSt14numeric_limitsImE11round_styleE" PURGE="-1" COMMENT="" />
    <EXPORT ORDINAL="3460" NAME="_ZNSt14numeric_limitsImE12has_infinityE" PURGE="-1" COMMENT="" />
    <EXPORT ORDINAL="3461" NAME="_ZNSt14numeric_limitsImE12max_digits10E" PURGE="-1" COMMENT="" />
    <EXPORT ORDINAL="3462" NAME="_ZNSt14numeric_limitsImE12max_exponentE" PURGE="-1" COMMENT="" />
    <EXPORT ORDINAL="3463" NAME="_ZNSt14numeric_limitsImE12min_exponentE" PURGE="-1" COMMENT="" />
    <EXPORT ORDINAL="3464" NAME="_ZNSt14numeric_limitsImE13has_quiet_NaNE" PURGE="-1" COMMENT="" />
    <EXPORT ORDINAL="3465" NAME="_ZNSt14numeric_limitsImE14is_specializedE" PURGE="-1" COMMENT="" />
    <EXPORT ORDINAL="3466" NAME="_ZNSt14numeric_limitsImE14max_exponent10E" PURGE="-1" COMMENT="" />
    <EXPORT ORDINAL="3467" NAME="_ZNSt14numeric_limitsImE14min_exponent10E" PURGE="-1" COMMENT="" />
    <EXPORT ORDINAL="3468" NAME="_ZNSt14numeric_limitsImE15has_denorm_lossE" PURGE="-1" COMMENT="" />
    <EXPORT ORDINAL="3469" NAME="_ZNSt14numeric_limitsImE15tinyness_beforeE" PURGE="-1" COMMENT="" />
    <EXPORT ORDINAL="3470" NAME="_ZNSt14numeric_limitsImE17has_signaling_NaNE" PURGE="-1" COMMENT="" />
    <EXPORT ORDINAL="3471" NAME="_ZNSt14numeric_limitsImE5radixE" PURGE="-1" COMMENT="" />
    <EXPORT ORDINAL="3472" NAME="_ZNSt14numeric_limitsImE5trapsE" PURGE="-1" COMMENT="" />
    <EXPORT ORDINAL="3473" NAME="_ZNSt14numeric_limitsImE6digitsE" PURGE="-1" COMMENT="" />
    <EXPORT ORDINAL="3474" NAME="_ZNSt14numeric_limitsImE8digits10E" PURGE="-1" COMMENT="" />
    <EXPORT ORDINAL="3475" NAME="_ZNSt14numeric_limitsImE8is_exactE" PURGE="-1" COMMENT="" />
    <EXPORT ORDINAL="3476" NAME="_ZNSt14numeric_limitsImE9is_iec559E" PURGE="-1" COMMENT="" />
    <EXPORT ORDINAL="3477" NAME="_ZNSt14numeric_limitsImE9is_moduloE" PURGE="-1" COMMENT="" />
    <EXPORT ORDINAL="3478" NAME="_ZNSt14numeric_limitsImE9is_signedE" PURGE="-1" COMMENT="" />
    <EXPORT ORDINAL="3479" NAME="_ZNSt14numeric_limitsInE10has_denormE" PURGE="-1" COMMENT="" />
    <EXPORT ORDINAL="3480" NAME="_ZNSt14numeric_limitsInE10is_boundedE" PURGE="-1" COMMENT="" />
    <EXPORT ORDINAL="3481" NAME="_ZNSt14numeric_limitsInE10is_integerE" PURGE="-1" COMMENT="" />
    <EXPORT ORDINAL="3482" NAME="_ZNSt14numeric_limitsInE11round_styleE" PURGE="-1" COMMENT="" />
    <EXPORT ORDINAL="3483" NAME="_ZNSt14numeric_limitsInE12has_infinityE" PURGE="-1" COMMENT="" />
    <EXPORT ORDINAL="3484" NAME="_ZNSt14numeric_limitsInE12max_digits10E" PURGE="-1" COMMENT="" />
    <EXPORT ORDINAL="3485" NAME="_ZNSt14numeric_limitsInE12max_exponentE" PURGE="-1" COMMENT="" />
    <EXPORT ORDINAL="3486" NAME="_ZNSt14numeric_limitsInE12min_exponentE" PURGE="-1" COMMENT="" />
    <EXPORT ORDINAL="3487" NAME="_ZNSt14numeric_limitsInE13has_quiet_NaNE" PURGE="-1" COMMENT="" />
    <EXPORT ORDINAL="3488" NAME="_ZNSt14numeric_limitsInE14is_specializedE" PURGE="-1" COMMENT="" />
    <EXPORT ORDINAL="3489" NAME="_ZNSt14numeric_limitsInE14max_exponent10E" PURGE="-1" COMMENT="" />
    <EXPORT ORDINAL="3490" NAME="_ZNSt14numeric_limitsInE14min_exponent10E" PURGE="-1" COMMENT="" />
    <EXPORT ORDINAL="3491" NAME="_ZNSt14numeric_limitsInE15has_denorm_lossE" PURGE="-1" COMMENT="" />
    <EXPORT ORDINAL="3492" NAME="_ZNSt14numeric_limitsInE15tinyness_beforeE" PURGE="-1" COMMENT="" />
    <EXPORT ORDINAL="3493" NAME="_ZNSt14numeric_limitsInE17has_signaling_NaNE" PURGE="-1" COMMENT="" />
    <EXPORT ORDINAL="3494" NAME="_ZNSt14numeric_limitsInE5radixE" PURGE="-1" COMMENT="" />
    <EXPORT ORDINAL="3495" NAME="_ZNSt14numeric_limitsInE5trapsE" PURGE="-1" COMMENT="" />
    <EXPORT ORDINAL="3496" NAME="_ZNSt14numeric_limitsInE6digitsE" PURGE="-1" COMMENT="" />
    <EXPORT ORDINAL="3497" NAME="_ZNSt14numeric_limitsInE8digits10E" PURGE="-1" COMMENT="" />
    <EXPORT ORDINAL="3498" NAME="_ZNSt14numeric_limitsInE8is_exactE" PURGE="-1" COMMENT="" />
    <EXPORT ORDINAL="3499" NAME="_ZNSt14numeric_limitsInE9is_iec559E" PURGE="-1" COMMENT="" />
    <EXPORT ORDINAL="3500" NAME="_ZNSt14numeric_limitsInE9is_moduloE" PURGE="-1" COMMENT="" />
    <EXPORT ORDINAL="3501" NAME="_ZNSt14numeric_limitsInE9is_signedE" PURGE="-1" COMMENT="" />
    <EXPORT ORDINAL="3502" NAME="_ZNSt14numeric_limitsIoE10has_denormE" PURGE="-1" COMMENT="" />
    <EXPORT ORDINAL="3503" NAME="_ZNSt14numeric_limitsIoE10is_boundedE" PURGE="-1" COMMENT="" />
    <EXPORT ORDINAL="3504" NAME="_ZNSt14numeric_limitsIoE10is_integerE" PURGE="-1" COMMENT="" />
    <EXPORT ORDINAL="3505" NAME="_ZNSt14numeric_limitsIoE11round_styleE" PURGE="-1" COMMENT="" />
    <EXPORT ORDINAL="3506" NAME="_ZNSt14numeric_limitsIoE12has_infinityE" PURGE="-1" COMMENT="" />
    <EXPORT ORDINAL="3507" NAME="_ZNSt14numeric_limitsIoE12max_digits10E" PURGE="-1" COMMENT="" />
    <EXPORT ORDINAL="3508" NAME="_ZNSt14numeric_limitsIoE12max_exponentE" PURGE="-1" COMMENT="" />
    <EXPORT ORDINAL="3509" NAME="_ZNSt14numeric_limitsIoE12min_exponentE" PURGE="-1" COMMENT="" />
    <EXPORT ORDINAL="3510" NAME="_ZNSt14numeric_limitsIoE13has_quiet_NaNE" PURGE="-1" COMMENT="" />
    <EXPORT ORDINAL="3511" NAME="_ZNSt14numeric_limitsIoE14is_specializedE" PURGE="-1" COMMENT="" />
    <EXPORT ORDINAL="3512" NAME="_ZNSt14numeric_limitsIoE14max_exponent10E" PURGE="-1" COMMENT="" />
    <EXPORT ORDINAL="3513" NAME="_ZNSt14numeric_limitsIoE14min_exponent10E" PURGE="-1" COMMENT="" />
    <EXPORT ORDINAL="3514" NAME="_ZNSt14numeric_limitsIoE15has_denorm_lossE" PURGE="-1" COMMENT="" />
    <EXPORT ORDINAL="3515" NAME="_ZNSt14numeric_limitsIoE15tinyness_beforeE" PURGE="-1" COMMENT="" />
    <EXPORT ORDINAL="3516" NAME="_ZNSt14numeric_limitsIoE17has_signaling_NaNE" PURGE="-1" COMMENT="" />
    <EXPORT ORDINAL="3517" NAME="_ZNSt14numeric_limitsIoE5radixE" PURGE="-1" COMMENT="" />
    <EXPORT ORDINAL="3518" NAME="_ZNSt14numeric_limitsIoE5trapsE" PURGE="-1" COMMENT="" />
    <EXPORT ORDINAL="3519" NAME="_ZNSt14numeric_limitsIoE6digitsE" PURGE="-1" COMMENT="" />
    <EXPORT ORDINAL="3520" NAME="_ZNSt14numeric_limitsIoE8digits10E" PURGE="-1" COMMENT="" />
    <EXPORT ORDINAL="3521" NAME="_ZNSt14numeric_limitsIoE8is_exactE" PURGE="-1" COMMENT="" />
    <EXPORT ORDINAL="3522" NAME="_ZNSt14numeric_limitsIoE9is_iec559E" PURGE="-1" COMMENT="" />
    <EXPORT ORDINAL="3523" NAME="_ZNSt14numeric_limitsIoE9is_moduloE" PURGE="-1" COMMENT="" />
    <EXPORT ORDINAL="3524" NAME="_ZNSt14numeric_limitsIoE9is_signedE" PURGE="-1" COMMENT="" />
    <EXPORT ORDINAL="3525" NAME="_ZNSt14numeric_limitsIsE10has_denormE" PURGE="-1" COMMENT="" />
    <EXPORT ORDINAL="3526" NAME="_ZNSt14numeric_limitsIsE10is_boundedE" PURGE="-1" COMMENT="" />
    <EXPORT ORDINAL="3527" NAME="_ZNSt14numeric_limitsIsE10is_integerE" PURGE="-1" COMMENT="" />
    <EXPORT ORDINAL="3528" NAME="_ZNSt14numeric_limitsIsE11round_styleE" PURGE="-1" COMMENT="" />
    <EXPORT ORDINAL="3529" NAME="_ZNSt14numeric_limitsIsE12has_infinityE" PURGE="-1" COMMENT="" />
    <EXPORT ORDINAL="3530" NAME="_ZNSt14numeric_limitsIsE12max_digits10E" PURGE="-1" COMMENT="" />
    <EXPORT ORDINAL="3531" NAME="_ZNSt14numeric_limitsIsE12max_exponentE" PURGE="-1" COMMENT="" />
    <EXPORT ORDINAL="3532" NAME="_ZNSt14numeric_limitsIsE12min_exponentE" PURGE="-1" COMMENT="" />
    <EXPORT ORDINAL="3533" NAME="_ZNSt14numeric_limitsIsE13has_quiet_NaNE" PURGE="-1" COMMENT="" />
    <EXPORT ORDINAL="3534" NAME="_ZNSt14numeric_limitsIsE14is_specializedE" PURGE="-1" COMMENT="" />
    <EXPORT ORDINAL="3535" NAME="_ZNSt14numeric_limitsIsE14max_exponent10E" PURGE="-1" COMMENT="" />
    <EXPORT ORDINAL="3536" NAME="_ZNSt14numeric_limitsIsE14min_exponent10E" PURGE="-1" COMMENT="" />
    <EXPORT ORDINAL="3537" NAME="_ZNSt14numeric_limitsIsE15has_denorm_lossE" PURGE="-1" COMMENT="" />
    <EXPORT ORDINAL="3538" NAME="_ZNSt14numeric_limitsIsE15tinyness_beforeE" PURGE="-1" COMMENT="" />
    <EXPORT ORDINAL="3539" NAME="_ZNSt14numeric_limitsIsE17has_signaling_NaNE" PURGE="-1" COMMENT="" />
    <EXPORT ORDINAL="3540" NAME="_ZNSt14numeric_limitsIsE5radixE" PURGE="-1" COMMENT="" />
    <EXPORT ORDINAL="3541" NAME="_ZNSt14numeric_limitsIsE5trapsE" PURGE="-1" COMMENT="" />
    <EXPORT ORDINAL="3542" NAME="_ZNSt14numeric_limitsIsE6digitsE" PURGE="-1" COMMENT="" />
    <EXPORT ORDINAL="3543" NAME="_ZNSt14numeric_limitsIsE8digits10E" PURGE="-1" COMMENT="" />
    <EXPORT ORDINAL="3544" NAME="_ZNSt14numeric_limitsIsE8is_exactE" PURGE="-1" COMMENT="" />
    <EXPORT ORDINAL="3545" NAME="_ZNSt14numeric_limitsIsE9is_iec559E" PURGE="-1" COMMENT="" />
    <EXPORT ORDINAL="3546" NAME="_ZNSt14numeric_limitsIsE9is_moduloE" PURGE="-1" COMMENT="" />
    <EXPORT ORDINAL="3547" NAME="_ZNSt14numeric_limitsIsE9is_signedE" PURGE="-1" COMMENT="" />
    <EXPORT ORDINAL="3548" NAME="_ZNSt14numeric_limitsItE10has_denormE" PURGE="-1" COMMENT="" />
    <EXPORT ORDINAL="3549" NAME="_ZNSt14numeric_limitsItE10is_boundedE" PURGE="-1" COMMENT="" />
    <EXPORT ORDINAL="3550" NAME="_ZNSt14numeric_limitsItE10is_integerE" PURGE="-1" COMMENT="" />
    <EXPORT ORDINAL="3551" NAME="_ZNSt14numeric_limitsItE11round_styleE" PURGE="-1" COMMENT="" />
    <EXPORT ORDINAL="3552" NAME="_ZNSt14numeric_limitsItE12has_infinityE" PURGE="-1" COMMENT="" />
    <EXPORT ORDINAL="3553" NAME="_ZNSt14numeric_limitsItE12max_digits10E" PURGE="-1" COMMENT="" />
    <EXPORT ORDINAL="3554" NAME="_ZNSt14numeric_limitsItE12max_exponentE" PURGE="-1" COMMENT="" />
    <EXPORT ORDINAL="3555" NAME="_ZNSt14numeric_limitsItE12min_exponentE" PURGE="-1" COMMENT="" />
    <EXPORT ORDINAL="3556" NAME="_ZNSt14numeric_limitsItE13has_quiet_NaNE" PURGE="-1" COMMENT="" />
    <EXPORT ORDINAL="3557" NAME="_ZNSt14numeric_limitsItE14is_specializedE" PURGE="-1" COMMENT="" />
    <EXPORT ORDINAL="3558" NAME="_ZNSt14numeric_limitsItE14max_exponent10E" PURGE="-1" COMMENT="" />
    <EXPORT ORDINAL="3559" NAME="_ZNSt14numeric_limitsItE14min_exponent10E" PURGE="-1" COMMENT="" />
    <EXPORT ORDINAL="3560" NAME="_ZNSt14numeric_limitsItE15has_denorm_lossE" PURGE="-1" COMMENT="" />
    <EXPORT ORDINAL="3561" NAME="_ZNSt14numeric_limitsItE15tinyness_beforeE" PURGE="-1" COMMENT="" />
    <EXPORT ORDINAL="3562" NAME="_ZNSt14numeric_limitsItE17has_signaling_NaNE" PURGE="-1" COMMENT="" />
    <EXPORT ORDINAL="3563" NAME="_ZNSt14numeric_limitsItE5radixE" PURGE="-1" COMMENT="" />
    <EXPORT ORDINAL="3564" NAME="_ZNSt14numeric_limitsItE5trapsE" PURGE="-1" COMMENT="" />
    <EXPORT ORDINAL="3565" NAME="_ZNSt14numeric_limitsItE6digitsE" PURGE="-1" COMMENT="" />
    <EXPORT ORDINAL="3566" NAME="_ZNSt14numeric_limitsItE8digits10E" PURGE="-1" COMMENT="" />
    <EXPORT ORDINAL="3567" NAME="_ZNSt14numeric_limitsItE8is_exactE" PURGE="-1" COMMENT="" />
    <EXPORT ORDINAL="3568" NAME="_ZNSt14numeric_limitsItE9is_iec559E" PURGE="-1" COMMENT="" />
    <EXPORT ORDINAL="3569" NAME="_ZNSt14numeric_limitsItE9is_moduloE" PURGE="-1" COMMENT="" />
    <EXPORT ORDINAL="3570" NAME="_ZNSt14numeric_limitsItE9is_signedE" PURGE="-1" COMMENT="" />
    <EXPORT ORDINAL="3571" NAME="_ZNSt14numeric_limitsIwE10has_denormE" PURGE="-1" COMMENT="" />
    <EXPORT ORDINAL="3572" NAME="_ZNSt14numeric_limitsIwE10is_boundedE" PURGE="-1" COMMENT="" />
    <EXPORT ORDINAL="3573" NAME="_ZNSt14numeric_limitsIwE10is_integerE" PURGE="-1" COMMENT="" />
    <EXPORT ORDINAL="3574" NAME="_ZNSt14numeric_limitsIwE11round_styleE" PURGE="-1" COMMENT="" />
    <EXPORT ORDINAL="3575" NAME="_ZNSt14numeric_limitsIwE12has_infinityE" PURGE="-1" COMMENT="" />
    <EXPORT ORDINAL="3576" NAME="_ZNSt14numeric_limitsIwE12max_digits10E" PURGE="-1" COMMENT="" />
    <EXPORT ORDINAL="3577" NAME="_ZNSt14numeric_limitsIwE12max_exponentE" PURGE="-1" COMMENT="" />
    <EXPORT ORDINAL="3578" NAME="_ZNSt14numeric_limitsIwE12min_exponentE" PURGE="-1" COMMENT="" />
    <EXPORT ORDINAL="3579" NAME="_ZNSt14numeric_limitsIwE13has_quiet_NaNE" PURGE="-1" COMMENT="" />
    <EXPORT ORDINAL="3580" NAME="_ZNSt14numeric_limitsIwE14is_specializedE" PURGE="-1" COMMENT="" />
    <EXPORT ORDINAL="3581" NAME="_ZNSt14numeric_limitsIwE14max_exponent10E" PURGE="-1" COMMENT="" />
    <EXPORT ORDINAL="3582" NAME="_ZNSt14numeric_limitsIwE14min_exponent10E" PURGE="-1" COMMENT="" />
    <EXPORT ORDINAL="3583" NAME="_ZNSt14numeric_limitsIwE15has_denorm_lossE" PURGE="-1" COMMENT="" />
    <EXPORT ORDINAL="3584" NAME="_ZNSt14numeric_limitsIwE15tinyness_beforeE" PURGE="-1" COMMENT="" />
    <EXPORT ORDINAL="3585" NAME="_ZNSt14numeric_limitsIwE17has_signaling_NaNE" PURGE="-1" COMMENT="" />
    <EXPORT ORDINAL="3586" NAME="_ZNSt14numeric_limitsIwE5radixE" PURGE="-1" COMMENT="" />
    <EXPORT ORDINAL="3587" NAME="_ZNSt14numeric_limitsIwE5trapsE" PURGE="-1" COMMENT="" />
    <EXPORT ORDINAL="3588" NAME="_ZNSt14numeric_limitsIwE6digitsE" PURGE="-1" COMMENT="" />
    <EXPORT ORDINAL="3589" NAME="_ZNSt14numeric_limitsIwE8digits10E" PURGE="-1" COMMENT="" />
    <EXPORT ORDINAL="3590" NAME="_ZNSt14numeric_limitsIwE8is_exactE" PURGE="-1" COMMENT="" />
    <EXPORT ORDINAL="3591" NAME="_ZNSt14numeric_limitsIwE9is_iec559E" PURGE="-1" COMMENT="" />
    <EXPORT ORDINAL="3592" NAME="_ZNSt14numeric_limitsIwE9is_moduloE" PURGE="-1" COMMENT="" />
    <EXPORT ORDINAL="3593" NAME="_ZNSt14numeric_limitsIwE9is_signedE" PURGE="-1" COMMENT="" />
    <EXPORT ORDINAL="3594" NAME="_ZNSt14numeric_limitsIxE10has_denormE" PURGE="-1" COMMENT="" />
    <EXPORT ORDINAL="3595" NAME="_ZNSt14numeric_limitsIxE10is_boundedE" PURGE="-1" COMMENT="" />
    <EXPORT ORDINAL="3596" NAME="_ZNSt14numeric_limitsIxE10is_integerE" PURGE="-1" COMMENT="" />
    <EXPORT ORDINAL="3597" NAME="_ZNSt14numeric_limitsIxE11round_styleE" PURGE="-1" COMMENT="" />
    <EXPORT ORDINAL="3598" NAME="_ZNSt14numeric_limitsIxE12has_infinityE" PURGE="-1" COMMENT="" />
    <EXPORT ORDINAL="3599" NAME="_ZNSt14numeric_limitsIxE12max_digits10E" PURGE="-1" COMMENT="" />
    <EXPORT ORDINAL="3600" NAME="_ZNSt14numeric_limitsIxE12max_exponentE" PURGE="-1" COMMENT="" />
    <EXPORT ORDINAL="3601" NAME="_ZNSt14numeric_limitsIxE12min_exponentE" PURGE="-1" COMMENT="" />
    <EXPORT ORDINAL="3602" NAME="_ZNSt14numeric_limitsIxE13has_quiet_NaNE" PURGE="-1" COMMENT="" />
    <EXPORT ORDINAL="3603" NAME="_ZNSt14numeric_limitsIxE14is_specializedE" PURGE="-1" COMMENT="" />
    <EXPORT ORDINAL="3604" NAME="_ZNSt14numeric_limitsIxE14max_exponent10E" PURGE="-1" COMMENT="" />
    <EXPORT ORDINAL="3605" NAME="_ZNSt14numeric_limitsIxE14min_exponent10E" PURGE="-1" COMMENT="" />
    <EXPORT ORDINAL="3606" NAME="_ZNSt14numeric_limitsIxE15has_denorm_lossE" PURGE="-1" COMMENT="" />
    <EXPORT ORDINAL="3607" NAME="_ZNSt14numeric_limitsIxE15tinyness_beforeE" PURGE="-1" COMMENT="" />
    <EXPORT ORDINAL="3608" NAME="_ZNSt14numeric_limitsIxE17has_signaling_NaNE" PURGE="-1" COMMENT="" />
    <EXPORT ORDINAL="3609" NAME="_ZNSt14numeric_limitsIxE5radixE" PURGE="-1" COMMENT="" />
    <EXPORT ORDINAL="3610" NAME="_ZNSt14numeric_limitsIxE5trapsE" PURGE="-1" COMMENT="" />
    <EXPORT ORDINAL="3611" NAME="_ZNSt14numeric_limitsIxE6digitsE" PURGE="-1" COMMENT="" />
    <EXPORT ORDINAL="3612" NAME="_ZNSt14numeric_limitsIxE8digits10E" PURGE="-1" COMMENT="" />
    <EXPORT ORDINAL="3613" NAME="_ZNSt14numeric_limitsIxE8is_exactE" PURGE="-1" COMMENT="" />
    <EXPORT ORDINAL="3614" NAME="_ZNSt14numeric_limitsIxE9is_iec559E" PURGE="-1" COMMENT="" />
    <EXPORT ORDINAL="3615" NAME="_ZNSt14numeric_limitsIxE9is_moduloE" PURGE="-1" COMMENT="" />
    <EXPORT ORDINAL="3616" NAME="_ZNSt14numeric_limitsIxE9is_signedE" PURGE="-1" COMMENT="" />
    <EXPORT ORDINAL="3617" NAME="_ZNSt14numeric_limitsIyE10has_denormE" PURGE="-1" COMMENT="" />
    <EXPORT ORDINAL="3618" NAME="_ZNSt14numeric_limitsIyE10is_boundedE" PURGE="-1" COMMENT="" />
    <EXPORT ORDINAL="3619" NAME="_ZNSt14numeric_limitsIyE10is_integerE" PURGE="-1" COMMENT="" />
    <EXPORT ORDINAL="3620" NAME="_ZNSt14numeric_limitsIyE11round_styleE" PURGE="-1" COMMENT="" />
    <EXPORT ORDINAL="3621" NAME="_ZNSt14numeric_limitsIyE12has_infinityE" PURGE="-1" COMMENT="" />
    <EXPORT ORDINAL="3622" NAME="_ZNSt14numeric_limitsIyE12max_digits10E" PURGE="-1" COMMENT="" />
    <EXPORT ORDINAL="3623" NAME="_ZNSt14numeric_limitsIyE12max_exponentE" PURGE="-1" COMMENT="" />
    <EXPORT ORDINAL="3624" NAME="_ZNSt14numeric_limitsIyE12min_exponentE" PURGE="-1" COMMENT="" />
    <EXPORT ORDINAL="3625" NAME="_ZNSt14numeric_limitsIyE13has_quiet_NaNE" PURGE="-1" COMMENT="" />
    <EXPORT ORDINAL="3626" NAME="_ZNSt14numeric_limitsIyE14is_specializedE" PURGE="-1" COMMENT="" />
    <EXPORT ORDINAL="3627" NAME="_ZNSt14numeric_limitsIyE14max_exponent10E" PURGE="-1" COMMENT="" />
    <EXPORT ORDINAL="3628" NAME="_ZNSt14numeric_limitsIyE14min_exponent10E" PURGE="-1" COMMENT="" />
    <EXPORT ORDINAL="3629" NAME="_ZNSt14numeric_limitsIyE15has_denorm_lossE" PURGE="-1" COMMENT="" />
    <EXPORT ORDINAL="3630" NAME="_ZNSt14numeric_limitsIyE15tinyness_beforeE" PURGE="-1" COMMENT="" />
    <EXPORT ORDINAL="3631" NAME="_ZNSt14numeric_limitsIyE17has_signaling_NaNE" PURGE="-1" COMMENT="" />
    <EXPORT ORDINAL="3632" NAME="_ZNSt14numeric_limitsIyE5radixE" PURGE="-1" COMMENT="" />
    <EXPORT ORDINAL="3633" NAME="_ZNSt14numeric_limitsIyE5trapsE" PURGE="-1" COMMENT="" />
    <EXPORT ORDINAL="3634" NAME="_ZNSt14numeric_limitsIyE6digitsE" PURGE="-1" COMMENT="" />
    <EXPORT ORDINAL="3635" NAME="_ZNSt14numeric_limitsIyE8digits10E" PURGE="-1" COMMENT="" />
    <EXPORT ORDINAL="3636" NAME="_ZNSt14numeric_limitsIyE8is_exactE" PURGE="-1" COMMENT="" />
    <EXPORT ORDINAL="3637" NAME="_ZNSt14numeric_limitsIyE9is_iec559E" PURGE="-1" COMMENT="" />
    <EXPORT ORDINAL="3638" NAME="_ZNSt14numeric_limitsIyE9is_moduloE" PURGE="-1" COMMENT="" />
    <EXPORT ORDINAL="3639" NAME="_ZNSt14numeric_limitsIyE9is_signedE" PURGE="-1" COMMENT="" />
    <EXPORT ORDINAL="3640" NAME="_ZNSt14overflow_errorC1EPKc" PURGE="0" COMMENT="" />
    <EXPORT ORDINAL="3641" NAME="_ZNSt14overflow_errorC1ERKNSt7__cxx1112basic_stringIcSt11char_traitsIcESaIcEEE" PURGE="0" COMMENT="" />
    <EXPORT ORDINAL="3642" NAME="_ZNSt14overflow_errorC1ERKSs" PURGE="0" COMMENT="" />
    <EXPORT ORDINAL="3643" NAME="_ZNSt14overflow_errorC2EPKc" PURGE="0" COMMENT="" />
    <EXPORT ORDINAL="3644" NAME="_ZNSt14overflow_errorC2ERKNSt7__cxx1112basic_stringIcSt11char_traitsIcESaIcEEE" PURGE="0" COMMENT="" />
    <EXPORT ORDINAL="3645" NAME="_ZNSt14overflow_errorC2ERKSs" PURGE="0" COMMENT="" />
    <EXPORT ORDINAL="3646" NAME="_ZNSt14overflow_errorD0Ev" PURGE="-1" COMMENT="" />
    <EXPORT ORDINAL="3647" NAME="_ZNSt14overflow_errorD1Ev" PURGE="0" COMMENT="" />
    <EXPORT ORDINAL="3648" NAME="_ZNSt14overflow_errorD2Ev" PURGE="0" COMMENT="" />
    <EXPORT ORDINAL="3649" NAME="_ZNSt15_List_node_base10_M_reverseEv" PURGE="0" COMMENT="" />
    <EXPORT ORDINAL="3650" NAME="_ZNSt15_List_node_base11_M_transferEPS_S0_" PURGE="0" COMMENT="" />
    <EXPORT ORDINAL="3651" NAME="_ZNSt15_List_node_base4hookEPS_" PURGE="0" COMMENT="" />
    <EXPORT ORDINAL="3652" NAME="_ZNSt15_List_node_base4swapERS_S0_" PURGE="0" COMMENT="" />
    <EXPORT ORDINAL="3653" NAME="_ZNSt15_List_node_base6unhookEv" PURGE="0" COMMENT="" />
    <EXPORT ORDINAL="3654" NAME="_ZNSt15_List_node_base7_M_hookEPS_" PURGE="0" COMMENT="" />
    <EXPORT ORDINAL="3655" NAME="_ZNSt15_List_node_base7reverseEv" PURGE="0" COMMENT="" />
    <EXPORT ORDINAL="3656" NAME="_ZNSt15_List_node_base8transferEPS_S0_" PURGE="0" COMMENT="" />
    <EXPORT ORDINAL="3657" NAME="_ZNSt15_List_node_base9_M_unhookEv" PURGE="0" COMMENT="" />
    <EXPORT ORDINAL="3658" NAME="_ZNSt15_Sp_counted_ptrIDnLN9__gnu_cxx12_Lock_policyE2EE10_M_disposeEv" PURGE="0" COMMENT="" />
    <EXPORT ORDINAL="3659" NAME="_ZNSt15__allocated_ptrISaISt23_Sp_counted_ptr_inplaceINSt10filesystem16filesystem_error5_ImplESaIS3_ELN9__gnu_cxx12_Lock_policyE2EEEED1Ev" PURGE="0" COMMENT="" />
    <EXPORT ORDINAL="3660" NAME="_ZNSt15__allocated_ptrISaISt23_Sp_counted_ptr_inplaceINSt10filesystem7__cxx1116filesystem_error5_ImplESaIS4_ELN9__gnu_cxx12_Lock_policyE2EEEED1Ev" PURGE="0" COMMENT="" />
    <EXPORT ORDINAL="3661" NAME="_ZNSt15__exception_ptr13exception_ptr10_M_releaseEv" PURGE="0" COMMENT="" />
    <EXPORT ORDINAL="3662" NAME="_ZNSt15__exception_ptr13exception_ptr18_M_safe_bool_dummyEv" PURGE="0" COMMENT="" />
    <EXPORT ORDINAL="3663" NAME="_ZNSt15__exception_ptr13exception_ptr4swapERS0_" PURGE="0" COMMENT="" />
    <EXPORT ORDINAL="3664" NAME="_ZNSt15__exception_ptr13exception_ptr9_M_addrefEv" PURGE="0" COMMENT="" />
    <EXPORT ORDINAL="3665" NAME="_ZNSt15__exception_ptr13exception_ptrC1EMS0_FvvE" PURGE="0" COMMENT="" />
    <EXPORT ORDINAL="3666" NAME="_ZNSt15__exception_ptr13exception_ptrC1EPv" PURGE="0" COMMENT="" />
    <EXPORT ORDINAL="3667" NAME="_ZNSt15__exception_ptr13exception_ptrC1ERKS0_" PURGE="0" COMMENT="" />
    <EXPORT ORDINAL="3668" NAME="_ZNSt15__exception_ptr13exception_ptrC1Ev" PURGE="0" COMMENT="" />
    <EXPORT ORDINAL="3669" NAME="_ZNSt15__exception_ptr13exception_ptrC2EMS0_FvvE" PURGE="0" COMMENT="" />
    <EXPORT ORDINAL="3670" NAME="_ZNSt15__exception_ptr13exception_ptrC2EPv" PURGE="0" COMMENT="" />
    <EXPORT ORDINAL="3671" NAME="_ZNSt15__exception_ptr13exception_ptrC2ERKS0_" PURGE="0" COMMENT="" />
    <EXPORT ORDINAL="3672" NAME="_ZNSt15__exception_ptr13exception_ptrC2Ev" PURGE="0" COMMENT="" />
    <EXPORT ORDINAL="3673" NAME="_ZNSt15__exception_ptr13exception_ptrD1Ev" PURGE="0" COMMENT="" />
    <EXPORT ORDINAL="3674" NAME="_ZNSt15__exception_ptr13exception_ptrD2Ev" PURGE="0" COMMENT="" />
    <EXPORT ORDINAL="3675" NAME="_ZNSt15__exception_ptr13exception_ptraSERKS0_" PURGE="0" COMMENT="" />
    <EXPORT ORDINAL="3676" NAME="_ZNSt15__exception_ptreqERKNS_13exception_ptrES2_" PURGE="0" COMMENT="" />
    <EXPORT ORDINAL="3677" NAME="_ZNSt15__exception_ptrneERKNS_13exception_ptrES2_" PURGE="0" COMMENT="" />
    <EXPORT ORDINAL="3678" NAME="_ZNSt15basic_streambufIcSt11char_traitsIcEE10pubseekoffExSt12_Ios_SeekdirSt13_Ios_Openmode" PURGE="0" COMMENT="" />
    <EXPORT ORDINAL="3679" NAME="_ZNSt15basic_streambufIcSt11char_traitsIcEE10pubseekposESt4fposIiESt13_Ios_Openmode" PURGE="0" COMMENT="" />
    <EXPORT ORDINAL="3680" NAME="_ZNSt15basic_streambufIcSt11char_traitsIcEE12__safe_gbumpEx" PURGE="0" COMMENT="" />
    <EXPORT ORDINAL="3681" NAME="_ZNSt15basic_streambufIcSt11char_traitsIcEE12__safe_pbumpEx" PURGE="0" COMMENT="" />
    <EXPORT ORDINAL="3682" NAME="_ZNSt15basic_streambufIcSt11char_traitsIcEE4setgEPcS3_S3_" PURGE="0" COMMENT="" />
    <EXPORT ORDINAL="3683" NAME="_ZNSt15basic_streambufIcSt11char_traitsIcEE4setpEPcS3_" PURGE="0" COMMENT="" />
    <EXPORT ORDINAL="3684" NAME="_ZNSt15basic_streambufIcSt11char_traitsIcEE4swapERS2_" PURGE="0" COMMENT="" />
    <EXPORT ORDINAL="3685" NAME="_ZNSt15basic_streambufIcSt11char_traitsIcEE4syncEv" PURGE="0" COMMENT="" />
    <EXPORT ORDINAL="3686" NAME="_ZNSt15basic_streambufIcSt11char_traitsIcEE5gbumpEi" PURGE="0" COMMENT="" />
    <EXPORT ORDINAL="3687" NAME="_ZNSt15basic_streambufIcSt11char_traitsIcEE5imbueERKSt6locale" PURGE="0" COMMENT="" />
    <EXPORT ORDINAL="3688" NAME="_ZNSt15basic_streambufIcSt11char_traitsIcEE5pbumpEi" PURGE="0" COMMENT="" />
    <EXPORT ORDINAL="3689" NAME="_ZNSt15basic_streambufIcSt11char_traitsIcEE5sgetcEv" PURGE="0" COMMENT="" />
    <EXPORT ORDINAL="3690" NAME="_ZNSt15basic_streambufIcSt11char_traitsIcEE5sgetnEPcx" PURGE="-1" COMMENT="" />
    <EXPORT ORDINAL="3691" NAME="_ZNSt15basic_streambufIcSt11char_traitsIcEE5sputcEc" PURGE="0" COMMENT="" />
    <EXPORT ORDINAL="3692" NAME="_ZNSt15basic_streambufIcSt11char_traitsIcEE5sputnEPKcx" PURGE="-1" COMMENT="" />
    <EXPORT ORDINAL="3693" NAME="_ZNSt15basic_streambufIcSt11char_traitsIcEE5uflowEv" PURGE="0" COMMENT="" />
    <EXPORT ORDINAL="3694" NAME="_ZNSt15basic_streambufIcSt11char_traitsIcEE6sbumpcEv" PURGE="0" COMMENT="" />
    <EXPORT ORDINAL="3695" NAME="_ZNSt15basic_streambufIcSt11char_traitsIcEE6setbufEPcx" PURGE="0" COMMENT="" />
    <EXPORT ORDINAL="3696" NAME="_ZNSt15basic_streambufIcSt11char_traitsIcEE6snextcEv" PURGE="0" COMMENT="" />
    <EXPORT ORDINAL="3697" NAME="_ZNSt15basic_streambufIcSt11char_traitsIcEE6stosscEv" PURGE="0" COMMENT="" />
    <EXPORT ORDINAL="3698" NAME="_ZNSt15basic_streambufIcSt11char_traitsIcEE6xsgetnEPcx" PURGE="0" COMMENT="" />
    <EXPORT ORDINAL="3699" NAME="_ZNSt15basic_streambufIcSt11char_traitsIcEE6xsputnEPKcx" PURGE="0" COMMENT="" />
    <EXPORT ORDINAL="3700" NAME="_ZNSt15basic_streambufIcSt11char_traitsIcEE7pubsyncEv" PURGE="0" COMMENT="" />
    <EXPORT ORDINAL="3701" NAME="_ZNSt15basic_streambufIcSt11char_traitsIcEE7seekoffExSt12_Ios_SeekdirSt13_Ios_Openmode" PURGE="0" COMMENT="" />
    <EXPORT ORDINAL="3702" NAME="_ZNSt15basic_streambufIcSt11char_traitsIcEE7seekposESt4fposIiESt13_Ios_Openmode" PURGE="0" COMMENT="" />
    <EXPORT ORDINAL="3703" NAME="_ZNSt15basic_streambufIcSt11char_traitsIcEE7sungetcEv" PURGE="0" COMMENT="" />
    <EXPORT ORDINAL="3704" NAME="_ZNSt15basic_streambufIcSt11char_traitsIcEE8in_availEv" PURGE="0" COMMENT="" />
    <EXPORT ORDINAL="3705" NAME="_ZNSt15basic_streambufIcSt11char_traitsIcEE8overflowEi" PURGE="0" COMMENT="" />
    <EXPORT ORDINAL="3706" NAME="_ZNSt15basic_streambufIcSt11char_traitsIcEE8pubimbueERKSt6locale" PURGE="0" COMMENT="" />
    <EXPORT ORDINAL="3707" NAME="_ZNSt15basic_streambufIcSt11char_traitsIcEE9pbackfailEi" PURGE="0" COMMENT="" />
    <EXPORT ORDINAL="3708" NAME="_ZNSt15basic_streambufIcSt11char_traitsIcEE9pubsetbufEPcx" PURGE="0" COMMENT="" />
    <EXPORT ORDINAL="3709" NAME="_ZNSt15basic_streambufIcSt11char_traitsIcEE9showmanycEv" PURGE="0" COMMENT="" />
    <EXPORT ORDINAL="3710" NAME="_ZNSt15basic_streambufIcSt11char_traitsIcEE9sputbackcEc" PURGE="0" COMMENT="" />
    <EXPORT ORDINAL="3711" NAME="_ZNSt15basic_streambufIcSt11char_traitsIcEE9underflowEv" PURGE="0" COMMENT="" />
    <EXPORT ORDINAL="3712" NAME="_ZNSt15basic_streambufIcSt11char_traitsIcEEC1ERKS2_" PURGE="0" COMMENT="" />
    <EXPORT ORDINAL="3713" NAME="_ZNSt15basic_streambufIcSt11char_traitsIcEEC1Ev" PURGE="0" COMMENT="" />
    <EXPORT ORDINAL="3714" NAME="_ZNSt15basic_streambufIcSt11char_traitsIcEEC2ERKS2_" PURGE="0" COMMENT="" />
    <EXPORT ORDINAL="3715" NAME="_ZNSt15basic_streambufIcSt11char_traitsIcEEC2Ev" PURGE="0" COMMENT="" />
    <EXPORT ORDINAL="3716" NAME="_ZNSt15basic_streambufIcSt11char_traitsIcEED0Ev" PURGE="-1" COMMENT="" />
    <EXPORT ORDINAL="3717" NAME="_ZNSt15basic_streambufIcSt11char_traitsIcEED1Ev" PURGE="0" COMMENT="" />
    <EXPORT ORDINAL="3718" NAME="_ZNSt15basic_streambufIcSt11char_traitsIcEED2Ev" PURGE="0" COMMENT="" />
    <EXPORT ORDINAL="3719" NAME="_ZNSt15basic_streambufIcSt11char_traitsIcEEaSERKS2_" PURGE="0" COMMENT="" />
    <EXPORT ORDINAL="3720" NAME="_ZNSt15basic_streambufIwSt11char_traitsIwEE10pubseekoffExSt12_Ios_SeekdirSt13_Ios_Openmode" PURGE="0" COMMENT="" />
    <EXPORT ORDINAL="3721" NAME="_ZNSt15basic_streambufIwSt11char_traitsIwEE10pubseekposESt4fposIiESt13_Ios_Openmode" PURGE="0" COMMENT="" />
    <EXPORT ORDINAL="3722" NAME="_ZNSt15basic_streambufIwSt11char_traitsIwEE12__safe_gbumpEx" PURGE="0" COMMENT="" />
    <EXPORT ORDINAL="3723" NAME="_ZNSt15basic_streambufIwSt11char_traitsIwEE12__safe_pbumpEx" PURGE="0" COMMENT="" />
    <EXPORT ORDINAL="3724" NAME="_ZNSt15basic_streambufIwSt11char_traitsIwEE4setgEPwS3_S3_" PURGE="0" COMMENT="" />
    <EXPORT ORDINAL="3725" NAME="_ZNSt15basic_streambufIwSt11char_traitsIwEE4setpEPwS3_" PURGE="0" COMMENT="" />
    <EXPORT ORDINAL="3726" NAME="_ZNSt15basic_streambufIwSt11char_traitsIwEE4swapERS2_" PURGE="0" COMMENT="" />
    <EXPORT ORDINAL="3727" NAME="_ZNSt15basic_streambufIwSt11char_traitsIwEE4syncEv" PURGE="0" COMMENT="" />
    <EXPORT ORDINAL="3728" NAME="_ZNSt15basic_streambufIwSt11char_traitsIwEE5gbumpEi" PURGE="0" COMMENT="" />
    <EXPORT ORDINAL="3729" NAME="_ZNSt15basic_streambufIwSt11char_traitsIwEE5imbueERKSt6locale" PURGE="0" COMMENT="" />
    <EXPORT ORDINAL="3730" NAME="_ZNSt15basic_streambufIwSt11char_traitsIwEE5pbumpEi" PURGE="0" COMMENT="" />
    <EXPORT ORDINAL="3731" NAME="_ZNSt15basic_streambufIwSt11char_traitsIwEE5sgetcEv" PURGE="0" COMMENT="" />
    <EXPORT ORDINAL="3732" NAME="_ZNSt15basic_streambufIwSt11char_traitsIwEE5sgetnEPwx" PURGE="-1" COMMENT="" />
    <EXPORT ORDINAL="3733" NAME="_ZNSt15basic_streambufIwSt11char_traitsIwEE5sputcEw" PURGE="0" COMMENT="" />
    <EXPORT ORDINAL="3734" NAME="_ZNSt15basic_streambufIwSt11char_traitsIwEE5sputnEPKwx" PURGE="-1" COMMENT="" />
    <EXPORT ORDINAL="3735" NAME="_ZNSt15basic_streambufIwSt11char_traitsIwEE5uflowEv" PURGE="0" COMMENT="" />
    <EXPORT ORDINAL="3736" NAME="_ZNSt15basic_streambufIwSt11char_traitsIwEE6sbumpcEv" PURGE="0" COMMENT="" />
    <EXPORT ORDINAL="3737" NAME="_ZNSt15basic_streambufIwSt11char_traitsIwEE6setbufEPwx" PURGE="0" COMMENT="" />
    <EXPORT ORDINAL="3738" NAME="_ZNSt15basic_streambufIwSt11char_traitsIwEE6snextcEv" PURGE="0" COMMENT="" />
    <EXPORT ORDINAL="3739" NAME="_ZNSt15basic_streambufIwSt11char_traitsIwEE6stosscEv" PURGE="0" COMMENT="" />
    <EXPORT ORDINAL="3740" NAME="_ZNSt15basic_streambufIwSt11char_traitsIwEE6xsgetnEPwx" PURGE="0" COMMENT="" />
    <EXPORT ORDINAL="3741" NAME="_ZNSt15basic_streambufIwSt11char_traitsIwEE6xsputnEPKwx" PURGE="0" COMMENT="" />
    <EXPORT ORDINAL="3742" NAME="_ZNSt15basic_streambufIwSt11char_traitsIwEE7pubsyncEv" PURGE="0" COMMENT="" />
    <EXPORT ORDINAL="3743" NAME="_ZNSt15basic_streambufIwSt11char_traitsIwEE7seekoffExSt12_Ios_SeekdirSt13_Ios_Openmode" PURGE="0" COMMENT="" />
    <EXPORT ORDINAL="3744" NAME="_ZNSt15basic_streambufIwSt11char_traitsIwEE7seekposESt4fposIiESt13_Ios_Openmode" PURGE="0" COMMENT="" />
    <EXPORT ORDINAL="3745" NAME="_ZNSt15basic_streambufIwSt11char_traitsIwEE7sungetcEv" PURGE="0" COMMENT="" />
    <EXPORT ORDINAL="3746" NAME="_ZNSt15basic_streambufIwSt11char_traitsIwEE8in_availEv" PURGE="0" COMMENT="" />
    <EXPORT ORDINAL="3747" NAME="_ZNSt15basic_streambufIwSt11char_traitsIwEE8overflowEt" PURGE="0" COMMENT="" />
    <EXPORT ORDINAL="3748" NAME="_ZNSt15basic_streambufIwSt11char_traitsIwEE8pubimbueERKSt6locale" PURGE="0" COMMENT="" />
    <EXPORT ORDINAL="3749" NAME="_ZNSt15basic_streambufIwSt11char_traitsIwEE9pbackfailEt" PURGE="0" COMMENT="" />
    <EXPORT ORDINAL="3750" NAME="_ZNSt15basic_streambufIwSt11char_traitsIwEE9pubsetbufEPwx" PURGE="0" COMMENT="" />
    <EXPORT ORDINAL="3751" NAME="_ZNSt15basic_streambufIwSt11char_traitsIwEE9showmanycEv" PURGE="0" COMMENT="" />
    <EXPORT ORDINAL="3752" NAME="_ZNSt15basic_streambufIwSt11char_traitsIwEE9sputbackcEw" PURGE="0" COMMENT="" />
    <EXPORT ORDINAL="3753" NAME="_ZNSt15basic_streambufIwSt11char_traitsIwEE9underflowEv" PURGE="0" COMMENT="" />
    <EXPORT ORDINAL="3754" NAME="_ZNSt15basic_streambufIwSt11char_traitsIwEEC1ERKS2_" PURGE="0" COMMENT="" />
    <EXPORT ORDINAL="3755" NAME="_ZNSt15basic_streambufIwSt11char_traitsIwEEC1Ev" PURGE="0" COMMENT="" />
    <EXPORT ORDINAL="3756" NAME="_ZNSt15basic_streambufIwSt11char_traitsIwEEC2ERKS2_" PURGE="0" COMMENT="" />
    <EXPORT ORDINAL="3757" NAME="_ZNSt15basic_streambufIwSt11char_traitsIwEEC2Ev" PURGE="0" COMMENT="" />
    <EXPORT ORDINAL="3758" NAME="_ZNSt15basic_streambufIwSt11char_traitsIwEED0Ev" PURGE="-1" COMMENT="" />
    <EXPORT ORDINAL="3759" NAME="_ZNSt15basic_streambufIwSt11char_traitsIwEED1Ev" PURGE="0" COMMENT="" />
    <EXPORT ORDINAL="3760" NAME="_ZNSt15basic_streambufIwSt11char_traitsIwEED2Ev" PURGE="0" COMMENT="" />
    <EXPORT ORDINAL="3761" NAME="_ZNSt15basic_streambufIwSt11char_traitsIwEEaSERKS2_" PURGE="0" COMMENT="" />
    <EXPORT ORDINAL="3762" NAME="_ZNSt15basic_stringbufIcSt11char_traitsIcESaIcEE14__xfer_bufptrsC1ERKS3_PS3_" PURGE="0" COMMENT="" />
    <EXPORT ORDINAL="3763" NAME="_ZNSt15basic_stringbufIcSt11char_traitsIcESaIcEE14__xfer_bufptrsC2ERKS3_PS3_" PURGE="0" COMMENT="" />
    <EXPORT ORDINAL="3764" NAME="_ZNSt15basic_stringbufIcSt11char_traitsIcESaIcEE15_M_update_egptrEv" PURGE="0" COMMENT="" />
    <EXPORT ORDINAL="3765" NAME="_ZNSt15basic_stringbufIcSt11char_traitsIcESaIcEE17_M_stringbuf_initESt13_Ios_Openmode" PURGE="0" COMMENT="" />
    <EXPORT ORDINAL="3766" NAME="_ZNSt15basic_stringbufIcSt11char_traitsIcESaIcEE3strERKSs" PURGE="0" COMMENT="" />
    <EXPORT ORDINAL="3767" NAME="_ZNSt15basic_stringbufIcSt11char_traitsIcESaIcEE4swapERS3_" PURGE="0" COMMENT="" />
    <EXPORT ORDINAL="3768" NAME="_ZNSt15basic_stringbufIcSt11char_traitsIcESaIcEE6setbufEPcx" PURGE="0" COMMENT="" />
    <EXPORT ORDINAL="3769" NAME="_ZNSt15basic_stringbufIcSt11char_traitsIcESaIcEE7_M_syncEPcyy" PURGE="0" COMMENT="" />
    <EXPORT ORDINAL="3770" NAME="_ZNSt15basic_stringbufIcSt11char_traitsIcESaIcEE7seekoffExSt12_Ios_SeekdirSt13_Ios_Openmode" PURGE="0" COMMENT="" />
    <EXPORT ORDINAL="3771" NAME="_ZNSt15basic_stringbufIcSt11char_traitsIcESaIcEE7seekposESt4fposIiESt13_Ios_Openmode" PURGE="0" COMMENT="" />
    <EXPORT ORDINAL="3772" NAME="_ZNSt15basic_stringbufIcSt11char_traitsIcESaIcEE8_M_pbumpEPcS4_x" PURGE="0" COMMENT="" />
    <EXPORT ORDINAL="3773" NAME="_ZNSt15basic_stringbufIcSt11char_traitsIcESaIcEE8overflowEi" PURGE="0" COMMENT="" />
    <EXPORT ORDINAL="3774" NAME="_ZNSt15basic_stringbufIcSt11char_traitsIcESaIcEE9pbackfailEi" PURGE="0" COMMENT="" />
    <EXPORT ORDINAL="3775" NAME="_ZNSt15basic_stringbufIcSt11char_traitsIcESaIcEE9showmanycEv" PURGE="0" COMMENT="" />
    <EXPORT ORDINAL="3776" NAME="_ZNSt15basic_stringbufIcSt11char_traitsIcESaIcEE9underflowEv" PURGE="0" COMMENT="" />
    <EXPORT ORDINAL="3777" NAME="_ZNSt15basic_stringbufIcSt11char_traitsIcESaIcEEC1EOS3_" PURGE="0" COMMENT="" />
    <EXPORT ORDINAL="3778" NAME="_ZNSt15basic_stringbufIcSt11char_traitsIcESaIcEEC1EOS3_ONS3_14__xfer_bufptrsE" PURGE="0" COMMENT="" />
    <EXPORT ORDINAL="3779" NAME="_ZNSt15basic_stringbufIcSt11char_traitsIcESaIcEEC1ERKSsSt13_Ios_Openmode" PURGE="0" COMMENT="" />
    <EXPORT ORDINAL="3780" NAME="_ZNSt15basic_stringbufIcSt11char_traitsIcESaIcEEC1ESt13_Ios_Openmode" PURGE="0" COMMENT="" />
    <EXPORT ORDINAL="3781" NAME="_ZNSt15basic_stringbufIcSt11char_traitsIcESaIcEEC1Ev" PURGE="0" COMMENT="" />
    <EXPORT ORDINAL="3782" NAME="_ZNSt15basic_stringbufIcSt11char_traitsIcESaIcEEC2EOS3_" PURGE="0" COMMENT="" />
    <EXPORT ORDINAL="3783" NAME="_ZNSt15basic_stringbufIcSt11char_traitsIcESaIcEEC2EOS3_ONS3_14__xfer_bufptrsE" PURGE="0" COMMENT="" />
    <EXPORT ORDINAL="3784" NAME="_ZNSt15basic_stringbufIcSt11char_traitsIcESaIcEEC2ERKSsSt13_Ios_Openmode" PURGE="0" COMMENT="" />
    <EXPORT ORDINAL="3785" NAME="_ZNSt15basic_stringbufIcSt11char_traitsIcESaIcEEC2ESt13_Ios_Openmode" PURGE="0" COMMENT="" />
    <EXPORT ORDINAL="3786" NAME="_ZNSt15basic_stringbufIcSt11char_traitsIcESaIcEEC2Ev" PURGE="0" COMMENT="" />
    <EXPORT ORDINAL="3787" NAME="_ZNSt15basic_stringbufIcSt11char_traitsIcESaIcEED0Ev" PURGE="-1" COMMENT="" />
    <EXPORT ORDINAL="3788" NAME="_ZNSt15basic_stringbufIcSt11char_traitsIcESaIcEED1Ev" PURGE="0" COMMENT="" />
    <EXPORT ORDINAL="3789" NAME="_ZNSt15basic_stringbufIcSt11char_traitsIcESaIcEEaSEOS3_" PURGE="0" COMMENT="" />
    <EXPORT ORDINAL="3790" NAME="_ZNSt15basic_stringbufIwSt11char_traitsIwESaIwEE14__xfer_bufptrsC1ERKS3_PS3_" PURGE="0" COMMENT="" />
    <EXPORT ORDINAL="3791" NAME="_ZNSt15basic_stringbufIwSt11char_traitsIwESaIwEE14__xfer_bufptrsC2ERKS3_PS3_" PURGE="0" COMMENT="" />
    <EXPORT ORDINAL="3792" NAME="_ZNSt15basic_stringbufIwSt11char_traitsIwESaIwEE15_M_update_egptrEv" PURGE="0" COMMENT="" />
    <EXPORT ORDINAL="3793" NAME="_ZNSt15basic_stringbufIwSt11char_traitsIwESaIwEE17_M_stringbuf_initESt13_Ios_Openmode" PURGE="0" COMMENT="" />
    <EXPORT ORDINAL="3794" NAME="_ZNSt15basic_stringbufIwSt11char_traitsIwESaIwEE3strERKSbIwS1_S2_E" PURGE="0" COMMENT="" />
    <EXPORT ORDINAL="3795" NAME="_ZNSt15basic_stringbufIwSt11char_traitsIwESaIwEE4swapERS3_" PURGE="0" COMMENT="" />
    <EXPORT ORDINAL="3796" NAME="_ZNSt15basic_stringbufIwSt11char_traitsIwESaIwEE6setbufEPwx" PURGE="0" COMMENT="" />
    <EXPORT ORDINAL="3797" NAME="_ZNSt15basic_stringbufIwSt11char_traitsIwESaIwEE7_M_syncEPwyy" PURGE="0" COMMENT="" />
    <EXPORT ORDINAL="3798" NAME="_ZNSt15basic_stringbufIwSt11char_traitsIwESaIwEE7seekoffExSt12_Ios_SeekdirSt13_Ios_Openmode" PURGE="0" COMMENT="" />
    <EXPORT ORDINAL="3799" NAME="_ZNSt15basic_stringbufIwSt11char_traitsIwESaIwEE7seekposESt4fposIiESt13_Ios_Openmode" PURGE="0" COMMENT="" />
    <EXPORT ORDINAL="3800" NAME="_ZNSt15basic_stringbufIwSt11char_traitsIwESaIwEE8_M_pbumpEPwS4_x" PURGE="0" COMMENT="" />
    <EXPORT ORDINAL="3801" NAME="_ZNSt15basic_stringbufIwSt11char_traitsIwESaIwEE8overflowEt" PURGE="0" COMMENT="" />
    <EXPORT ORDINAL="3802" NAME="_ZNSt15basic_stringbufIwSt11char_traitsIwESaIwEE9pbackfailEt" PURGE="0" COMMENT="" />
    <EXPORT ORDINAL="3803" NAME="_ZNSt15basic_stringbufIwSt11char_traitsIwESaIwEE9showmanycEv" PURGE="0" COMMENT="" />
    <EXPORT ORDINAL="3804" NAME="_ZNSt15basic_stringbufIwSt11char_traitsIwESaIwEE9underflowEv" PURGE="0" COMMENT="" />
    <EXPORT ORDINAL="3805" NAME="_ZNSt15basic_stringbufIwSt11char_traitsIwESaIwEEC1EOS3_" PURGE="0" COMMENT="" />
    <EXPORT ORDINAL="3806" NAME="_ZNSt15basic_stringbufIwSt11char_traitsIwESaIwEEC1EOS3_ONS3_14__xfer_bufptrsE" PURGE="0" COMMENT="" />
    <EXPORT ORDINAL="3807" NAME="_ZNSt15basic_stringbufIwSt11char_traitsIwESaIwEEC1ERKSbIwS1_S2_ESt13_Ios_Openmode" PURGE="0" COMMENT="" />
    <EXPORT ORDINAL="3808" NAME="_ZNSt15basic_stringbufIwSt11char_traitsIwESaIwEEC1ESt13_Ios_Openmode" PURGE="0" COMMENT="" />
    <EXPORT ORDINAL="3809" NAME="_ZNSt15basic_stringbufIwSt11char_traitsIwESaIwEEC1Ev" PURGE="0" COMMENT="" />
    <EXPORT ORDINAL="3810" NAME="_ZNSt15basic_stringbufIwSt11char_traitsIwESaIwEEC2EOS3_" PURGE="0" COMMENT="" />
    <EXPORT ORDINAL="3811" NAME="_ZNSt15basic_stringbufIwSt11char_traitsIwESaIwEEC2EOS3_ONS3_14__xfer_bufptrsE" PURGE="0" COMMENT="" />
    <EXPORT ORDINAL="3812" NAME="_ZNSt15basic_stringbufIwSt11char_traitsIwESaIwEEC2ERKSbIwS1_S2_ESt13_Ios_Openmode" PURGE="0" COMMENT="" />
    <EXPORT ORDINAL="3813" NAME="_ZNSt15basic_stringbufIwSt11char_traitsIwESaIwEEC2ESt13_Ios_Openmode" PURGE="0" COMMENT="" />
    <EXPORT ORDINAL="3814" NAME="_ZNSt15basic_stringbufIwSt11char_traitsIwESaIwEEC2Ev" PURGE="0" COMMENT="" />
    <EXPORT ORDINAL="3815" NAME="_ZNSt15basic_stringbufIwSt11char_traitsIwESaIwEED0Ev" PURGE="-1" COMMENT="" />
    <EXPORT ORDINAL="3816" NAME="_ZNSt15basic_stringbufIwSt11char_traitsIwESaIwEED1Ev" PURGE="0" COMMENT="" />
    <EXPORT ORDINAL="3817" NAME="_ZNSt15basic_stringbufIwSt11char_traitsIwESaIwEEaSEOS3_" PURGE="0" COMMENT="" />
    <EXPORT ORDINAL="3818" NAME="_ZNSt15messages_bynameIcEC1EPKcy" PURGE="0" COMMENT="" />
    <EXPORT ORDINAL="3819" NAME="_ZNSt15messages_bynameIcEC1ERKSsy" PURGE="0" COMMENT="" />
    <EXPORT ORDINAL="3820" NAME="_ZNSt15messages_bynameIcEC2EPKcy" PURGE="0" COMMENT="" />
    <EXPORT ORDINAL="3821" NAME="_ZNSt15messages_bynameIcEC2ERKSsy" PURGE="0" COMMENT="" />
    <EXPORT ORDINAL="3822" NAME="_ZNSt15messages_bynameIcED0Ev" PURGE="-1" COMMENT="" />
    <EXPORT ORDINAL="3823" NAME="_ZNSt15messages_bynameIcED1Ev" PURGE="0" COMMENT="" />
    <EXPORT ORDINAL="3824" NAME="_ZNSt15messages_bynameIcED2Ev" PURGE="0" COMMENT="" />
    <EXPORT ORDINAL="3825" NAME="_ZNSt15messages_bynameIwEC1EPKcy" PURGE="0" COMMENT="" />
    <EXPORT ORDINAL="3826" NAME="_ZNSt15messages_bynameIwEC1ERKSsy" PURGE="0" COMMENT="" />
    <EXPORT ORDINAL="3827" NAME="_ZNSt15messages_bynameIwEC2EPKcy" PURGE="0" COMMENT="" />
    <EXPORT ORDINAL="3828" NAME="_ZNSt15messages_bynameIwEC2ERKSsy" PURGE="0" COMMENT="" />
    <EXPORT ORDINAL="3829" NAME="_ZNSt15messages_bynameIwED0Ev" PURGE="-1" COMMENT="" />
    <EXPORT ORDINAL="3830" NAME="_ZNSt15messages_bynameIwED1Ev" PURGE="0" COMMENT="" />
    <EXPORT ORDINAL="3831" NAME="_ZNSt15messages_bynameIwED2Ev" PURGE="0" COMMENT="" />
    <EXPORT ORDINAL="3832" NAME="_ZNSt15numpunct_bynameIcEC1EPKcy" PURGE="0" COMMENT="" />
    <EXPORT ORDINAL="3833" NAME="_ZNSt15numpunct_bynameIcEC1ERKSsy" PURGE="0" COMMENT="" />
    <EXPORT ORDINAL="3834" NAME="_ZNSt15numpunct_bynameIcEC2EPKcy" PURGE="0" COMMENT="" />
    <EXPORT ORDINAL="3835" NAME="_ZNSt15numpunct_bynameIcEC2ERKSsy" PURGE="0" COMMENT="" />
    <EXPORT ORDINAL="3836" NAME="_ZNSt15numpunct_bynameIcED0Ev" PURGE="-1" COMMENT="" />
    <EXPORT ORDINAL="3837" NAME="_ZNSt15numpunct_bynameIcED1Ev" PURGE="0" COMMENT="" />
    <EXPORT ORDINAL="3838" NAME="_ZNSt15numpunct_bynameIcED2Ev" PURGE="0" COMMENT="" />
    <EXPORT ORDINAL="3839" NAME="_ZNSt15numpunct_bynameIwEC1EPKcy" PURGE="0" COMMENT="" />
    <EXPORT ORDINAL="3840" NAME="_ZNSt15numpunct_bynameIwEC1ERKSsy" PURGE="0" COMMENT="" />
    <EXPORT ORDINAL="3841" NAME="_ZNSt15numpunct_bynameIwEC2EPKcy" PURGE="0" COMMENT="" />
    <EXPORT ORDINAL="3842" NAME="_ZNSt15numpunct_bynameIwEC2ERKSsy" PURGE="0" COMMENT="" />
    <EXPORT ORDINAL="3843" NAME="_ZNSt15numpunct_bynameIwED0Ev" PURGE="-1" COMMENT="" />
    <EXPORT ORDINAL="3844" NAME="_ZNSt15numpunct_bynameIwED1Ev" PURGE="0" COMMENT="" />
    <EXPORT ORDINAL="3845" NAME="_ZNSt15numpunct_bynameIwED2Ev" PURGE="0" COMMENT="" />
    <EXPORT ORDINAL="3846" NAME="_ZNSt15time_get_bynameIcSt19istreambuf_iteratorIcSt11char_traitsIcEEEC1EPKcy" PURGE="0" COMMENT="" />
    <EXPORT ORDINAL="3847" NAME="_ZNSt15time_get_bynameIcSt19istreambuf_iteratorIcSt11char_traitsIcEEEC1ERKSsy" PURGE="0" COMMENT="" />
    <EXPORT ORDINAL="3848" NAME="_ZNSt15time_get_bynameIcSt19istreambuf_iteratorIcSt11char_traitsIcEEEC2EPKcy" PURGE="0" COMMENT="" />
    <EXPORT ORDINAL="3849" NAME="_ZNSt15time_get_bynameIcSt19istreambuf_iteratorIcSt11char_traitsIcEEEC2ERKSsy" PURGE="0" COMMENT="" />
    <EXPORT ORDINAL="3850" NAME="_ZNSt15time_get_bynameIcSt19istreambuf_iteratorIcSt11char_traitsIcEEED0Ev" PURGE="-1" COMMENT="" />
    <EXPORT ORDINAL="3851" NAME="_ZNSt15time_get_bynameIcSt19istreambuf_iteratorIcSt11char_traitsIcEEED1Ev" PURGE="0" COMMENT="" />
    <EXPORT ORDINAL="3852" NAME="_ZNSt15time_get_bynameIcSt19istreambuf_iteratorIcSt11char_traitsIcEEED2Ev" PURGE="0" COMMENT="" />
    <EXPORT ORDINAL="3853" NAME="_ZNSt15time_get_bynameIwSt19istreambuf_iteratorIwSt11char_traitsIwEEEC1EPKcy" PURGE="0" COMMENT="" />
    <EXPORT ORDINAL="3854" NAME="_ZNSt15time_get_bynameIwSt19istreambuf_iteratorIwSt11char_traitsIwEEEC1ERKSsy" PURGE="0" COMMENT="" />
    <EXPORT ORDINAL="3855" NAME="_ZNSt15time_get_bynameIwSt19istreambuf_iteratorIwSt11char_traitsIwEEEC2EPKcy" PURGE="0" COMMENT="" />
    <EXPORT ORDINAL="3856" NAME="_ZNSt15time_get_bynameIwSt19istreambuf_iteratorIwSt11char_traitsIwEEEC2ERKSsy" PURGE="0" COMMENT="" />
    <EXPORT ORDINAL="3857" NAME="_ZNSt15time_get_bynameIwSt19istreambuf_iteratorIwSt11char_traitsIwEEED0Ev" PURGE="-1" COMMENT="" />
    <EXPORT ORDINAL="3858" NAME="_ZNSt15time_get_bynameIwSt19istreambuf_iteratorIwSt11char_traitsIwEEED1Ev" PURGE="0" COMMENT="" />
    <EXPORT ORDINAL="3859" NAME="_ZNSt15time_get_bynameIwSt19istreambuf_iteratorIwSt11char_traitsIwEEED2Ev" PURGE="0" COMMENT="" />
    <EXPORT ORDINAL="3860" NAME="_ZNSt15time_put_bynameIcSt19ostreambuf_iteratorIcSt11char_traitsIcEEEC1EPKcy" PURGE="0" COMMENT="" />
    <EXPORT ORDINAL="3861" NAME="_ZNSt15time_put_bynameIcSt19ostreambuf_iteratorIcSt11char_traitsIcEEEC1ERKNSt7__cxx1112basic_stringIcS2_SaIcEEEy" PURGE="0" COMMENT="" />
    <EXPORT ORDINAL="3862" NAME="_ZNSt15time_put_bynameIcSt19ostreambuf_iteratorIcSt11char_traitsIcEEEC1ERKSsy" PURGE="0" COMMENT="" />
    <EXPORT ORDINAL="3863" NAME="_ZNSt15time_put_bynameIcSt19ostreambuf_iteratorIcSt11char_traitsIcEEEC2EPKcy" PURGE="0" COMMENT="" />
    <EXPORT ORDINAL="3864" NAME="_ZNSt15time_put_bynameIcSt19ostreambuf_iteratorIcSt11char_traitsIcEEEC2ERKNSt7__cxx1112basic_stringIcS2_SaIcEEEy" PURGE="0" COMMENT="" />
    <EXPORT ORDINAL="3865" NAME="_ZNSt15time_put_bynameIcSt19ostreambuf_iteratorIcSt11char_traitsIcEEEC2ERKSsy" PURGE="0" COMMENT="" />
    <EXPORT ORDINAL="3866" NAME="_ZNSt15time_put_bynameIcSt19ostreambuf_iteratorIcSt11char_traitsIcEEED0Ev" PURGE="-1" COMMENT="" />
    <EXPORT ORDINAL="3867" NAME="_ZNSt15time_put_bynameIcSt19ostreambuf_iteratorIcSt11char_traitsIcEEED1Ev" PURGE="0" COMMENT="" />
    <EXPORT ORDINAL="3868" NAME="_ZNSt15time_put_bynameIcSt19ostreambuf_iteratorIcSt11char_traitsIcEEED2Ev" PURGE="0" COMMENT="" />
    <EXPORT ORDINAL="3869" NAME="_ZNSt15time_put_bynameIwSt19ostreambuf_iteratorIwSt11char_traitsIwEEEC1EPKcy" PURGE="0" COMMENT="" />
    <EXPORT ORDINAL="3870" NAME="_ZNSt15time_put_bynameIwSt19ostreambuf_iteratorIwSt11char_traitsIwEEEC1ERKNSt7__cxx1112basic_stringIcS1_IcESaIcEEEy" PURGE="0" COMMENT="" />
    <EXPORT ORDINAL="3871" NAME="_ZNSt15time_put_bynameIwSt19ostreambuf_iteratorIwSt11char_traitsIwEEEC1ERKSsy" PURGE="0" COMMENT="" />
    <EXPORT ORDINAL="3872" NAME="_ZNSt15time_put_bynameIwSt19ostreambuf_iteratorIwSt11char_traitsIwEEEC2EPKcy" PURGE="0" COMMENT="" />
    <EXPORT ORDINAL="3873" NAME="_ZNSt15time_put_bynameIwSt19ostreambuf_iteratorIwSt11char_traitsIwEEEC2ERKNSt7__cxx1112basic_stringIcS1_IcESaIcEEEy" PURGE="0" COMMENT="" />
    <EXPORT ORDINAL="3874" NAME="_ZNSt15time_put_bynameIwSt19ostreambuf_iteratorIwSt11char_traitsIwEEEC2ERKSsy" PURGE="0" COMMENT="" />
    <EXPORT ORDINAL="3875" NAME="_ZNSt15time_put_bynameIwSt19ostreambuf_iteratorIwSt11char_traitsIwEEED0Ev" PURGE="-1" COMMENT="" />
    <EXPORT ORDINAL="3876" NAME="_ZNSt15time_put_bynameIwSt19ostreambuf_iteratorIwSt11char_traitsIwEEED1Ev" PURGE="0" COMMENT="" />
    <EXPORT ORDINAL="3877" NAME="_ZNSt15time_put_bynameIwSt19ostreambuf_iteratorIwSt11char_traitsIwEEED2Ev" PURGE="0" COMMENT="" />
    <EXPORT ORDINAL="3878" NAME="_ZNSt15underflow_errorC1EPKc" PURGE="0" COMMENT="" />
    <EXPORT ORDINAL="3879" NAME="_ZNSt15underflow_errorC1ERKNSt7__cxx1112basic_stringIcSt11char_traitsIcESaIcEEE" PURGE="0" COMMENT="" />
    <EXPORT ORDINAL="3880" NAME="_ZNSt15underflow_errorC1ERKSs" PURGE="0" COMMENT="" />
    <EXPORT ORDINAL="3881" NAME="_ZNSt15underflow_errorC2EPKc" PURGE="0" COMMENT="" />
    <EXPORT ORDINAL="3882" NAME="_ZNSt15underflow_errorC2ERKNSt7__cxx1112basic_stringIcSt11char_traitsIcESaIcEEE" PURGE="0" COMMENT="" />
    <EXPORT ORDINAL="3883" NAME="_ZNSt15underflow_errorC2ERKSs" PURGE="0" COMMENT="" />
    <EXPORT ORDINAL="3884" NAME="_ZNSt15underflow_errorD0Ev" PURGE="-1" COMMENT="" />
    <EXPORT ORDINAL="3885" NAME="_ZNSt15underflow_errorD1Ev" PURGE="0" COMMENT="" />
    <EXPORT ORDINAL="3886" NAME="_ZNSt15underflow_errorD2Ev" PURGE="0" COMMENT="" />
    <EXPORT ORDINAL="3887" NAME="_ZNSt16_Sp_counted_baseILN9__gnu_cxx12_Lock_policyE2EE10_M_destroyEv" PURGE="-1" COMMENT="" />
    <EXPORT ORDINAL="3888" NAME="_ZNSt16_Sp_counted_baseILN9__gnu_cxx12_Lock_policyE2EE10_M_releaseEv" PURGE="0" COMMENT="" />
    <EXPORT ORDINAL="3889" NAME="_ZNSt16_Sp_counted_baseILN9__gnu_cxx12_Lock_policyE2EE24_M_release_last_use_coldEv" PURGE="0" COMMENT="" />
    <EXPORT ORDINAL="3890" NAME="_ZNSt16__numpunct_cacheIcE8_M_cacheERKSt6locale" PURGE="0" COMMENT="" />
    <EXPORT ORDINAL="3891" NAME="_ZNSt16__numpunct_cacheIcEC1Ey" PURGE="0" COMMENT="" />
    <EXPORT ORDINAL="3892" NAME="_ZNSt16__numpunct_cacheIcEC2Ey" PURGE="0" COMMENT="" />
    <EXPORT ORDINAL="3893" NAME="_ZNSt16__numpunct_cacheIcED0Ev" PURGE="-1" COMMENT="" />
    <EXPORT ORDINAL="3894" NAME="_ZNSt16__numpunct_cacheIcED1Ev" PURGE="0" COMMENT="" />
    <EXPORT ORDINAL="3895" NAME="_ZNSt16__numpunct_cacheIcED2Ev" PURGE="0" COMMENT="" />
    <EXPORT ORDINAL="3896" NAME="_ZNSt16__numpunct_cacheIwE8_M_cacheERKSt6locale" PURGE="0" COMMENT="" />
    <EXPORT ORDINAL="3897" NAME="_ZNSt16__numpunct_cacheIwEC1Ey" PURGE="0" COMMENT="" />
    <EXPORT ORDINAL="3898" NAME="_ZNSt16__numpunct_cacheIwEC2Ey" PURGE="0" COMMENT="" />
    <EXPORT ORDINAL="3899" NAME="_ZNSt16__numpunct_cacheIwED0Ev" PURGE="-1" COMMENT="" />
    <EXPORT ORDINAL="3900" NAME="_ZNSt16__numpunct_cacheIwED1Ev" PURGE="0" COMMENT="" />
    <EXPORT ORDINAL="3901" NAME="_ZNSt16__numpunct_cacheIwED2Ev" PURGE="0" COMMENT="" />
    <EXPORT ORDINAL="3902" NAME="_ZNSt16__time_get_state17_M_finalize_stateEP2tm" PURGE="0" COMMENT="" />
    <EXPORT ORDINAL="3903" NAME="_ZNSt16bad_array_lengthD0Ev" PURGE="-1" COMMENT="" />
    <EXPORT ORDINAL="3904" NAME="_ZNSt16bad_array_lengthD1Ev" PURGE="0" COMMENT="" />
    <EXPORT ORDINAL="3905" NAME="_ZNSt16bad_array_lengthD2Ev" PURGE="0" COMMENT="" />
    <EXPORT ORDINAL="3906" NAME="_ZNSt16invalid_argumentC1EPKc" PURGE="0" COMMENT="" />
    <EXPORT ORDINAL="3907" NAME="_ZNSt16invalid_argumentC1ERKNSt7__cxx1112basic_stringIcSt11char_traitsIcESaIcEEE" PURGE="0" COMMENT="" />
    <EXPORT ORDINAL="3908" NAME="_ZNSt16invalid_argumentC1ERKSs" PURGE="0" COMMENT="" />
    <EXPORT ORDINAL="3909" NAME="_ZNSt16invalid_argumentC2EPKc" PURGE="0" COMMENT="" />
    <EXPORT ORDINAL="3910" NAME="_ZNSt16invalid_argumentC2ERKNSt7__cxx1112basic_stringIcSt11char_traitsIcESaIcEEE" PURGE="0" COMMENT="" />
    <EXPORT ORDINAL="3911" NAME="_ZNSt16invalid_argumentC2ERKSs" PURGE="0" COMMENT="" />
    <EXPORT ORDINAL="3912" NAME="_ZNSt16invalid_argumentD0Ev" PURGE="-1" COMMENT="" />
    <EXPORT ORDINAL="3913" NAME="_ZNSt16invalid_argumentD1Ev" PURGE="0" COMMENT="" />
    <EXPORT ORDINAL="3914" NAME="_ZNSt16invalid_argumentD2Ev" PURGE="0" COMMENT="" />
    <EXPORT ORDINAL="3915" NAME="_ZNSt16nested_exceptionD0Ev" PURGE="-1" COMMENT="" />
    <EXPORT ORDINAL="3916" NAME="_ZNSt16nested_exceptionD1Ev" PURGE="0" COMMENT="" />
    <EXPORT ORDINAL="3917" NAME="_ZNSt16nested_exceptionD2Ev" PURGE="0" COMMENT="" />
    <EXPORT ORDINAL="3918" NAME="_ZNSt17__timepunct_cacheIcE12_S_timezonesE" PURGE="-1" COMMENT="" />
    <EXPORT ORDINAL="3919" NAME="_ZNSt17__timepunct_cacheIcEC1Ey" PURGE="0" COMMENT="" />
    <EXPORT ORDINAL="3920" NAME="_ZNSt17__timepunct_cacheIcEC2Ey" PURGE="0" COMMENT="" />
    <EXPORT ORDINAL="3921" NAME="_ZNSt17__timepunct_cacheIcED0Ev" PURGE="-1" COMMENT="" />
    <EXPORT ORDINAL="3922" NAME="_ZNSt17__timepunct_cacheIcED1Ev" PURGE="0" COMMENT="" />
    <EXPORT ORDINAL="3923" NAME="_ZNSt17__timepunct_cacheIcED2Ev" PURGE="0" COMMENT="" />
    <EXPORT ORDINAL="3924" NAME="_ZNSt17__timepunct_cacheIwE12_S_timezonesE" PURGE="-1" COMMENT="" />
    <EXPORT ORDINAL="3925" NAME="_ZNSt17__timepunct_cacheIwEC1Ey" PURGE="0" COMMENT="" />
    <EXPORT ORDINAL="3926" NAME="_ZNSt17__timepunct_cacheIwEC2Ey" PURGE="0" COMMENT="" />
    <EXPORT ORDINAL="3927" NAME="_ZNSt17__timepunct_cacheIwED0Ev" PURGE="-1" COMMENT="" />
    <EXPORT ORDINAL="3928" NAME="_ZNSt17__timepunct_cacheIwED1Ev" PURGE="0" COMMENT="" />
    <EXPORT ORDINAL="3929" NAME="_ZNSt17__timepunct_cacheIwED2Ev" PURGE="0" COMMENT="" />
    <EXPORT ORDINAL="3930" NAME="_ZNSt17bad_function_callD0Ev" PURGE="-1" COMMENT="" />
    <EXPORT ORDINAL="3931" NAME="_ZNSt17bad_function_callD1Ev" PURGE="0" COMMENT="" />
    <EXPORT ORDINAL="3932" NAME="_ZNSt17bad_function_callD2Ev" PURGE="0" COMMENT="" />
    <EXPORT ORDINAL="3933" NAME="_ZNSt17moneypunct_bynameIcLb0EE4intlE" PURGE="-1" COMMENT="" />
    <EXPORT ORDINAL="3934" NAME="_ZNSt17moneypunct_bynameIcLb0EEC1EPKcy" PURGE="0" COMMENT="" />
    <EXPORT ORDINAL="3935" NAME="_ZNSt17moneypunct_bynameIcLb0EEC1ERKSsy" PURGE="0" COMMENT="" />
    <EXPORT ORDINAL="3936" NAME="_ZNSt17moneypunct_bynameIcLb0EEC2EPKcy" PURGE="0" COMMENT="" />
    <EXPORT ORDINAL="3937" NAME="_ZNSt17moneypunct_bynameIcLb0EEC2ERKSsy" PURGE="0" COMMENT="" />
    <EXPORT ORDINAL="3938" NAME="_ZNSt17moneypunct_bynameIcLb0EED0Ev" PURGE="-1" COMMENT="" />
    <EXPORT ORDINAL="3939" NAME="_ZNSt17moneypunct_bynameIcLb0EED1Ev" PURGE="0" COMMENT="" />
    <EXPORT ORDINAL="3940" NAME="_ZNSt17moneypunct_bynameIcLb0EED2Ev" PURGE="0" COMMENT="" />
    <EXPORT ORDINAL="3941" NAME="_ZNSt17moneypunct_bynameIcLb1EE4intlE" PURGE="-1" COMMENT="" />
    <EXPORT ORDINAL="3942" NAME="_ZNSt17moneypunct_bynameIcLb1EEC1EPKcy" PURGE="0" COMMENT="" />
    <EXPORT ORDINAL="3943" NAME="_ZNSt17moneypunct_bynameIcLb1EEC1ERKSsy" PURGE="0" COMMENT="" />
    <EXPORT ORDINAL="3944" NAME="_ZNSt17moneypunct_bynameIcLb1EEC2EPKcy" PURGE="0" COMMENT="" />
    <EXPORT ORDINAL="3945" NAME="_ZNSt17moneypunct_bynameIcLb1EEC2ERKSsy" PURGE="0" COMMENT="" />
    <EXPORT ORDINAL="3946" NAME="_ZNSt17moneypunct_bynameIcLb1EED0Ev" PURGE="-1" COMMENT="" />
    <EXPORT ORDINAL="3947" NAME="_ZNSt17moneypunct_bynameIcLb1EED1Ev" PURGE="0" COMMENT="" />
    <EXPORT ORDINAL="3948" NAME="_ZNSt17moneypunct_bynameIcLb1EED2Ev" PURGE="0" COMMENT="" />
    <EXPORT ORDINAL="3949" NAME="_ZNSt17moneypunct_bynameIwLb0EE4intlE" PURGE="-1" COMMENT="" />
    <EXPORT ORDINAL="3950" NAME="_ZNSt17moneypunct_bynameIwLb0EEC1EPKcy" PURGE="0" COMMENT="" />
    <EXPORT ORDINAL="3951" NAME="_ZNSt17moneypunct_bynameIwLb0EEC1ERKSsy" PURGE="0" COMMENT="" />
    <EXPORT ORDINAL="3952" NAME="_ZNSt17moneypunct_bynameIwLb0EEC2EPKcy" PURGE="0" COMMENT="" />
    <EXPORT ORDINAL="3953" NAME="_ZNSt17moneypunct_bynameIwLb0EEC2ERKSsy" PURGE="0" COMMENT="" />
    <EXPORT ORDINAL="3954" NAME="_ZNSt17moneypunct_bynameIwLb0EED0Ev" PURGE="-1" COMMENT="" />
    <EXPORT ORDINAL="3955" NAME="_ZNSt17moneypunct_bynameIwLb0EED1Ev" PURGE="0" COMMENT="" />
    <EXPORT ORDINAL="3956" NAME="_ZNSt17moneypunct_bynameIwLb0EED2Ev" PURGE="0" COMMENT="" />
    <EXPORT ORDINAL="3957" NAME="_ZNSt17moneypunct_bynameIwLb1EE4intlE" PURGE="-1" COMMENT="" />
    <EXPORT ORDINAL="3958" NAME="_ZNSt17moneypunct_bynameIwLb1EEC1EPKcy" PURGE="0" COMMENT="" />
    <EXPORT ORDINAL="3959" NAME="_ZNSt17moneypunct_bynameIwLb1EEC1ERKSsy" PURGE="0" COMMENT="" />
    <EXPORT ORDINAL="3960" NAME="_ZNSt17moneypunct_bynameIwLb1EEC2EPKcy" PURGE="0" COMMENT="" />
    <EXPORT ORDINAL="3961" NAME="_ZNSt17moneypunct_bynameIwLb1EEC2ERKSsy" PURGE="0" COMMENT="" />
    <EXPORT ORDINAL="3962" NAME="_ZNSt17moneypunct_bynameIwLb1EED0Ev" PURGE="-1" COMMENT="" />
    <EXPORT ORDINAL="3963" NAME="_ZNSt17moneypunct_bynameIwLb1EED1Ev" PURGE="0" COMMENT="" />
    <EXPORT ORDINAL="3964" NAME="_ZNSt17moneypunct_bynameIwLb1EED2Ev" PURGE="0" COMMENT="" />
    <EXPORT ORDINAL="3965" NAME="_ZNSt18__moneypunct_cacheIcLb0EE8_M_cacheERKSt6locale" PURGE="0" COMMENT="" />
    <EXPORT ORDINAL="3966" NAME="_ZNSt18__moneypunct_cacheIcLb0EEC1Ey" PURGE="0" COMMENT="" />
    <EXPORT ORDINAL="3967" NAME="_ZNSt18__moneypunct_cacheIcLb0EEC2Ey" PURGE="0" COMMENT="" />
    <EXPORT ORDINAL="3968" NAME="_ZNSt18__moneypunct_cacheIcLb0EED0Ev" PURGE="-1" COMMENT="" />
    <EXPORT ORDINAL="3969" NAME="_ZNSt18__moneypunct_cacheIcLb0EED1Ev" PURGE="0" COMMENT="" />
    <EXPORT ORDINAL="3970" NAME="_ZNSt18__moneypunct_cacheIcLb0EED2Ev" PURGE="0" COMMENT="" />
    <EXPORT ORDINAL="3971" NAME="_ZNSt18__moneypunct_cacheIcLb1EE8_M_cacheERKSt6locale" PURGE="0" COMMENT="" />
    <EXPORT ORDINAL="3972" NAME="_ZNSt18__moneypunct_cacheIcLb1EEC1Ey" PURGE="0" COMMENT="" />
    <EXPORT ORDINAL="3973" NAME="_ZNSt18__moneypunct_cacheIcLb1EEC2Ey" PURGE="0" COMMENT="" />
    <EXPORT ORDINAL="3974" NAME="_ZNSt18__moneypunct_cacheIcLb1EED0Ev" PURGE="-1" COMMENT="" />
    <EXPORT ORDINAL="3975" NAME="_ZNSt18__moneypunct_cacheIcLb1EED1Ev" PURGE="0" COMMENT="" />
    <EXPORT ORDINAL="3976" NAME="_ZNSt18__moneypunct_cacheIcLb1EED2Ev" PURGE="0" COMMENT="" />
    <EXPORT ORDINAL="3977" NAME="_ZNSt18__moneypunct_cacheIwLb0EE8_M_cacheERKSt6locale" PURGE="0" COMMENT="" />
    <EXPORT ORDINAL="3978" NAME="_ZNSt18__moneypunct_cacheIwLb0EEC1Ey" PURGE="0" COMMENT="" />
    <EXPORT ORDINAL="3979" NAME="_ZNSt18__moneypunct_cacheIwLb0EEC2Ey" PURGE="0" COMMENT="" />
    <EXPORT ORDINAL="3980" NAME="_ZNSt18__moneypunct_cacheIwLb0EED0Ev" PURGE="-1" COMMENT="" />
    <EXPORT ORDINAL="3981" NAME="_ZNSt18__moneypunct_cacheIwLb0EED1Ev" PURGE="0" COMMENT="" />
    <EXPORT ORDINAL="3982" NAME="_ZNSt18__moneypunct_cacheIwLb0EED2Ev" PURGE="0" COMMENT="" />
    <EXPORT ORDINAL="3983" NAME="_ZNSt18__moneypunct_cacheIwLb1EE8_M_cacheERKSt6locale" PURGE="0" COMMENT="" />
    <EXPORT ORDINAL="3984" NAME="_ZNSt18__moneypunct_cacheIwLb1EEC1Ey" PURGE="0" COMMENT="" />
    <EXPORT ORDINAL="3985" NAME="_ZNSt18__moneypunct_cacheIwLb1EEC2Ey" PURGE="0" COMMENT="" />
    <EXPORT ORDINAL="3986" NAME="_ZNSt18__moneypunct_cacheIwLb1EED0Ev" PURGE="-1" COMMENT="" />
    <EXPORT ORDINAL="3987" NAME="_ZNSt18__moneypunct_cacheIwLb1EED1Ev" PURGE="0" COMMENT="" />
    <EXPORT ORDINAL="3988" NAME="_ZNSt18__moneypunct_cacheIwLb1EED2Ev" PURGE="0" COMMENT="" />
    <EXPORT ORDINAL="3989" NAME="_ZNSt18basic_stringstreamIcSt11char_traitsIcESaIcEE3strERKSs" PURGE="0" COMMENT="" />
    <EXPORT ORDINAL="3990" NAME="_ZNSt18basic_stringstreamIcSt11char_traitsIcESaIcEE4swapERS3_" PURGE="0" COMMENT="" />
    <EXPORT ORDINAL="3991" NAME="_ZNSt18basic_stringstreamIcSt11char_traitsIcESaIcEEC1EOS3_" PURGE="0" COMMENT="" />
    <EXPORT ORDINAL="3992" NAME="_ZNSt18basic_stringstreamIcSt11char_traitsIcESaIcEEC1ERKSsSt13_Ios_Openmode" PURGE="0" COMMENT="" />
    <EXPORT ORDINAL="3993" NAME="_ZNSt18basic_stringstreamIcSt11char_traitsIcESaIcEEC1ESt13_Ios_Openmode" PURGE="0" COMMENT="" />
    <EXPORT ORDINAL="3994" NAME="_ZNSt18basic_stringstreamIcSt11char_traitsIcESaIcEEC1Ev" PURGE="0" COMMENT="" />
    <EXPORT ORDINAL="3995" NAME="_ZNSt18basic_stringstreamIcSt11char_traitsIcESaIcEEC2EOS3_" PURGE="0" COMMENT="" />
    <EXPORT ORDINAL="3996" NAME="_ZNSt18basic_stringstreamIcSt11char_traitsIcESaIcEEC2ERKSsSt13_Ios_Openmode" PURGE="0" COMMENT="" />
    <EXPORT ORDINAL="3997" NAME="_ZNSt18basic_stringstreamIcSt11char_traitsIcESaIcEEC2ESt13_Ios_Openmode" PURGE="0" COMMENT="" />
    <EXPORT ORDINAL="3998" NAME="_ZNSt18basic_stringstreamIcSt11char_traitsIcESaIcEEC2Ev" PURGE="0" COMMENT="" />
    <EXPORT ORDINAL="3999" NAME="_ZNSt18basic_stringstreamIcSt11char_traitsIcESaIcEED0Ev" PURGE="-1" COMMENT="" />
    <EXPORT ORDINAL="4000" NAME="_ZNSt18basic_stringstreamIcSt11char_traitsIcESaIcEED1Ev" PURGE="0" COMMENT="" />
    <EXPORT ORDINAL="4001" NAME="_ZNSt18basic_stringstreamIcSt11char_traitsIcESaIcEED2Ev" PURGE="0" COMMENT="" />
    <EXPORT ORDINAL="4002" NAME="_ZNSt18basic_stringstreamIcSt11char_traitsIcESaIcEEaSEOS3_" PURGE="0" COMMENT="" />
    <EXPORT ORDINAL="4003" NAME="_ZNSt18basic_stringstreamIwSt11char_traitsIwESaIwEE3strERKSbIwS1_S2_E" PURGE="0" COMMENT="" />
    <EXPORT ORDINAL="4004" NAME="_ZNSt18basic_stringstreamIwSt11char_traitsIwESaIwEE4swapERS3_" PURGE="0" COMMENT="" />
    <EXPORT ORDINAL="4005" NAME="_ZNSt18basic_stringstreamIwSt11char_traitsIwESaIwEEC1EOS3_" PURGE="0" COMMENT="" />
    <EXPORT ORDINAL="4006" NAME="_ZNSt18basic_stringstreamIwSt11char_traitsIwESaIwEEC1ERKSbIwS1_S2_ESt13_Ios_Openmode" PURGE="0" COMMENT="" />
    <EXPORT ORDINAL="4007" NAME="_ZNSt18basic_stringstreamIwSt11char_traitsIwESaIwEEC1ESt13_Ios_Openmode" PURGE="0" COMMENT="" />
    <EXPORT ORDINAL="4008" NAME="_ZNSt18basic_stringstreamIwSt11char_traitsIwESaIwEEC1Ev" PURGE="0" COMMENT="" />
    <EXPORT ORDINAL="4009" NAME="_ZNSt18basic_stringstreamIwSt11char_traitsIwESaIwEEC2EOS3_" PURGE="0" COMMENT="" />
    <EXPORT ORDINAL="4010" NAME="_ZNSt18basic_stringstreamIwSt11char_traitsIwESaIwEEC2ERKSbIwS1_S2_ESt13_Ios_Openmode" PURGE="0" COMMENT="" />
    <EXPORT ORDINAL="4011" NAME="_ZNSt18basic_stringstreamIwSt11char_traitsIwESaIwEEC2ESt13_Ios_Openmode" PURGE="0" COMMENT="" />
    <EXPORT ORDINAL="4012" NAME="_ZNSt18basic_stringstreamIwSt11char_traitsIwESaIwEEC2Ev" PURGE="0" COMMENT="" />
    <EXPORT ORDINAL="4013" NAME="_ZNSt18basic_stringstreamIwSt11char_traitsIwESaIwEED0Ev" PURGE="-1" COMMENT="" />
    <EXPORT ORDINAL="4014" NAME="_ZNSt18basic_stringstreamIwSt11char_traitsIwESaIwEED1Ev" PURGE="0" COMMENT="" />
    <EXPORT ORDINAL="4015" NAME="_ZNSt18basic_stringstreamIwSt11char_traitsIwESaIwEED2Ev" PURGE="0" COMMENT="" />
    <EXPORT ORDINAL="4016" NAME="_ZNSt18basic_stringstreamIwSt11char_traitsIwESaIwEEaSEOS3_" PURGE="0" COMMENT="" />
    <EXPORT ORDINAL="4017" NAME="_ZNSt18codecvt_utf8_utf16IwLm1114111ELSt12codecvt_mode0EED0Ev" PURGE="-1" COMMENT="" />
    <EXPORT ORDINAL="4018" NAME="_ZNSt18codecvt_utf8_utf16IwLm1114111ELSt12codecvt_mode0EED1Ev" PURGE="0" COMMENT="" />
    <EXPORT ORDINAL="4019" NAME="_ZNSt18condition_variable10notify_allEv" PURGE="0" COMMENT="" />
    <EXPORT ORDINAL="4020" NAME="_ZNSt18condition_variable10notify_oneEv" PURGE="0" COMMENT="" />
    <EXPORT ORDINAL="4021" NAME="_ZNSt18condition_variable4waitERSt11unique_lockISt5mutexE" PURGE="-1" COMMENT="" />
    <EXPORT ORDINAL="4022" NAME="_ZNSt18condition_variableC1Ev" PURGE="0" COMMENT="" />
    <EXPORT ORDINAL="4023" NAME="_ZNSt18condition_variableC2Ev" PURGE="0" COMMENT="" />
    <EXPORT ORDINAL="4024" NAME="_ZNSt18condition_variableD1Ev" PURGE="0" COMMENT="" />
    <EXPORT ORDINAL="4025" NAME="_ZNSt18condition_variableD2Ev" PURGE="0" COMMENT="" />
    <EXPORT ORDINAL="4026" NAME="_ZNSt19_Sp_make_shared_tag5_S_eqERKSt9type_info" PURGE="0" COMMENT="" />
    <EXPORT ORDINAL="4027" NAME="_ZNSt19__codecvt_utf8_baseIDiED0Ev" PURGE="-1" COMMENT="" />
    <EXPORT ORDINAL="4028" NAME="_ZNSt19__codecvt_utf8_baseIDiED1Ev" PURGE="0" COMMENT="" />
    <EXPORT ORDINAL="4029" NAME="_ZNSt19__codecvt_utf8_baseIDiED2Ev" PURGE="0" COMMENT="" />
    <EXPORT ORDINAL="4030" NAME="_ZNSt19__codecvt_utf8_baseIDsED0Ev" PURGE="-1" COMMENT="" />
    <EXPORT ORDINAL="4031" NAME="_ZNSt19__codecvt_utf8_baseIDsED1Ev" PURGE="0" COMMENT="" />
    <EXPORT ORDINAL="4032" NAME="_ZNSt19__codecvt_utf8_baseIDsED2Ev" PURGE="0" COMMENT="" />
    <EXPORT ORDINAL="4033" NAME="_ZNSt19__codecvt_utf8_baseIwED0Ev" PURGE="-1" COMMENT="" />
    <EXPORT ORDINAL="4034" NAME="_ZNSt19__codecvt_utf8_baseIwED1Ev" PURGE="0" COMMENT="" />
    <EXPORT ORDINAL="4035" NAME="_ZNSt19__codecvt_utf8_baseIwED2Ev" PURGE="0" COMMENT="" />
    <EXPORT ORDINAL="4036" NAME="_ZNSt19__iosfail_type_infoD0Ev" PURGE="-1" COMMENT="" />
    <EXPORT ORDINAL="4037" NAME="_ZNSt19__iosfail_type_infoD1Ev" PURGE="0" COMMENT="" />
    <EXPORT ORDINAL="4038" NAME="_ZNSt19__iosfail_type_infoD2Ev" PURGE="0" COMMENT="" />
    <EXPORT ORDINAL="4039" NAME="_ZNSt19basic_istringstreamIcSt11char_traitsIcESaIcEE3strERKSs" PURGE="0" COMMENT="" />
    <EXPORT ORDINAL="4040" NAME="_ZNSt19basic_istringstreamIcSt11char_traitsIcESaIcEE4swapERS3_" PURGE="0" COMMENT="" />
    <EXPORT ORDINAL="4041" NAME="_ZNSt19basic_istringstreamIcSt11char_traitsIcESaIcEEC1EOS3_" PURGE="0" COMMENT="" />
    <EXPORT ORDINAL="4042" NAME="_ZNSt19basic_istringstreamIcSt11char_traitsIcESaIcEEC1ERKSsSt13_Ios_Openmode" PURGE="0" COMMENT="" />
    <EXPORT ORDINAL="4043" NAME="_ZNSt19basic_istringstreamIcSt11char_traitsIcESaIcEEC1ESt13_Ios_Openmode" PURGE="0" COMMENT="" />
    <EXPORT ORDINAL="4044" NAME="_ZNSt19basic_istringstreamIcSt11char_traitsIcESaIcEEC1Ev" PURGE="0" COMMENT="" />
    <EXPORT ORDINAL="4045" NAME="_ZNSt19basic_istringstreamIcSt11char_traitsIcESaIcEEC2EOS3_" PURGE="0" COMMENT="" />
    <EXPORT ORDINAL="4046" NAME="_ZNSt19basic_istringstreamIcSt11char_traitsIcESaIcEEC2ERKSsSt13_Ios_Openmode" PURGE="0" COMMENT="" />
    <EXPORT ORDINAL="4047" NAME="_ZNSt19basic_istringstreamIcSt11char_traitsIcESaIcEEC2ESt13_Ios_Openmode" PURGE="0" COMMENT="" />
    <EXPORT ORDINAL="4048" NAME="_ZNSt19basic_istringstreamIcSt11char_traitsIcESaIcEEC2Ev" PURGE="0" COMMENT="" />
    <EXPORT ORDINAL="4049" NAME="_ZNSt19basic_istringstreamIcSt11char_traitsIcESaIcEED0Ev" PURGE="-1" COMMENT="" />
    <EXPORT ORDINAL="4050" NAME="_ZNSt19basic_istringstreamIcSt11char_traitsIcESaIcEED1Ev" PURGE="0" COMMENT="" />
    <EXPORT ORDINAL="4051" NAME="_ZNSt19basic_istringstreamIcSt11char_traitsIcESaIcEED2Ev" PURGE="0" COMMENT="" />
    <EXPORT ORDINAL="4052" NAME="_ZNSt19basic_istringstreamIcSt11char_traitsIcESaIcEEaSEOS3_" PURGE="0" COMMENT="" />
    <EXPORT ORDINAL="4053" NAME="_ZNSt19basic_istringstreamIwSt11char_traitsIwESaIwEE3strERKSbIwS1_S2_E" PURGE="0" COMMENT="" />
    <EXPORT ORDINAL="4054" NAME="_ZNSt19basic_istringstreamIwSt11char_traitsIwESaIwEE4swapERS3_" PURGE="0" COMMENT="" />
    <EXPORT ORDINAL="4055" NAME="_ZNSt19basic_istringstreamIwSt11char_traitsIwESaIwEEC1EOS3_" PURGE="0" COMMENT="" />
    <EXPORT ORDINAL="4056" NAME="_ZNSt19basic_istringstreamIwSt11char_traitsIwESaIwEEC1ERKSbIwS1_S2_ESt13_Ios_Openmode" PURGE="0" COMMENT="" />
    <EXPORT ORDINAL="4057" NAME="_ZNSt19basic_istringstreamIwSt11char_traitsIwESaIwEEC1ESt13_Ios_Openmode" PURGE="0" COMMENT="" />
    <EXPORT ORDINAL="4058" NAME="_ZNSt19basic_istringstreamIwSt11char_traitsIwESaIwEEC1Ev" PURGE="0" COMMENT="" />
    <EXPORT ORDINAL="4059" NAME="_ZNSt19basic_istringstreamIwSt11char_traitsIwESaIwEEC2EOS3_" PURGE="0" COMMENT="" />
    <EXPORT ORDINAL="4060" NAME="_ZNSt19basic_istringstreamIwSt11char_traitsIwESaIwEEC2ERKSbIwS1_S2_ESt13_Ios_Openmode" PURGE="0" COMMENT="" />
    <EXPORT ORDINAL="4061" NAME="_ZNSt19basic_istringstreamIwSt11char_traitsIwESaIwEEC2ESt13_Ios_Openmode" PURGE="0" COMMENT="" />
    <EXPORT ORDINAL="4062" NAME="_ZNSt19basic_istringstreamIwSt11char_traitsIwESaIwEEC2Ev" PURGE="0" COMMENT="" />
    <EXPORT ORDINAL="4063" NAME="_ZNSt19basic_istringstreamIwSt11char_traitsIwESaIwEED0Ev" PURGE="-1" COMMENT="" />
    <EXPORT ORDINAL="4064" NAME="_ZNSt19basic_istringstreamIwSt11char_traitsIwESaIwEED1Ev" PURGE="0" COMMENT="" />
    <EXPORT ORDINAL="4065" NAME="_ZNSt19basic_istringstreamIwSt11char_traitsIwESaIwEED2Ev" PURGE="0" COMMENT="" />
    <EXPORT ORDINAL="4066" NAME="_ZNSt19basic_istringstreamIwSt11char_traitsIwESaIwEEaSEOS3_" PURGE="0" COMMENT="" />
    <EXPORT ORDINAL="4067" NAME="_ZNSt19basic_ostringstreamIcSt11char_traitsIcESaIcEE3strERKSs" PURGE="0" COMMENT="" />
    <EXPORT ORDINAL="4068" NAME="_ZNSt19basic_ostringstreamIcSt11char_traitsIcESaIcEE4swapERS3_" PURGE="0" COMMENT="" />
    <EXPORT ORDINAL="4069" NAME="_ZNSt19basic_ostringstreamIcSt11char_traitsIcESaIcEEC1EOS3_" PURGE="0" COMMENT="" />
    <EXPORT ORDINAL="4070" NAME="_ZNSt19basic_ostringstreamIcSt11char_traitsIcESaIcEEC1ERKSsSt13_Ios_Openmode" PURGE="0" COMMENT="" />
    <EXPORT ORDINAL="4071" NAME="_ZNSt19basic_ostringstreamIcSt11char_traitsIcESaIcEEC1ESt13_Ios_Openmode" PURGE="0" COMMENT="" />
    <EXPORT ORDINAL="4072" NAME="_ZNSt19basic_ostringstreamIcSt11char_traitsIcESaIcEEC1Ev" PURGE="0" COMMENT="" />
    <EXPORT ORDINAL="4073" NAME="_ZNSt19basic_ostringstreamIcSt11char_traitsIcESaIcEEC2EOS3_" PURGE="0" COMMENT="" />
    <EXPORT ORDINAL="4074" NAME="_ZNSt19basic_ostringstreamIcSt11char_traitsIcESaIcEEC2ERKSsSt13_Ios_Openmode" PURGE="0" COMMENT="" />
    <EXPORT ORDINAL="4075" NAME="_ZNSt19basic_ostringstreamIcSt11char_traitsIcESaIcEEC2ESt13_Ios_Openmode" PURGE="0" COMMENT="" />
    <EXPORT ORDINAL="4076" NAME="_ZNSt19basic_ostringstreamIcSt11char_traitsIcESaIcEEC2Ev" PURGE="0" COMMENT="" />
    <EXPORT ORDINAL="4077" NAME="_ZNSt19basic_ostringstreamIcSt11char_traitsIcESaIcEED0Ev" PURGE="-1" COMMENT="" />
    <EXPORT ORDINAL="4078" NAME="_ZNSt19basic_ostringstreamIcSt11char_traitsIcESaIcEED1Ev" PURGE="0" COMMENT="" />
    <EXPORT ORDINAL="4079" NAME="_ZNSt19basic_ostringstreamIcSt11char_traitsIcESaIcEED2Ev" PURGE="0" COMMENT="" />
    <EXPORT ORDINAL="4080" NAME="_ZNSt19basic_ostringstreamIcSt11char_traitsIcESaIcEEaSEOS3_" PURGE="0" COMMENT="" />
    <EXPORT ORDINAL="4081" NAME="_ZNSt19basic_ostringstreamIwSt11char_traitsIwESaIwEE3strERKSbIwS1_S2_E" PURGE="0" COMMENT="" />
    <EXPORT ORDINAL="4082" NAME="_ZNSt19basic_ostringstreamIwSt11char_traitsIwESaIwEE4swapERS3_" PURGE="0" COMMENT="" />
    <EXPORT ORDINAL="4083" NAME="_ZNSt19basic_ostringstreamIwSt11char_traitsIwESaIwEEC1EOS3_" PURGE="0" COMMENT="" />
    <EXPORT ORDINAL="4084" NAME="_ZNSt19basic_ostringstreamIwSt11char_traitsIwESaIwEEC1ERKSbIwS1_S2_ESt13_Ios_Openmode" PURGE="0" COMMENT="" />
    <EXPORT ORDINAL="4085" NAME="_ZNSt19basic_ostringstreamIwSt11char_traitsIwESaIwEEC1ESt13_Ios_Openmode" PURGE="0" COMMENT="" />
    <EXPORT ORDINAL="4086" NAME="_ZNSt19basic_ostringstreamIwSt11char_traitsIwESaIwEEC1Ev" PURGE="0" COMMENT="" />
    <EXPORT ORDINAL="4087" NAME="_ZNSt19basic_ostringstreamIwSt11char_traitsIwESaIwEEC2EOS3_" PURGE="0" COMMENT="" />
    <EXPORT ORDINAL="4088" NAME="_ZNSt19basic_ostringstreamIwSt11char_traitsIwESaIwEEC2ERKSbIwS1_S2_ESt13_Ios_Openmode" PURGE="0" COMMENT="" />
    <EXPORT ORDINAL="4089" NAME="_ZNSt19basic_ostringstreamIwSt11char_traitsIwESaIwEEC2ESt13_Ios_Openmode" PURGE="0" COMMENT="" />
    <EXPORT ORDINAL="4090" NAME="_ZNSt19basic_ostringstreamIwSt11char_traitsIwESaIwEEC2Ev" PURGE="0" COMMENT="" />
    <EXPORT ORDINAL="4091" NAME="_ZNSt19basic_ostringstreamIwSt11char_traitsIwESaIwEED0Ev" PURGE="-1" COMMENT="" />
    <EXPORT ORDINAL="4092" NAME="_ZNSt19basic_ostringstreamIwSt11char_traitsIwESaIwEED1Ev" PURGE="0" COMMENT="" />
    <EXPORT ORDINAL="4093" NAME="_ZNSt19basic_ostringstreamIwSt11char_traitsIwESaIwEED2Ev" PURGE="0" COMMENT="" />
    <EXPORT ORDINAL="4094" NAME="_ZNSt19basic_ostringstreamIwSt11char_traitsIwESaIwEEaSEOS3_" PURGE="0" COMMENT="" />
    <EXPORT ORDINAL="4095" NAME="_ZNSt20__codecvt_utf16_baseIDiED0Ev" PURGE="-1" COMMENT="" />
    <EXPORT ORDINAL="4096" NAME="_ZNSt20__codecvt_utf16_baseIDiED1Ev" PURGE="0" COMMENT="" />
    <EXPORT ORDINAL="4097" NAME="_ZNSt20__codecvt_utf16_baseIDiED2Ev" PURGE="0" COMMENT="" />
    <EXPORT ORDINAL="4098" NAME="_ZNSt20__codecvt_utf16_baseIDsED0Ev" PURGE="-1" COMMENT="" />
    <EXPORT ORDINAL="4099" NAME="_ZNSt20__codecvt_utf16_baseIDsED1Ev" PURGE="0" COMMENT="" />
    <EXPORT ORDINAL="4100" NAME="_ZNSt20__codecvt_utf16_baseIDsED2Ev" PURGE="0" COMMENT="" />
    <EXPORT ORDINAL="4101" NAME="_ZNSt20__codecvt_utf16_baseIwED0Ev" PURGE="-1" COMMENT="" />
    <EXPORT ORDINAL="4102" NAME="_ZNSt20__codecvt_utf16_baseIwED1Ev" PURGE="0" COMMENT="" />
    <EXPORT ORDINAL="4103" NAME="_ZNSt20__codecvt_utf16_baseIwED2Ev" PURGE="0" COMMENT="" />
    <EXPORT ORDINAL="4104" NAME="_ZNSt20bad_array_new_lengthD0Ev" PURGE="-1" COMMENT="" />
    <EXPORT ORDINAL="4105" NAME="_ZNSt20bad_array_new_lengthD1Ev" PURGE="0" COMMENT="" />
    <EXPORT ORDINAL="4106" NAME="_ZNSt20bad_array_new_lengthD2Ev" PURGE="0" COMMENT="" />
    <EXPORT ORDINAL="4107" NAME="_ZNSt21__numeric_limits_base10has_denormE" PURGE="-1" COMMENT="" />
    <EXPORT ORDINAL="4108" NAME="_ZNSt21__numeric_limits_base10is_boundedE" PURGE="-1" COMMENT="" />
    <EXPORT ORDINAL="4109" NAME="_ZNSt21__numeric_limits_base10is_integerE" PURGE="-1" COMMENT="" />
    <EXPORT ORDINAL="4110" NAME="_ZNSt21__numeric_limits_base11round_styleE" PURGE="-1" COMMENT="" />
    <EXPORT ORDINAL="4111" NAME="_ZNSt21__numeric_limits_base12has_infinityE" PURGE="-1" COMMENT="" />
    <EXPORT ORDINAL="4112" NAME="_ZNSt21__numeric_limits_base12max_digits10E" PURGE="-1" COMMENT="" />
    <EXPORT ORDINAL="4113" NAME="_ZNSt21__numeric_limits_base12max_exponentE" PURGE="-1" COMMENT="" />
    <EXPORT ORDINAL="4114" NAME="_ZNSt21__numeric_limits_base12min_exponentE" PURGE="-1" COMMENT="" />
    <EXPORT ORDINAL="4115" NAME="_ZNSt21__numeric_limits_base13has_quiet_NaNE" PURGE="-1" COMMENT="" />
    <EXPORT ORDINAL="4116" NAME="_ZNSt21__numeric_limits_base14is_specializedE" PURGE="-1" COMMENT="" />
    <EXPORT ORDINAL="4117" NAME="_ZNSt21__numeric_limits_base14max_exponent10E" PURGE="-1" COMMENT="" />
    <EXPORT ORDINAL="4118" NAME="_ZNSt21__numeric_limits_base14min_exponent10E" PURGE="-1" COMMENT="" />
    <EXPORT ORDINAL="4119" NAME="_ZNSt21__numeric_limits_base15has_denorm_lossE" PURGE="-1" COMMENT="" />
    <EXPORT ORDINAL="4120" NAME="_ZNSt21__numeric_limits_base15tinyness_beforeE" PURGE="-1" COMMENT="" />
    <EXPORT ORDINAL="4121" NAME="_ZNSt21__numeric_limits_base17has_signaling_NaNE" PURGE="-1" COMMENT="" />
    <EXPORT ORDINAL="4122" NAME="_ZNSt21__numeric_limits_base5radixE" PURGE="-1" COMMENT="" />
    <EXPORT ORDINAL="4123" NAME="_ZNSt21__numeric_limits_base5trapsE" PURGE="-1" COMMENT="" />
    <EXPORT ORDINAL="4124" NAME="_ZNSt21__numeric_limits_base6digitsE" PURGE="-1" COMMENT="" />
    <EXPORT ORDINAL="4125" NAME="_ZNSt21__numeric_limits_base8digits10E" PURGE="-1" COMMENT="" />
    <EXPORT ORDINAL="4126" NAME="_ZNSt21__numeric_limits_base8is_exactE" PURGE="-1" COMMENT="" />
    <EXPORT ORDINAL="4127" NAME="_ZNSt21__numeric_limits_base9is_iec559E" PURGE="-1" COMMENT="" />
    <EXPORT ORDINAL="4128" NAME="_ZNSt21__numeric_limits_base9is_moduloE" PURGE="-1" COMMENT="" />
    <EXPORT ORDINAL="4129" NAME="_ZNSt21__numeric_limits_base9is_signedE" PURGE="-1" COMMENT="" />
    <EXPORT ORDINAL="4130" NAME="_ZNSt22condition_variable_anyC1Ev" PURGE="0" COMMENT="" />
    <EXPORT ORDINAL="4131" NAME="_ZNSt22condition_variable_anyC2Ev" PURGE="0" COMMENT="" />
    <EXPORT ORDINAL="4132" NAME="_ZNSt22condition_variable_anyD1Ev" PURGE="0" COMMENT="" />
    <EXPORT ORDINAL="4133" NAME="_ZNSt22condition_variable_anyD2Ev" PURGE="0" COMMENT="" />
    <EXPORT ORDINAL="4134" NAME="_ZNSt23_Sp_counted_ptr_inplaceINSt10filesystem16filesystem_error5_ImplESaIS2_ELN9__gnu_cxx12_Lock_policyE2EE10_M_destroyEv" PURGE="-1" COMMENT="" />
    <EXPORT ORDINAL="4135" NAME="_ZNSt23_Sp_counted_ptr_inplaceINSt10filesystem16filesystem_error5_ImplESaIS2_ELN9__gnu_cxx12_Lock_policyE2EE10_M_disposeEv" PURGE="0" COMMENT="" />
    <EXPORT ORDINAL="4136" NAME="_ZNSt23_Sp_counted_ptr_inplaceINSt10filesystem16filesystem_error5_ImplESaIS2_ELN9__gnu_cxx12_Lock_policyE2EE14_M_get_deleterERKSt9type_info" PURGE="0" COMMENT="" />
    <EXPORT ORDINAL="4137" NAME="_ZNSt23_Sp_counted_ptr_inplaceINSt10filesystem16filesystem_error5_ImplESaIS2_ELN9__gnu_cxx12_Lock_policyE2EED0Ev" PURGE="-1" COMMENT="" />
    <EXPORT ORDINAL="4138" NAME="_ZNSt23_Sp_counted_ptr_inplaceINSt10filesystem16filesystem_error5_ImplESaIS2_ELN9__gnu_cxx12_Lock_policyE2EED1Ev" PURGE="0" COMMENT="" />
    <EXPORT ORDINAL="4139" NAME="_ZNSt23_Sp_counted_ptr_inplaceINSt10filesystem28recursive_directory_iterator10_Dir_stackESaIS2_ELN9__gnu_cxx12_Lock_policyE2EE10_M_destroyEv" PURGE="-1" COMMENT="" />
    <EXPORT ORDINAL="4140" NAME="_ZNSt23_Sp_counted_ptr_inplaceINSt10filesystem28recursive_directory_iterator10_Dir_stackESaIS2_ELN9__gnu_cxx12_Lock_policyE2EE10_M_disposeEv" PURGE="0" COMMENT="" />
    <EXPORT ORDINAL="4141" NAME="_ZNSt23_Sp_counted_ptr_inplaceINSt10filesystem28recursive_directory_iterator10_Dir_stackESaIS2_ELN9__gnu_cxx12_Lock_policyE2EE14_M_get_deleterERKSt9type_info" PURGE="0" COMMENT="" />
    <EXPORT ORDINAL="4142" NAME="_ZNSt23_Sp_counted_ptr_inplaceINSt10filesystem28recursive_directory_iterator10_Dir_stackESaIS2_ELN9__gnu_cxx12_Lock_policyE2EED0Ev" PURGE="-1" COMMENT="" />
    <EXPORT ORDINAL="4143" NAME="_ZNSt23_Sp_counted_ptr_inplaceINSt10filesystem28recursive_directory_iterator10_Dir_stackESaIS2_ELN9__gnu_cxx12_Lock_policyE2EED1Ev" PURGE="0" COMMENT="" />
    <EXPORT ORDINAL="4144" NAME="_ZNSt23_Sp_counted_ptr_inplaceINSt10filesystem4_DirESaIS1_ELN9__gnu_cxx12_Lock_policyE2EE10_M_destroyEv" PURGE="-1" COMMENT="" />
    <EXPORT ORDINAL="4145" NAME="_ZNSt23_Sp_counted_ptr_inplaceINSt10filesystem4_DirESaIS1_ELN9__gnu_cxx12_Lock_policyE2EE10_M_disposeEv" PURGE="0" COMMENT="" />
    <EXPORT ORDINAL="4146" NAME="_ZNSt23_Sp_counted_ptr_inplaceINSt10filesystem4_DirESaIS1_ELN9__gnu_cxx12_Lock_policyE2EE14_M_get_deleterERKSt9type_info" PURGE="0" COMMENT="" />
    <EXPORT ORDINAL="4147" NAME="_ZNSt23_Sp_counted_ptr_inplaceINSt10filesystem4_DirESaIS1_ELN9__gnu_cxx12_Lock_policyE2EED0Ev" PURGE="-1" COMMENT="" />
    <EXPORT ORDINAL="4148" NAME="_ZNSt23_Sp_counted_ptr_inplaceINSt10filesystem4_DirESaIS1_ELN9__gnu_cxx12_Lock_policyE2EED1Ev" PURGE="0" COMMENT="" />
    <EXPORT ORDINAL="4149" NAME="_ZNSt23_Sp_counted_ptr_inplaceINSt10filesystem7__cxx1116filesystem_error5_ImplESaIS3_ELN9__gnu_cxx12_Lock_policyE2EE10_M_destroyEv" PURGE="-1" COMMENT="" />
    <EXPORT ORDINAL="4150" NAME="_ZNSt23_Sp_counted_ptr_inplaceINSt10filesystem7__cxx1116filesystem_error5_ImplESaIS3_ELN9__gnu_cxx12_Lock_policyE2EE10_M_disposeEv" PURGE="0" COMMENT="" />
    <EXPORT ORDINAL="4151" NAME="_ZNSt23_Sp_counted_ptr_inplaceINSt10filesystem7__cxx1116filesystem_error5_ImplESaIS3_ELN9__gnu_cxx12_Lock_policyE2EE14_M_get_deleterERKSt9type_info" PURGE="0" COMMENT="" />
    <EXPORT ORDINAL="4152" NAME="_ZNSt23_Sp_counted_ptr_inplaceINSt10filesystem7__cxx1116filesystem_error5_ImplESaIS3_ELN9__gnu_cxx12_Lock_policyE2EED0Ev" PURGE="-1" COMMENT="" />
    <EXPORT ORDINAL="4153" NAME="_ZNSt23_Sp_counted_ptr_inplaceINSt10filesystem7__cxx1116filesystem_error5_ImplESaIS3_ELN9__gnu_cxx12_Lock_policyE2EED1Ev" PURGE="0" COMMENT="" />
    <EXPORT ORDINAL="4154" NAME="_ZNSt23_Sp_counted_ptr_inplaceINSt10filesystem7__cxx1128recursive_directory_iterator10_Dir_stackESaIS3_ELN9__gnu_cxx12_Lock_policyE2EE10_M_destroyEv" PURGE="-1" COMMENT="" />
    <EXPORT ORDINAL="4155" NAME="_ZNSt23_Sp_counted_ptr_inplaceINSt10filesystem7__cxx1128recursive_directory_iterator10_Dir_stackESaIS3_ELN9__gnu_cxx12_Lock_policyE2EE10_M_disposeEv" PURGE="0" COMMENT="" />
    <EXPORT ORDINAL="4156" NAME="_ZNSt23_Sp_counted_ptr_inplaceINSt10filesystem7__cxx1128recursive_directory_iterator10_Dir_stackESaIS3_ELN9__gnu_cxx12_Lock_policyE2EE14_M_get_deleterERKSt9type_info" PURGE="0" COMMENT="" />
    <EXPORT ORDINAL="4157" NAME="_ZNSt23_Sp_counted_ptr_inplaceINSt10filesystem7__cxx1128recursive_directory_iterator10_Dir_stackESaIS3_ELN9__gnu_cxx12_Lock_policyE2EED0Ev" PURGE="-1" COMMENT="" />
    <EXPORT ORDINAL="4158" NAME="_ZNSt23_Sp_counted_ptr_inplaceINSt10filesystem7__cxx1128recursive_directory_iterator10_Dir_stackESaIS3_ELN9__gnu_cxx12_Lock_policyE2EED1Ev" PURGE="0" COMMENT="" />
    <EXPORT ORDINAL="4159" NAME="_ZNSt23_Sp_counted_ptr_inplaceINSt10filesystem7__cxx114_DirESaIS2_ELN9__gnu_cxx12_Lock_policyE2EE10_M_destroyEv" PURGE="-1" COMMENT="" />
    <EXPORT ORDINAL="4160" NAME="_ZNSt23_Sp_counted_ptr_inplaceINSt10filesystem7__cxx114_DirESaIS2_ELN9__gnu_cxx12_Lock_policyE2EE10_M_disposeEv" PURGE="0" COMMENT="" />
    <EXPORT ORDINAL="4161" NAME="_ZNSt23_Sp_counted_ptr_inplaceINSt10filesystem7__cxx114_DirESaIS2_ELN9__gnu_cxx12_Lock_policyE2EE14_M_get_deleterERKSt9type_info" PURGE="0" COMMENT="" />
    <EXPORT ORDINAL="4162" NAME="_ZNSt23_Sp_counted_ptr_inplaceINSt10filesystem7__cxx114_DirESaIS2_ELN9__gnu_cxx12_Lock_policyE2EED0Ev" PURGE="-1" COMMENT="" />
    <EXPORT ORDINAL="4163" NAME="_ZNSt23_Sp_counted_ptr_inplaceINSt10filesystem7__cxx114_DirESaIS2_ELN9__gnu_cxx12_Lock_policyE2EED1Ev" PURGE="0" COMMENT="" />
    <EXPORT ORDINAL="4164" NAME="_ZNSt23_Sp_counted_ptr_inplaceINSt6chrono9tzdb_list5_NodeESaIvELN9__gnu_cxx12_Lock_policyE2EE10_M_destroyEv" PURGE="-1" COMMENT="" />
    <EXPORT ORDINAL="4165" NAME="_ZNSt23_Sp_counted_ptr_inplaceINSt6chrono9tzdb_list5_NodeESaIvELN9__gnu_cxx12_Lock_policyE2EE10_M_disposeEv" PURGE="0" COMMENT="" />
    <EXPORT ORDINAL="4166" NAME="_ZNSt23_Sp_counted_ptr_inplaceINSt6chrono9tzdb_list5_NodeESaIvELN9__gnu_cxx12_Lock_policyE2EE14_M_get_deleterERKSt9type_info" PURGE="0" COMMENT="" />
    <EXPORT ORDINAL="4167" NAME="_ZNSt23_Sp_counted_ptr_inplaceINSt6chrono9tzdb_list5_NodeESaIvELN9__gnu_cxx12_Lock_policyE2EED0Ev" PURGE="-1" COMMENT="" />
    <EXPORT ORDINAL="4168" NAME="_ZNSt23_Sp_counted_ptr_inplaceINSt6chrono9tzdb_list5_NodeESaIvELN9__gnu_cxx12_Lock_policyE2EED1Ev" PURGE="0" COMMENT="" />
    <EXPORT ORDINAL="4169" NAME="_ZNSt25__codecvt_utf8_utf16_baseIDiED0Ev" PURGE="-1" COMMENT="" />
    <EXPORT ORDINAL="4170" NAME="_ZNSt25__codecvt_utf8_utf16_baseIDiED1Ev" PURGE="0" COMMENT="" />
    <EXPORT ORDINAL="4171" NAME="_ZNSt25__codecvt_utf8_utf16_baseIDiED2Ev" PURGE="0" COMMENT="" />
    <EXPORT ORDINAL="4172" NAME="_ZNSt25__codecvt_utf8_utf16_baseIDsED0Ev" PURGE="-1" COMMENT="" />
    <EXPORT ORDINAL="4173" NAME="_ZNSt25__codecvt_utf8_utf16_baseIDsED1Ev" PURGE="0" COMMENT="" />
    <EXPORT ORDINAL="4174" NAME="_ZNSt25__codecvt_utf8_utf16_baseIDsED2Ev" PURGE="0" COMMENT="" />
    <EXPORT ORDINAL="4175" NAME="_ZNSt25__codecvt_utf8_utf16_baseIwED0Ev" PURGE="-1" COMMENT="" />
    <EXPORT ORDINAL="4176" NAME="_ZNSt25__codecvt_utf8_utf16_baseIwED1Ev" PURGE="0" COMMENT="" />
    <EXPORT ORDINAL="4177" NAME="_ZNSt25__codecvt_utf8_utf16_baseIwED2Ev" PURGE="0" COMMENT="" />
    <EXPORT ORDINAL="4178" NAME="_ZNSt3_V214error_categoryD0Ev" PURGE="-1" COMMENT="" />
    <EXPORT ORDINAL="4179" NAME="_ZNSt3_V214error_categoryD1Ev" PURGE="0" COMMENT="" />
    <EXPORT ORDINAL="4180" NAME="_ZNSt3_V214error_categoryD2Ev" PURGE="0" COMMENT="" />
    <EXPORT ORDINAL="4181" NAME="_ZNSt3_V215system_categoryEv" PURGE="0" COMMENT="" />
    <EXPORT ORDINAL="4182" NAME="_ZNSt3_V216generic_categoryEv" PURGE="0" COMMENT="" />
    <EXPORT ORDINAL="4183" NAME="_ZNSt3pmr15__pool_resource10deallocateEPvyy" PURGE="0" COMMENT="" />
    <EXPORT ORDINAL="4184" NAME="_ZNSt3pmr15__pool_resource14_M_alloc_poolsEv" PURGE="0" COMMENT="" />
    <EXPORT ORDINAL="4185" NAME="_ZNSt3pmr15__pool_resource5_Pool12try_allocateEv" PURGE="0" COMMENT="" />
    <EXPORT ORDINAL="4186" NAME="_ZNSt3pmr15__pool_resource5_Pool9replenishEPNS_15memory_resourceERKNS_12pool_optionsE" PURGE="0" COMMENT="" />
    <EXPORT ORDINAL="4187" NAME="_ZNSt3pmr15__pool_resource7releaseEv" PURGE="0" COMMENT="" />
    <EXPORT ORDINAL="4188" NAME="_ZNSt3pmr15__pool_resource8allocateEyy" PURGE="0" COMMENT="" />
    <EXPORT ORDINAL="4189" NAME="_ZNSt3pmr15__pool_resourceC1ERKNS_12pool_optionsEPNS_15memory_resourceE" PURGE="0" COMMENT="" />
    <EXPORT ORDINAL="4190" NAME="_ZNSt3pmr15__pool_resourceC2ERKNS_12pool_optionsEPNS_15memory_resourceE" PURGE="0" COMMENT="" />
    <EXPORT ORDINAL="4191" NAME="_ZNSt3pmr15__pool_resourceD1Ev" PURGE="0" COMMENT="" />
    <EXPORT ORDINAL="4192" NAME="_ZNSt3pmr15__pool_resourceD2Ev" PURGE="0" COMMENT="" />
    <EXPORT ORDINAL="4193" NAME="_ZNSt3pmr15memory_resourceD0Ev" PURGE="-1" COMMENT="" />
    <EXPORT ORDINAL="4194" NAME="_ZNSt3pmr15memory_resourceD1Ev" PURGE="0" COMMENT="" />
    <EXPORT ORDINAL="4195" NAME="_ZNSt3pmr15memory_resourceD2Ev" PURGE="0" COMMENT="" />
    <EXPORT ORDINAL="4196" NAME="_ZNSt3pmr19new_delete_resourceEv" PURGE="0" COMMENT="" />
    <EXPORT ORDINAL="4197" NAME="_ZNSt3pmr20get_default_resourceEv" PURGE="0" COMMENT="" />
    <EXPORT ORDINAL="4198" NAME="_ZNSt3pmr20null_memory_resourceEv" PURGE="0" COMMENT="" />
    <EXPORT ORDINAL="4199" NAME="_ZNSt3pmr20set_default_resourceEPNS_15memory_resourceE" PURGE="0" COMMENT="" />
    <EXPORT ORDINAL="4200" NAME="_ZNSt3pmr25monotonic_buffer_resource11do_allocateEyy" PURGE="0" COMMENT="" />
    <EXPORT ORDINAL="4201" NAME="_ZNSt3pmr25monotonic_buffer_resource13_M_new_bufferEyy" PURGE="0" COMMENT="" />
    <EXPORT ORDINAL="4202" NAME="_ZNSt3pmr25monotonic_buffer_resource13do_deallocateEPvyy" PURGE="0" COMMENT="" />
    <EXPORT ORDINAL="4203" NAME="_ZNSt3pmr25monotonic_buffer_resource18_M_release_buffersEv" PURGE="0" COMMENT="" />
    <EXPORT ORDINAL="4204" NAME="_ZNSt3pmr25monotonic_buffer_resourceD0Ev" PURGE="-1" COMMENT="" />
    <EXPORT ORDINAL="4205" NAME="_ZNSt3pmr25monotonic_buffer_resourceD1Ev" PURGE="0" COMMENT="" />
    <EXPORT ORDINAL="4206" NAME="_ZNSt3pmr25monotonic_buffer_resourceD2Ev" PURGE="0" COMMENT="" />
    <EXPORT ORDINAL="4207" NAME="_ZNSt3pmr26synchronized_pool_resource11do_allocateEyy" PURGE="0" COMMENT="" />
    <EXPORT ORDINAL="4208" NAME="_ZNSt3pmr26synchronized_pool_resource13do_deallocateEPvyy" PURGE="0" COMMENT="" />
    <EXPORT ORDINAL="4209" NAME="_ZNSt3pmr26synchronized_pool_resource15_M_alloc_tpoolsERSt10lock_guardISt12shared_mutexE" PURGE="0" COMMENT="" />
    <EXPORT ORDINAL="4210" NAME="_ZNSt3pmr26synchronized_pool_resource22_M_alloc_shared_tpoolsERSt10lock_guardISt12shared_mutexE" PURGE="0" COMMENT="" />
    <EXPORT ORDINAL="4211" NAME="_ZNSt3pmr26synchronized_pool_resource24_M_thread_specific_poolsEv" PURGE="0" COMMENT="" />
    <EXPORT ORDINAL="4212" NAME="_ZNSt3pmr26synchronized_pool_resource7_TPoolsD1Ev" PURGE="0" COMMENT="" />
    <EXPORT ORDINAL="4213" NAME="_ZNSt3pmr26synchronized_pool_resource7releaseEv" PURGE="0" COMMENT="" />
    <EXPORT ORDINAL="4214" NAME="_ZNSt3pmr26synchronized_pool_resourceC1ERKNS_12pool_optionsEPNS_15memory_resourceE" PURGE="0" COMMENT="" />
    <EXPORT ORDINAL="4215" NAME="_ZNSt3pmr26synchronized_pool_resourceC2ERKNS_12pool_optionsEPNS_15memory_resourceE" PURGE="0" COMMENT="" />
    <EXPORT ORDINAL="4216" NAME="_ZNSt3pmr26synchronized_pool_resourceD0Ev" PURGE="-1" COMMENT="" />
    <EXPORT ORDINAL="4217" NAME="_ZNSt3pmr26synchronized_pool_resourceD1Ev" PURGE="0" COMMENT="" />
    <EXPORT ORDINAL="4218" NAME="_ZNSt3pmr26synchronized_pool_resourceD2Ev" PURGE="0" COMMENT="" />
    <EXPORT ORDINAL="4219" NAME="_ZNSt3pmr28unsynchronized_pool_resource11do_allocateEyy" PURGE="0" COMMENT="" />
    <EXPORT ORDINAL="4220" NAME="_ZNSt3pmr28unsynchronized_pool_resource12_M_find_poolEy" PURGE="0" COMMENT="" />
    <EXPORT ORDINAL="4221" NAME="_ZNSt3pmr28unsynchronized_pool_resource13do_deallocateEPvyy" PURGE="0" COMMENT="" />
    <EXPORT ORDINAL="4222" NAME="_ZNSt3pmr28unsynchronized_pool_resource7releaseEv" PURGE="0" COMMENT="" />
    <EXPORT ORDINAL="4223" NAME="_ZNSt3pmr28unsynchronized_pool_resourceC1ERKNS_12pool_optionsEPNS_15memory_resourceE" PURGE="0" COMMENT="" />
    <EXPORT ORDINAL="4224" NAME="_ZNSt3pmr28unsynchronized_pool_resourceC2ERKNS_12pool_optionsEPNS_15memory_resourceE" PURGE="0" COMMENT="" />
    <EXPORT ORDINAL="4225" NAME="_ZNSt3pmr28unsynchronized_pool_resourceD0Ev" PURGE="-1" COMMENT="" />
    <EXPORT ORDINAL="4226" NAME="_ZNSt3pmr28unsynchronized_pool_resourceD1Ev" PURGE="0" COMMENT="" />
    <EXPORT ORDINAL="4227" NAME="_ZNSt3pmr28unsynchronized_pool_resourceD2Ev" PURGE="0" COMMENT="" />
    <EXPORT ORDINAL="4228" NAME="_ZNSt3tr18__detail12__prime_listE" PURGE="-1" COMMENT="" />
    <EXPORT ORDINAL="4229" NAME="_ZNSt5__padIcSt11char_traitsIcEE6_S_padERSt8ios_basecPcPKcxx" PURGE="0" COMMENT="" />
    <EXPORT ORDINAL="4230" NAME="_ZNSt5__padIwSt11char_traitsIwEE6_S_padERSt8ios_basewPwPKwxx" PURGE="0" COMMENT="" />
    <EXPORT ORDINAL="4231" NAME="_ZNSt5ctypeIcE10table_sizeE" PURGE="-1" COMMENT="" />
    <EXPORT ORDINAL="4232" NAME="_ZNSt5ctypeIcE13classic_tableEv" PURGE="0" COMMENT="" />
    <EXPORT ORDINAL="4233" NAME="_ZNSt5ctypeIcE2idE" PURGE="-1" COMMENT="" />
    <EXPORT ORDINAL="4234" NAME="_ZNSt5ctypeIcEC1EPKtby" PURGE="0" COMMENT="" />
    <EXPORT ORDINAL="4235" NAME="_ZNSt5ctypeIcEC1EPiPKtby" PURGE="0" COMMENT="" />
    <EXPORT ORDINAL="4236" NAME="_ZNSt5ctypeIcEC2EPKtby" PURGE="0" COMMENT="" />
    <EXPORT ORDINAL="4237" NAME="_ZNSt5ctypeIcEC2EPiPKtby" PURGE="0" COMMENT="" />
    <EXPORT ORDINAL="4238" NAME="_ZNSt5ctypeIcED0Ev" PURGE="-1" COMMENT="" />
    <EXPORT ORDINAL="4239" NAME="_ZNSt5ctypeIcED1Ev" PURGE="0" COMMENT="" />
    <EXPORT ORDINAL="4240" NAME="_ZNSt5ctypeIcED2Ev" PURGE="0" COMMENT="" />
    <EXPORT ORDINAL="4241" NAME="_ZNSt5ctypeIwE19_M_initialize_ctypeEv" PURGE="0" COMMENT="" />
    <EXPORT ORDINAL="4242" NAME="_ZNSt5ctypeIwE2idE" PURGE="-1" COMMENT="" />
    <EXPORT ORDINAL="4243" NAME="_ZNSt5ctypeIwEC1EPiy" PURGE="0" COMMENT="" />
    <EXPORT ORDINAL="4244" NAME="_ZNSt5ctypeIwEC1Ey" PURGE="0" COMMENT="" />
    <EXPORT ORDINAL="4245" NAME="_ZNSt5ctypeIwEC2EPiy" PURGE="0" COMMENT="" />
    <EXPORT ORDINAL="4246" NAME="_ZNSt5ctypeIwEC2Ey" PURGE="0" COMMENT="" />
    <EXPORT ORDINAL="4247" NAME="_ZNSt5ctypeIwED0Ev" PURGE="-1" COMMENT="" />
    <EXPORT ORDINAL="4248" NAME="_ZNSt5ctypeIwED1Ev" PURGE="0" COMMENT="" />
    <EXPORT ORDINAL="4249" NAME="_ZNSt5ctypeIwED2Ev" PURGE="0" COMMENT="" />
    <EXPORT ORDINAL="4250" NAME="_ZNSt5dequeINSt10filesystem4_DirESaIS1_EE12emplace_backIJS1_EEERS1_DpOT_" PURGE="0" COMMENT="" />
    <EXPORT ORDINAL="4251" NAME="_ZNSt5dequeINSt10filesystem4_DirESaIS1_EED1Ev" PURGE="0" COMMENT="" />
    <EXPORT ORDINAL="4252" NAME="_ZNSt5dequeINSt10filesystem4pathESaIS1_EE12emplace_backIJS1_EEERS1_DpOT_" PURGE="0" COMMENT="" />
    <EXPORT ORDINAL="4253" NAME="_ZNSt5dequeINSt10filesystem4pathESaIS1_EE13_M_insert_auxINS1_8iteratorEEEvSt15_Deque_iteratorIS1_RS1_PS1_ET_SA_y" PURGE="0" COMMENT="" />
    <EXPORT ORDINAL="4254" NAME="_ZNSt5dequeINSt10filesystem4pathESaIS1_EE16_M_push_back_auxIJRKS1_EEEvDpOT_" PURGE="0" COMMENT="" />
    <EXPORT ORDINAL="4255" NAME="_ZNSt5dequeINSt10filesystem4pathESaIS1_EE17_M_reallocate_mapEyb" PURGE="0" COMMENT="" />
    <EXPORT ORDINAL="4256" NAME="_ZNSt5dequeINSt10filesystem4pathESaIS1_EE23_M_new_elements_at_backEy" PURGE="0" COMMENT="" />
    <EXPORT ORDINAL="4257" NAME="_ZNSt5dequeINSt10filesystem4pathESaIS1_EE24_M_new_elements_at_frontEy" PURGE="0" COMMENT="" />
    <EXPORT ORDINAL="4258" NAME="_ZNSt5dequeINSt10filesystem4pathESaIS1_EED1Ev" PURGE="0" COMMENT="" />
    <EXPORT ORDINAL="4259" NAME="_ZNSt5dequeINSt10filesystem7__cxx114_DirESaIS2_EE12emplace_backIJS2_EEERS2_DpOT_" PURGE="0" COMMENT="" />
    <EXPORT ORDINAL="4260" NAME="_ZNSt5dequeINSt10filesystem7__cxx114_DirESaIS2_EED1Ev" PURGE="0" COMMENT="" />
    <EXPORT ORDINAL="4261" NAME="_ZNSt5dequeINSt10filesystem7__cxx114pathESaIS2_EE16_M_push_back_auxIJRKS2_EEEvDpOT_" PURGE="0" COMMENT="" />
    <EXPORT ORDINAL="4262" NAME="_ZNSt5dequeINSt10filesystem7__cxx114pathESaIS2_EE17_M_reallocate_mapEyb" PURGE="0" COMMENT="" />
    <EXPORT ORDINAL="4263" NAME="_ZNSt5dequeINSt10filesystem7__cxx114pathESaIS2_EED1Ev" PURGE="0" COMMENT="" />
    <EXPORT ORDINAL="4264" NAME="_ZNSt6__norm15_List_node_base10_M_reverseEv" PURGE="0" COMMENT="" />
    <EXPORT ORDINAL="4265" NAME="_ZNSt6__norm15_List_node_base11_M_transferEPS0_S1_" PURGE="0" COMMENT="" />
    <EXPORT ORDINAL="4266" NAME="_ZNSt6__norm15_List_node_base4hookEPS0_" PURGE="0" COMMENT="" />
    <EXPORT ORDINAL="4267" NAME="_ZNSt6__norm15_List_node_base4swapERS0_S1_" PURGE="0" COMMENT="" />
    <EXPORT ORDINAL="4268" NAME="_ZNSt6__norm15_List_node_base6unhookEv" PURGE="0" COMMENT="" />
    <EXPORT ORDINAL="4269" NAME="_ZNSt6__norm15_List_node_base7_M_hookEPS0_" PURGE="0" COMMENT="" />
    <EXPORT ORDINAL="4270" NAME="_ZNSt6__norm15_List_node_base7reverseEv" PURGE="0" COMMENT="" />
    <EXPORT ORDINAL="4271" NAME="_ZNSt6__norm15_List_node_base8transferEPS0_S1_" PURGE="0" COMMENT="" />
    <EXPORT ORDINAL="4272" NAME="_ZNSt6__norm15_List_node_base9_M_unhookEv" PURGE="0" COMMENT="" />
    <EXPORT ORDINAL="4273" NAME="_ZNSt6chrono11locate_zoneESt17basic_string_viewIcSt11char_traitsIcEE" PURGE="0" COMMENT="" />
    <EXPORT ORDINAL="4274" NAME="_ZNSt6chrono11reload_tzdbEv" PURGE="0" COMMENT="" />
    <EXPORT ORDINAL="4275" NAME="_ZNSt6chrono12current_zoneEv" PURGE="0" COMMENT="" />
    <EXPORT ORDINAL="4276" NAME="_ZNSt6chrono12system_clock12is_monotonicE" PURGE="-1" COMMENT="" />
    <EXPORT ORDINAL="4277" NAME="_ZNSt6chrono12system_clock3nowEv" PURGE="0" COMMENT="" />
    <EXPORT ORDINAL="4278" NAME="_ZNSt6chrono12system_clock9is_steadyE" PURGE="-1" COMMENT="" />
    <EXPORT ORDINAL="4279" NAME="_ZNSt6chrono13get_tzdb_listEv" PURGE="0" COMMENT="" />
    <EXPORT ORDINAL="4280" NAME="_ZNSt6chrono14remote_versionB5cxx11Ev" PURGE="0" COMMENT="" />
    <EXPORT ORDINAL="4281" NAME="_ZNSt6chrono3_V212steady_clock3nowEv" PURGE="0" COMMENT="" />
    <EXPORT ORDINAL="4282" NAME="_ZNSt6chrono3_V212steady_clock9is_steadyE" PURGE="-1" COMMENT="" />
    <EXPORT ORDINAL="4283" NAME="_ZNSt6chrono3_V212system_clock3nowEv" PURGE="0" COMMENT="" />
    <EXPORT ORDINAL="4284" NAME="_ZNSt6chrono3_V212system_clock9is_steadyE" PURGE="-1" COMMENT="" />
    <EXPORT ORDINAL="4285" NAME="_ZNSt6chrono8get_tzdbEv" PURGE="0" COMMENT="" />
    <EXPORT ORDINAL="4286" NAME="_ZNSt6chrono9time_zoneC1ESt10unique_ptrINS0_5_ImplESt14default_deleteIS2_EE" PURGE="0" COMMENT="" />
    <EXPORT ORDINAL="4287" NAME="_ZNSt6chrono9time_zoneC2ESt10unique_ptrINS0_5_ImplESt14default_deleteIS2_EE" PURGE="0" COMMENT="" />
    <EXPORT ORDINAL="4288" NAME="_ZNSt6chrono9time_zoneD1Ev" PURGE="0" COMMENT="" />
    <EXPORT ORDINAL="4289" NAME="_ZNSt6chrono9time_zoneD2Ev" PURGE="0" COMMENT="" />
    <EXPORT ORDINAL="4290" NAME="_ZNSt6chrono9tzdb_list11erase_afterENS0_14const_iteratorE" PURGE="0" COMMENT="" />
    <EXPORT ORDINAL="4291" NAME="_ZNSt6chrono9tzdb_list14const_iteratorppEi" PURGE="0" COMMENT="" />
    <EXPORT ORDINAL="4292" NAME="_ZNSt6chrono9tzdb_list14const_iteratorppEv" PURGE="0" COMMENT="" />
    <EXPORT ORDINAL="4293" NAME="_ZNSt6chrono9tzdb_list5_Node11_S_the_listE" PURGE="-1" COMMENT="" />
    <EXPORT ORDINAL="4294" NAME="_ZNSt6chrono9tzdb_list5_Node12_S_init_tzdbEv" PURGE="0" COMMENT="" />
    <EXPORT ORDINAL="4295" NAME="_ZNSt6chrono9tzdb_list5_Node13_S_head_cacheE" PURGE="-1" COMMENT="" />
    <EXPORT ORDINAL="4296" NAME="_ZNSt6chrono9tzdb_list5_Node13_S_head_ownerE" PURGE="-1" COMMENT="" />
    <EXPORT ORDINAL="4297" NAME="_ZNSt6chrono9tzdb_list5_Node15_S_replace_headESt10shared_ptrIS1_ES3_" PURGE="0" COMMENT="" />
    <EXPORT ORDINAL="4298" NAME="_ZNSt6chrono9tzdb_list5_Node20_S_read_leap_secondsEv" PURGE="0" COMMENT="" />
    <EXPORT ORDINAL="4299" NAME="_ZNSt6chronossERKNS_14time_zone_linkES2_" PURGE="0" COMMENT="" />
    <EXPORT ORDINAL="4300" NAME="_ZNSt6gslice8_IndexerC1EyRKSt8valarrayIyES4_" PURGE="0" COMMENT="" />
    <EXPORT ORDINAL="4301" NAME="_ZNSt6gslice8_IndexerC2EyRKSt8valarrayIyES4_" PURGE="0" COMMENT="" />
    <EXPORT ORDINAL="4302" NAME="_ZNSt6locale10_S_classicE" PURGE="-1" COMMENT="" />
    <EXPORT ORDINAL="4303" NAME="_ZNSt6locale11_M_coalesceERKS_S1_i" PURGE="0" COMMENT="" />
    <EXPORT ORDINAL="4304" NAME="_ZNSt6locale13_S_categoriesE" PURGE="-1" COMMENT="" />
    <EXPORT ORDINAL="4305" NAME="_ZNSt6locale13_S_initializeEv" PURGE="0" COMMENT="" />
    <EXPORT ORDINAL="4306" NAME="_ZNSt6locale17_S_twinned_facetsE" PURGE="-1" COMMENT="" />
    <EXPORT ORDINAL="4307" NAME="_ZNSt6locale18_S_initialize_onceEv" PURGE="0" COMMENT="" />
    <EXPORT ORDINAL="4308" NAME="_ZNSt6locale21_S_normalize_categoryEi" PURGE="0" COMMENT="" />
    <EXPORT ORDINAL="4309" NAME="_ZNSt6locale2id11_S_refcountE" PURGE="-1" COMMENT="" />
    <EXPORT ORDINAL="4310" NAME="_ZNSt6locale3allE" PURGE="-1" COMMENT="" />
    <EXPORT ORDINAL="4311" NAME="_ZNSt6locale4noneE" PURGE="-1" COMMENT="" />
    <EXPORT ORDINAL="4312" NAME="_ZNSt6locale4timeE" PURGE="-1" COMMENT="" />
    <EXPORT ORDINAL="4313" NAME="_ZNSt6locale5_Impl10_S_id_timeE" PURGE="-1" COMMENT="" />
    <EXPORT ORDINAL="4314" NAME="_ZNSt6locale5_Impl11_S_id_ctypeE" PURGE="-1" COMMENT="" />
    <EXPORT ORDINAL="4315" NAME="_ZNSt6locale5_Impl13_M_init_extraEPPNS_5facetE" PURGE="0" COMMENT="" />
    <EXPORT ORDINAL="4316" NAME="_ZNSt6locale5_Impl13_M_init_extraEPvS1_PKcS3_" PURGE="0" COMMENT="" />
    <EXPORT ORDINAL="4317" NAME="_ZNSt6locale5_Impl13_S_id_collateE" PURGE="-1" COMMENT="" />
    <EXPORT ORDINAL="4318" NAME="_ZNSt6locale5_Impl13_S_id_numericE" PURGE="-1" COMMENT="" />
    <EXPORT ORDINAL="4319" NAME="_ZNSt6locale5_Impl14_S_id_messagesE" PURGE="-1" COMMENT="" />
    <EXPORT ORDINAL="4320" NAME="_ZNSt6locale5_Impl14_S_id_monetaryE" PURGE="-1" COMMENT="" />
    <EXPORT ORDINAL="4321" NAME="_ZNSt6locale5_Impl16_M_install_cacheEPKNS_5facetEy" PURGE="0" COMMENT="" />
    <EXPORT ORDINAL="4322" NAME="_ZNSt6locale5_Impl16_M_install_facetEPKNS_2idEPKNS_5facetE" PURGE="0" COMMENT="" />
    <EXPORT ORDINAL="4323" NAME="_ZNSt6locale5_Impl16_M_replace_facetEPKS0_PKNS_2idE" PURGE="0" COMMENT="" />
    <EXPORT ORDINAL="4324" NAME="_ZNSt6locale5_Impl19_M_replace_categoryEPKS0_PKPKNS_2idE" PURGE="0" COMMENT="" />
    <EXPORT ORDINAL="4325" NAME="_ZNSt6locale5_Impl19_S_facet_categoriesE" PURGE="-1" COMMENT="" />
    <EXPORT ORDINAL="4326" NAME="_ZNSt6locale5_Impl21_M_replace_categoriesEPKS0_i" PURGE="0" COMMENT="" />
    <EXPORT ORDINAL="4327" NAME="_ZNSt6locale5_ImplC1EPKcy" PURGE="0" COMMENT="" />
    <EXPORT ORDINAL="4328" NAME="_ZNSt6locale5_ImplC1ERKS0_y" PURGE="0" COMMENT="" />
    <EXPORT ORDINAL="4329" NAME="_ZNSt6locale5_ImplC1Ey" PURGE="0" COMMENT="" />
    <EXPORT ORDINAL="4330" NAME="_ZNSt6locale5_ImplC2EPKcy" PURGE="0" COMMENT="" />
    <EXPORT ORDINAL="4331" NAME="_ZNSt6locale5_ImplC2ERKS0_y" PURGE="0" COMMENT="" />
    <EXPORT ORDINAL="4332" NAME="_ZNSt6locale5_ImplC2Ey" PURGE="0" COMMENT="" />
    <EXPORT ORDINAL="4333" NAME="_ZNSt6locale5_ImplD1Ev" PURGE="0" COMMENT="" />
    <EXPORT ORDINAL="4334" NAME="_ZNSt6locale5_ImplD2Ev" PURGE="0" COMMENT="" />
    <EXPORT ORDINAL="4335" NAME="_ZNSt6locale5ctypeE" PURGE="-1" COMMENT="" />
    <EXPORT ORDINAL="4336" NAME="_ZNSt6locale5facet11_S_c_localeE" PURGE="-1" COMMENT="" />
    <EXPORT ORDINAL="4337" NAME="_ZNSt6locale5facet13_S_get_c_nameEv" PURGE="0" COMMENT="" />
    <EXPORT ORDINAL="4338" NAME="_ZNSt6locale5facet15_S_get_c_localeEv" PURGE="0" COMMENT="" />
    <EXPORT ORDINAL="4339" NAME="_ZNSt6locale5facet17_S_clone_c_localeERPi" PURGE="0" COMMENT="" />
    <EXPORT ORDINAL="4340" NAME="_ZNSt6locale5facet18_S_create_c_localeERPiPKcS1_" PURGE="0" COMMENT="" />
    <EXPORT ORDINAL="4341" NAME="_ZNSt6locale5facet18_S_initialize_onceEv" PURGE="0" COMMENT="" />
    <EXPORT ORDINAL="4342" NAME="_ZNSt6locale5facet19_S_destroy_c_localeERPi" PURGE="0" COMMENT="" />
    <EXPORT ORDINAL="4343" NAME="_ZNSt6locale5facet20_S_lc_ctype_c_localeEPiPKc" PURGE="0" COMMENT="" />
    <EXPORT ORDINAL="4344" NAME="_ZNSt6locale5facet7_S_onceE" PURGE="-1" COMMENT="" />
    <EXPORT ORDINAL="4345" NAME="_ZNSt6locale5facet9_S_c_nameE" PURGE="-1" COMMENT="" />
    <EXPORT ORDINAL="4346" NAME="_ZNSt6locale5facetD0Ev" PURGE="-1" COMMENT="" />
    <EXPORT ORDINAL="4347" NAME="_ZNSt6locale5facetD1Ev" PURGE="0" COMMENT="" />
    <EXPORT ORDINAL="4348" NAME="_ZNSt6locale5facetD2Ev" PURGE="0" COMMENT="" />
    <EXPORT ORDINAL="4349" NAME="_ZNSt6locale6globalERKS_" PURGE="0" COMMENT="" />
    <EXPORT ORDINAL="4350" NAME="_ZNSt6locale7_S_onceE" PURGE="-1" COMMENT="" />
    <EXPORT ORDINAL="4351" NAME="_ZNSt6locale7classicEv" PURGE="0" COMMENT="" />
    <EXPORT ORDINAL="4352" NAME="_ZNSt6locale7collateE" PURGE="-1" COMMENT="" />
    <EXPORT ORDINAL="4353" NAME="_ZNSt6locale7numericE" PURGE="-1" COMMENT="" />
    <EXPORT ORDINAL="4354" NAME="_ZNSt6locale8messagesE" PURGE="-1" COMMENT="" />
    <EXPORT ORDINAL="4355" NAME="_ZNSt6locale8monetaryE" PURGE="-1" COMMENT="" />
    <EXPORT ORDINAL="4356" NAME="_ZNSt6locale9_S_globalE" PURGE="-1" COMMENT="" />
    <EXPORT ORDINAL="4357" NAME="_ZNSt6localeC1EPKc" PURGE="0" COMMENT="" />
    <EXPORT ORDINAL="4358" NAME="_ZNSt6localeC1EPNS_5_ImplE" PURGE="0" COMMENT="" />
    <EXPORT ORDINAL="4359" NAME="_ZNSt6localeC1ERKS_" PURGE="0" COMMENT="" />
    <EXPORT ORDINAL="4360" NAME="_ZNSt6localeC1ERKS_PKci" PURGE="0" COMMENT="" />
    <EXPORT ORDINAL="4361" NAME="_ZNSt6localeC1ERKS_S1_i" PURGE="0" COMMENT="" />
    <EXPORT ORDINAL="4362" NAME="_ZNSt6localeC1Ev" PURGE="0" COMMENT="" />
    <EXPORT ORDINAL="4363" NAME="_ZNSt6localeC2EPKc" PURGE="0" COMMENT="" />
    <EXPORT ORDINAL="4364" NAME="_ZNSt6localeC2EPNS_5_ImplE" PURGE="0" COMMENT="" />
    <EXPORT ORDINAL="4365" NAME="_ZNSt6localeC2ERKS_" PURGE="0" COMMENT="" />
    <EXPORT ORDINAL="4366" NAME="_ZNSt6localeC2ERKS_PKci" PURGE="0" COMMENT="" />
    <EXPORT ORDINAL="4367" NAME="_ZNSt6localeC2ERKS_S1_i" PURGE="0" COMMENT="" />
    <EXPORT ORDINAL="4368" NAME="_ZNSt6localeC2Ev" PURGE="0" COMMENT="" />
    <EXPORT ORDINAL="4369" NAME="_ZNSt6localeD1Ev" PURGE="0" COMMENT="" />
    <EXPORT ORDINAL="4370" NAME="_ZNSt6localeD2Ev" PURGE="0" COMMENT="" />
    <EXPORT ORDINAL="4371" NAME="_ZNSt6localeaSERKS_" PURGE="0" COMMENT="" />
    <EXPORT ORDINAL="4372" NAME="_ZNSt6thread15_M_start_threadESt10shared_ptrINS_10_Impl_baseEE" PURGE="0" COMMENT="" />
    <EXPORT ORDINAL="4373" NAME="_ZNSt6thread15_M_start_threadESt10shared_ptrINS_10_Impl_baseEEPFvvE" PURGE="0" COMMENT="" />
    <EXPORT ORDINAL="4374" NAME="_ZNSt6thread15_M_start_threadESt10unique_ptrINS_6_StateESt14default_deleteIS1_EEPFvvE" PURGE="0" COMMENT="" />
    <EXPORT ORDINAL="4375" NAME="_ZNSt6thread20hardware_concurrencyEv" PURGE="0" COMMENT="" />
    <EXPORT ORDINAL="4376" NAME="_ZNSt6thread4joinEv" PURGE="0" COMMENT="" />
    <EXPORT ORDINAL="4377" NAME="_ZNSt6thread6_StateD0Ev" PURGE="-1" COMMENT="" />
    <EXPORT ORDINAL="4378" NAME="_ZNSt6thread6_StateD1Ev" PURGE="0" COMMENT="" />
    <EXPORT ORDINAL="4379" NAME="_ZNSt6thread6_StateD2Ev" PURGE="0" COMMENT="" />
    <EXPORT ORDINAL="4380" NAME="_ZNSt6thread6detachEv" PURGE="0" COMMENT="" />
    <EXPORT ORDINAL="4381" NAME="_ZNSt6vectorINSt3pmr15__pool_resource9_BigBlockENS0_21polymorphic_allocatorIS2_EEE17_M_realloc_insertIJRyS7_EEEvN9__gnu_cxx17__normal_iteratorIPS2_S5_EEDpOT_" PURGE="0" COMMENT="" />
    <EXPORT ORDINAL="4382" NAME="_ZNSt6vectorINSt6chrono14time_zone_linkESaIS1_EE12emplace_backIJS1_EEERS1_DpOT_" PURGE="0" COMMENT="" />
    <EXPORT ORDINAL="4383" NAME="_ZNSt6vectorINSt6chrono9time_zoneESaIS1_EE12emplace_backIJS1_EEERS1_DpOT_" PURGE="0" COMMENT="" />
    <EXPORT ORDINAL="4384" NAME="_ZNSt6vectorISt4pairINSt6chrono8sys_infoESt17basic_string_viewIcSt11char_traitsIcEEESaIS7_EE17_M_realloc_insertIJRS2_RS6_EEEvN9__gnu_cxx17__normal_iteratorIPS7_S9_EEDpOT_" PURGE="0" COMMENT="" />
    <EXPORT ORDINAL="4385" NAME="_ZNSt7__cxx1110moneypunctIcLb0EE24_M_initialize_moneypunctEPiPKc" PURGE="0" COMMENT="" />
    <EXPORT ORDINAL="4386" NAME="_ZNSt7__cxx1110moneypunctIcLb0EE2idE" PURGE="-1" COMMENT="" />
    <EXPORT ORDINAL="4387" NAME="_ZNSt7__cxx1110moneypunctIcLb0EE4intlE" PURGE="-1" COMMENT="" />
    <EXPORT ORDINAL="4388" NAME="_ZNSt7__cxx1110moneypunctIcLb0EEC1EPSt18__moneypunct_cacheIcLb0EEy" PURGE="0" COMMENT="" />
    <EXPORT ORDINAL="4389" NAME="_ZNSt7__cxx1110moneypunctIcLb0EEC1EPiPKcy" PURGE="0" COMMENT="" />
    <EXPORT ORDINAL="4390" NAME="_ZNSt7__cxx1110moneypunctIcLb0EEC1Ey" PURGE="0" COMMENT="" />
    <EXPORT ORDINAL="4391" NAME="_ZNSt7__cxx1110moneypunctIcLb0EEC2EPSt18__moneypunct_cacheIcLb0EEy" PURGE="0" COMMENT="" />
    <EXPORT ORDINAL="4392" NAME="_ZNSt7__cxx1110moneypunctIcLb0EEC2EPiPKcy" PURGE="0" COMMENT="" />
    <EXPORT ORDINAL="4393" NAME="_ZNSt7__cxx1110moneypunctIcLb0EEC2Ey" PURGE="0" COMMENT="" />
    <EXPORT ORDINAL="4394" NAME="_ZNSt7__cxx1110moneypunctIcLb0EED0Ev" PURGE="-1" COMMENT="" />
    <EXPORT ORDINAL="4395" NAME="_ZNSt7__cxx1110moneypunctIcLb0EED1Ev" PURGE="0" COMMENT="" />
    <EXPORT ORDINAL="4396" NAME="_ZNSt7__cxx1110moneypunctIcLb0EED2Ev" PURGE="0" COMMENT="" />
    <EXPORT ORDINAL="4397" NAME="_ZNSt7__cxx1110moneypunctIcLb1EE24_M_initialize_moneypunctEPiPKc" PURGE="0" COMMENT="" />
    <EXPORT ORDINAL="4398" NAME="_ZNSt7__cxx1110moneypunctIcLb1EE2idE" PURGE="-1" COMMENT="" />
    <EXPORT ORDINAL="4399" NAME="_ZNSt7__cxx1110moneypunctIcLb1EE4intlE" PURGE="-1" COMMENT="" />
    <EXPORT ORDINAL="4400" NAME="_ZNSt7__cxx1110moneypunctIcLb1EEC1EPSt18__moneypunct_cacheIcLb1EEy" PURGE="0" COMMENT="" />
    <EXPORT ORDINAL="4401" NAME="_ZNSt7__cxx1110moneypunctIcLb1EEC1EPiPKcy" PURGE="0" COMMENT="" />
    <EXPORT ORDINAL="4402" NAME="_ZNSt7__cxx1110moneypunctIcLb1EEC1Ey" PURGE="0" COMMENT="" />
    <EXPORT ORDINAL="4403" NAME="_ZNSt7__cxx1110moneypunctIcLb1EEC2EPSt18__moneypunct_cacheIcLb1EEy" PURGE="0" COMMENT="" />
    <EXPORT ORDINAL="4404" NAME="_ZNSt7__cxx1110moneypunctIcLb1EEC2EPiPKcy" PURGE="0" COMMENT="" />
    <EXPORT ORDINAL="4405" NAME="_ZNSt7__cxx1110moneypunctIcLb1EEC2Ey" PURGE="0" COMMENT="" />
    <EXPORT ORDINAL="4406" NAME="_ZNSt7__cxx1110moneypunctIcLb1EED0Ev" PURGE="-1" COMMENT="" />
    <EXPORT ORDINAL="4407" NAME="_ZNSt7__cxx1110moneypunctIcLb1EED1Ev" PURGE="0" COMMENT="" />
    <EXPORT ORDINAL="4408" NAME="_ZNSt7__cxx1110moneypunctIcLb1EED2Ev" PURGE="0" COMMENT="" />
    <EXPORT ORDINAL="4409" NAME="_ZNSt7__cxx1110moneypunctIwLb0EE24_M_initialize_moneypunctEPiPKc" PURGE="0" COMMENT="" />
    <EXPORT ORDINAL="4410" NAME="_ZNSt7__cxx1110moneypunctIwLb0EE2idE" PURGE="-1" COMMENT="" />
    <EXPORT ORDINAL="4411" NAME="_ZNSt7__cxx1110moneypunctIwLb0EE4intlE" PURGE="-1" COMMENT="" />
    <EXPORT ORDINAL="4412" NAME="_ZNSt7__cxx1110moneypunctIwLb0EEC1EPSt18__moneypunct_cacheIwLb0EEy" PURGE="0" COMMENT="" />
    <EXPORT ORDINAL="4413" NAME="_ZNSt7__cxx1110moneypunctIwLb0EEC1EPiPKcy" PURGE="0" COMMENT="" />
    <EXPORT ORDINAL="4414" NAME="_ZNSt7__cxx1110moneypunctIwLb0EEC1Ey" PURGE="0" COMMENT="" />
    <EXPORT ORDINAL="4415" NAME="_ZNSt7__cxx1110moneypunctIwLb0EEC2EPSt18__moneypunct_cacheIwLb0EEy" PURGE="0" COMMENT="" />
    <EXPORT ORDINAL="4416" NAME="_ZNSt7__cxx1110moneypunctIwLb0EEC2EPiPKcy" PURGE="0" COMMENT="" />
    <EXPORT ORDINAL="4417" NAME="_ZNSt7__cxx1110moneypunctIwLb0EEC2Ey" PURGE="0" COMMENT="" />
    <EXPORT ORDINAL="4418" NAME="_ZNSt7__cxx1110moneypunctIwLb0EED0Ev" PURGE="-1" COMMENT="" />
    <EXPORT ORDINAL="4419" NAME="_ZNSt7__cxx1110moneypunctIwLb0EED1Ev" PURGE="0" COMMENT="" />
    <EXPORT ORDINAL="4420" NAME="_ZNSt7__cxx1110moneypunctIwLb0EED2Ev" PURGE="0" COMMENT="" />
    <EXPORT ORDINAL="4421" NAME="_ZNSt7__cxx1110moneypunctIwLb1EE24_M_initialize_moneypunctEPiPKc" PURGE="0" COMMENT="" />
    <EXPORT ORDINAL="4422" NAME="_ZNSt7__cxx1110moneypunctIwLb1EE2idE" PURGE="-1" COMMENT="" />
    <EXPORT ORDINAL="4423" NAME="_ZNSt7__cxx1110moneypunctIwLb1EE4intlE" PURGE="-1" COMMENT="" />
    <EXPORT ORDINAL="4424" NAME="_ZNSt7__cxx1110moneypunctIwLb1EEC1EPSt18__moneypunct_cacheIwLb1EEy" PURGE="0" COMMENT="" />
    <EXPORT ORDINAL="4425" NAME="_ZNSt7__cxx1110moneypunctIwLb1EEC1EPiPKcy" PURGE="0" COMMENT="" />
    <EXPORT ORDINAL="4426" NAME="_ZNSt7__cxx1110moneypunctIwLb1EEC1Ey" PURGE="0" COMMENT="" />
