<?xml version="1.0" encoding="UTF-8"?>
<LIBRARY NAME="qt5charts.dll" PATH="/DLLArchive/etc/Qt5Charts.dll" DATE="Wed Nov 17 21:05:22 PST 2021" VERSION="5.12.12.0">
    <EXPORT ORDINAL="1" NAME="_ZN8QtCharts10ChartTitle11setGeometryERK6QRectF" PURGE="0" COMMENT="" />
    <EXPORT ORDINAL="2" NAME="_ZN8QtCharts10ChartTitle7setTextERK7QString" PURGE="-1" COMMENT="" />
    <EXPORT ORDINAL="3" NAME="_ZN8QtCharts10ChartTitleC1EP13QGraphicsItem" PURGE="-1" COMMENT="" />
    <EXPORT ORDINAL="4" NAME="_ZN8QtCharts10ChartTitleC2EP13QGraphicsItem" PURGE="-1" COMMENT="" />
    <EXPORT ORDINAL="5" NAME="_ZN8QtCharts10ChartTitleD0Ev" PURGE="-1" COMMENT="" />
    <EXPORT ORDINAL="6" NAME="_ZN8QtCharts10ChartTitleD1Ev" PURGE="-1" COMMENT="" />
    <EXPORT ORDINAL="7" NAME="_ZN8QtCharts10ChartTitleD2Ev" PURGE="-1" COMMENT="" />
    <EXPORT ORDINAL="8" NAME="_ZN8QtCharts10QBarSeries11qt_metacallEN11QMetaObject4CallEiPPv" PURGE="0" COMMENT="" />
    <EXPORT ORDINAL="9" NAME="_ZN8QtCharts10QBarSeries11qt_metacastEPKc" PURGE="0" COMMENT="" />
    <EXPORT ORDINAL="10" NAME="_ZN8QtCharts10QBarSeries16staticMetaObjectE" PURGE="-1" COMMENT="" />
    <EXPORT ORDINAL="11" NAME="_ZN8QtCharts10QBarSeries18qt_static_metacallEP7QObjectN11QMetaObject4CallEiPPv" PURGE="0" COMMENT="" />
    <EXPORT ORDINAL="12" NAME="_ZN8QtCharts10QBarSeriesC1EP7QObject" PURGE="0" COMMENT="" />
    <EXPORT ORDINAL="13" NAME="_ZN8QtCharts10QBarSeriesC2EP7QObject" PURGE="0" COMMENT="" />
    <EXPORT ORDINAL="14" NAME="_ZN8QtCharts10QBarSeriesD0Ev" PURGE="-1" COMMENT="" />
    <EXPORT ORDINAL="15" NAME="_ZN8QtCharts10QBarSeriesD1Ev" PURGE="0" COMMENT="" />
    <EXPORT ORDINAL="16" NAME="_ZN8QtCharts10QBarSeriesD2Ev" PURGE="0" COMMENT="" />
    <EXPORT ORDINAL="17" NAME="_ZN8QtCharts10QChartView11qt_metacallEN11QMetaObject4CallEiPPv" PURGE="-1" COMMENT="" />
    <EXPORT ORDINAL="18" NAME="_ZN8QtCharts10QChartView11qt_metacastEPKc" PURGE="0" COMMENT="" />
    <EXPORT ORDINAL="19" NAME="_ZN8QtCharts10QChartView11resizeEventEP12QResizeEvent" PURGE="0" COMMENT="" />
    <EXPORT ORDINAL="20" NAME="_ZN8QtCharts10QChartView13setRubberBandERK6QFlagsINS0_10RubberBandEE" PURGE="0" COMMENT="" />
    <EXPORT ORDINAL="21" NAME="_ZN8QtCharts10QChartView14mouseMoveEventEP11QMouseEvent" PURGE="0" COMMENT="" />
    <EXPORT ORDINAL="22" NAME="_ZN8QtCharts10QChartView15mousePressEventEP11QMouseEvent" PURGE="0" COMMENT="" />
    <EXPORT ORDINAL="23" NAME="_ZN8QtCharts10QChartView16staticMetaObjectE" PURGE="-1" COMMENT="" />
    <EXPORT ORDINAL="24" NAME="_ZN8QtCharts10QChartView17mouseReleaseEventEP11QMouseEvent" PURGE="0" COMMENT="" />
    <EXPORT ORDINAL="25" NAME="_ZN8QtCharts10QChartView18qt_static_metacallEP7QObjectN11QMetaObject4CallEiPPv" PURGE="0" COMMENT="" />
    <EXPORT ORDINAL="26" NAME="_ZN8QtCharts10QChartView8setChartEPNS_6QChartE" PURGE="0" COMMENT="" />
    <EXPORT ORDINAL="27" NAME="_ZN8QtCharts10QChartViewC1EP7QWidget" PURGE="0" COMMENT="" />
    <EXPORT ORDINAL="28" NAME="_ZN8QtCharts10QChartViewC1EPNS_6QChartEP7QWidget" PURGE="0" COMMENT="" />
    <EXPORT ORDINAL="29" NAME="_ZN8QtCharts10QChartViewC2EP7QWidget" PURGE="0" COMMENT="" />
    <EXPORT ORDINAL="30" NAME="_ZN8QtCharts10QChartViewC2EPNS_6QChartEP7QWidget" PURGE="0" COMMENT="" />
    <EXPORT ORDINAL="31" NAME="_ZN8QtCharts10QChartViewD0Ev" PURGE="-1" COMMENT="" />
    <EXPORT ORDINAL="32" NAME="_ZN8QtCharts10QChartViewD1Ev" PURGE="-1" COMMENT="" />
    <EXPORT ORDINAL="33" NAME="_ZN8QtCharts10QChartViewD2Ev" PURGE="-1" COMMENT="" />
    <EXPORT ORDINAL="34" NAME="_ZN8QtCharts10QPieSeries10setPieSizeEd" PURGE="0" COMMENT="" />
    <EXPORT ORDINAL="35" NAME="_ZN8QtCharts10QPieSeries10sumChangedEv" PURGE="-1" COMMENT="" />
    <EXPORT ORDINAL="36" NAME="_ZN8QtCharts10QPieSeries11qt_metacallEN11QMetaObject4CallEiPPv" PURGE="0" COMMENT="" />
    <EXPORT ORDINAL="37" NAME="_ZN8QtCharts10QPieSeries11qt_metacastEPKc" PURGE="0" COMMENT="" />
    <EXPORT ORDINAL="38" NAME="_ZN8QtCharts10QPieSeries11setHoleSizeEd" PURGE="0" COMMENT="" />
    <EXPORT ORDINAL="39" NAME="_ZN8QtCharts10QPieSeries12countChangedEv" PURGE="-1" COMMENT="" />
    <EXPORT ORDINAL="40" NAME="_ZN8QtCharts10QPieSeries13doubleClickedEPNS_9QPieSliceE" PURGE="0" COMMENT="" />
    <EXPORT ORDINAL="41" NAME="_ZN8QtCharts10QPieSeries14setPieEndAngleEd" PURGE="0" COMMENT="" />
    <EXPORT ORDINAL="42" NAME="_ZN8QtCharts10QPieSeries16setLabelsVisibleEb" PURGE="0" COMMENT="" />
    <EXPORT ORDINAL="43" NAME="_ZN8QtCharts10QPieSeries16setPieStartAngleEd" PURGE="0" COMMENT="" />
    <EXPORT ORDINAL="44" NAME="_ZN8QtCharts10QPieSeries16staticMetaObjectE" PURGE="-1" COMMENT="" />
    <EXPORT ORDINAL="45" NAME="_ZN8QtCharts10QPieSeries17setLabelsPositionENS_9QPieSlice13LabelPositionE" PURGE="0" COMMENT="" />
    <EXPORT ORDINAL="46" NAME="_ZN8QtCharts10QPieSeries18qt_static_metacallEP7QObjectN11QMetaObject4CallEiPPv" PURGE="0" COMMENT="" />
    <EXPORT ORDINAL="47" NAME="_ZN8QtCharts10QPieSeries19setVerticalPositionEd" PURGE="0" COMMENT="" />
    <EXPORT ORDINAL="48" NAME="_ZN8QtCharts10QPieSeries21setHorizontalPositionEd" PURGE="0" COMMENT="" />
    <EXPORT ORDINAL="49" NAME="_ZN8QtCharts10QPieSeries4takeEPNS_9QPieSliceE" PURGE="0" COMMENT="" />
    <EXPORT ORDINAL="50" NAME="_ZN8QtCharts10QPieSeries5addedE5QListIPNS_9QPieSliceEE" PURGE="0" COMMENT="" />
    <EXPORT ORDINAL="51" NAME="_ZN8QtCharts10QPieSeries5clearEv" PURGE="0" COMMENT="" />
    <EXPORT ORDINAL="52" NAME="_ZN8QtCharts10QPieSeries6appendE5QListIPNS_9QPieSliceEE" PURGE="0" COMMENT="" />
    <EXPORT ORDINAL="53" NAME="_ZN8QtCharts10QPieSeries6appendE7QStringd" PURGE="0" COMMENT="" />
    <EXPORT ORDINAL="54" NAME="_ZN8QtCharts10QPieSeries6appendEPNS_9QPieSliceE" PURGE="0" COMMENT="" />
    <EXPORT ORDINAL="55" NAME="_ZN8QtCharts10QPieSeries6insertEiPNS_9QPieSliceE" PURGE="0" COMMENT="" />
    <EXPORT ORDINAL="56" NAME="_ZN8QtCharts10QPieSeries6removeEPNS_9QPieSliceE" PURGE="0" COMMENT="" />
    <EXPORT ORDINAL="57" NAME="_ZN8QtCharts10QPieSeries7clickedEPNS_9QPieSliceE" PURGE="0" COMMENT="" />
    <EXPORT ORDINAL="58" NAME="_ZN8QtCharts10QPieSeries7hoveredEPNS_9QPieSliceEb" PURGE="0" COMMENT="" />
    <EXPORT ORDINAL="59" NAME="_ZN8QtCharts10QPieSeries7pressedEPNS_9QPieSliceE" PURGE="0" COMMENT="" />
    <EXPORT ORDINAL="60" NAME="_ZN8QtCharts10QPieSeries7removedE5QListIPNS_9QPieSliceEE" PURGE="0" COMMENT="" />
    <EXPORT ORDINAL="61" NAME="_ZN8QtCharts10QPieSeries8releasedEPNS_9QPieSliceE" PURGE="0" COMMENT="" />
    <EXPORT ORDINAL="62" NAME="_ZN8QtCharts10QPieSeriesC1EP7QObject" PURGE="0" COMMENT="" />
    <EXPORT ORDINAL="63" NAME="_ZN8QtCharts10QPieSeriesC2EP7QObject" PURGE="0" COMMENT="" />
    <EXPORT ORDINAL="64" NAME="_ZN8QtCharts10QPieSeriesD0Ev" PURGE="-1" COMMENT="" />
    <EXPORT ORDINAL="65" NAME="_ZN8QtCharts10QPieSeriesD1Ev" PURGE="0" COMMENT="" />
    <EXPORT ORDINAL="66" NAME="_ZN8QtCharts10QPieSeriesD2Ev" PURGE="0" COMMENT="" />
    <EXPORT ORDINAL="67" NAME="_ZN8QtCharts10QPieSerieslsEPNS_9QPieSliceE" PURGE="0" COMMENT="" />
    <EXPORT ORDINAL="68" NAME="_ZN8QtCharts10QValueAxis10maxChangedEd" PURGE="0" COMMENT="" />
    <EXPORT ORDINAL="69" NAME="_ZN8QtCharts10QValueAxis10minChangedEd" PURGE="0" COMMENT="" />
    <EXPORT ORDINAL="70" NAME="_ZN8QtCharts10QValueAxis11qt_metacallEN11QMetaObject4CallEiPPv" PURGE="0" COMMENT="" />
    <EXPORT ORDINAL="71" NAME="_ZN8QtCharts10QValueAxis11qt_metacastEPKc" PURGE="0" COMMENT="" />
    <EXPORT ORDINAL="72" NAME="_ZN8QtCharts10QValueAxis11setTickTypeENS0_8TickTypeE" PURGE="0" COMMENT="" />
    <EXPORT ORDINAL="73" NAME="_ZN8QtCharts10QValueAxis12rangeChangedEdd" PURGE="0" COMMENT="" />
    <EXPORT ORDINAL="74" NAME="_ZN8QtCharts10QValueAxis12setTickCountEi" PURGE="0" COMMENT="" />
    <EXPORT ORDINAL="75" NAME="_ZN8QtCharts10QValueAxis13setTickAnchorEd" PURGE="0" COMMENT="" />
    <EXPORT ORDINAL="76" NAME="_ZN8QtCharts10QValueAxis14setLabelFormatERK7QString" PURGE="0" COMMENT="" />
    <EXPORT ORDINAL="77" NAME="_ZN8QtCharts10QValueAxis15setTickIntervalEd" PURGE="0" COMMENT="" />
    <EXPORT ORDINAL="78" NAME="_ZN8QtCharts10QValueAxis15tickTypeChangedENS0_8TickTypeE" PURGE="0" COMMENT="" />
    <EXPORT ORDINAL="79" NAME="_ZN8QtCharts10QValueAxis16applyNiceNumbersEv" PURGE="0" COMMENT="" />
    <EXPORT ORDINAL="80" NAME="_ZN8QtCharts10QValueAxis16staticMetaObjectE" PURGE="-1" COMMENT="" />
    <EXPORT ORDINAL="81" NAME="_ZN8QtCharts10QValueAxis16tickCountChangedEi" PURGE="0" COMMENT="" />
    <EXPORT ORDINAL="82" NAME="_ZN8QtCharts10QValueAxis17setMinorTickCountEi" PURGE="0" COMMENT="" />
    <EXPORT ORDINAL="83" NAME="_ZN8QtCharts10QValueAxis17tickAnchorChangedEd" PURGE="0" COMMENT="" />
    <EXPORT ORDINAL="84" NAME="_ZN8QtCharts10QValueAxis18labelFormatChangedERK7QString" PURGE="0" COMMENT="" />
    <EXPORT ORDINAL="85" NAME="_ZN8QtCharts10QValueAxis18qt_static_metacallEP7QObjectN11QMetaObject4CallEiPPv" PURGE="0" COMMENT="" />
    <EXPORT ORDINAL="86" NAME="_ZN8QtCharts10QValueAxis19tickIntervalChangedEd" PURGE="0" COMMENT="" />
    <EXPORT ORDINAL="87" NAME="_ZN8QtCharts10QValueAxis21minorTickCountChangedEi" PURGE="0" COMMENT="" />
    <EXPORT ORDINAL="88" NAME="_ZN8QtCharts10QValueAxis6setMaxEd" PURGE="-1" COMMENT="" />
    <EXPORT ORDINAL="89" NAME="_ZN8QtCharts10QValueAxis6setMinEd" PURGE="-1" COMMENT="" />
    <EXPORT ORDINAL="90" NAME="_ZN8QtCharts10QValueAxis8setRangeEdd" PURGE="-1" COMMENT="" />
    <EXPORT ORDINAL="91" NAME="_ZN8QtCharts10QValueAxisC1EP7QObject" PURGE="0" COMMENT="" />
    <EXPORT ORDINAL="92" NAME="_ZN8QtCharts10QValueAxisC1ERNS_17QValueAxisPrivateEP7QObject" PURGE="0" COMMENT="" />
    <EXPORT ORDINAL="93" NAME="_ZN8QtCharts10QValueAxisC2EP7QObject" PURGE="0" COMMENT="" />
    <EXPORT ORDINAL="94" NAME="_ZN8QtCharts10QValueAxisC2ERNS_17QValueAxisPrivateEP7QObject" PURGE="0" COMMENT="" />
    <EXPORT ORDINAL="95" NAME="_ZN8QtCharts10QValueAxisD0Ev" PURGE="-1" COMMENT="" />
    <EXPORT ORDINAL="96" NAME="_ZN8QtCharts10QValueAxisD1Ev" PURGE="0" COMMENT="" />
    <EXPORT ORDINAL="97" NAME="_ZN8QtCharts10QValueAxisD2Ev" PURGE="0" COMMENT="" />
    <EXPORT ORDINAL="98" NAME="_ZN8QtCharts11BoxWhiskers11qt_metacallEN11QMetaObject4CallEiPPv" PURGE="0" COMMENT="" />
    <EXPORT ORDINAL="99" NAME="_ZN8QtCharts11BoxWhiskers11qt_metacastEPKc" PURGE="0" COMMENT="" />
    <EXPORT ORDINAL="100" NAME="_ZN8QtCharts11BoxWhiskers11setBoxWidthEd" PURGE="0" COMMENT="" />
    <EXPORT ORDINAL="101" NAME="_ZN8QtCharts11BoxWhiskers11setGeometryERK6QRectF" PURGE="0" COMMENT="" />
    <EXPORT ORDINAL="102" NAME="_ZN8QtCharts11BoxWhiskers13doubleClickedEPNS_7QBoxSetE" PURGE="0" COMMENT="" />
    <EXPORT ORDINAL="103" NAME="_ZN8QtCharts11BoxWhiskers14updateGeometryEPNS_14AbstractDomainE" PURGE="0" COMMENT="" />
    <EXPORT ORDINAL="104" NAME="_ZN8QtCharts11BoxWhiskers15hoverEnterEventEP24QGraphicsSceneHoverEvent" PURGE="0" COMMENT="" />
    <EXPORT ORDINAL="105" NAME="_ZN8QtCharts11BoxWhiskers15hoverLeaveEventEP24QGraphicsSceneHoverEvent" PURGE="0" COMMENT="" />
    <EXPORT ORDINAL="106" NAME="_ZN8QtCharts11BoxWhiskers15mousePressEventEP24QGraphicsSceneMouseEvent" PURGE="0" COMMENT="" />
    <EXPORT ORDINAL="107" NAME="_ZN8QtCharts11BoxWhiskers16staticMetaObjectE" PURGE="-1" COMMENT="" />
    <EXPORT ORDINAL="108" NAME="_ZN8QtCharts11BoxWhiskers17mouseReleaseEventEP24QGraphicsSceneMouseEvent" PURGE="0" COMMENT="" />
    <EXPORT ORDINAL="109" NAME="_ZN8QtCharts11BoxWhiskers18qt_static_metacallEP7QObjectN11QMetaObject4CallEiPPv" PURGE="0" COMMENT="" />
    <EXPORT ORDINAL="110" NAME="_ZN8QtCharts11BoxWhiskers21mouseDoubleClickEventEP24QGraphicsSceneMouseEvent" PURGE="0" COMMENT="" />
    <EXPORT ORDINAL="111" NAME="_ZN8QtCharts11BoxWhiskers5paintEP8QPainterPK24QStyleOptionGraphicsItemP7QWidget" PURGE="0" COMMENT="" />
    <EXPORT ORDINAL="112" NAME="_ZN8QtCharts11BoxWhiskers6setPenERK4QPen" PURGE="0" COMMENT="" />
    <EXPORT ORDINAL="113" NAME="_ZN8QtCharts11BoxWhiskers7clickedEPNS_7QBoxSetE" PURGE="0" COMMENT="" />
    <EXPORT ORDINAL="114" NAME="_ZN8QtCharts11BoxWhiskers7hoveredEbPNS_7QBoxSetE" PURGE="0" COMMENT="" />
    <EXPORT ORDINAL="115" NAME="_ZN8QtCharts11BoxWhiskers7pressedEPNS_7QBoxSetE" PURGE="0" COMMENT="" />
    <EXPORT ORDINAL="116" NAME="_ZN8QtCharts11BoxWhiskers8releasedEPNS_7QBoxSetE" PURGE="0" COMMENT="" />
    <EXPORT ORDINAL="117" NAME="_ZN8QtCharts11BoxWhiskers8setBrushERK6QBrush" PURGE="0" COMMENT="" />
    <EXPORT ORDINAL="118" NAME="_ZN8QtCharts11BoxWhiskers9setLayoutERKNS_15BoxWhiskersDataE" PURGE="0" COMMENT="" />
    <EXPORT ORDINAL="119" NAME="_ZN8QtCharts11BoxWhiskersC1EPNS_7QBoxSetEPNS_14AbstractDomainEP15QGraphicsObject" PURGE="-1" COMMENT="" />
    <EXPORT ORDINAL="120" NAME="_ZN8QtCharts11BoxWhiskersC2EPNS_7QBoxSetEPNS_14AbstractDomainEP15QGraphicsObject" PURGE="-1" COMMENT="" />
    <EXPORT ORDINAL="121" NAME="_ZN8QtCharts11BoxWhiskersD0Ev" PURGE="-1" COMMENT="" />
    <EXPORT ORDINAL="122" NAME="_ZN8QtCharts11BoxWhiskersD1Ev" PURGE="-1" COMMENT="" />
    <EXPORT ORDINAL="123" NAME="_ZN8QtCharts11BoxWhiskersD2Ev" PURGE="-1" COMMENT="" />
    <EXPORT ORDINAL="124" NAME="_ZN8QtCharts11Candlestick11qt_metacallEN11QMetaObject4CallEiPPv" PURGE="0" COMMENT="" />
    <EXPORT ORDINAL="125" NAME="_ZN8QtCharts11Candlestick11qt_metacastEPKc" PURGE="0" COMMENT="" />
    <EXPORT ORDINAL="126" NAME="_ZN8QtCharts11Candlestick12setBodyWidthEd" PURGE="0" COMMENT="" />
    <EXPORT ORDINAL="127" NAME="_ZN8QtCharts11Candlestick12setCapsWidthEd" PURGE="0" COMMENT="" />
    <EXPORT ORDINAL="128" NAME="_ZN8QtCharts11Candlestick13doubleClickedEPNS_15QCandlestickSetE" PURGE="0" COMMENT="" />
    <EXPORT ORDINAL="129" NAME="_ZN8QtCharts11Candlestick13setTimePeriodEd" PURGE="0" COMMENT="" />
    <EXPORT ORDINAL="130" NAME="_ZN8QtCharts11Candlestick14setCapsVisibleEb" PURGE="0" COMMENT="" />
    <EXPORT ORDINAL="131" NAME="_ZN8QtCharts11Candlestick14updateGeometryEPNS_14AbstractDomainE" PURGE="0" COMMENT="" />
    <EXPORT ORDINAL="132" NAME="_ZN8QtCharts11Candlestick15hoverEnterEventEP24QGraphicsSceneHoverEvent" PURGE="0" COMMENT="" />
    <EXPORT ORDINAL="133" NAME="_ZN8QtCharts11Candlestick15hoverLeaveEventEP24QGraphicsSceneHoverEvent" PURGE="0" COMMENT="" />
    <EXPORT ORDINAL="134" NAME="_ZN8QtCharts11Candlestick15mousePressEventEP24QGraphicsSceneMouseEvent" PURGE="0" COMMENT="" />
    <EXPORT ORDINAL="135" NAME="_ZN8QtCharts11Candlestick16staticMetaObjectE" PURGE="-1" COMMENT="" />
    <EXPORT ORDINAL="136" NAME="_ZN8QtCharts11Candlestick17mouseReleaseEventEP24QGraphicsSceneMouseEvent" PURGE="0" COMMENT="" />
    <EXPORT ORDINAL="137" NAME="_ZN8QtCharts11Candlestick18qt_static_metacallEP7QObjectN11QMetaObject4CallEiPPv" PURGE="0" COMMENT="" />
    <EXPORT ORDINAL="138" NAME="_ZN8QtCharts11Candlestick18setDecreasingColorERK6QColor" PURGE="0" COMMENT="" />
    <EXPORT ORDINAL="139" NAME="_ZN8QtCharts11Candlestick18setIncreasingColorERK6QColor" PURGE="0" COMMENT="" />
    <EXPORT ORDINAL="140" NAME="_ZN8QtCharts11Candlestick21mouseDoubleClickEventEP24QGraphicsSceneMouseEvent" PURGE="0" COMMENT="" />
    <EXPORT ORDINAL="141" NAME="_ZN8QtCharts11Candlestick21setBodyOutlineVisibleEb" PURGE="0" COMMENT="" />
    <EXPORT ORDINAL="142" NAME="_ZN8QtCharts11Candlestick21setMaximumColumnWidthEd" PURGE="0" COMMENT="" />
    <EXPORT ORDINAL="143" NAME="_ZN8QtCharts11Candlestick21setMinimumColumnWidthEd" PURGE="0" COMMENT="" />
    <EXPORT ORDINAL="144" NAME="_ZN8QtCharts11Candlestick5paintEP8QPainterPK24QStyleOptionGraphicsItemP7QWidget" PURGE="0" COMMENT="" />
    <EXPORT ORDINAL="145" NAME="_ZN8QtCharts11Candlestick6setPenERK4QPen" PURGE="0" COMMENT="" />
    <EXPORT ORDINAL="146" NAME="_ZN8QtCharts11Candlestick7clickedEPNS_15QCandlestickSetE" PURGE="0" COMMENT="" />
    <EXPORT ORDINAL="147" NAME="_ZN8QtCharts11Candlestick7hoveredEbPNS_15QCandlestickSetE" PURGE="0" COMMENT="" />
    <EXPORT ORDINAL="148" NAME="_ZN8QtCharts11Candlestick7pressedEPNS_15QCandlestickSetE" PURGE="0" COMMENT="" />
    <EXPORT ORDINAL="149" NAME="_ZN8QtCharts11Candlestick8releasedEPNS_15QCandlestickSetE" PURGE="0" COMMENT="" />
    <EXPORT ORDINAL="150" NAME="_ZN8QtCharts11Candlestick8setBrushERK6QBrush" PURGE="0" COMMENT="" />
    <EXPORT ORDINAL="151" NAME="_ZN8QtCharts11Candlestick9setLayoutERKNS_15CandlestickDataE" PURGE="0" COMMENT="" />
    <EXPORT ORDINAL="152" NAME="_ZN8QtCharts11CandlestickC1EPNS_15QCandlestickSetEPNS_14AbstractDomainEP15QGraphicsObject" PURGE="-1" COMMENT="" />
    <EXPORT ORDINAL="153" NAME="_ZN8QtCharts11CandlestickC2EPNS_15QCandlestickSetEPNS_14AbstractDomainEP15QGraphicsObject" PURGE="-1" COMMENT="" />
    <EXPORT ORDINAL="154" NAME="_ZN8QtCharts11CandlestickD0Ev" PURGE="-1" COMMENT="" />
    <EXPORT ORDINAL="155" NAME="_ZN8QtCharts11CandlestickD1Ev" PURGE="0" COMMENT="" />
    <EXPORT ORDINAL="156" NAME="_ZN8QtCharts11CandlestickD2Ev" PURGE="0" COMMENT="" />
    <EXPORT ORDINAL="157" NAME="_ZN8QtCharts11ChartConfig10m_instanceE" PURGE="-1" COMMENT="" />
    <EXPORT ORDINAL="158" NAME="_ZN8QtCharts11LogXYDomain10attachAxisEPNS_13QAbstractAxisE" PURGE="0" COMMENT="" />
    <EXPORT ORDINAL="159" NAME="_ZN8QtCharts11LogXYDomain10detachAxisEPNS_13QAbstractAxisE" PURGE="0" COMMENT="" />
    <EXPORT ORDINAL="160" NAME="_ZN8QtCharts11LogXYDomain11qt_metacallEN11QMetaObject4CallEiPPv" PURGE="0" COMMENT="" />
    <EXPORT ORDINAL="161" NAME="_ZN8QtCharts11LogXYDomain11qt_metacastEPKc" PURGE="0" COMMENT="" />
    <EXPORT ORDINAL="162" NAME="_ZN8QtCharts11LogXYDomain16staticMetaObjectE" PURGE="-1" COMMENT="" />
    <EXPORT ORDINAL="163" NAME="_ZN8QtCharts11LogXYDomain18qt_static_metacallEP7QObjectN11QMetaObject4CallEiPPv" PURGE="0" COMMENT="" />
    <EXPORT ORDINAL="164" NAME="_ZN8QtCharts11LogXYDomain31handleHorizontalAxisBaseChangedEd" PURGE="-1" COMMENT="" />
    <EXPORT ORDINAL="165" NAME="_ZN8QtCharts11LogXYDomain4moveEdd" PURGE="0" COMMENT="" />
    <EXPORT ORDINAL="166" NAME="_ZN8QtCharts11LogXYDomain6zoomInERK6QRectF" PURGE="0" COMMENT="" />
    <EXPORT ORDINAL="167" NAME="_ZN8QtCharts11LogXYDomain7zoomOutERK6QRectF" PURGE="0" COMMENT="" />
    <EXPORT ORDINAL="168" NAME="_ZN8QtCharts11LogXYDomain8setRangeEdddd" PURGE="0" COMMENT="" />
    <EXPORT ORDINAL="169" NAME="_ZN8QtCharts11LogXYDomainC1EP7QObject" PURGE="0" COMMENT="" />
    <EXPORT ORDINAL="170" NAME="_ZN8QtCharts11LogXYDomainC2EP7QObject" PURGE="0" COMMENT="" />
    <EXPORT ORDINAL="171" NAME="_ZN8QtCharts11LogXYDomainD0Ev" PURGE="-1" COMMENT="" />
    <EXPORT ORDINAL="172" NAME="_ZN8QtCharts11LogXYDomainD1Ev" PURGE="-1" COMMENT="" />
    <EXPORT ORDINAL="173" NAME="_ZN8QtCharts11LogXYDomainD2Ev" PURGE="-1" COMMENT="" />
    <EXPORT ORDINAL="174" NAME="_ZN8QtCharts11PolarDomain11qt_metacallEN11QMetaObject4CallEiPPv" PURGE="0" COMMENT="" />
    <EXPORT ORDINAL="175" NAME="_ZN8QtCharts11PolarDomain11qt_metacastEPKc" PURGE="0" COMMENT="" />
    <EXPORT ORDINAL="176" NAME="_ZN8QtCharts11PolarDomain16staticMetaObjectE" PURGE="-1" COMMENT="" />
    <EXPORT ORDINAL="177" NAME="_ZN8QtCharts11PolarDomain18qt_static_metacallEP7QObjectN11QMetaObject4CallEiPPv" PURGE="0" COMMENT="" />
    <EXPORT ORDINAL="178" NAME="_ZN8QtCharts11PolarDomain7setSizeERK6QSizeF" PURGE="0" COMMENT="" />
    <EXPORT ORDINAL="179" NAME="_ZN8QtCharts11PolarDomainC1EP7QObject" PURGE="0" COMMENT="" />
    <EXPORT ORDINAL="180" NAME="_ZN8QtCharts11PolarDomainC2EP7QObject" PURGE="0" COMMENT="" />
    <EXPORT ORDINAL="181" NAME="_ZN8QtCharts11PolarDomainD0Ev" PURGE="-1" COMMENT="" />
    <EXPORT ORDINAL="182" NAME="_ZN8QtCharts11PolarDomainD1Ev" PURGE="-1" COMMENT="" />
    <EXPORT ORDINAL="183" NAME="_ZN8QtCharts11PolarDomainD2Ev" PURGE="-1" COMMENT="" />
    <EXPORT ORDINAL="184" NAME="_ZN8QtCharts11QAreaSeries11qt_metacallEN11QMetaObject4CallEiPPv" PURGE="0" COMMENT="" />
    <EXPORT ORDINAL="185" NAME="_ZN8QtCharts11QAreaSeries11qt_metacastEPKc" PURGE="0" COMMENT="" />
    <EXPORT ORDINAL="186" NAME="_ZN8QtCharts11QAreaSeries12colorChangedE6QColor" PURGE="0" COMMENT="" />
    <EXPORT ORDINAL="187" NAME="_ZN8QtCharts11QAreaSeries13doubleClickedERK7QPointF" PURGE="0" COMMENT="" />
    <EXPORT ORDINAL="188" NAME="_ZN8QtCharts11QAreaSeries14setBorderColorERK6QColor" PURGE="0" COMMENT="" />
    <EXPORT ORDINAL="189" NAME="_ZN8QtCharts11QAreaSeries14setLowerSeriesEPNS_11QLineSeriesE" PURGE="0" COMMENT="" />
    <EXPORT ORDINAL="190" NAME="_ZN8QtCharts11QAreaSeries14setUpperSeriesEPNS_11QLineSeriesE" PURGE="0" COMMENT="" />
    <EXPORT ORDINAL="191" NAME="_ZN8QtCharts11QAreaSeries16setPointsVisibleEb" PURGE="0" COMMENT="" />
    <EXPORT ORDINAL="192" NAME="_ZN8QtCharts11QAreaSeries16staticMetaObjectE" PURGE="-1" COMMENT="" />
    <EXPORT ORDINAL="193" NAME="_ZN8QtCharts11QAreaSeries18borderColorChangedE6QColor" PURGE="0" COMMENT="" />
    <EXPORT ORDINAL="194" NAME="_ZN8QtCharts11QAreaSeries18qt_static_metacallEP7QObjectN11QMetaObject4CallEiPPv" PURGE="0" COMMENT="" />
    <EXPORT ORDINAL="195" NAME="_ZN8QtCharts11QAreaSeries18setPointLabelsFontERK5QFont" PURGE="0" COMMENT="" />
    <EXPORT ORDINAL="196" NAME="_ZN8QtCharts11QAreaSeries19setPointLabelsColorERK6QColor" PURGE="0" COMMENT="" />
    <EXPORT ORDINAL="197" NAME="_ZN8QtCharts11QAreaSeries20setPointLabelsFormatERK7QString" PURGE="0" COMMENT="" />
    <EXPORT ORDINAL="198" NAME="_ZN8QtCharts11QAreaSeries21setPointLabelsVisibleEb" PURGE="0" COMMENT="" />
    <EXPORT ORDINAL="199" NAME="_ZN8QtCharts11QAreaSeries22pointLabelsFontChangedERK5QFont" PURGE="0" COMMENT="" />
    <EXPORT ORDINAL="200" NAME="_ZN8QtCharts11QAreaSeries22setPointLabelsClippingEb" PURGE="0" COMMENT="" />
    <EXPORT ORDINAL="201" NAME="_ZN8QtCharts11QAreaSeries23pointLabelsColorChangedERK6QColor" PURGE="0" COMMENT="" />
    <EXPORT ORDINAL="202" NAME="_ZN8QtCharts11QAreaSeries24pointLabelsFormatChangedERK7QString" PURGE="0" COMMENT="" />
    <EXPORT ORDINAL="203" NAME="_ZN8QtCharts11QAreaSeries26pointLabelsClippingChangedEb" PURGE="0" COMMENT="" />
    <EXPORT ORDINAL="204" NAME="_ZN8QtCharts11QAreaSeries28pointLabelsVisibilityChangedEb" PURGE="0" COMMENT="" />
    <EXPORT ORDINAL="205" NAME="_ZN8QtCharts11QAreaSeries6setPenERK4QPen" PURGE="0" COMMENT="" />
    <EXPORT ORDINAL="206" NAME="_ZN8QtCharts11QAreaSeries7clickedERK7QPointF" PURGE="0" COMMENT="" />
    <EXPORT ORDINAL="207" NAME="_ZN8QtCharts11QAreaSeries7hoveredERK7QPointFb" PURGE="0" COMMENT="" />
    <EXPORT ORDINAL="208" NAME="_ZN8QtCharts11QAreaSeries7pressedERK7QPointF" PURGE="0" COMMENT="" />
    <EXPORT ORDINAL="209" NAME="_ZN8QtCharts11QAreaSeries8releasedERK7QPointF" PURGE="0" COMMENT="" />
    <EXPORT ORDINAL="210" NAME="_ZN8QtCharts11QAreaSeries8selectedEv" PURGE="-1" COMMENT="" />
    <EXPORT ORDINAL="211" NAME="_ZN8QtCharts11QAreaSeries8setBrushERK6QBrush" PURGE="0" COMMENT="" />
    <EXPORT ORDINAL="212" NAME="_ZN8QtCharts11QAreaSeries8setColorERK6QColor" PURGE="0" COMMENT="" />
    <EXPORT ORDINAL="213" NAME="_ZN8QtCharts11QAreaSeriesC1EP7QObject" PURGE="0" COMMENT="" />
    <EXPORT ORDINAL="214" NAME="_ZN8QtCharts11QAreaSeriesC1EPNS_11QLineSeriesES2_" PURGE="0" COMMENT="" />
    <EXPORT ORDINAL="215" NAME="_ZN8QtCharts11QAreaSeriesC2EP7QObject" PURGE="0" COMMENT="" />
    <EXPORT ORDINAL="216" NAME="_ZN8QtCharts11QAreaSeriesC2EPNS_11QLineSeriesES2_" PURGE="0" COMMENT="" />
    <EXPORT ORDINAL="217" NAME="_ZN8QtCharts11QAreaSeriesD0Ev" PURGE="-1" COMMENT="" />
    <EXPORT ORDINAL="218" NAME="_ZN8QtCharts11QAreaSeriesD1Ev" PURGE="0" COMMENT="" />
    <EXPORT ORDINAL="219" NAME="_ZN8QtCharts11QAreaSeriesD2Ev" PURGE="0" COMMENT="" />
    <EXPORT ORDINAL="220" NAME="_ZN8QtCharts11QLineSeries11qt_metacallEN11QMetaObject4CallEiPPv" PURGE="0" COMMENT="" />
    <EXPORT ORDINAL="221" NAME="_ZN8QtCharts11QLineSeries11qt_metacastEPKc" PURGE="0" COMMENT="" />
    <EXPORT ORDINAL="222" NAME="_ZN8QtCharts11QLineSeries16staticMetaObjectE" PURGE="-1" COMMENT="" />
    <EXPORT ORDINAL="223" NAME="_ZN8QtCharts11QLineSeries18qt_static_metacallEP7QObjectN11QMetaObject4CallEiPPv" PURGE="0" COMMENT="" />
    <EXPORT ORDINAL="224" NAME="_ZN8QtCharts11QLineSeriesC1EP7QObject" PURGE="0" COMMENT="" />
    <EXPORT ORDINAL="225" NAME="_ZN8QtCharts11QLineSeriesC1ERNS_18QLineSeriesPrivateEP7QObject" PURGE="0" COMMENT="" />
    <EXPORT ORDINAL="226" NAME="_ZN8QtCharts11QLineSeriesC2EP7QObject" PURGE="0" COMMENT="" />
    <EXPORT ORDINAL="227" NAME="_ZN8QtCharts11QLineSeriesC2ERNS_18QLineSeriesPrivateEP7QObject" PURGE="0" COMMENT="" />
    <EXPORT ORDINAL="228" NAME="_ZN8QtCharts11QLineSeriesD0Ev" PURGE="-1" COMMENT="" />
    <EXPORT ORDINAL="229" NAME="_ZN8QtCharts11QLineSeriesD1Ev" PURGE="0" COMMENT="" />
    <EXPORT ORDINAL="230" NAME="_ZN8QtCharts11QLineSeriesD2Ev" PURGE="0" COMMENT="" />
    <EXPORT ORDINAL="231" NAME="_ZN8QtCharts11QPolarChart11qt_metacallEN11QMetaObject4CallEiPPv" PURGE="0" COMMENT="" />
    <EXPORT ORDINAL="232" NAME="_ZN8QtCharts11QPolarChart11qt_metacastEPKc" PURGE="0" COMMENT="" />
    <EXPORT ORDINAL="233" NAME="_ZN8QtCharts11QPolarChart16staticMetaObjectE" PURGE="-1" COMMENT="" />
    <EXPORT ORDINAL="234" NAME="_ZN8QtCharts11QPolarChart18qt_static_metacallEP7QObjectN11QMetaObject4CallEiPPv" PURGE="0" COMMENT="" />
    <EXPORT ORDINAL="235" NAME="_ZN8QtCharts11QPolarChart20axisPolarOrientationEPNS_13QAbstractAxisE" PURGE="0" COMMENT="" />
    <EXPORT ORDINAL="236" NAME="_ZN8QtCharts11QPolarChart7addAxisEPNS_13QAbstractAxisENS0_16PolarOrientationE" PURGE="0" COMMENT="" />
    <EXPORT ORDINAL="237" NAME="_ZN8QtCharts11QPolarChartC1EP13QGraphicsItem6QFlagsIN2Qt10WindowTypeEE" PURGE="0" COMMENT="" />
    <EXPORT ORDINAL="238" NAME="_ZN8QtCharts11QPolarChartC2EP13QGraphicsItem6QFlagsIN2Qt10WindowTypeEE" PURGE="0" COMMENT="" />
    <EXPORT ORDINAL="239" NAME="_ZN8QtCharts11QPolarChartD0Ev" PURGE="-1" COMMENT="" />
    <EXPORT ORDINAL="240" NAME="_ZN8QtCharts11QPolarChartD1Ev" PURGE="-1" COMMENT="" />
    <EXPORT ORDINAL="241" NAME="_ZN8QtCharts11QPolarChartD2Ev" PURGE="-1" COMMENT="" />
    <EXPORT ORDINAL="242" NAME="_ZN8QtCharts11XLogYDomain10attachAxisEPNS_13QAbstractAxisE" PURGE="0" COMMENT="" />
    <EXPORT ORDINAL="243" NAME="_ZN8QtCharts11XLogYDomain10detachAxisEPNS_13QAbstractAxisE" PURGE="0" COMMENT="" />
    <EXPORT ORDINAL="244" NAME="_ZN8QtCharts11XLogYDomain11qt_metacallEN11QMetaObject4CallEiPPv" PURGE="0" COMMENT="" />
    <EXPORT ORDINAL="245" NAME="_ZN8QtCharts11XLogYDomain11qt_metacastEPKc" PURGE="0" COMMENT="" />
    <EXPORT ORDINAL="246" NAME="_ZN8QtCharts11XLogYDomain16staticMetaObjectE" PURGE="-1" COMMENT="" />
    <EXPORT ORDINAL="247" NAME="_ZN8QtCharts11XLogYDomain18qt_static_metacallEP7QObjectN11QMetaObject4CallEiPPv" PURGE="0" COMMENT="" />
    <EXPORT ORDINAL="248" NAME="_ZN8QtCharts11XLogYDomain29handleVerticalAxisBaseChangedEd" PURGE="-1" COMMENT="" />
    <EXPORT ORDINAL="249" NAME="_ZN8QtCharts11XLogYDomain4moveEdd" PURGE="0" COMMENT="" />
    <EXPORT ORDINAL="250" NAME="_ZN8QtCharts11XLogYDomain6zoomInERK6QRectF" PURGE="0" COMMENT="" />
    <EXPORT ORDINAL="251" NAME="_ZN8QtCharts11XLogYDomain7zoomOutERK6QRectF" PURGE="0" COMMENT="" />
    <EXPORT ORDINAL="252" NAME="_ZN8QtCharts11XLogYDomain8setRangeEdddd" PURGE="0" COMMENT="" />
    <EXPORT ORDINAL="253" NAME="_ZN8QtCharts11XLogYDomainC1EP7QObject" PURGE="0" COMMENT="" />
    <EXPORT ORDINAL="254" NAME="_ZN8QtCharts11XLogYDomainC2EP7QObject" PURGE="0" COMMENT="" />
    <EXPORT ORDINAL="255" NAME="_ZN8QtCharts11XLogYDomainD0Ev" PURGE="-1" COMMENT="" />
    <EXPORT ORDINAL="256" NAME="_ZN8QtCharts11XLogYDomainD1Ev" PURGE="-1" COMMENT="" />
    <EXPORT ORDINAL="257" NAME="_ZN8QtCharts11XLogYDomainD2Ev" PURGE="-1" COMMENT="" />
    <EXPORT ORDINAL="258" NAME="_ZN8QtCharts11XYAnimation11updateStateEN18QAbstractAnimation5StateES2_" PURGE="0" COMMENT="" />
    <EXPORT ORDINAL="259" NAME="_ZN8QtCharts11XYAnimation18updateCurrentValueERK8QVariant" PURGE="0" COMMENT="" />
    <EXPORT ORDINAL="260" NAME="_ZN8QtCharts11XYAnimation5setupERK7QVectorI7QPointFES5_i" PURGE="0" COMMENT="" />
    <EXPORT ORDINAL="261" NAME="_ZN8QtCharts11XYAnimationC1EPNS_7XYChartEiR12QEasingCurve" PURGE="-1" COMMENT="" />
    <EXPORT ORDINAL="262" NAME="_ZN8QtCharts11XYAnimationC2EPNS_7XYChartEiR12QEasingCurve" PURGE="-1" COMMENT="" />
    <EXPORT ORDINAL="263" NAME="_ZN8QtCharts11XYAnimationD0Ev" PURGE="-1" COMMENT="" />
    <EXPORT ORDINAL="264" NAME="_ZN8QtCharts11XYAnimationD1Ev" PURGE="-1" COMMENT="" />
    <EXPORT ORDINAL="265" NAME="_ZN8QtCharts11XYAnimationD2Ev" PURGE="-1" COMMENT="" />
    <EXPORT ORDINAL="266" NAME="_ZN8QtCharts12BarAnimation11qt_metacallEN11QMetaObject4CallEiPPv" PURGE="0" COMMENT="" />
    <EXPORT ORDINAL="267" NAME="_ZN8QtCharts12BarAnimation11qt_metacastEPKc" PURGE="0" COMMENT="" />
    <EXPORT ORDINAL="268" NAME="_ZN8QtCharts12BarAnimation16staticMetaObjectE" PURGE="-1" COMMENT="" />
    <EXPORT ORDINAL="269" NAME="_ZN8QtCharts12BarAnimation18qt_static_metacallEP7QObjectN11QMetaObject4CallEiPPv" PURGE="0" COMMENT="" />
    <EXPORT ORDINAL="270" NAME="_ZN8QtCharts12BarAnimation18updateCurrentValueERK8QVariant" PURGE="0" COMMENT="" />
    <EXPORT ORDINAL="271" NAME="_ZN8QtCharts12BarAnimation5setupERK7QVectorI6QRectFES5_" PURGE="0" COMMENT="" />
    <EXPORT ORDINAL="272" NAME="_ZN8QtCharts12BarAnimationC1EPNS_20AbstractBarChartItemEiR12QEasingCurve" PURGE="-1" COMMENT="" />
    <EXPORT ORDINAL="273" NAME="_ZN8QtCharts12BarAnimationC2EPNS_20AbstractBarChartItemEiR12QEasingCurve" PURGE="-1" COMMENT="" />
    <EXPORT ORDINAL="274" NAME="_ZN8QtCharts12BarAnimationD0Ev" PURGE="-1" COMMENT="" />
    <EXPORT ORDINAL="275" NAME="_ZN8QtCharts12BarAnimationD1Ev" PURGE="-1" COMMENT="" />
    <EXPORT ORDINAL="276" NAME="_ZN8QtCharts12BarAnimationD2Ev" PURGE="-1" COMMENT="" />
    <EXPORT ORDINAL="277" NAME="_ZN8QtCharts12BarChartItem11qt_metacallEN11QMetaObject4CallEiPPv" PURGE="0" COMMENT="" />
    <EXPORT ORDINAL="278" NAME="_ZN8QtCharts12BarChartItem11qt_metacastEPKc" PURGE="0" COMMENT="" />
    <EXPORT ORDINAL="279" NAME="_ZN8QtCharts12BarChartItem12topLeftPointEiiidd" PURGE="0" COMMENT="" />
    <EXPORT ORDINAL="280" NAME="_ZN8QtCharts12BarChartItem14positionLabelsEv" PURGE="0" COMMENT="" />
    <EXPORT ORDINAL="281" NAME="_ZN8QtCharts12BarChartItem15calculateLayoutEv" PURGE="0" COMMENT="" />
    <EXPORT ORDINAL="282" NAME="_ZN8QtCharts12BarChartItem16bottomRightPointEiiidd" PURGE="0" COMMENT="" />
    <EXPORT ORDINAL="283" NAME="_ZN8QtCharts12BarChartItem16initializeLayoutEiiib" PURGE="0" COMMENT="" />
    <EXPORT ORDINAL="284" NAME="_ZN8QtCharts12BarChartItem16staticMetaObjectE" PURGE="-1" COMMENT="" />
    <EXPORT ORDINAL="285" NAME="_ZN8QtCharts12BarChartItem18qt_static_metacallEP7QObjectN11QMetaObject4CallEiPPv" PURGE="0" COMMENT="" />
    <EXPORT ORDINAL="286" NAME="_ZN8QtCharts12BarChartItem27handleLabelsPositionChangedEv" PURGE="0" COMMENT="" />
    <EXPORT ORDINAL="287" NAME="_ZN8QtCharts12BarChartItemC1EPNS_18QAbstractBarSeriesEP13QGraphicsItem" PURGE="0" COMMENT="" />
    <EXPORT ORDINAL="288" NAME="_ZN8QtCharts12BarChartItemC2EPNS_18QAbstractBarSeriesEP13QGraphicsItem" PURGE="0" COMMENT="" />
    <EXPORT ORDINAL="289" NAME="_ZN8QtCharts12ChartDataSet10attachAxisEPNS_15QAbstractSeriesEPNS_13QAbstractAxisE" PURGE="0" COMMENT="" />
    <EXPORT ORDINAL="290" NAME="_ZN8QtCharts12ChartDataSet10createAxesE6QFlagsINS_13QAbstractAxis8AxisTypeEEN2Qt11OrientationE" PURGE="0" COMMENT="" />
    <EXPORT ORDINAL="291" NAME="_ZN8QtCharts12ChartDataSet10detachAxisEPNS_15QAbstractSeriesEPNS_13QAbstractAxisE" PURGE="0" COMMENT="" />
    <EXPORT ORDINAL="292" NAME="_ZN8QtCharts12ChartDataSet10mapToValueERK7QPointFPNS_15QAbstractSeriesE" PURGE="0" COMMENT="" />
    <EXPORT ORDINAL="293" NAME="_ZN8QtCharts12ChartDataSet10removeAxisEPNS_13QAbstractAxisE" PURGE="0" COMMENT="" />
    <EXPORT ORDINAL="294" NAME="_ZN8QtCharts12ChartDataSet11axisRemovedEPNS_13QAbstractAxisE" PURGE="0" COMMENT="" />
    <EXPORT ORDINAL="295" NAME="_ZN8QtCharts12ChartDataSet11qt_metacallEN11QMetaObject4CallEiPPv" PURGE="0" COMMENT="" />
    <EXPORT ORDINAL="296" NAME="_ZN8QtCharts12ChartDataSet11qt_metacastEPKc" PURGE="0" COMMENT="" />
    <EXPORT ORDINAL="297" NAME="_ZN8QtCharts12ChartDataSet11seriesAddedEPNS_15QAbstractSeriesE" PURGE="0" COMMENT="" />
    <EXPORT ORDINAL="298" NAME="_ZN8QtCharts12ChartDataSet12createDomainENS_14AbstractDomain10DomainTypeE" PURGE="0" COMMENT="" />
    <EXPORT ORDINAL="299" NAME="_ZN8QtCharts12ChartDataSet12removeSeriesEPNS_15QAbstractSeriesE" PURGE="0" COMMENT="" />
    <EXPORT ORDINAL="300" NAME="_ZN8QtCharts12ChartDataSet12scrollDomainEdd" PURGE="0" COMMENT="" />
    <EXPORT ORDINAL="301" NAME="_ZN8QtCharts12ChartDataSet12selectDomainE5QListIPNS_13QAbstractAxisEE" PURGE="0" COMMENT="" />
    <EXPORT ORDINAL="302" NAME="_ZN8QtCharts12ChartDataSet12zoomInDomainERK6QRectF" PURGE="0" COMMENT="" />
    <EXPORT ORDINAL="303" NAME="_ZN8QtCharts12ChartDataSet13deleteAllAxesEv" PURGE="0" COMMENT="" />
    <EXPORT ORDINAL="304" NAME="_ZN8QtCharts12ChartDataSet13mapToPositionERK7QPointFPNS_15QAbstractSeriesE" PURGE="0" COMMENT="" />
    <EXPORT ORDINAL="305" NAME="_ZN8QtCharts12ChartDataSet13seriesRemovedEPNS_15QAbstractSeriesE" PURGE="0" COMMENT="" />
    <EXPORT ORDINAL="306" NAME="_ZN8QtCharts12ChartDataSet13zoomOutDomainERK6QRectF" PURGE="0" COMMENT="" />
    <EXPORT ORDINAL="307" NAME="_ZN8QtCharts12ChartDataSet14isZoomedDomainEv" PURGE="0" COMMENT="" />
    <EXPORT ORDINAL="308" NAME="_ZN8QtCharts12ChartDataSet14reverseChangedEv" PURGE="0" COMMENT="" />
    <EXPORT ORDINAL="309" NAME="_ZN8QtCharts12ChartDataSet15deleteAllSeriesEv" PURGE="0" COMMENT="" />
    <EXPORT ORDINAL="310" NAME="_ZN8QtCharts12ChartDataSet15zoomResetDomainEv" PURGE="0" COMMENT="" />
    <EXPORT ORDINAL="311" NAME="_ZN8QtCharts12ChartDataSet16staticMetaObjectE" PURGE="-1" COMMENT="" />
    <EXPORT ORDINAL="312" NAME="_ZN8QtCharts12ChartDataSet17createDefaultAxesEv" PURGE="0" COMMENT="" />
    <EXPORT ORDINAL="313" NAME="_ZN8QtCharts12ChartDataSet18qt_static_metacallEP7QObjectN11QMetaObject4CallEiPPv" PURGE="0" COMMENT="" />
    <EXPORT ORDINAL="314" NAME="_ZN8QtCharts12ChartDataSet19findMinMaxForSeriesE5QListIPNS_15QAbstractSeriesEE6QFlagsIN2Qt11OrientationEERdS9_" PURGE="0" COMMENT="" />
    <EXPORT ORDINAL="315" NAME="_ZN8QtCharts12ChartDataSet7addAxisEPNS_13QAbstractAxisE6QFlagsIN2Qt13AlignmentFlagEE" PURGE="0" COMMENT="" />
    <EXPORT ORDINAL="316" NAME="_ZN8QtCharts12ChartDataSet9addSeriesEPNS_15QAbstractSeriesE" PURGE="0" COMMENT="" />
    <EXPORT ORDINAL="317" NAME="_ZN8QtCharts12ChartDataSet9axisAddedEPNS_13QAbstractAxisE" PURGE="0" COMMENT="" />
    <EXPORT ORDINAL="318" NAME="_ZN8QtCharts12ChartDataSetC1EPNS_6QChartE" PURGE="0" COMMENT="" />
    <EXPORT ORDINAL="319" NAME="_ZN8QtCharts12ChartDataSetC2EPNS_6QChartE" PURGE="0" COMMENT="" />
    <EXPORT ORDINAL="320" NAME="_ZN8QtCharts12ChartDataSetD0Ev" PURGE="-1" COMMENT="" />
    <EXPORT ORDINAL="321" NAME="_ZN8QtCharts12ChartDataSetD1Ev" PURGE="-1" COMMENT="" />
    <EXPORT ORDINAL="322" NAME="_ZN8QtCharts12ChartDataSetD2Ev" PURGE="-1" COMMENT="" />
    <EXPORT ORDINAL="323" NAME="_ZN8QtCharts12ChartElement10setDataSetEPNS_12ChartDataSetE" PURGE="0" COMMENT="" />
    <EXPORT ORDINAL="324" NAME="_ZN8QtCharts12ChartElement12setPresenterEPNS_14ChartPresenterE" PURGE="0" COMMENT="" />
    <EXPORT ORDINAL="325" NAME="_ZN8QtCharts12ChartElement15setThemeManagerEPNS_17ChartThemeManagerE" PURGE="0" COMMENT="" />
    <EXPORT ORDINAL="326" NAME="_ZN8QtCharts12ChartElementC1EP13QGraphicsItem" PURGE="0" COMMENT="" />
    <EXPORT ORDINAL="327" NAME="_ZN8QtCharts12ChartElementC2EP13QGraphicsItem" PURGE="0" COMMENT="" />
    <EXPORT ORDINAL="328" NAME="_ZN8QtCharts12LegendLayout10invalidateEv" PURGE="0" COMMENT="" />
    <EXPORT ORDINAL="329" NAME="_ZN8QtCharts12LegendLayout11setGeometryERK6QRectF" PURGE="0" COMMENT="" />
    <EXPORT ORDINAL="330" NAME="_ZN8QtCharts12LegendLayout15widthLongerThanEPKNS0_17LegendWidthStructES3_" PURGE="0" COMMENT="" />
    <EXPORT ORDINAL="331" NAME="_ZN8QtCharts12LegendLayout19setAttachedGeometryERK6QRectF" PURGE="0" COMMENT="" />
    <EXPORT ORDINAL="332" NAME="_ZN8QtCharts12LegendLayout20setDettachedGeometryERK6QRectF" PURGE="0" COMMENT="" />
    <EXPORT ORDINAL="333" NAME="_ZN8QtCharts12LegendLayout9setOffsetEdd" PURGE="0" COMMENT="" />
    <EXPORT ORDINAL="334" NAME="_ZN8QtCharts12LegendLayoutC1EPNS_7QLegendE" PURGE="0" COMMENT="" />
    <EXPORT ORDINAL="335" NAME="_ZN8QtCharts12LegendLayoutC2EPNS_7QLegendE" PURGE="0" COMMENT="" />
    <EXPORT ORDINAL="336" NAME="_ZN8QtCharts12LegendLayoutD0Ev" PURGE="-1" COMMENT="" />
    <EXPORT ORDINAL="337" NAME="_ZN8QtCharts12LegendLayoutD1Ev" PURGE="-1" COMMENT="" />
    <EXPORT ORDINAL="338" NAME="_ZN8QtCharts12LegendLayoutD2Ev" PURGE="-1" COMMENT="" />
    <EXPORT ORDINAL="339" NAME="_ZN8QtCharts12PieAnimation11qt_metacallEN11QMetaObject4CallEiPPv" PURGE="0" COMMENT="" />
    <EXPORT ORDINAL="340" NAME="_ZN8QtCharts12PieAnimation11qt_metacastEPKc" PURGE="0" COMMENT="" />
    <EXPORT ORDINAL="341" NAME="_ZN8QtCharts12PieAnimation11removeSliceEPNS_12PieSliceItemE" PURGE="0" COMMENT="" />
    <EXPORT ORDINAL="342" NAME="_ZN8QtCharts12PieAnimation11updateValueEPNS_12PieSliceItemERKNS_12PieSliceDataE" PURGE="0" COMMENT="" />
    <EXPORT ORDINAL="343" NAME="_ZN8QtCharts12PieAnimation16staticMetaObjectE" PURGE="-1" COMMENT="" />
    <EXPORT ORDINAL="344" NAME="_ZN8QtCharts12PieAnimation18qt_static_metacallEP7QObjectN11QMetaObject4CallEiPPv" PURGE="0" COMMENT="" />
    <EXPORT ORDINAL="345" NAME="_ZN8QtCharts12PieAnimation18updateCurrentValueERK8QVariant" PURGE="0" COMMENT="" />
    <EXPORT ORDINAL="346" NAME="_ZN8QtCharts12PieAnimation8addSliceEPNS_12PieSliceItemERKNS_12PieSliceDataEb" PURGE="0" COMMENT="" />
    <EXPORT ORDINAL="347" NAME="_ZN8QtCharts12PieAnimationC1EPNS_12PieChartItemEiR12QEasingCurve" PURGE="-1" COMMENT="" />
    <EXPORT ORDINAL="348" NAME="_ZN8QtCharts12PieAnimationC2EPNS_12PieChartItemEiR12QEasingCurve" PURGE="-1" COMMENT="" />
    <EXPORT ORDINAL="349" NAME="_ZN8QtCharts12PieAnimationD0Ev" PURGE="-1" COMMENT="" />
    <EXPORT ORDINAL="350" NAME="_ZN8QtCharts12PieAnimationD1Ev" PURGE="-1" COMMENT="" />
    <EXPORT ORDINAL="351" NAME="_ZN8QtCharts12PieAnimationD2Ev" PURGE="-1" COMMENT="" />
    <EXPORT ORDINAL="352" NAME="_ZN8QtCharts12PieChartItem11qt_metacallEN11QMetaObject4CallEiPPv" PURGE="0" COMMENT="" />
    <EXPORT ORDINAL="353" NAME="_ZN8QtCharts12PieChartItem11qt_metacastEPKc" PURGE="0" COMMENT="" />
    <EXPORT ORDINAL="354" NAME="_ZN8QtCharts12PieChartItem12setAnimationEPNS_12PieAnimationE" PURGE="0" COMMENT="" />
    <EXPORT ORDINAL="355" NAME="_ZN8QtCharts12PieChartItem12updateLayoutEv" PURGE="0" COMMENT="" />
    <EXPORT ORDINAL="356" NAME="_ZN8QtCharts12PieChartItem15hoverEnterEventEP24QGraphicsSceneHoverEvent" PURGE="0" COMMENT="" />
    <EXPORT ORDINAL="357" NAME="_ZN8QtCharts12PieChartItem15hoverLeaveEventEP24QGraphicsSceneHoverEvent" PURGE="0" COMMENT="" />
    <EXPORT ORDINAL="358" NAME="_ZN8QtCharts12PieChartItem15mousePressEventEP24QGraphicsSceneMouseEvent" PURGE="0" COMMENT="" />
    <EXPORT ORDINAL="359" NAME="_ZN8QtCharts12PieChartItem16staticMetaObjectE" PURGE="-1" COMMENT="" />
    <EXPORT ORDINAL="360" NAME="_ZN8QtCharts12PieChartItem17handleSlicesAddedE5QListIPNS_9QPieSliceEE" PURGE="0" COMMENT="" />
    <EXPORT ORDINAL="361" NAME="_ZN8QtCharts12PieChartItem17mouseReleaseEventEP24QGraphicsSceneMouseEvent" PURGE="0" COMMENT="" />
    <EXPORT ORDINAL="362" NAME="_ZN8QtCharts12PieChartItem18handleSliceChangedEv" PURGE="0" COMMENT="" />
    <EXPORT ORDINAL="363" NAME="_ZN8QtCharts12PieChartItem18qt_static_metacallEP7QObjectN11QMetaObject4CallEiPPv" PURGE="0" COMMENT="" />
    <EXPORT ORDINAL="364" NAME="_ZN8QtCharts12PieChartItem19handleDomainUpdatedEv" PURGE="0" COMMENT="" />
    <EXPORT ORDINAL="365" NAME="_ZN8QtCharts12PieChartItem19handleSlicesRemovedE5QListIPNS_9QPieSliceEE" PURGE="0" COMMENT="" />
    <EXPORT ORDINAL="366" NAME="_ZN8QtCharts12PieChartItem19updateSliceGeometryEPNS_9QPieSliceE" PURGE="0" COMMENT="" />
    <EXPORT ORDINAL="367" NAME="_ZN8QtCharts12PieChartItem20handleOpacityChangedEv" PURGE="-1" COMMENT="" />
    <EXPORT ORDINAL="368" NAME="_ZN8QtCharts12PieChartItem21mouseDoubleClickEventEP24QGraphicsSceneMouseEvent" PURGE="0" COMMENT="" />
    <EXPORT ORDINAL="369" NAME="_ZN8QtCharts12PieChartItem26handleSeriesVisibleChangedEv" PURGE="-1" COMMENT="" />
    <EXPORT ORDINAL="370" NAME="_ZN8QtCharts12PieChartItem7cleanupEv" PURGE="0" COMMENT="" />
    <EXPORT ORDINAL="371" NAME="_ZN8QtCharts12PieChartItemC1EPNS_10QPieSeriesEP13QGraphicsItem" PURGE="0" COMMENT="" />
    <EXPORT ORDINAL="372" NAME="_ZN8QtCharts12PieChartItemC2EPNS_10QPieSeriesEP13QGraphicsItem" PURGE="0" COMMENT="" />
    <EXPORT ORDINAL="373" NAME="_ZN8QtCharts12PieChartItemD0Ev" PURGE="-1" COMMENT="" />
    <EXPORT ORDINAL="374" NAME="_ZN8QtCharts12PieChartItemD1Ev" PURGE="-1" COMMENT="" />
    <EXPORT ORDINAL="375" NAME="_ZN8QtCharts12PieChartItemD2Ev" PURGE="-1" COMMENT="" />
    <EXPORT ORDINAL="376" NAME="_ZN8QtCharts12PieSliceItem11qt_metacallEN11QMetaObject4CallEiPPv" PURGE="0" COMMENT="" />
    <EXPORT ORDINAL="377" NAME="_ZN8QtCharts12PieSliceItem11qt_metacastEPKc" PURGE="0" COMMENT="" />
    <EXPORT ORDINAL="378" NAME="_ZN8QtCharts12PieSliceItem11sliceCenterE7QPointFdPNS_9QPieSliceE" PURGE="0" COMMENT="" />
    <EXPORT ORDINAL="379" NAME="_ZN8QtCharts12PieSliceItem12labelArmPathE7QPointFdddPS1_" PURGE="0" COMMENT="" />
    <EXPORT ORDINAL="380" NAME="_ZN8QtCharts12PieSliceItem13doubleClickedE6QFlagsIN2Qt11MouseButtonEE" PURGE="0" COMMENT="" />
    <EXPORT ORDINAL="381" NAME="_ZN8QtCharts12PieSliceItem14updateGeometryEv" PURGE="0" COMMENT="" />
    <EXPORT ORDINAL="382" NAME="_ZN8QtCharts12PieSliceItem15hoverEnterEventEP24QGraphicsSceneHoverEvent" PURGE="0" COMMENT="" />
    <EXPORT ORDINAL="383" NAME="_ZN8QtCharts12PieSliceItem15hoverLeaveEventEP24QGraphicsSceneHoverEvent" PURGE="0" COMMENT="" />
    <EXPORT ORDINAL="384" NAME="_ZN8QtCharts12PieSliceItem15mousePressEventEP24QGraphicsSceneMouseEvent" PURGE="0" COMMENT="" />
    <EXPORT ORDINAL="385" NAME="_ZN8QtCharts12PieSliceItem16staticMetaObjectE" PURGE="-1" COMMENT="" />
    <EXPORT ORDINAL="386" NAME="_ZN8QtCharts12PieSliceItem17mouseReleaseEventEP24QGraphicsSceneMouseEvent" PURGE="0" COMMENT="" />
    <EXPORT ORDINAL="387" NAME="_ZN8QtCharts12PieSliceItem18qt_static_metacallEP7QObjectN11QMetaObject4CallEiPPv" PURGE="0" COMMENT="" />
    <EXPORT ORDINAL="388" NAME="_ZN8QtCharts12PieSliceItem21mouseDoubleClickEventEP24QGraphicsSceneMouseEvent" PURGE="0" COMMENT="" />
    <EXPORT ORDINAL="389" NAME="_ZN8QtCharts12PieSliceItem5paintEP8QPainterPK24QStyleOptionGraphicsItemP7QWidget" PURGE="0" COMMENT="" />
    <EXPORT ORDINAL="390" NAME="_ZN8QtCharts12PieSliceItem7clickedE6QFlagsIN2Qt11MouseButtonEE" PURGE="0" COMMENT="" />
    <EXPORT ORDINAL="391" NAME="_ZN8QtCharts12PieSliceItem7hoveredEb" PURGE="0" COMMENT="" />
    <EXPORT ORDINAL="392" NAME="_ZN8QtCharts12PieSliceItem7pressedE6QFlagsIN2Qt11MouseButtonEE" PURGE="0" COMMENT="" />
    <EXPORT ORDINAL="393" NAME="_ZN8QtCharts12PieSliceItem8releasedE6QFlagsIN2Qt11MouseButtonEE" PURGE="0" COMMENT="" />
    <EXPORT ORDINAL="394" NAME="_ZN8QtCharts12PieSliceItem9setLayoutERKNS_12PieSliceDataE" PURGE="0" COMMENT="" />
    <EXPORT ORDINAL="395" NAME="_ZN8QtCharts12PieSliceItem9slicePathE7QPointFdddPdPS1_" PURGE="0" COMMENT="" />
    <EXPORT ORDINAL="396" NAME="_ZN8QtCharts12PieSliceItemC1EP13QGraphicsItem" PURGE="-1" COMMENT="" />
    <EXPORT ORDINAL="397" NAME="_ZN8QtCharts12PieSliceItemC2EP13QGraphicsItem" PURGE="-1" COMMENT="" />
    <EXPORT ORDINAL="398" NAME="_ZN8QtCharts12PieSliceItemD0Ev" PURGE="-1" COMMENT="" />
    <EXPORT ORDINAL="399" NAME="_ZN8QtCharts12PieSliceItemD1Ev" PURGE="0" COMMENT="" />
    <EXPORT ORDINAL="400" NAME="_ZN8QtCharts12PieSliceItemD2Ev" PURGE="0" COMMENT="" />
    <EXPORT ORDINAL="401" NAME="_ZN8QtCharts12ScrollTicker10timerEventEP11QTimerEvent" PURGE="0" COMMENT="" />
    <EXPORT ORDINAL="402" NAME="_ZN8QtCharts12ScrollTicker11qt_metacallEN11QMetaObject4CallEiPPv" PURGE="-1" COMMENT="" />
    <EXPORT ORDINAL="403" NAME="_ZN8QtCharts12ScrollTicker11qt_metacastEPKc" PURGE="0" COMMENT="" />
    <EXPORT ORDINAL="404" NAME="_ZN8QtCharts12ScrollTicker16staticMetaObjectE" PURGE="-1" COMMENT="" />
    <EXPORT ORDINAL="405" NAME="_ZN8QtCharts12ScrollTicker18qt_static_metacallEP7QObjectN11QMetaObject4CallEiPPv" PURGE="0" COMMENT="" />
    <EXPORT ORDINAL="406" NAME="_ZN8QtCharts12ScrollTicker4stopEv" PURGE="-1" COMMENT="" />
    <EXPORT ORDINAL="407" NAME="_ZN8QtCharts12ScrollTicker5startEi" PURGE="0" COMMENT="" />
    <EXPORT ORDINAL="408" NAME="_ZN8QtCharts12ScrollTickerC1EPNS_8ScrollerEP7QObject" PURGE="0" COMMENT="" />
    <EXPORT ORDINAL="409" NAME="_ZN8QtCharts12ScrollTickerC2EPNS_8ScrollerEP7QObject" PURGE="0" COMMENT="" />
    <EXPORT ORDINAL="410" NAME="_ZN8QtCharts12VerticalAxis14updateGeometryEv" PURGE="0" COMMENT="" />
    <EXPORT ORDINAL="411" NAME="_ZN8QtCharts12VerticalAxis23updateMinorTickGeometryEv" PURGE="0" COMMENT="" />
    <EXPORT ORDINAL="412" NAME="_ZN8QtCharts12VerticalAxisC1EPNS_13QAbstractAxisEP13QGraphicsItemb" PURGE="0" COMMENT="" />
    <EXPORT ORDINAL="413" NAME="_ZN8QtCharts12VerticalAxisC2EPNS_13QAbstractAxisEP13QGraphicsItemb" PURGE="0" COMMENT="" />
    <EXPORT ORDINAL="414" NAME="_ZN8QtCharts12VerticalAxisD0Ev" PURGE="-1" COMMENT="" />
    <EXPORT ORDINAL="415" NAME="_ZN8QtCharts12VerticalAxisD1Ev" PURGE="-1" COMMENT="" />
    <EXPORT ORDINAL="416" NAME="_ZN8QtCharts12VerticalAxisD2Ev" PURGE="-1" COMMENT="" />
    <EXPORT ORDINAL="417" NAME="_ZN8QtCharts13AreaChartItem10updatePathEv" PURGE="0" COMMENT="" />
    <EXPORT ORDINAL="418" NAME="_ZN8QtCharts13AreaChartItem11qt_metacallEN11QMetaObject4CallEiPPv" PURGE="0" COMMENT="" />
    <EXPORT ORDINAL="419" NAME="_ZN8QtCharts13AreaChartItem11qt_metacastEPKc" PURGE="0" COMMENT="" />
    <EXPORT ORDINAL="420" NAME="_ZN8QtCharts13AreaChartItem12setPresenterEPNS_14ChartPresenterE" PURGE="0" COMMENT="" />
    <EXPORT ORDINAL="421" NAME="_ZN8QtCharts13AreaChartItem13doubleClickedERK7QPointF" PURGE="0" COMMENT="" />
    <EXPORT ORDINAL="422" NAME="_ZN8QtCharts13AreaChartItem13handleUpdatedEv" PURGE="0" COMMENT="" />
    <EXPORT ORDINAL="423" NAME="_ZN8QtCharts13AreaChartItem14setLowerSeriesEPNS_11QLineSeriesE" PURGE="0" COMMENT="" />
    <EXPORT ORDINAL="424" NAME="_ZN8QtCharts13AreaChartItem14setUpperSeriesEPNS_11QLineSeriesE" PURGE="0" COMMENT="" />
    <EXPORT ORDINAL="425" NAME="_ZN8QtCharts13AreaChartItem15hoverEnterEventEP24QGraphicsSceneHoverEvent" PURGE="0" COMMENT="" />
    <EXPORT ORDINAL="426" NAME="_ZN8QtCharts13AreaChartItem15hoverLeaveEventEP24QGraphicsSceneHoverEvent" PURGE="0" COMMENT="" />
    <EXPORT ORDINAL="427" NAME="_ZN8QtCharts13AreaChartItem15mousePressEventEP24QGraphicsSceneMouseEvent" PURGE="0" COMMENT="" />
    <EXPORT ORDINAL="428" NAME="_ZN8QtCharts13AreaChartItem16staticMetaObjectE" PURGE="-1" COMMENT="" />
    <EXPORT ORDINAL="429" NAME="_ZN8QtCharts13AreaChartItem17mouseReleaseEventEP24QGraphicsSceneMouseEvent" PURGE="0" COMMENT="" />
    <EXPORT ORDINAL="430" NAME="_ZN8QtCharts13AreaChartItem18qt_static_metacallEP7QObjectN11QMetaObject4CallEiPPv" PURGE="0" COMMENT="" />
    <EXPORT ORDINAL="431" NAME="_ZN8QtCharts13AreaChartItem19fixEdgeSeriesDomainEPNS_13LineChartItemE" PURGE="0" COMMENT="" />
    <EXPORT ORDINAL="432" NAME="_ZN8QtCharts13AreaChartItem19handleDomainUpdatedEv" PURGE="0" COMMENT="" />
    <EXPORT ORDINAL="433" NAME="_ZN8QtCharts13AreaChartItem21mouseDoubleClickEventEP24QGraphicsSceneMouseEvent" PURGE="0" COMMENT="" />
    <EXPORT ORDINAL="434" NAME="_ZN8QtCharts13AreaChartItem5paintEP8QPainterPK24QStyleOptionGraphicsItemP7QWidget" PURGE="0" COMMENT="" />
    <EXPORT ORDINAL="435" NAME="_ZN8QtCharts13AreaChartItem7clickedERK7QPointF" PURGE="0" COMMENT="" />
    <EXPORT ORDINAL="436" NAME="_ZN8QtCharts13AreaChartItem7hoveredERK7QPointFb" PURGE="0" COMMENT="" />
    <EXPORT ORDINAL="437" NAME="_ZN8QtCharts13AreaChartItem7pressedERK7QPointF" PURGE="0" COMMENT="" />
    <EXPORT ORDINAL="438" NAME="_ZN8QtCharts13AreaChartItem8releasedERK7QPointF" PURGE="0" COMMENT="" />
    <EXPORT ORDINAL="439" NAME="_ZN8QtCharts13AreaChartItemC1EPNS_11QAreaSeriesEP13QGraphicsItem" PURGE="0" COMMENT="" />
    <EXPORT ORDINAL="440" NAME="_ZN8QtCharts13AreaChartItemC2EPNS_11QAreaSeriesEP13QGraphicsItem" PURGE="0" COMMENT="" />
    <EXPORT ORDINAL="441" NAME="_ZN8QtCharts13AreaChartItemD0Ev" PURGE="-1" COMMENT="" />
    <EXPORT ORDINAL="442" NAME="_ZN8QtCharts13AreaChartItemD1Ev" PURGE="-1" COMMENT="" />
    <EXPORT ORDINAL="443" NAME="_ZN8QtCharts13AreaChartItemD2Ev" PURGE="-1" COMMENT="" />
    <EXPORT ORDINAL="444" NAME="_ZN8QtCharts13AxisAnimation16setAnimationTypeENS0_9AnimationE" PURGE="0" COMMENT="" />
    <EXPORT ORDINAL="445" NAME="_ZN8QtCharts13AxisAnimation17setAnimationPointERK7QPointF" PURGE="0" COMMENT="" />
    <EXPORT ORDINAL="446" NAME="_ZN8QtCharts13AxisAnimation18updateCurrentValueERK8QVariant" PURGE="0" COMMENT="" />
    <EXPORT ORDINAL="447" NAME="_ZN8QtCharts13AxisAnimation9setValuesER7QVectorIdES3_" PURGE="0" COMMENT="" />
    <EXPORT ORDINAL="448" NAME="_ZN8QtCharts13AxisAnimationC1EPNS_16ChartAxisElementEiR12QEasingCurve" PURGE="-1" COMMENT="" />
    <EXPORT ORDINAL="449" NAME="_ZN8QtCharts13AxisAnimationC2EPNS_16ChartAxisElementEiR12QEasingCurve" PURGE="-1" COMMENT="" />
    <EXPORT ORDINAL="450" NAME="_ZN8QtCharts13AxisAnimationD0Ev" PURGE="-1" COMMENT="" />
    <EXPORT ORDINAL="451" NAME="_ZN8QtCharts13AxisAnimationD1Ev" PURGE="-1" COMMENT="" />
    <EXPORT ORDINAL="452" NAME="_ZN8QtCharts13AxisAnimationD2Ev" PURGE="-1" COMMENT="" />
    <EXPORT ORDINAL="453" NAME="_ZN8QtCharts13LineChartItem11qt_metacallEN11QMetaObject4CallEiPPv" PURGE="0" COMMENT="" />
    <EXPORT ORDINAL="454" NAME="_ZN8QtCharts13LineChartItem11qt_metacastEPKc" PURGE="0" COMMENT="" />
    <EXPORT ORDINAL="455" NAME="_ZN8QtCharts13LineChartItem13handleUpdatedEv" PURGE="0" COMMENT="" />
    <EXPORT ORDINAL="456" NAME="_ZN8QtCharts13LineChartItem14updateGeometryEv" PURGE="0" COMMENT="" />
    <EXPORT ORDINAL="457" NAME="_ZN8QtCharts13LineChartItem15hoverEnterEventEP24QGraphicsSceneHoverEvent" PURGE="0" COMMENT="" />
    <EXPORT ORDINAL="458" NAME="_ZN8QtCharts13LineChartItem15hoverLeaveEventEP24QGraphicsSceneHoverEvent" PURGE="0" COMMENT="" />
    <EXPORT ORDINAL="459" NAME="_ZN8QtCharts13LineChartItem15mousePressEventEP24QGraphicsSceneMouseEvent" PURGE="0" COMMENT="" />
    <EXPORT ORDINAL="460" NAME="_ZN8QtCharts13LineChartItem16staticMetaObjectE" PURGE="-1" COMMENT="" />
    <EXPORT ORDINAL="461" NAME="_ZN8QtCharts13LineChartItem17mouseReleaseEventEP24QGraphicsSceneMouseEvent" PURGE="0" COMMENT="" />
    <EXPORT ORDINAL="462" NAME="_ZN8QtCharts13LineChartItem18qt_static_metacallEP7QObjectN11QMetaObject4CallEiPPv" PURGE="0" COMMENT="" />
    <EXPORT ORDINAL="463" NAME="_ZN8QtCharts13LineChartItem21mouseDoubleClickEventEP24QGraphicsSceneMouseEvent" PURGE="0" COMMENT="" />
    <EXPORT ORDINAL="464" NAME="_ZN8QtCharts13LineChartItem5paintEP8QPainterPK24QStyleOptionGraphicsItemP7QWidget" PURGE="0" COMMENT="" />
    <EXPORT ORDINAL="465" NAME="_ZN8QtCharts13LineChartItemC1EPNS_11QLineSeriesEP13QGraphicsItem" PURGE="0" COMMENT="" />
    <EXPORT ORDINAL="466" NAME="_ZN8QtCharts13LineChartItemC2EPNS_11QLineSeriesEP13QGraphicsItem" PURGE="0" COMMENT="" />
    <EXPORT ORDINAL="467" NAME="_ZN8QtCharts13QAbstractAxis10setLinePenERK4QPen" PURGE="0" COMMENT="" />
    <EXPORT ORDINAL="468" NAME="_ZN8QtCharts13QAbstractAxis10setReverseEb" PURGE="0" COMMENT="" />
    <EXPORT ORDINAL="469" NAME="_ZN8QtCharts13QAbstractAxis10setVisibleEb" PURGE="0" COMMENT="" />
    <EXPORT ORDINAL="470" NAME="_ZN8QtCharts13QAbstractAxis11qt_metacallEN11QMetaObject4CallEiPPv" PURGE="0" COMMENT="" />
    <EXPORT ORDINAL="471" NAME="_ZN8QtCharts13QAbstractAxis11qt_metacastEPKc" PURGE="0" COMMENT="" />
    <EXPORT ORDINAL="472" NAME="_ZN8QtCharts13QAbstractAxis12colorChangedE6QColor" PURGE="0" COMMENT="" />
    <EXPORT ORDINAL="473" NAME="_ZN8QtCharts13QAbstractAxis12setShadesPenERK4QPen" PURGE="0" COMMENT="" />
    <EXPORT ORDINAL="474" NAME="_ZN8QtCharts13QAbstractAxis12setTitleFontERK5QFont" PURGE="0" COMMENT="" />
    <EXPORT ORDINAL="475" NAME="_ZN8QtCharts13QAbstractAxis12setTitleTextERK7QString" PURGE="0" COMMENT="" />
    <EXPORT ORDINAL="476" NAME="_ZN8QtCharts13QAbstractAxis13gridLineColorEv" PURGE="0" COMMENT="" />
    <EXPORT ORDINAL="477" NAME="_ZN8QtCharts13QAbstractAxis13setLabelsFontERK5QFont" PURGE="0" COMMENT="" />
    <EXPORT ORDINAL="478" NAME="_ZN8QtCharts13QAbstractAxis13setTitleBrushERK6QBrush" PURGE="0" COMMENT="" />
    <EXPORT ORDINAL="479" NAME="_ZN8QtCharts13QAbstractAxis14linePenChangedERK4QPen" PURGE="0" COMMENT="" />
    <EXPORT ORDINAL="480" NAME="_ZN8QtCharts13QAbstractAxis14reverseChangedEb" PURGE="0" COMMENT="" />
    <EXPORT ORDINAL="481" NAME="_ZN8QtCharts13QAbstractAxis14setGridLinePenERK4QPen" PURGE="0" COMMENT="" />
    <EXPORT ORDINAL="482" NAME="_ZN8QtCharts13QAbstractAxis14setLabelsAngleEi" PURGE="0" COMMENT="" />
    <EXPORT ORDINAL="483" NAME="_ZN8QtCharts13QAbstractAxis14setLabelsBrushERK6QBrush" PURGE="0" COMMENT="" />
    <EXPORT ORDINAL="484" NAME="_ZN8QtCharts13QAbstractAxis14setLabelsColorE6QColor" PURGE="0" COMMENT="" />
    <EXPORT ORDINAL="485" NAME="_ZN8QtCharts13QAbstractAxis14setLineVisibleEb" PURGE="0" COMMENT="" />
    <EXPORT ORDINAL="486" NAME="_ZN8QtCharts13QAbstractAxis14setShadesBrushERK6QBrush" PURGE="0" COMMENT="" />
    <EXPORT ORDINAL="487" NAME="_ZN8QtCharts13QAbstractAxis14setShadesColorE6QColor" PURGE="0" COMMENT="" />
    <EXPORT ORDINAL="488" NAME="_ZN8QtCharts13QAbstractAxis14visibleChangedEb" PURGE="0" COMMENT="" />
    <EXPORT ORDINAL="489" NAME="_ZN8QtCharts13QAbstractAxis15setLinePenColorE6QColor" PURGE="0" COMMENT="" />
    <EXPORT ORDINAL="490" NAME="_ZN8QtCharts13QAbstractAxis15setTitleVisibleEb" PURGE="0" COMMENT="" />
    <EXPORT ORDINAL="491" NAME="_ZN8QtCharts13QAbstractAxis16setGridLineColorERK6QColor" PURGE="0" COMMENT="" />
    <EXPORT ORDINAL="492" NAME="_ZN8QtCharts13QAbstractAxis16setLabelsVisibleEb" PURGE="0" COMMENT="" />
    <EXPORT ORDINAL="493" NAME="_ZN8QtCharts13QAbstractAxis16setShadesVisibleEb" PURGE="0" COMMENT="" />
    <EXPORT ORDINAL="494" NAME="_ZN8QtCharts13QAbstractAxis16shadesPenChangedERK4QPen" PURGE="0" COMMENT="" />
    <EXPORT ORDINAL="495" NAME="_ZN8QtCharts13QAbstractAxis16staticMetaObjectE" PURGE="-1" COMMENT="" />
    <EXPORT ORDINAL="496" NAME="_ZN8QtCharts13QAbstractAxis16titleFontChangedERK5QFont" PURGE="0" COMMENT="" />
    <EXPORT ORDINAL="497" NAME="_ZN8QtCharts13QAbstractAxis16titleTextChangedERK7QString" PURGE="0" COMMENT="" />
    <EXPORT ORDINAL="498" NAME="_ZN8QtCharts13QAbstractAxis17labelsFontChangedERK5QFont" PURGE="0" COMMENT="" />
    <EXPORT ORDINAL="499" NAME="_ZN8QtCharts13QAbstractAxis17titleBrushChangedERK6QBrush" PURGE="0" COMMENT="" />
    <EXPORT ORDINAL="500" NAME="_ZN8QtCharts13QAbstractAxis18gridLinePenChangedERK4QPen" PURGE="0" COMMENT="" />
    <EXPORT ORDINAL="501" NAME="_ZN8QtCharts13QAbstractAxis18gridVisibleChangedEb" PURGE="0" COMMENT="" />
    <EXPORT ORDINAL="502" NAME="_ZN8QtCharts13QAbstractAxis18labelsAngleChangedEi" PURGE="0" COMMENT="" />
    <EXPORT ORDINAL="503" NAME="_ZN8QtCharts13QAbstractAxis18labelsBrushChangedERK6QBrush" PURGE="0" COMMENT="" />
    <EXPORT ORDINAL="504" NAME="_ZN8QtCharts13QAbstractAxis18labelsColorChangedE6QColor" PURGE="0" COMMENT="" />
    <EXPORT ORDINAL="505" NAME="_ZN8QtCharts13QAbstractAxis18lineVisibleChangedEb" PURGE="0" COMMENT="" />
    <EXPORT ORDINAL="506" NAME="_ZN8QtCharts13QAbstractAxis18minorGridLineColorEv" PURGE="0" COMMENT="" />
    <EXPORT ORDINAL="507" NAME="_ZN8QtCharts13QAbstractAxis18qt_static_metacallEP7QObjectN11QMetaObject4CallEiPPv" PURGE="0" COMMENT="" />
    <EXPORT ORDINAL="508" NAME="_ZN8QtCharts13QAbstractAxis18setGridLineVisibleEb" PURGE="0" COMMENT="" />
    <EXPORT ORDINAL="509" NAME="_ZN8QtCharts13QAbstractAxis18shadesBrushChangedERK6QBrush" PURGE="0" COMMENT="" />
    <EXPORT ORDINAL="510" NAME="_ZN8QtCharts13QAbstractAxis18shadesColorChangedE6QColor" PURGE="0" COMMENT="" />
    <EXPORT ORDINAL="511" NAME="_ZN8QtCharts13QAbstractAxis19setMinorGridLinePenERK4QPen" PURGE="0" COMMENT="" />
    <EXPORT ORDINAL="512" NAME="_ZN8QtCharts13QAbstractAxis19titleVisibleChangedEb" PURGE="0" COMMENT="" />
    <EXPORT ORDINAL="513" NAME="_ZN8QtCharts13QAbstractAxis20gridLineColorChangedERK6QColor" PURGE="0" COMMENT="" />
    <EXPORT ORDINAL="514" NAME="_ZN8QtCharts13QAbstractAxis20labelsVisibleChangedEb" PURGE="0" COMMENT="" />
    <EXPORT ORDINAL="515" NAME="_ZN8QtCharts13QAbstractAxis20setShadesBorderColorE6QColor" PURGE="0" COMMENT="" />
    <EXPORT ORDINAL="516" NAME="_ZN8QtCharts13QAbstractAxis20shadesVisibleChangedEb" PURGE="0" COMMENT="" />
    <EXPORT ORDINAL="517" NAME="_ZN8QtCharts13QAbstractAxis21setMinorGridLineColorERK6QColor" PURGE="0" COMMENT="" />
    <EXPORT ORDINAL="518" NAME="_ZN8QtCharts13QAbstractAxis23minorGridLinePenChangedERK4QPen" PURGE="0" COMMENT="" />
    <EXPORT ORDINAL="519" NAME="_ZN8QtCharts13QAbstractAxis23minorGridVisibleChangedEb" PURGE="0" COMMENT="" />
    <EXPORT ORDINAL="520" NAME="_ZN8QtCharts13QAbstractAxis23setMinorGridLineVisibleEb" PURGE="0" COMMENT="" />
    <EXPORT ORDINAL="521" NAME="_ZN8QtCharts13QAbstractAxis24shadesBorderColorChangedE6QColor" PURGE="0" COMMENT="" />
    <EXPORT ORDINAL="522" NAME="_ZN8QtCharts13QAbstractAxis25minorGridLineColorChangedERK6QColor" PURGE="0" COMMENT="" />
    <EXPORT ORDINAL="523" NAME="_ZN8QtCharts13QAbstractAxis4hideEv" PURGE="0" COMMENT="" />
    <EXPORT ORDINAL="524" NAME="_ZN8QtCharts13QAbstractAxis4showEv" PURGE="0" COMMENT="" />
    <EXPORT ORDINAL="525" NAME="_ZN8QtCharts13QAbstractAxis6setMaxERK8QVariant" PURGE="-1" COMMENT="" />
    <EXPORT ORDINAL="526" NAME="_ZN8QtCharts13QAbstractAxis6setMinERK8QVariant" PURGE="-1" COMMENT="" />
    <EXPORT ORDINAL="527" NAME="_ZN8QtCharts13QAbstractAxis8setRangeERK8QVariantS3_" PURGE="-1" COMMENT="" />
    <EXPORT ORDINAL="528" NAME="_ZN8QtCharts13QAbstractAxisC1ERNS_20QAbstractAxisPrivateEP7QObject" PURGE="0" COMMENT="" />
    <EXPORT ORDINAL="529" NAME="_ZN8QtCharts13QAbstractAxisC2ERNS_20QAbstractAxisPrivateEP7QObject" PURGE="0" COMMENT="" />
    <EXPORT ORDINAL="530" NAME="_ZN8QtCharts13QAbstractAxisD0Ev" PURGE="-1" COMMENT="" />
    <EXPORT ORDINAL="531" NAME="_ZN8QtCharts13QAbstractAxisD1Ev" PURGE="0" COMMENT="" />
    <EXPORT ORDINAL="532" NAME="_ZN8QtCharts13QAbstractAxisD2Ev" PURGE="0" COMMENT="" />
    <EXPORT ORDINAL="533" NAME="_ZN8QtCharts13QCategoryAxis11qt_metacallEN11QMetaObject4CallEiPPv" PURGE="0" COMMENT="" />
    <EXPORT ORDINAL="534" NAME="_ZN8QtCharts13QCategoryAxis11qt_metacastEPKc" PURGE="0" COMMENT="" />
    <EXPORT ORDINAL="535" NAME="_ZN8QtCharts13QCategoryAxis12replaceLabelERK7QStringS3_" PURGE="0" COMMENT="" />
    <EXPORT ORDINAL="536" NAME="_ZN8QtCharts13QCategoryAxis13setStartValueEd" PURGE="0" COMMENT="" />
    <EXPORT ORDINAL="537" NAME="_ZN8QtCharts13QCategoryAxis16categoriesLabelsEv" PURGE="0" COMMENT="" />
    <EXPORT ORDINAL="538" NAME="_ZN8QtCharts13QCategoryAxis16staticMetaObjectE" PURGE="-1" COMMENT="" />
    <EXPORT ORDINAL="539" NAME="_ZN8QtCharts13QCategoryAxis17categoriesChangedEv" PURGE="-1" COMMENT="" />
    <EXPORT ORDINAL="540" NAME="_ZN8QtCharts13QCategoryAxis17setLabelsPositionENS0_18AxisLabelsPositionE" PURGE="0" COMMENT="" />
    <EXPORT ORDINAL="541" NAME="_ZN8QtCharts13QCategoryAxis18qt_static_metacallEP7QObjectN11QMetaObject4CallEiPPv" PURGE="0" COMMENT="" />
    <EXPORT ORDINAL="542" NAME="_ZN8QtCharts13QCategoryAxis21labelsPositionChangedENS0_18AxisLabelsPositionE" PURGE="0" COMMENT="" />
    <EXPORT ORDINAL="543" NAME="_ZN8QtCharts13QCategoryAxis6appendERK7QStringd" PURGE="0" COMMENT="" />
    <EXPORT ORDINAL="544" NAME="_ZN8QtCharts13QCategoryAxis6removeERK7QString" PURGE="0" COMMENT="" />
    <EXPORT ORDINAL="545" NAME="_ZN8QtCharts13QCategoryAxisC1EP7QObject" PURGE="0" COMMENT="" />
    <EXPORT ORDINAL="546" NAME="_ZN8QtCharts13QCategoryAxisC1ERNS_20QCategoryAxisPrivateEP7QObject" PURGE="0" COMMENT="" />
    <EXPORT ORDINAL="547" NAME="_ZN8QtCharts13QCategoryAxisC2EP7QObject" PURGE="0" COMMENT="" />
    <EXPORT ORDINAL="548" NAME="_ZN8QtCharts13QCategoryAxisC2ERNS_20QCategoryAxisPrivateEP7QObject" PURGE="0" COMMENT="" />
    <EXPORT ORDINAL="549" NAME="_ZN8QtCharts13QCategoryAxisD0Ev" PURGE="-1" COMMENT="" />
    <EXPORT ORDINAL="550" NAME="_ZN8QtCharts13QCategoryAxisD1Ev" PURGE="0" COMMENT="" />
    <EXPORT ORDINAL="551" NAME="_ZN8QtCharts13QCategoryAxisD2Ev" PURGE="0" COMMENT="" />
    <EXPORT ORDINAL="552" NAME="_ZN8QtCharts13QChartPrivate10defaultPenEv" PURGE="0" COMMENT="" />
    <EXPORT ORDINAL="553" NAME="_ZN8QtCharts13QChartPrivate11defaultFontEv" PURGE="0" COMMENT="" />
    <EXPORT ORDINAL="554" NAME="_ZN8QtCharts13QChartPrivate12defaultBrushEv" PURGE="0" COMMENT="" />
    <EXPORT ORDINAL="555" NAME="_ZN8QtCharts13QChartPrivate4initEv" PURGE="-1" COMMENT="" />
    <EXPORT ORDINAL="556" NAME="_ZN8QtCharts13QChartPrivate6scrollEdd" PURGE="0" COMMENT="" />
    <EXPORT ORDINAL="557" NAME="_ZN8QtCharts13QChartPrivate6zoomInERK6QRectF" PURGE="0" COMMENT="" />
    <EXPORT ORDINAL="558" NAME="_ZN8QtCharts13QChartPrivate6zoomInEd" PURGE="0" COMMENT="" />
    <EXPORT ORDINAL="559" NAME="_ZN8QtCharts13QChartPrivate7zoomOutEd" PURGE="0" COMMENT="" />
    <EXPORT ORDINAL="560" NAME="_ZN8QtCharts13QChartPrivate8isZoomedEv" PURGE="0" COMMENT="" />
    <EXPORT ORDINAL="561" NAME="_ZN8QtCharts13QChartPrivate9zoomResetEv" PURGE="0" COMMENT="" />
    <EXPORT ORDINAL="562" NAME="_ZN8QtCharts13QChartPrivateC1EPNS_6QChartENS1_9ChartTypeE" PURGE="0" COMMENT="" />
    <EXPORT ORDINAL="563" NAME="_ZN8QtCharts13QChartPrivateC2EPNS_6QChartENS1_9ChartTypeE" PURGE="0" COMMENT="" />
    <EXPORT ORDINAL="564" NAME="_ZN8QtCharts13QChartPrivateD1Ev" PURGE="0" COMMENT="" />
    <EXPORT ORDINAL="565" NAME="_ZN8QtCharts13QChartPrivateD2Ev" PURGE="0" COMMENT="" />
    <EXPORT ORDINAL="566" NAME="_ZN8QtCharts13QDateTimeAxis10maxChangedE9QDateTime" PURGE="0" COMMENT="" />
    <EXPORT ORDINAL="567" NAME="_ZN8QtCharts13QDateTimeAxis10minChangedE9QDateTime" PURGE="0" COMMENT="" />
    <EXPORT ORDINAL="568" NAME="_ZN8QtCharts13QDateTimeAxis11qt_metacallEN11QMetaObject4CallEiPPv" PURGE="0" COMMENT="" />
    <EXPORT ORDINAL="569" NAME="_ZN8QtCharts13QDateTimeAxis11qt_metacastEPKc" PURGE="0" COMMENT="" />
    <EXPORT ORDINAL="570" NAME="_ZN8QtCharts13QDateTimeAxis12rangeChangedE9QDateTimeS1_" PURGE="0" COMMENT="" />
    <EXPORT ORDINAL="571" NAME="_ZN8QtCharts13QDateTimeAxis12setTickCountEi" PURGE="0" COMMENT="" />
    <EXPORT ORDINAL="572" NAME="_ZN8QtCharts13QDateTimeAxis13formatChangedE7QString" PURGE="0" COMMENT="" />
    <EXPORT ORDINAL="573" NAME="_ZN8QtCharts13QDateTimeAxis16staticMetaObjectE" PURGE="-1" COMMENT="" />
    <EXPORT ORDINAL="574" NAME="_ZN8QtCharts13QDateTimeAxis16tickCountChangedEi" PURGE="0" COMMENT="" />
    <EXPORT ORDINAL="575" NAME="_ZN8QtCharts13QDateTimeAxis18qt_static_metacallEP7QObjectN11QMetaObject4CallEiPPv" PURGE="0" COMMENT="" />
    <EXPORT ORDINAL="576" NAME="_ZN8QtCharts13QDateTimeAxis6setMaxE9QDateTime" PURGE="0" COMMENT="" />
    <EXPORT ORDINAL="577" NAME="_ZN8QtCharts13QDateTimeAxis6setMinE9QDateTime" PURGE="0" COMMENT="" />
    <EXPORT ORDINAL="578" NAME="_ZN8QtCharts13QDateTimeAxis8setRangeE9QDateTimeS1_" PURGE="0" COMMENT="" />
    <EXPORT ORDINAL="579" NAME="_ZN8QtCharts13QDateTimeAxis9setFormatE7QString" PURGE="0" COMMENT="" />
    <EXPORT ORDINAL="580" NAME="_ZN8QtCharts13QDateTimeAxisC1EP7QObject" PURGE="0" COMMENT="" />
    <EXPORT ORDINAL="581" NAME="_ZN8QtCharts13QDateTimeAxisC1ERNS_20QDateTimeAxisPrivateEP7QObject" PURGE="0" COMMENT="" />
    <EXPORT ORDINAL="582" NAME="_ZN8QtCharts13QDateTimeAxisC2EP7QObject" PURGE="0" COMMENT="" />
    <EXPORT ORDINAL="583" NAME="_ZN8QtCharts13QDateTimeAxisC2ERNS_20QDateTimeAxisPrivateEP7QObject" PURGE="0" COMMENT="" />
    <EXPORT ORDINAL="584" NAME="_ZN8QtCharts13QDateTimeAxisD0Ev" PURGE="-1" COMMENT="" />
    <EXPORT ORDINAL="585" NAME="_ZN8QtCharts13QDateTimeAxisD1Ev" PURGE="0" COMMENT="" />
    <EXPORT ORDINAL="586" NAME="_ZN8QtCharts13QDateTimeAxisD2Ev" PURGE="0" COMMENT="" />
    <EXPORT ORDINAL="587" NAME="_ZN8QtCharts13QLegendMarker10penChangedEv" PURGE="-1" COMMENT="" />
    <EXPORT ORDINAL="588" NAME="_ZN8QtCharts13QLegendMarker10setVisibleEb" PURGE="-1" COMMENT="" />
    <EXPORT ORDINAL="589" NAME="_ZN8QtCharts13QLegendMarker11fontChangedEv" PURGE="-1" COMMENT="" />
    <EXPORT ORDINAL="590" NAME="_ZN8QtCharts13QLegendMarker11qt_metacallEN11QMetaObject4CallEiPPv" PURGE="0" COMMENT="" />
    <EXPORT ORDINAL="591" NAME="_ZN8QtCharts13QLegendMarker11qt_metacastEPKc" PURGE="0" COMMENT="" />
    <EXPORT ORDINAL="592" NAME="_ZN8QtCharts13QLegendMarker12brushChangedEv" PURGE="-1" COMMENT="" />
    <EXPORT ORDINAL="593" NAME="_ZN8QtCharts13QLegendMarker12labelChangedEv" PURGE="-1" COMMENT="" />
    <EXPORT ORDINAL="594" NAME="_ZN8QtCharts13QLegendMarker12shapeChangedEv" PURGE="-1" COMMENT="" />
    <EXPORT ORDINAL="595" NAME="_ZN8QtCharts13QLegendMarker13setLabelBrushERK6QBrush" PURGE="-1" COMMENT="" />
    <EXPORT ORDINAL="596" NAME="_ZN8QtCharts13QLegendMarker14visibleChangedEv" PURGE="-1" COMMENT="" />
    <EXPORT ORDINAL="597" NAME="_ZN8QtCharts13QLegendMarker16staticMetaObjectE" PURGE="-1" COMMENT="" />
    <EXPORT ORDINAL="598" NAME="_ZN8QtCharts13QLegendMarker17labelBrushChangedEv" PURGE="-1" COMMENT="" />
    <EXPORT ORDINAL="599" NAME="_ZN8QtCharts13QLegendMarker18qt_static_metacallEP7QObjectN11QMetaObject4CallEiPPv" PURGE="0" COMMENT="" />
    <EXPORT ORDINAL="600" NAME="_ZN8QtCharts13QLegendMarker6setPenERK4QPen" PURGE="0" COMMENT="" />
    <EXPORT ORDINAL="601" NAME="_ZN8QtCharts13QLegendMarker7clickedEv" PURGE="-1" COMMENT="" />
    <EXPORT ORDINAL="602" NAME="_ZN8QtCharts13QLegendMarker7hoveredEb" PURGE="0" COMMENT="" />
    <EXPORT ORDINAL="603" NAME="_ZN8QtCharts13QLegendMarker7setFontERK5QFont" PURGE="0" COMMENT="" />
    <EXPORT ORDINAL="604" NAME="_ZN8QtCharts13QLegendMarker8setBrushERK6QBrush" PURGE="0" COMMENT="" />
    <EXPORT ORDINAL="605" NAME="_ZN8QtCharts13QLegendMarker8setLabelERK7QString" PURGE="0" COMMENT="" />
    <EXPORT ORDINAL="606" NAME="_ZN8QtCharts13QLegendMarker8setShapeENS_7QLegend11MarkerShapeE" PURGE="0" COMMENT="" />
    <EXPORT ORDINAL="607" NAME="_ZN8QtCharts13QLegendMarkerC1ERNS_20QLegendMarkerPrivateEP7QObject" PURGE="-1" COMMENT="" />
    <EXPORT ORDINAL="608" NAME="_ZN8QtCharts13QLegendMarkerC2ERNS_20QLegendMarkerPrivateEP7QObject" PURGE="-1" COMMENT="" />
    <EXPORT ORDINAL="609" NAME="_ZN8QtCharts13QLegendMarkerD0Ev" PURGE="-1" COMMENT="" />
    <EXPORT ORDINAL="610" NAME="_ZN8QtCharts13QLegendMarkerD1Ev" PURGE="-1" COMMENT="" />
    <EXPORT ORDINAL="611" NAME="_ZN8QtCharts13QLegendMarkerD2Ev" PURGE="-1" COMMENT="" />
    <EXPORT ORDINAL="612" NAME="_ZN8QtCharts13QLogValueAxis10maxChangedEd" PURGE="0" COMMENT="" />
    <EXPORT ORDINAL="613" NAME="_ZN8QtCharts13QLogValueAxis10minChangedEd" PURGE="0" COMMENT="" />
    <EXPORT ORDINAL="614" NAME="_ZN8QtCharts13QLogValueAxis11baseChangedEd" PURGE="0" COMMENT="" />
    <EXPORT ORDINAL="615" NAME="_ZN8QtCharts13QLogValueAxis11qt_metacallEN11QMetaObject4CallEiPPv" PURGE="0" COMMENT="" />
    <EXPORT ORDINAL="616" NAME="_ZN8QtCharts13QLogValueAxis11qt_metacastEPKc" PURGE="0" COMMENT="" />
    <EXPORT ORDINAL="617" NAME="_ZN8QtCharts13QLogValueAxis12rangeChangedEdd" PURGE="0" COMMENT="" />
    <EXPORT ORDINAL="618" NAME="_ZN8QtCharts13QLogValueAxis14setLabelFormatERK7QString" PURGE="0" COMMENT="" />
    <EXPORT ORDINAL="619" NAME="_ZN8QtCharts13QLogValueAxis16staticMetaObjectE" PURGE="-1" COMMENT="" />
    <EXPORT ORDINAL="620" NAME="_ZN8QtCharts13QLogValueAxis16tickCountChangedEi" PURGE="0" COMMENT="" />
    <EXPORT ORDINAL="621" NAME="_ZN8QtCharts13QLogValueAxis17setMinorTickCountEi" PURGE="0" COMMENT="" />
    <EXPORT ORDINAL="622" NAME="_ZN8QtCharts13QLogValueAxis18labelFormatChangedERK7QString" PURGE="0" COMMENT="" />
    <EXPORT ORDINAL="623" NAME="_ZN8QtCharts13QLogValueAxis18qt_static_metacallEP7QObjectN11QMetaObject4CallEiPPv" PURGE="0" COMMENT="" />
    <EXPORT ORDINAL="624" NAME="_ZN8QtCharts13QLogValueAxis21minorTickCountChangedEi" PURGE="0" COMMENT="" />
    <EXPORT ORDINAL="625" NAME="_ZN8QtCharts13QLogValueAxis6setMaxEd" PURGE="0" COMMENT="" />
    <EXPORT ORDINAL="626" NAME="_ZN8QtCharts13QLogValueAxis6setMinEd" PURGE="0" COMMENT="" />
    <EXPORT ORDINAL="627" NAME="_ZN8QtCharts13QLogValueAxis7setBaseEd" PURGE="0" COMMENT="" />
    <EXPORT ORDINAL="628" NAME="_ZN8QtCharts13QLogValueAxis8setRangeEdd" PURGE="0" COMMENT="" />
    <EXPORT ORDINAL="629" NAME="_ZN8QtCharts13QLogValueAxisC1EP7QObject" PURGE="0" COMMENT="" />
    <EXPORT ORDINAL="630" NAME="_ZN8QtCharts13QLogValueAxisC1ERNS_20QLogValueAxisPrivateEP7QObject" PURGE="0" COMMENT="" />
    <EXPORT ORDINAL="631" NAME="_ZN8QtCharts13QLogValueAxisC2EP7QObject" PURGE="0" COMMENT="" />
    <EXPORT ORDINAL="632" NAME="_ZN8QtCharts13QLogValueAxisC2ERNS_20QLogValueAxisPrivateEP7QObject" PURGE="0" COMMENT="" />
    <EXPORT ORDINAL="633" NAME="_ZN8QtCharts13QLogValueAxisD0Ev" PURGE="-1" COMMENT="" />
    <EXPORT ORDINAL="634" NAME="_ZN8QtCharts13QLogValueAxisD1Ev" PURGE="0" COMMENT="" />
    <EXPORT ORDINAL="635" NAME="_ZN8QtCharts13QLogValueAxisD2Ev" PURGE="0" COMMENT="" />
    <EXPORT ORDINAL="636" NAME="_ZN8QtCharts13QSplineSeries11qt_metacallEN11QMetaObject4CallEiPPv" PURGE="0" COMMENT="" />
    <EXPORT ORDINAL="637" NAME="_ZN8QtCharts13QSplineSeries11qt_metacastEPKc" PURGE="0" COMMENT="" />
    <EXPORT ORDINAL="638" NAME="_ZN8QtCharts13QSplineSeries16staticMetaObjectE" PURGE="-1" COMMENT="" />
    <EXPORT ORDINAL="639" NAME="_ZN8QtCharts13QSplineSeries18qt_static_metacallEP7QObjectN11QMetaObject4CallEiPPv" PURGE="0" COMMENT="" />
    <EXPORT ORDINAL="640" NAME="_ZN8QtCharts13QSplineSeriesC1EP7QObject" PURGE="0" COMMENT="" />
    <EXPORT ORDINAL="641" NAME="_ZN8QtCharts13QSplineSeriesC2EP7QObject" PURGE="0" COMMENT="" />
    <EXPORT ORDINAL="642" NAME="_ZN8QtCharts13QSplineSeriesD0Ev" PURGE="-1" COMMENT="" />
    <EXPORT ORDINAL="643" NAME="_ZN8QtCharts13QSplineSeriesD1Ev" PURGE="0" COMMENT="" />
    <EXPORT ORDINAL="644" NAME="_ZN8QtCharts13QSplineSeriesD2Ev" PURGE="0" COMMENT="" />
    <EXPORT ORDINAL="645" NAME="_ZN8QtCharts13XYPolarDomain11qt_metacallEN11QMetaObject4CallEiPPv" PURGE="0" COMMENT="" />
    <EXPORT ORDINAL="646" NAME="_ZN8QtCharts13XYPolarDomain11qt_metacastEPKc" PURGE="0" COMMENT="" />
    <EXPORT ORDINAL="647" NAME="_ZN8QtCharts13XYPolarDomain16staticMetaObjectE" PURGE="-1" COMMENT="" />
    <EXPORT ORDINAL="648" NAME="_ZN8QtCharts13XYPolarDomain18qt_static_metacallEP7QObjectN11QMetaObject4CallEiPPv" PURGE="0" COMMENT="" />
    <EXPORT ORDINAL="649" NAME="_ZN8QtCharts13XYPolarDomain4moveEdd" PURGE="0" COMMENT="" />
    <EXPORT ORDINAL="650" NAME="_ZN8QtCharts13XYPolarDomain6zoomInERK6QRectF" PURGE="0" COMMENT="" />
    <EXPORT ORDINAL="651" NAME="_ZN8QtCharts13XYPolarDomain7zoomOutERK6QRectF" PURGE="0" COMMENT="" />
    <EXPORT ORDINAL="652" NAME="_ZN8QtCharts13XYPolarDomain8setRangeEdddd" PURGE="0" COMMENT="" />
    <EXPORT ORDINAL="653" NAME="_ZN8QtCharts13XYPolarDomainC1EP7QObject" PURGE="0" COMMENT="" />
    <EXPORT ORDINAL="654" NAME="_ZN8QtCharts13XYPolarDomainC2EP7QObject" PURGE="0" COMMENT="" />
    <EXPORT ORDINAL="655" NAME="_ZN8QtCharts13XYPolarDomainD0Ev" PURGE="-1" COMMENT="" />
    <EXPORT ORDINAL="656" NAME="_ZN8QtCharts13XYPolarDomainD1Ev" PURGE="-1" COMMENT="" />
    <EXPORT ORDINAL="657" NAME="_ZN8QtCharts13XYPolarDomainD2Ev" PURGE="-1" COMMENT="" />
    <EXPORT ORDINAL="658" NAME="_ZN8QtCharts14AbstractDomain10attachAxisEPNS_13QAbstractAxisE" PURGE="0" COMMENT="" />
    <EXPORT ORDINAL="659" NAME="_ZN8QtCharts14AbstractDomain10detachAxisEPNS_13QAbstractAxisE" PURGE="0" COMMENT="" />
    <EXPORT ORDINAL="660" NAME="_ZN8QtCharts14AbstractDomain10niceNumberEdb" PURGE="0" COMMENT="" />
    <EXPORT ORDINAL="661" NAME="_ZN8QtCharts14AbstractDomain11fixZoomRectERK6QRectF" PURGE="0" COMMENT="" />
    <EXPORT ORDINAL="662" NAME="_ZN8QtCharts14AbstractDomain11qt_metacallEN11QMetaObject4CallEiPPv" PURGE="0" COMMENT="" />
    <EXPORT ORDINAL="663" NAME="_ZN8QtCharts14AbstractDomain11qt_metacastEPKc" PURGE="0" COMMENT="" />
    <EXPORT ORDINAL="664" NAME="_ZN8QtCharts14AbstractDomain14storeZoomResetEv" PURGE="0" COMMENT="" />
    <EXPORT ORDINAL="665" NAME="_ZN8QtCharts14AbstractDomain16looseNiceNumbersERdS1_Ri" PURGE="0" COMMENT="" />
    <EXPORT ORDINAL="666" NAME="_ZN8QtCharts14AbstractDomain16staticMetaObjectE" PURGE="-1" COMMENT="" />
    <EXPORT ORDINAL="667" NAME="_ZN8QtCharts14AbstractDomain17blockRangeSignalsEb" PURGE="0" COMMENT="" />
    <EXPORT ORDINAL="668" NAME="_ZN8QtCharts14AbstractDomain18qt_static_metacallEP7QObjectN11QMetaObject4CallEiPPv" PURGE="0" COMMENT="" />
    <EXPORT ORDINAL="669" NAME="_ZN8QtCharts14AbstractDomain20rangeVerticalChangedEdd" PURGE="0" COMMENT="" />
    <EXPORT ORDINAL="670" NAME="_ZN8QtCharts14AbstractDomain21adjustLogDomainRangesERdS1_" PURGE="0" COMMENT="" />
    <EXPORT ORDINAL="671" NAME="_ZN8QtCharts14AbstractDomain21handleReverseXChangedEb" PURGE="-1" COMMENT="" />
    <EXPORT ORDINAL="672" NAME="_ZN8QtCharts14AbstractDomain21handleReverseYChangedEb" PURGE="-1" COMMENT="" />
    <EXPORT ORDINAL="673" NAME="_ZN8QtCharts14AbstractDomain22rangeHorizontalChangedEdd" PURGE="0" COMMENT="" />
    <EXPORT ORDINAL="674" NAME="_ZN8QtCharts14AbstractDomain30handleVerticalAxisRangeChangedEdd" PURGE="0" COMMENT="" />
    <EXPORT ORDINAL="675" NAME="_ZN8QtCharts14AbstractDomain32handleHorizontalAxisRangeChangedEdd" PURGE="0" COMMENT="" />
    <EXPORT ORDINAL="676" NAME="_ZN8QtCharts14AbstractDomain7setMaxXEd" PURGE="0" COMMENT="" />
    <EXPORT ORDINAL="677" NAME="_ZN8QtCharts14AbstractDomain7setMaxYEd" PURGE="0" COMMENT="" />
    <EXPORT ORDINAL="678" NAME="_ZN8QtCharts14AbstractDomain7setMinXEd" PURGE="0" COMMENT="" />
    <EXPORT ORDINAL="679" NAME="_ZN8QtCharts14AbstractDomain7setMinYEd" PURGE="0" COMMENT="" />
    <EXPORT ORDINAL="680" NAME="_ZN8QtCharts14AbstractDomain7setSizeERK6QSizeF" PURGE="0" COMMENT="" />
    <EXPORT ORDINAL="681" NAME="_ZN8QtCharts14AbstractDomain7updatedEv" PURGE="-1" COMMENT="" />
    <EXPORT ORDINAL="682" NAME="_ZN8QtCharts14AbstractDomain9setRangeXEdd" PURGE="0" COMMENT="" />
    <EXPORT ORDINAL="683" NAME="_ZN8QtCharts14AbstractDomain9setRangeYEdd" PURGE="0" COMMENT="" />
    <EXPORT ORDINAL="684" NAME="_ZN8QtCharts14AbstractDomain9zoomResetEv" PURGE="0" COMMENT="" />
    <EXPORT ORDINAL="685" NAME="_ZN8QtCharts14AbstractDomainC1EP7QObject" PURGE="0" COMMENT="" />
    <EXPORT ORDINAL="686" NAME="_ZN8QtCharts14AbstractDomainC2EP7QObject" PURGE="0" COMMENT="" />
    <EXPORT ORDINAL="687" NAME="_ZN8QtCharts14AbstractDomainD0Ev" PURGE="-1" COMMENT="" />
    <EXPORT ORDINAL="688" NAME="_ZN8QtCharts14AbstractDomainD1Ev" PURGE="-1" COMMENT="" />
    <EXPORT ORDINAL="689" NAME="_ZN8QtCharts14AbstractDomainD2Ev" PURGE="-1" COMMENT="" />
    <EXPORT ORDINAL="690" NAME="_ZN8QtCharts14ChartAnimation11qt_metacallEN11QMetaObject4CallEiPPv" PURGE="0" COMMENT="" />
    <EXPORT ORDINAL="691" NAME="_ZN8QtCharts14ChartAnimation11qt_metacastEPKc" PURGE="0" COMMENT="" />
    <EXPORT ORDINAL="692" NAME="_ZN8QtCharts14ChartAnimation16staticMetaObjectE" PURGE="-1" COMMENT="" />
    <EXPORT ORDINAL="693" NAME="_ZN8QtCharts14ChartAnimation18qt_static_metacallEP7QObjectN11QMetaObject4CallEiPPv" PURGE="0" COMMENT="" />
    <EXPORT ORDINAL="694" NAME="_ZN8QtCharts14ChartAnimation19startChartAnimationEv" PURGE="0" COMMENT="" />
    <EXPORT ORDINAL="695" NAME="_ZN8QtCharts14ChartAnimation19stopAndDestroyLaterEv" PURGE="-1" COMMENT="" />
    <EXPORT ORDINAL="696" NAME="_ZN8QtCharts14ChartAnimationC1EP7QObject" PURGE="0" COMMENT="" />
    <EXPORT ORDINAL="697" NAME="_ZN8QtCharts14ChartAnimationC2EP7QObject" PURGE="0" COMMENT="" />
    <EXPORT ORDINAL="698" NAME="_ZN8QtCharts14ChartPresenter10setVisibleEb" PURGE="-1" COMMENT="" />
    <EXPORT ORDINAL="699" NAME="_ZN8QtCharts14ChartPresenter11qt_metacallEN11QMetaObject4CallEiPPv" PURGE="0" COMMENT="" />
    <EXPORT ORDINAL="700" NAME="_ZN8QtCharts14ChartPresenter11qt_metacastEPKc" PURGE="0" COMMENT="" />
    <EXPORT ORDINAL="701" NAME="_ZN8QtCharts14ChartPresenter11setGeometryE6QRectF" PURGE="0" COMMENT="" />
    <EXPORT ORDINAL="702" NAME="_ZN8QtCharts14ChartPresenter12setTitleFontERK5QFont" PURGE="-1" COMMENT="" />
    <EXPORT ORDINAL="703" NAME="_ZN8QtCharts14ChartPresenter12titleElementEv" PURGE="0" COMMENT="" />
    <EXPORT ORDINAL="704" NAME="_ZN8QtCharts14ChartPresenter13setTitleBrushERK6QBrush" PURGE="-1" COMMENT="" />
    <EXPORT ORDINAL="705" NAME="_ZN8QtCharts14ChartPresenter13truncatedTextERK5QFontRK7QStringdddR6QRectF" PURGE="0" COMMENT="" />
    <EXPORT ORDINAL="706" NAME="_ZN8QtCharts14ChartPresenter14numberToStringEdci" PURGE="0" COMMENT="" />
    <EXPORT ORDINAL="707" NAME="_ZN8QtCharts14ChartPresenter14numberToStringEi" PURGE="0" COMMENT="" />
    <EXPORT ORDINAL="708" NAME="_ZN8QtCharts14ChartPresenter14startAnimationEPNS_14ChartAnimationE" PURGE="-1" COMMENT="" />
    <EXPORT ORDINAL="709" NAME="_ZN8QtCharts14ChartPresenter14updateGLWidgetEv" PURGE="0" COMMENT="" />
    <EXPORT ORDINAL="710" NAME="_ZN8QtCharts14ChartPresenter14updateGeometryERK6QRectF" PURGE="0" COMMENT="" />
    <EXPORT ORDINAL="711" NAME="_ZN8QtCharts14ChartPresenter15createTitleItemEv" PURGE="0" COMMENT="" />
    <EXPORT ORDINAL="712" NAME="_ZN8QtCharts14ChartPresenter15handleAxisAddedEPNS_13QAbstractAxisE" PURGE="-1" COMMENT="" />
    <EXPORT ORDINAL="713" NAME="_ZN8QtCharts14ChartPresenter15plotAreaChangedERK6QRectF" PURGE="0" COMMENT="" />
    <EXPORT ORDINAL="714" NAME="_ZN8QtCharts14ChartPresenter15plotAreaElementEv" PURGE="0" COMMENT="" />
    <EXPORT ORDINAL="715" NAME="_ZN8QtCharts14ChartPresenter16setBackgroundPenERK4QPen" PURGE="-1" COMMENT="" />
    <EXPORT ORDINAL="716" NAME="_ZN8QtCharts14ChartPresenter16setFixedGeometryERK6QRectF" PURGE="0" COMMENT="" />
    <EXPORT ORDINAL="717" NAME="_ZN8QtCharts14ChartPresenter16staticMetaObjectE" PURGE="-1" COMMENT="" />
    <EXPORT ORDINAL="718" NAME="_ZN8QtCharts14ChartPresenter16textBoundingRectERK5QFontRK7QStringd" PURGE="0" COMMENT="" />
    <EXPORT ORDINAL="719" NAME="_ZN8QtCharts14ChartPresenter17backgroundElementEv" PURGE="0" COMMENT="" />
    <EXPORT ORDINAL="720" NAME="_ZN8QtCharts14ChartPresenter17handleAxisRemovedEPNS_13QAbstractAxisE" PURGE="0" COMMENT="" />
    <EXPORT ORDINAL="721" NAME="_ZN8QtCharts14ChartPresenter17handleSeriesAddedEPNS_15QAbstractSeriesE" PURGE="0" COMMENT="" />
    <EXPORT ORDINAL="722" NAME="_ZN8QtCharts14ChartPresenter18qt_static_metacallEP7QObjectN11QMetaObject4CallEiPPv" PURGE="0" COMMENT="" />
    <EXPORT ORDINAL="723" NAME="_ZN8QtCharts14ChartPresenter18setBackgroundBrushERK6QBrush" PURGE="-1" COMMENT="" />
    <EXPORT ORDINAL="724" NAME="_ZN8QtCharts14ChartPresenter18setLocalizeNumbersEb" PURGE="-1" COMMENT="" />
    <EXPORT ORDINAL="725" NAME="_ZN8QtCharts14ChartPresenter19handleSeriesRemovedEPNS_15QAbstractSeriesE" PURGE="0" COMMENT="" />
    <EXPORT ORDINAL="726" NAME="_ZN8QtCharts14ChartPresenter19setAnimationOptionsE6QFlagsINS_6QChart15AnimationOptionEE" PURGE="0" COMMENT="" />
    <EXPORT ORDINAL="727" NAME="_ZN8QtCharts14ChartPresenter20createBackgroundItemEv" PURGE="0" COMMENT="" />
    <EXPORT ORDINAL="728" NAME="_ZN8QtCharts14ChartPresenter20setAnimationDurationEi" PURGE="0" COMMENT="" />
    <EXPORT ORDINAL="729" NAME="_ZN8QtCharts14ChartPresenter20setBackgroundVisibleEb" PURGE="-1" COMMENT="" />
    <EXPORT ORDINAL="730" NAME="_ZN8QtCharts14ChartPresenter22setBackgroundRoundnessEd" PURGE="-1" COMMENT="" />
    <EXPORT ORDINAL="731" NAME="_ZN8QtCharts14ChartPresenter23setAnimationEasingCurveERK12QEasingCurve" PURGE="0" COMMENT="" />
    <EXPORT ORDINAL="732" NAME="_ZN8QtCharts14ChartPresenter24setPlotAreaBackgroundPenERK4QPen" PURGE="-1" COMMENT="" />
    <EXPORT ORDINAL="733" NAME="_ZN8QtCharts14ChartPresenter26setPlotAreaBackgroundBrushERK6QBrush" PURGE="-1" COMMENT="" />
    <EXPORT ORDINAL="734" NAME="_ZN8QtCharts14ChartPresenter28createPlotAreaBackgroundItemEv" PURGE="0" COMMENT="" />
    <EXPORT ORDINAL="735" NAME="_ZN8QtCharts14ChartPresenter28setPlotAreaBackgroundVisibleEb" PURGE="-1" COMMENT="" />
    <EXPORT ORDINAL="736" NAME="_ZN8QtCharts14ChartPresenter30setBackgroundDropShadowEnabledEb" PURGE="0" COMMENT="" />
    <EXPORT ORDINAL="737" NAME="_ZN8QtCharts14ChartPresenter6layoutEv" PURGE="0" COMMENT="" />
    <EXPORT ORDINAL="738" NAME="_ZN8QtCharts14ChartPresenter6legendEv" PURGE="0" COMMENT="" />
    <EXPORT ORDINAL="739" NAME="_ZN8QtCharts14ChartPresenter8setStateENS0_5StateE7QPointF" PURGE="0" COMMENT="" />
    <EXPORT ORDINAL="740" NAME="_ZN8QtCharts14ChartPresenter8setTitleERK7QString" PURGE="-1" COMMENT="" />
    <EXPORT ORDINAL="741" NAME="_ZN8QtCharts14ChartPresenter9setLocaleERK7QLocale" PURGE="-1" COMMENT="" />
    <EXPORT ORDINAL="742" NAME="_ZN8QtCharts14ChartPresenterC1EPNS_6QChartENS1_9ChartTypeE" PURGE="0" COMMENT="" />
    <EXPORT ORDINAL="743" NAME="_ZN8QtCharts14ChartPresenterC2EPNS_6QChartENS1_9ChartTypeE" PURGE="0" COMMENT="" />
    <EXPORT ORDINAL="744" NAME="_ZN8QtCharts14ChartPresenterD0Ev" PURGE="-1" COMMENT="" />
    <EXPORT ORDINAL="745" NAME="_ZN8QtCharts14ChartPresenterD1Ev" PURGE="-1" COMMENT="" />
    <EXPORT ORDINAL="746" NAME="_ZN8QtCharts14ChartPresenterD2Ev" PURGE="-1" COMMENT="" />
    <EXPORT ORDINAL="747" NAME="_ZN8QtCharts14HorizontalAxis14updateGeometryEv" PURGE="0" COMMENT="" />
    <EXPORT ORDINAL="748" NAME="_ZN8QtCharts14HorizontalAxis23updateMinorTickGeometryEv" PURGE="0" COMMENT="" />
    <EXPORT ORDINAL="749" NAME="_ZN8QtCharts14HorizontalAxisC1EPNS_13QAbstractAxisEP13QGraphicsItemb" PURGE="0" COMMENT="" />
    <EXPORT ORDINAL="750" NAME="_ZN8QtCharts14HorizontalAxisC2EPNS_13QAbstractAxisEP13QGraphicsItemb" PURGE="0" COMMENT="" />
    <EXPORT ORDINAL="751" NAME="_ZN8QtCharts14HorizontalAxisD0Ev" PURGE="-1" COMMENT="" />
    <EXPORT ORDINAL="752" NAME="_ZN8QtCharts14HorizontalAxisD1Ev" PURGE="-1" COMMENT="" />
    <EXPORT ORDINAL="753" NAME="_ZN8QtCharts14HorizontalAxisD2Ev" PURGE="-1" COMMENT="" />
    <EXPORT ORDINAL="754" NAME="_ZN8QtCharts14LegendScroller11qt_metacallEN11QMetaObject4CallEiPPv" PURGE="0" COMMENT="" />
    <EXPORT ORDINAL="755" NAME="_ZN8QtCharts14LegendScroller11qt_metacastEPKc" PURGE="0" COMMENT="" />
    <EXPORT ORDINAL="756" NAME="_ZN8QtCharts14LegendScroller14mouseMoveEventEP24QGraphicsSceneMouseEvent" PURGE="0" COMMENT="" />
    <EXPORT ORDINAL="757" NAME="_ZN8QtCharts14LegendScroller15mousePressEventEP24QGraphicsSceneMouseEvent" PURGE="0" COMMENT="" />
    <EXPORT ORDINAL="758" NAME="_ZN8QtCharts14LegendScroller16staticMetaObjectE" PURGE="-1" COMMENT="" />
    <EXPORT ORDINAL="759" NAME="_ZN8QtCharts14LegendScroller17mouseReleaseEventEP24QGraphicsSceneMouseEvent" PURGE="0" COMMENT="" />
    <EXPORT ORDINAL="760" NAME="_ZN8QtCharts14LegendScroller18qt_static_metacallEP7QObjectN11QMetaObject4CallEiPPv" PURGE="0" COMMENT="" />
    <EXPORT ORDINAL="761" NAME="_ZN8QtCharts14LegendScroller9setOffsetERK7QPointF" PURGE="0" COMMENT="" />
    <EXPORT ORDINAL="762" NAME="_ZN8QtCharts14LegendScrollerC1EPNS_6QChartE" PURGE="0" COMMENT="" />
    <EXPORT ORDINAL="763" NAME="_ZN8QtCharts14LegendScrollerC2EPNS_6QChartE" PURGE="0" COMMENT="" />
    <EXPORT ORDINAL="764" NAME="_ZN8QtCharts14LogXLogYDomain10attachAxisEPNS_13QAbstractAxisE" PURGE="0" COMMENT="" />
    <EXPORT ORDINAL="765" NAME="_ZN8QtCharts14LogXLogYDomain10detachAxisEPNS_13QAbstractAxisE" PURGE="0" COMMENT="" />
    <EXPORT ORDINAL="766" NAME="_ZN8QtCharts14LogXLogYDomain11qt_metacallEN11QMetaObject4CallEiPPv" PURGE="0" COMMENT="" />
    <EXPORT ORDINAL="767" NAME="_ZN8QtCharts14LogXLogYDomain11qt_metacastEPKc" PURGE="0" COMMENT="" />
    <EXPORT ORDINAL="768" NAME="_ZN8QtCharts14LogXLogYDomain16staticMetaObjectE" PURGE="-1" COMMENT="" />
    <EXPORT ORDINAL="769" NAME="_ZN8QtCharts14LogXLogYDomain18qt_static_metacallEP7QObjectN11QMetaObject4CallEiPPv" PURGE="0" COMMENT="" />
    <EXPORT ORDINAL="770" NAME="_ZN8QtCharts14LogXLogYDomain29handleVerticalAxisBaseChangedEd" PURGE="-1" COMMENT="" />
    <EXPORT ORDINAL="771" NAME="_ZN8QtCharts14LogXLogYDomain31handleHorizontalAxisBaseChangedEd" PURGE="-1" COMMENT="" />
    <EXPORT ORDINAL="772" NAME="_ZN8QtCharts14LogXLogYDomain4moveEdd" PURGE="0" COMMENT="" />
    <EXPORT ORDINAL="773" NAME="_ZN8QtCharts14LogXLogYDomain6zoomInERK6QRectF" PURGE="0" COMMENT="" />
    <EXPORT ORDINAL="774" NAME="_ZN8QtCharts14LogXLogYDomain7zoomOutERK6QRectF" PURGE="0" COMMENT="" />
    <EXPORT ORDINAL="775" NAME="_ZN8QtCharts14LogXLogYDomain8setRangeEdddd" PURGE="0" COMMENT="" />
    <EXPORT ORDINAL="776" NAME="_ZN8QtCharts14LogXLogYDomainC1EP7QObject" PURGE="0" COMMENT="" />
    <EXPORT ORDINAL="777" NAME="_ZN8QtCharts14LogXLogYDomainC2EP7QObject" PURGE="0" COMMENT="" />
    <EXPORT ORDINAL="778" NAME="_ZN8QtCharts14LogXLogYDomainD0Ev" PURGE="-1" COMMENT="" />
    <EXPORT ORDINAL="779" NAME="_ZN8QtCharts14LogXLogYDomainD1Ev" PURGE="-1" COMMENT="" />
    <EXPORT ORDINAL="780" NAME="_ZN8QtCharts14LogXLogYDomainD2Ev" PURGE="-1" COMMENT="" />
    <EXPORT ORDINAL="781" NAME="_ZN8QtCharts14PolarChartAxis11deleteItemsEi" PURGE="0" COMMENT="" />
    <EXPORT ORDINAL="782" NAME="_ZN8QtCharts14PolarChartAxis11qt_metacallEN11QMetaObject4CallEiPPv" PURGE="0" COMMENT="" />
    <EXPORT ORDINAL="783" NAME="_ZN8QtCharts14PolarChartAxis11qt_metacastEPKc" PURGE="0" COMMENT="" />
    <EXPORT ORDINAL="784" NAME="_ZN8QtCharts14PolarChartAxis11setGeometryERK6QRectFS3_" PURGE="0" COMMENT="" />
    <EXPORT ORDINAL="785" NAME="_ZN8QtCharts14PolarChartAxis12updateLayoutER7QVectorIdE" PURGE="-1" COMMENT="" />
    <EXPORT ORDINAL="786" NAME="_ZN8QtCharts14PolarChartAxis16staticMetaObjectE" PURGE="-1" COMMENT="" />
    <EXPORT ORDINAL="787" NAME="_ZN8QtCharts14PolarChartAxis18qt_static_metacallEP7QObjectN11QMetaObject4CallEiPPv" PURGE="0" COMMENT="" />
    <EXPORT ORDINAL="788" NAME="_ZN8QtCharts14PolarChartAxis22handleShadesPenChangedERK4QPen" PURGE="0" COMMENT="" />
    <EXPORT ORDINAL="789" NAME="_ZN8QtCharts14PolarChartAxis24handleShadesBrushChangedERK6QBrush" PURGE="0" COMMENT="" />
    <EXPORT ORDINAL="790" NAME="_ZN8QtCharts14PolarChartAxis7isEmptyEv" PURGE="0" COMMENT="" />
    <EXPORT ORDINAL="791" NAME="_ZN8QtCharts14PolarChartAxisC1EPNS_13QAbstractAxisEP13QGraphicsItemb" PURGE="0" COMMENT="" />
    <EXPORT ORDINAL="792" NAME="_ZN8QtCharts14PolarChartAxisC2EPNS_13QAbstractAxisEP13QGraphicsItemb" PURGE="0" COMMENT="" />
    <EXPORT ORDINAL="793" NAME="_ZN8QtCharts14PolarChartAxisD0Ev" PURGE="-1" COMMENT="" />
    <EXPORT ORDINAL="794" NAME="_ZN8QtCharts14PolarChartAxisD1Ev" PURGE="-1" COMMENT="" />
    <EXPORT ORDINAL="795" NAME="_ZN8QtCharts14PolarChartAxisD2Ev" PURGE="-1" COMMENT="" />
    <EXPORT ORDINAL="796" NAME="_ZN8QtCharts14QBarSetPrivate10valueAddedEii" PURGE="0" COMMENT="" />
    <EXPORT ORDINAL="797" NAME="_ZN8QtCharts14QBarSetPrivate11qt_metacallEN11QMetaObject4CallEiPPv" PURGE="0" COMMENT="" />
    <EXPORT ORDINAL="798" NAME="_ZN8QtCharts14QBarSetPrivate11qt_metacastEPKc" PURGE="0" COMMENT="" />
    <EXPORT ORDINAL="799" NAME="_ZN8QtCharts14QBarSetPrivate11updatedBarsEv" PURGE="-1" COMMENT="" />
    <EXPORT ORDINAL="800" NAME="_ZN8QtCharts14QBarSetPrivate12valueChangedEi" PURGE="0" COMMENT="" />
    <EXPORT ORDINAL="801" NAME="_ZN8QtCharts14QBarSetPrivate12valueRemovedEii" PURGE="0" COMMENT="" />
    <EXPORT ORDINAL="802" NAME="_ZN8QtCharts14QBarSetPrivate16staticMetaObjectE" PURGE="-1" COMMENT="" />
    <EXPORT ORDINAL="803" NAME="_ZN8QtCharts14QBarSetPrivate18qt_static_metacallEP7QObjectN11QMetaObject4CallEiPPv" PURGE="0" COMMENT="" />
    <EXPORT ORDINAL="804" NAME="_ZN8QtCharts14QBarSetPrivate3posEi" PURGE="0" COMMENT="" />
    <EXPORT ORDINAL="805" NAME="_ZN8QtCharts14QBarSetPrivate5valueEi" PURGE="0" COMMENT="" />
    <EXPORT ORDINAL="806" NAME="_ZN8QtCharts14QBarSetPrivate6appendE5QListI7QPointFE" PURGE="0" COMMENT="" />
    <EXPORT ORDINAL="807" NAME="_ZN8QtCharts14QBarSetPrivate6appendE5QListIdE" PURGE="0" COMMENT="" />
    <EXPORT ORDINAL="808" NAME="_ZN8QtCharts14QBarSetPrivate6appendE7QPointF" PURGE="0" COMMENT="" />
    <EXPORT ORDINAL="809" NAME="_ZN8QtCharts14QBarSetPrivate6insertEi7QPointF" PURGE="0" COMMENT="" />
    <EXPORT ORDINAL="810" NAME="_ZN8QtCharts14QBarSetPrivate6insertEid" PURGE="0" COMMENT="" />
    <EXPORT ORDINAL="811" NAME="_ZN8QtCharts14QBarSetPrivate6removeEii" PURGE="0" COMMENT="" />
    <EXPORT ORDINAL="812" NAME="_ZN8QtCharts14QBarSetPrivate7replaceEid" PURGE="0" COMMENT="" />
    <EXPORT ORDINAL="813" NAME="_ZN8QtCharts14QBarSetPrivateC1E7QStringPNS_7QBarSetE" PURGE="0" COMMENT="" />
    <EXPORT ORDINAL="814" NAME="_ZN8QtCharts14QBarSetPrivateC2E7QStringPNS_7QBarSetE" PURGE="0" COMMENT="" />
    <EXPORT ORDINAL="815" NAME="_ZN8QtCharts14QBarSetPrivateD0Ev" PURGE="-1" COMMENT="" />
    <EXPORT ORDINAL="816" NAME="_ZN8QtCharts14QBarSetPrivateD1Ev" PURGE="-1" COMMENT="" />
    <EXPORT ORDINAL="817" NAME="_ZN8QtCharts14QBarSetPrivateD2Ev" PURGE="-1" COMMENT="" />
    <EXPORT ORDINAL="818" NAME="_ZN8QtCharts14QBoxPlotSeries10penChangedEv" PURGE="-1" COMMENT="" />
    <EXPORT ORDINAL="819" NAME="_ZN8QtCharts14QBoxPlotSeries11qt_metacallEN11QMetaObject4CallEiPPv" PURGE="0" COMMENT="" />
    <EXPORT ORDINAL="820" NAME="_ZN8QtCharts14QBoxPlotSeries11qt_metacastEPKc" PURGE="0" COMMENT="" />
    <EXPORT ORDINAL="821" NAME="_ZN8QtCharts14QBoxPlotSeries11setBoxWidthEd" PURGE="0" COMMENT="" />
    <EXPORT ORDINAL="822" NAME="_ZN8QtCharts14QBoxPlotSeries12boxsetsAddedE5QListIPNS_7QBoxSetEE" PURGE="0" COMMENT="" />
    <EXPORT ORDINAL="823" NAME="_ZN8QtCharts14QBoxPlotSeries12brushChangedEv" PURGE="-1" COMMENT="" />
    <EXPORT ORDINAL="824" NAME="_ZN8QtCharts14QBoxPlotSeries12countChangedEv" PURGE="-1" COMMENT="" />
    <EXPORT ORDINAL="825" NAME="_ZN8QtCharts14QBoxPlotSeries13doubleClickedEPNS_7QBoxSetE" PURGE="0" COMMENT="" />
    <EXPORT ORDINAL="826" NAME="_ZN8QtCharts14QBoxPlotSeries14boxsetsRemovedE5QListIPNS_7QBoxSetEE" PURGE="0" COMMENT="" />
    <EXPORT ORDINAL="827" NAME="_ZN8QtCharts14QBoxPlotSeries15boxWidthChangedEv" PURGE="-1" COMMENT="" />
    <EXPORT ORDINAL="828" NAME="_ZN8QtCharts14QBoxPlotSeries16staticMetaObjectE" PURGE="-1" COMMENT="" />
    <EXPORT ORDINAL="829" NAME="_ZN8QtCharts14QBoxPlotSeries17boxOutlineVisibleEv" PURGE="0" COMMENT="" />
    <EXPORT ORDINAL="830" NAME="_ZN8QtCharts14QBoxPlotSeries18qt_static_metacallEP7QObjectN11QMetaObject4CallEiPPv" PURGE="0" COMMENT="" />
    <EXPORT ORDINAL="831" NAME="_ZN8QtCharts14QBoxPlotSeries20setBoxOutlineVisibleEb" PURGE="0" COMMENT="" />
    <EXPORT ORDINAL="832" NAME="_ZN8QtCharts14QBoxPlotSeries27boxOutlineVisibilityChangedEv" PURGE="-1" COMMENT="" />
    <EXPORT ORDINAL="833" NAME="_ZN8QtCharts14QBoxPlotSeries4takeEPNS_7QBoxSetE" PURGE="0" COMMENT="" />
    <EXPORT ORDINAL="834" NAME="_ZN8QtCharts14QBoxPlotSeries5clearEv" PURGE="0" COMMENT="" />
    <EXPORT ORDINAL="835" NAME="_ZN8QtCharts14QBoxPlotSeries6appendE5QListIPNS_7QBoxSetEE" PURGE="0" COMMENT="" />
    <EXPORT ORDINAL="836" NAME="_ZN8QtCharts14QBoxPlotSeries6appendEPNS_7QBoxSetE" PURGE="0" COMMENT="" />
    <EXPORT ORDINAL="837" NAME="_ZN8QtCharts14QBoxPlotSeries6insertEiPNS_7QBoxSetE" PURGE="0" COMMENT="" />
    <EXPORT ORDINAL="838" NAME="_ZN8QtCharts14QBoxPlotSeries6removeEPNS_7QBoxSetE" PURGE="0" COMMENT="" />
    <EXPORT ORDINAL="839" NAME="_ZN8QtCharts14QBoxPlotSeries6setPenERK4QPen" PURGE="0" COMMENT="" />
    <EXPORT ORDINAL="840" NAME="_ZN8QtCharts14QBoxPlotSeries7clickedEPNS_7QBoxSetE" PURGE="0" COMMENT="" />
    <EXPORT ORDINAL="841" NAME="_ZN8QtCharts14QBoxPlotSeries7hoveredEbPNS_7QBoxSetE" PURGE="0" COMMENT="" />
    <EXPORT ORDINAL="842" NAME="_ZN8QtCharts14QBoxPlotSeries7pressedEPNS_7QBoxSetE" PURGE="0" COMMENT="" />
    <EXPORT ORDINAL="843" NAME="_ZN8QtCharts14QBoxPlotSeries8boxWidthEv" PURGE="0" COMMENT="" />
    <EXPORT ORDINAL="844" NAME="_ZN8QtCharts14QBoxPlotSeries8releasedEPNS_7QBoxSetE" PURGE="0" COMMENT="" />
    <EXPORT ORDINAL="845" NAME="_ZN8QtCharts14QBoxPlotSeries8setBrushERK6QBrush" PURGE="0" COMMENT="" />
    <EXPORT ORDINAL="846" NAME="_ZN8QtCharts14QBoxPlotSeriesC1EP7QObject" PURGE="0" COMMENT="" />
    <EXPORT ORDINAL="847" NAME="_ZN8QtCharts14QBoxPlotSeriesC2EP7QObject" PURGE="0" COMMENT="" />
    <EXPORT ORDINAL="848" NAME="_ZN8QtCharts14QBoxPlotSeriesD0Ev" PURGE="-1" COMMENT="" />
    <EXPORT ORDINAL="849" NAME="_ZN8QtCharts14QBoxPlotSeriesD1Ev" PURGE="0" COMMENT="" />
    <EXPORT ORDINAL="850" NAME="_ZN8QtCharts14QBoxPlotSeriesD2Ev" PURGE="0" COMMENT="" />
    <EXPORT ORDINAL="851" NAME="_ZN8QtCharts14QBoxSetPrivate10updatedBoxEv" PURGE="-1" COMMENT="" />
    <EXPORT ORDINAL="852" NAME="_ZN8QtCharts14QBoxSetPrivate11qt_metacallEN11QMetaObject4CallEiPPv" PURGE="0" COMMENT="" />
    <EXPORT ORDINAL="853" NAME="_ZN8QtCharts14QBoxSetPrivate11qt_metacastEPKc" PURGE="0" COMMENT="" />
    <EXPORT ORDINAL="854" NAME="_ZN8QtCharts14QBoxSetPrivate13updatedLayoutEv" PURGE="-1" COMMENT="" />
    <EXPORT ORDINAL="855" NAME="_ZN8QtCharts14QBoxSetPrivate15restructuredBoxEv" PURGE="-1" COMMENT="" />
    <EXPORT ORDINAL="856" NAME="_ZN8QtCharts14QBoxSetPrivate16staticMetaObjectE" PURGE="-1" COMMENT="" />
    <EXPORT ORDINAL="857" NAME="_ZN8QtCharts14QBoxSetPrivate18qt_static_metacallEP7QObjectN11QMetaObject4CallEiPPv" PURGE="0" COMMENT="" />
    <EXPORT ORDINAL="858" NAME="_ZN8QtCharts14QBoxSetPrivate5clearEv" PURGE="-1" COMMENT="" />
    <EXPORT ORDINAL="859" NAME="_ZN8QtCharts14QBoxSetPrivate5valueEi" PURGE="0" COMMENT="" />
    <EXPORT ORDINAL="860" NAME="_ZN8QtCharts14QBoxSetPrivate6appendE5QListIdE" PURGE="0" COMMENT="" />
    <EXPORT ORDINAL="861" NAME="_ZN8QtCharts14QBoxSetPrivate6appendEd" PURGE="0" COMMENT="" />
    <EXPORT ORDINAL="862" NAME="_ZN8QtCharts14QBoxSetPrivate8setValueEid" PURGE="0" COMMENT="" />
    <EXPORT ORDINAL="863" NAME="_ZN8QtCharts14QBoxSetPrivateC1E7QStringPNS_7QBoxSetE" PURGE="0" COMMENT="" />
    <EXPORT ORDINAL="864" NAME="_ZN8QtCharts14QBoxSetPrivateC2E7QStringPNS_7QBoxSetE" PURGE="0" COMMENT="" />
    <EXPORT ORDINAL="865" NAME="_ZN8QtCharts14QBoxSetPrivateD0Ev" PURGE="-1" COMMENT="" />
    <EXPORT ORDINAL="866" NAME="_ZN8QtCharts14QBoxSetPrivateD1Ev" PURGE="-1" COMMENT="" />
    <EXPORT ORDINAL="867" NAME="_ZN8QtCharts14QBoxSetPrivateD2Ev" PURGE="-1" COMMENT="" />
    <EXPORT ORDINAL="868" NAME="_ZN8QtCharts14QLegendPrivate10addMarkersE5QListIPNS_13QLegendMarkerEE" PURGE="0" COMMENT="" />
    <EXPORT ORDINAL="869" NAME="_ZN8QtCharts14QLegendPrivate11qt_metacallEN11QMetaObject4CallEiPPv" PURGE="0" COMMENT="" />
    <EXPORT ORDINAL="870" NAME="_ZN8QtCharts14QLegendPrivate11qt_metacastEPKc" PURGE="0" COMMENT="" />
    <EXPORT ORDINAL="871" NAME="_ZN8QtCharts14QLegendPrivate13relatedObjectEPKNS_13QLegendMarkerE" PURGE="-1" COMMENT="" />
    <EXPORT ORDINAL="872" NAME="_ZN8QtCharts14QLegendPrivate13removeMarkersE5QListIPNS_13QLegendMarkerEE" PURGE="0" COMMENT="" />
    <EXPORT ORDINAL="873" NAME="_ZN8QtCharts14QLegendPrivate14decorateMarkerEPNS_13QLegendMarkerE" PURGE="-1" COMMENT="" />
    <EXPORT ORDINAL="874" NAME="_ZN8QtCharts14QLegendPrivate14updateToolTipsEv" PURGE="0" COMMENT="" />
    <EXPORT ORDINAL="875" NAME="_ZN8QtCharts14QLegendPrivate15decorateMarkersE5QListIPNS_13QLegendMarkerEE" PURGE="0" COMMENT="" />
    <EXPORT ORDINAL="876" NAME="_ZN8QtCharts14QLegendPrivate16staticMetaObjectE" PURGE="-1" COMMENT="" />
    <EXPORT ORDINAL="877" NAME="_ZN8QtCharts14QLegendPrivate17handleSeriesAddedEPNS_15QAbstractSeriesE" PURGE="0" COMMENT="" />
    <EXPORT ORDINAL="878" NAME="_ZN8QtCharts14QLegendPrivate18handleCountChangedEv" PURGE="0" COMMENT="" />
    <EXPORT ORDINAL="879" NAME="_ZN8QtCharts14QLegendPrivate18insertMarkerHelperEPNS_13QLegendMarkerE" PURGE="0" COMMENT="" />
    <EXPORT ORDINAL="880" NAME="_ZN8QtCharts14QLegendPrivate18qt_static_metacallEP7QObjectN11QMetaObject4CallEiPPv" PURGE="0" COMMENT="" />
    <EXPORT ORDINAL="881" NAME="_ZN8QtCharts14QLegendPrivate18removeMarkerHelperEPNS_13QLegendMarkerE" PURGE="0" COMMENT="" />
    <EXPORT ORDINAL="882" NAME="_ZN8QtCharts14QLegendPrivate19handleSeriesRemovedEPNS_15QAbstractSeriesE" PURGE="0" COMMENT="" />
    <EXPORT ORDINAL="883" NAME="_ZN8QtCharts14QLegendPrivate26handleSeriesVisibleChangedEv" PURGE="0" COMMENT="" />
    <EXPORT ORDINAL="884" NAME="_ZN8QtCharts14QLegendPrivate7markersEPNS_15QAbstractSeriesE" PURGE="0" COMMENT="" />
    <EXPORT ORDINAL="885" NAME="_ZN8QtCharts14QLegendPrivate9roundnessEd" PURGE="0" COMMENT="" />
    <EXPORT ORDINAL="886" NAME="_ZN8QtCharts14QLegendPrivate9setOffsetERK7QPointF" PURGE="0" COMMENT="" />
    <EXPORT ORDINAL="887" NAME="_ZN8QtCharts14QLegendPrivateC1EPNS_14ChartPresenterEPNS_6QChartEPNS_7QLegendE" PURGE="-1" COMMENT="" />
    <EXPORT ORDINAL="888" NAME="_ZN8QtCharts14QLegendPrivateC2EPNS_14ChartPresenterEPNS_6QChartEPNS_7QLegendE" PURGE="-1" COMMENT="" />
    <EXPORT ORDINAL="889" NAME="_ZN8QtCharts14QLegendPrivateD0Ev" PURGE="-1" COMMENT="" />
    <EXPORT ORDINAL="890" NAME="_ZN8QtCharts14QLegendPrivateD1Ev" PURGE="-1" COMMENT="" />
    <EXPORT ORDINAL="891" NAME="_ZN8QtCharts14QLegendPrivateD2Ev" PURGE="-1" COMMENT="" />
    <EXPORT ORDINAL="892" NAME="_ZN8QtCharts14QScatterSeries11qt_metacallEN11QMetaObject4CallEiPPv" PURGE="0" COMMENT="" />
    <EXPORT ORDINAL="893" NAME="_ZN8QtCharts14QScatterSeries11qt_metacastEPKc" PURGE="0" COMMENT="" />
    <EXPORT ORDINAL="894" NAME="_ZN8QtCharts14QScatterSeries12colorChangedE6QColor" PURGE="0" COMMENT="" />
    <EXPORT ORDINAL="895" NAME="_ZN8QtCharts14QScatterSeries13setMarkerSizeEd" PURGE="0" COMMENT="" />
    <EXPORT ORDINAL="896" NAME="_ZN8QtCharts14QScatterSeries14setBorderColorERK6QColor" PURGE="0" COMMENT="" />
    <EXPORT ORDINAL="897" NAME="_ZN8QtCharts14QScatterSeries14setMarkerShapeENS0_11MarkerShapeE" PURGE="0" COMMENT="" />
    <EXPORT ORDINAL="898" NAME="_ZN8QtCharts14QScatterSeries16staticMetaObjectE" PURGE="-1" COMMENT="" />
    <EXPORT ORDINAL="899" NAME="_ZN8QtCharts14QScatterSeries17markerSizeChangedEd" PURGE="0" COMMENT="" />
    <EXPORT ORDINAL="900" NAME="_ZN8QtCharts14QScatterSeries18borderColorChangedE6QColor" PURGE="0" COMMENT="" />
    <EXPORT ORDINAL="901" NAME="_ZN8QtCharts14QScatterSeries18markerShapeChangedENS0_11MarkerShapeE" PURGE="0" COMMENT="" />
    <EXPORT ORDINAL="902" NAME="_ZN8QtCharts14QScatterSeries18qt_static_metacallEP7QObjectN11QMetaObject4CallEiPPv" PURGE="0" COMMENT="" />
    <EXPORT ORDINAL="903" NAME="_ZN8QtCharts14QScatterSeries6setPenERK4QPen" PURGE="0" COMMENT="" />
    <EXPORT ORDINAL="904" NAME="_ZN8QtCharts14QScatterSeries8setBrushERK6QBrush" PURGE="0" COMMENT="" />
    <EXPORT ORDINAL="905" NAME="_ZN8QtCharts14QScatterSeries8setColorERK6QColor" PURGE="0" COMMENT="" />
    <EXPORT ORDINAL="906" NAME="_ZN8QtCharts14QScatterSeriesC1EP7QObject" PURGE="0" COMMENT="" />
    <EXPORT ORDINAL="907" NAME="_ZN8QtCharts14QScatterSeriesC2EP7QObject" PURGE="0" COMMENT="" />
    <EXPORT ORDINAL="908" NAME="_ZN8QtCharts14QScatterSeriesD0Ev" PURGE="-1" COMMENT="" />
    <EXPORT ORDINAL="909" NAME="_ZN8QtCharts14QScatterSeriesD1Ev" PURGE="0" COMMENT="" />
    <EXPORT ORDINAL="910" NAME="_ZN8QtCharts14QScatterSeriesD2Ev" PURGE="0" COMMENT="" />
    <EXPORT ORDINAL="911" NAME="_ZN8QtCharts14QXYModelMapper11qt_metacallEN11QMetaObject4CallEiPPv" PURGE="-1" COMMENT="" />
    <EXPORT ORDINAL="912" NAME="_ZN8QtCharts14QXYModelMapper11qt_metacastEPKc" PURGE="0" COMMENT="" />
    <EXPORT ORDINAL="913" NAME="_ZN8QtCharts14QXYModelMapper11setXSectionEi" PURGE="0" COMMENT="" />
    <EXPORT ORDINAL="914" NAME="_ZN8QtCharts14QXYModelMapper11setYSectionEi" PURGE="0" COMMENT="" />
    <EXPORT ORDINAL="915" NAME="_ZN8QtCharts14QXYModelMapper14setOrientationEN2Qt11OrientationE" PURGE="0" COMMENT="" />
    <EXPORT ORDINAL="916" NAME="_ZN8QtCharts14QXYModelMapper16staticMetaObjectE" PURGE="-1" COMMENT="" />
    <EXPORT ORDINAL="917" NAME="_ZN8QtCharts14QXYModelMapper18qt_static_metacallEP7QObjectN11QMetaObject4CallEiPPv" PURGE="0" COMMENT="" />
    <EXPORT ORDINAL="918" NAME="_ZN8QtCharts14QXYModelMapper8setCountEi" PURGE="0" COMMENT="" />
    <EXPORT ORDINAL="919" NAME="_ZN8QtCharts14QXYModelMapper8setFirstEi" PURGE="0" COMMENT="" />
    <EXPORT ORDINAL="920" NAME="_ZN8QtCharts14QXYModelMapper8setModelEP18QAbstractItemModel" PURGE="0" COMMENT="" />
    <EXPORT ORDINAL="921" NAME="_ZN8QtCharts14QXYModelMapper9setSeriesEPNS_9QXYSeriesE" PURGE="0" COMMENT="" />
    <EXPORT ORDINAL="922" NAME="_ZN8QtCharts14QXYModelMapperC1EP7QObject" PURGE="0" COMMENT="" />
    <EXPORT ORDINAL="923" NAME="_ZN8QtCharts14QXYModelMapperC2EP7QObject" PURGE="0" COMMENT="" />
    <EXPORT ORDINAL="924" NAME="_ZN8QtCharts15ChartBackground11setDiameterEd" PURGE="0" COMMENT="" />
    <EXPORT ORDINAL="925" NAME="_ZN8QtCharts15ChartBackground20setDropShadowEnabledEb" PURGE="0" COMMENT="" />
    <EXPORT ORDINAL="926" NAME="_ZN8QtCharts15ChartBackground5paintEP8QPainterPK24QStyleOptionGraphicsItemP7QWidget" PURGE="0" COMMENT="" />
    <EXPORT ORDINAL="927" NAME="_ZN8QtCharts15ChartBackgroundC1EP13QGraphicsItem" PURGE="0" COMMENT="" />
    <EXPORT ORDINAL="928" NAME="_ZN8QtCharts15ChartBackgroundC2EP13QGraphicsItem" PURGE="0" COMMENT="" />
    <EXPORT ORDINAL="929" NAME="_ZN8QtCharts15ChartBackgroundD0Ev" PURGE="-1" COMMENT="" />
    <EXPORT ORDINAL="930" NAME="_ZN8QtCharts15ChartBackgroundD1Ev" PURGE="-1" COMMENT="" />
    <EXPORT ORDINAL="931" NAME="_ZN8QtCharts15ChartBackgroundD2Ev" PURGE="-1" COMMENT="" />
    <EXPORT ORDINAL="932" NAME="_ZN8QtCharts15ChartValueAxisX11qt_metacallEN11QMetaObject4CallEiPPv" PURGE="0" COMMENT="" />
    <EXPORT ORDINAL="933" NAME="_ZN8QtCharts15ChartValueAxisX11qt_metacastEPKc" PURGE="0" COMMENT="" />
    <EXPORT ORDINAL="934" NAME="_ZN8QtCharts15ChartValueAxisX14updateGeometryEv" PURGE="0" COMMENT="" />
    <EXPORT ORDINAL="935" NAME="_ZN8QtCharts15ChartValueAxisX16staticMetaObjectE" PURGE="-1" COMMENT="" />
    <EXPORT ORDINAL="936" NAME="_ZN8QtCharts15ChartValueAxisX18qt_static_metacallEP7QObjectN11QMetaObject4CallEiPPv" PURGE="0" COMMENT="" />
    <EXPORT ORDINAL="937" NAME="_ZN8QtCharts15ChartValueAxisX21handleTickTypeChangedENS_10QValueAxis8TickTypeE" PURGE="0" COMMENT="" />
    <EXPORT ORDINAL="938" NAME="_ZN8QtCharts15ChartValueAxisX22handleTickCountChangedEi" PURGE="0" COMMENT="" />
    <EXPORT ORDINAL="939" NAME="_ZN8QtCharts15ChartValueAxisX23handleTickAnchorChangedEd" PURGE="0" COMMENT="" />
    <EXPORT ORDINAL="940" NAME="_ZN8QtCharts15ChartValueAxisX24handleLabelFormatChangedERK7QString" PURGE="0" COMMENT="" />
    <EXPORT ORDINAL="941" NAME="_ZN8QtCharts15ChartValueAxisX25handleTickIntervalChangedEd" PURGE="0" COMMENT="" />
    <EXPORT ORDINAL="942" NAME="_ZN8QtCharts15ChartValueAxisX27handleMinorTickCountChangedEi" PURGE="0" COMMENT="" />
    <EXPORT ORDINAL="943" NAME="_ZN8QtCharts15ChartValueAxisXC1EPNS_10QValueAxisEP13QGraphicsItem" PURGE="0" COMMENT="" />
    <EXPORT ORDINAL="944" NAME="_ZN8QtCharts15ChartValueAxisXC2EPNS_10QValueAxisEP13QGraphicsItem" PURGE="0" COMMENT="" />
    <EXPORT ORDINAL="945" NAME="_ZN8QtCharts15ChartValueAxisXD0Ev" PURGE="-1" COMMENT="" />
    <EXPORT ORDINAL="946" NAME="_ZN8QtCharts15ChartValueAxisXD1Ev" PURGE="-1" COMMENT="" />
    <EXPORT ORDINAL="947" NAME="_ZN8QtCharts15ChartValueAxisXD2Ev" PURGE="-1" COMMENT="" />
    <EXPORT ORDINAL="948" NAME="_ZN8QtCharts15ChartValueAxisY11qt_metacallEN11QMetaObject4CallEiPPv" PURGE="0" COMMENT="" />
    <EXPORT ORDINAL="949" NAME="_ZN8QtCharts15ChartValueAxisY11qt_metacastEPKc" PURGE="0" COMMENT="" />
    <EXPORT ORDINAL="950" NAME="_ZN8QtCharts15ChartValueAxisY14updateGeometryEv" PURGE="0" COMMENT="" />
    <EXPORT ORDINAL="951" NAME="_ZN8QtCharts15ChartValueAxisY16staticMetaObjectE" PURGE="-1" COMMENT="" />
    <EXPORT ORDINAL="952" NAME="_ZN8QtCharts15ChartValueAxisY18qt_static_metacallEP7QObjectN11QMetaObject4CallEiPPv" PURGE="0" COMMENT="" />
    <EXPORT ORDINAL="953" NAME="_ZN8QtCharts15ChartValueAxisY21handleTickTypeChangedENS_10QValueAxis8TickTypeE" PURGE="0" COMMENT="" />
    <EXPORT ORDINAL="954" NAME="_ZN8QtCharts15ChartValueAxisY22handleTickCountChangedEi" PURGE="0" COMMENT="" />
    <EXPORT ORDINAL="955" NAME="_ZN8QtCharts15ChartValueAxisY23handleTickAnchorChangedEd" PURGE="0" COMMENT="" />
    <EXPORT ORDINAL="956" NAME="_ZN8QtCharts15ChartValueAxisY24handleLabelFormatChangedERK7QString" PURGE="0" COMMENT="" />
    <EXPORT ORDINAL="957" NAME="_ZN8QtCharts15ChartValueAxisY25handleTickIntervalChangedEd" PURGE="0" COMMENT="" />
    <EXPORT ORDINAL="958" NAME="_ZN8QtCharts15ChartValueAxisY27handleMinorTickCountChangedEi" PURGE="0" COMMENT="" />
    <EXPORT ORDINAL="959" NAME="_ZN8QtCharts15ChartValueAxisYC1EPNS_10QValueAxisEP13QGraphicsItem" PURGE="0" COMMENT="" />
    <EXPORT ORDINAL="960" NAME="_ZN8QtCharts15ChartValueAxisYC2EPNS_10QValueAxisEP13QGraphicsItem" PURGE="0" COMMENT="" />
    <EXPORT ORDINAL="961" NAME="_ZN8QtCharts15ChartValueAxisYD0Ev" PURGE="-1" COMMENT="" />
    <EXPORT ORDINAL="962" NAME="_ZN8QtCharts15ChartValueAxisYD1Ev" PURGE="-1" COMMENT="" />
    <EXPORT ORDINAL="963" NAME="_ZN8QtCharts15ChartValueAxisYD2Ev" PURGE="-1" COMMENT="" />
    <EXPORT ORDINAL="964" NAME="_ZN8QtCharts15QAbstractSeries10attachAxisEPNS_13QAbstractAxisE" PURGE="0" COMMENT="" />
    <EXPORT ORDINAL="965" NAME="_ZN8QtCharts15QAbstractSeries10detachAxisEPNS_13QAbstractAxisE" PURGE="0" COMMENT="" />
    <EXPORT ORDINAL="966" NAME="_ZN8QtCharts15QAbstractSeries10setOpacityEd" PURGE="0" COMMENT="" />
    <EXPORT ORDINAL="967" NAME="_ZN8QtCharts15QAbstractSeries10setVisibleEb" PURGE="0" COMMENT="" />
    <EXPORT ORDINAL="968" NAME="_ZN8QtCharts15QAbstractSeries11nameChangedEv" PURGE="-1" COMMENT="" />
    <EXPORT ORDINAL="969" NAME="_ZN8QtCharts15QAbstractSeries11qt_metacallEN11QMetaObject4CallEiPPv" PURGE="0" COMMENT="" />
    <EXPORT ORDINAL="970" NAME="_ZN8QtCharts15QAbstractSeries11qt_metacastEPKc" PURGE="0" COMMENT="" />
    <EXPORT ORDINAL="971" NAME="_ZN8QtCharts15QAbstractSeries12attachedAxesEv" PURGE="0" COMMENT="" />
    <EXPORT ORDINAL="972" NAME="_ZN8QtCharts15QAbstractSeries12setUseOpenGLEb" PURGE="0" COMMENT="" />
    <EXPORT ORDINAL="973" NAME="_ZN8QtCharts15QAbstractSeries14opacityChangedEv" PURGE="-1" COMMENT="" />
    <EXPORT ORDINAL="974" NAME="_ZN8QtCharts15QAbstractSeries14visibleChangedEv" PURGE="-1" COMMENT="" />
    <EXPORT ORDINAL="975" NAME="_ZN8QtCharts15QAbstractSeries16staticMetaObjectE" PURGE="-1" COMMENT="" />
    <EXPORT ORDINAL="976" NAME="_ZN8QtCharts15QAbstractSeries16useOpenGLChangedEv" PURGE="-1" COMMENT="" />
    <EXPORT ORDINAL="977" NAME="_ZN8QtCharts15QAbstractSeries18qt_static_metacallEP7QObjectN11QMetaObject4CallEiPPv" PURGE="0" COMMENT="" />
    <EXPORT ORDINAL="978" NAME="_ZN8QtCharts15QAbstractSeries4hideEv" PURGE="0" COMMENT="" />
    <EXPORT ORDINAL="979" NAME="_ZN8QtCharts15QAbstractSeries4showEv" PURGE="0" COMMENT="" />
    <EXPORT ORDINAL="980" NAME="_ZN8QtCharts15QAbstractSeries7setNameERK7QString" PURGE="0" COMMENT="" />
    <EXPORT ORDINAL="981" NAME="_ZN8QtCharts15QAbstractSeriesC1ERNS_22QAbstractSeriesPrivateEP7QObject" PURGE="0" COMMENT="" />
    <EXPORT ORDINAL="982" NAME="_ZN8QtCharts15QAbstractSeriesC2ERNS_22QAbstractSeriesPrivateEP7QObject" PURGE="0" COMMENT="" />
    <EXPORT ORDINAL="983" NAME="_ZN8QtCharts15QAbstractSeriesD0Ev" PURGE="-1" COMMENT="" />
    <EXPORT ORDINAL="984" NAME="_ZN8QtCharts15QAbstractSeriesD1Ev" PURGE="0" COMMENT="" />
    <EXPORT ORDINAL="985" NAME="_ZN8QtCharts15QAbstractSeriesD2Ev" PURGE="0" COMMENT="" />
    <EXPORT ORDINAL="986" NAME="_ZN8QtCharts15QBarModelMapper11qt_metacallEN11QMetaObject4CallEiPPv" PURGE="-1" COMMENT="" />
    <EXPORT ORDINAL="987" NAME="_ZN8QtCharts15QBarModelMapper11qt_metacastEPKc" PURGE="0" COMMENT="" />
    <EXPORT ORDINAL="988" NAME="_ZN8QtCharts15QBarModelMapper14setOrientationEN2Qt11OrientationE" PURGE="0" COMMENT="" />
    <EXPORT ORDINAL="989" NAME="_ZN8QtCharts15QBarModelMapper16staticMetaObjectE" PURGE="-1" COMMENT="" />
    <EXPORT ORDINAL="990" NAME="_ZN8QtCharts15QBarModelMapper18qt_static_metacallEP7QObjectN11QMetaObject4CallEiPPv" PURGE="0" COMMENT="" />
    <EXPORT ORDINAL="991" NAME="_ZN8QtCharts15QBarModelMapper20setLastBarSetSectionEi" PURGE="0" COMMENT="" />
    <EXPORT ORDINAL="992" NAME="_ZN8QtCharts15QBarModelMapper21setFirstBarSetSectionEi" PURGE="0" COMMENT="" />
    <EXPORT ORDINAL="993" NAME="_ZN8QtCharts15QBarModelMapper8setCountEi" PURGE="0" COMMENT="" />
    <EXPORT ORDINAL="994" NAME="_ZN8QtCharts15QBarModelMapper8setFirstEi" PURGE="0" COMMENT="" />
    <EXPORT ORDINAL="995" NAME="_ZN8QtCharts15QBarModelMapper8setModelEP18QAbstractItemModel" PURGE="0" COMMENT="" />
    <EXPORT ORDINAL="996" NAME="_ZN8QtCharts15QBarModelMapper9setSeriesEPNS_18QAbstractBarSeriesE" PURGE="0" COMMENT="" />
    <EXPORT ORDINAL="997" NAME="_ZN8QtCharts15QBarModelMapperC1EP7QObject" PURGE="0" COMMENT="" />
    <EXPORT ORDINAL="998" NAME="_ZN8QtCharts15QBarModelMapperC2EP7QObject" PURGE="0" COMMENT="" />
    <EXPORT ORDINAL="999" NAME="_ZN8QtCharts15QCandlestickSet10lowChangedEv" PURGE="-1" COMMENT="" />
    <EXPORT ORDINAL="1000" NAME="_ZN8QtCharts15QCandlestickSet10penChangedEv" PURGE="-1" COMMENT="" />
    <EXPORT ORDINAL="1001" NAME="_ZN8QtCharts15QCandlestickSet11highChangedEv" PURGE="-1" COMMENT="" />
    <EXPORT ORDINAL="1002" NAME="_ZN8QtCharts15QCandlestickSet11openChangedEv" PURGE="-1" COMMENT="" />
    <EXPORT ORDINAL="1003" NAME="_ZN8QtCharts15QCandlestickSet11qt_metacallEN11QMetaObject4CallEiPPv" PURGE="0" COMMENT="" />
    <EXPORT ORDINAL="1004" NAME="_ZN8QtCharts15QCandlestickSet11qt_metacastEPKc" PURGE="0" COMMENT="" />
    <EXPORT ORDINAL="1005" NAME="_ZN8QtCharts15QCandlestickSet12brushChangedEv" PURGE="-1" COMMENT="" />
    <EXPORT ORDINAL="1006" NAME="_ZN8QtCharts15QCandlestickSet12closeChangedEv" PURGE="-1" COMMENT="" />
    <EXPORT ORDINAL="1007" NAME="_ZN8QtCharts15QCandlestickSet12setTimestampEd" PURGE="0" COMMENT="" />
    <EXPORT ORDINAL="1008" NAME="_ZN8QtCharts15QCandlestickSet13doubleClickedEv" PURGE="-1" COMMENT="" />
    <EXPORT ORDINAL="1009" NAME="_ZN8QtCharts15QCandlestickSet16staticMetaObjectE" PURGE="-1" COMMENT="" />
    <EXPORT ORDINAL="1010" NAME="_ZN8QtCharts15QCandlestickSet16timestampChangedEv" PURGE="-1" COMMENT="" />
    <EXPORT ORDINAL="1011" NAME="_ZN8QtCharts15QCandlestickSet18qt_static_metacallEP7QObjectN11QMetaObject4CallEiPPv" PURGE="0" COMMENT="" />
    <EXPORT ORDINAL="1012" NAME="_ZN8QtCharts15QCandlestickSet6setLowEd" PURGE="0" COMMENT="" />
    <EXPORT ORDINAL="1013" NAME="_ZN8QtCharts15QCandlestickSet6setPenERK4QPen" PURGE="0" COMMENT="" />
    <EXPORT ORDINAL="1014" NAME="_ZN8QtCharts15QCandlestickSet7clickedEv" PURGE="-1" COMMENT="" />
    <EXPORT ORDINAL="1015" NAME="_ZN8QtCharts15QCandlestickSet7hoveredEb" PURGE="0" COMMENT="" />
    <EXPORT ORDINAL="1016" NAME="_ZN8QtCharts15QCandlestickSet7pressedEv" PURGE="-1" COMMENT="" />
    <EXPORT ORDINAL="1017" NAME="_ZN8QtCharts15QCandlestickSet7setHighEd" PURGE="0" COMMENT="" />
    <EXPORT ORDINAL="1018" NAME="_ZN8QtCharts15QCandlestickSet7setOpenEd" PURGE="0" COMMENT="" />
    <EXPORT ORDINAL="1019" NAME="_ZN8QtCharts15QCandlestickSet8releasedEv" PURGE="-1" COMMENT="" />
    <EXPORT ORDINAL="1020" NAME="_ZN8QtCharts15QCandlestickSet8setBrushERK6QBrush" PURGE="0" COMMENT="" />
    <EXPORT ORDINAL="1021" NAME="_ZN8QtCharts15QCandlestickSet8setCloseEd" PURGE="0" COMMENT="" />
    <EXPORT ORDINAL="1022" NAME="_ZN8QtCharts15QCandlestickSetC1EdP7QObject" PURGE="0" COMMENT="" />
    <EXPORT ORDINAL="1023" NAME="_ZN8QtCharts15QCandlestickSetC1EdddddP7QObject" PURGE="-1" COMMENT="" />
    <EXPORT ORDINAL="1024" NAME="_ZN8QtCharts15QCandlestickSetC2EdP7QObject" PURGE="0" COMMENT="" />
    <EXPORT ORDINAL="1025" NAME="_ZN8QtCharts15QCandlestickSetC2EdddddP7QObject" PURGE="-1" COMMENT="" />
    <EXPORT ORDINAL="1026" NAME="_ZN8QtCharts15QCandlestickSetD0Ev" PURGE="-1" COMMENT="" />
    <EXPORT ORDINAL="1027" NAME="_ZN8QtCharts15QCandlestickSetD1Ev" PURGE="-1" COMMENT="" />
    <EXPORT ORDINAL="1028" NAME="_ZN8QtCharts15QCandlestickSetD2Ev" PURGE="-1" COMMENT="" />
    <EXPORT ORDINAL="1029" NAME="_ZN8QtCharts15QHXYModelMapper11qt_metacallEN11QMetaObject4CallEiPPv" PURGE="0" COMMENT="" />
    <EXPORT ORDINAL="1030" NAME="_ZN8QtCharts15QHXYModelMapper11qt_metacastEPKc" PURGE="0" COMMENT="" />
    <EXPORT ORDINAL="1031" NAME="_ZN8QtCharts15QHXYModelMapper11xRowChangedEv" PURGE="-1" COMMENT="" />
    <EXPORT ORDINAL="1032" NAME="_ZN8QtCharts15QHXYModelMapper11yRowChangedEv" PURGE="-1" COMMENT="" />
    <EXPORT ORDINAL="1033" NAME="_ZN8QtCharts15QHXYModelMapper13modelReplacedEv" PURGE="-1" COMMENT="" />
    <EXPORT ORDINAL="1034" NAME="_ZN8QtCharts15QHXYModelMapper14seriesReplacedEv" PURGE="-1" COMMENT="" />
    <EXPORT ORDINAL="1035" NAME="_ZN8QtCharts15QHXYModelMapper14setColumnCountEi" PURGE="0" COMMENT="" />
    <EXPORT ORDINAL="1036" NAME="_ZN8QtCharts15QHXYModelMapper14setFirstColumnEi" PURGE="0" COMMENT="" />
    <EXPORT ORDINAL="1037" NAME="_ZN8QtCharts15QHXYModelMapper16staticMetaObjectE" PURGE="-1" COMMENT="" />
    <EXPORT ORDINAL="1038" NAME="_ZN8QtCharts15QHXYModelMapper18columnCountChangedEv" PURGE="-1" COMMENT="" />
    <EXPORT ORDINAL="1039" NAME="_ZN8QtCharts15QHXYModelMapper18firstColumnChangedEv" PURGE="-1" COMMENT="" />
    <EXPORT ORDINAL="1040" NAME="_ZN8QtCharts15QHXYModelMapper18qt_static_metacallEP7QObjectN11QMetaObject4CallEiPPv" PURGE="0" COMMENT="" />
    <EXPORT ORDINAL="1041" NAME="_ZN8QtCharts15QHXYModelMapper7setXRowEi" PURGE="0" COMMENT="" />
    <EXPORT ORDINAL="1042" NAME="_ZN8QtCharts15QHXYModelMapper7setYRowEi" PURGE="0" COMMENT="" />
    <EXPORT ORDINAL="1043" NAME="_ZN8QtCharts15QHXYModelMapper8setModelEP18QAbstractItemModel" PURGE="0" COMMENT="" />
    <EXPORT ORDINAL="1044" NAME="_ZN8QtCharts15QHXYModelMapper9setSeriesEPNS_9QXYSeriesE" PURGE="0" COMMENT="" />
    <EXPORT ORDINAL="1045" NAME="_ZN8QtCharts15QHXYModelMapperC1EP7QObject" PURGE="0" COMMENT="" />
    <EXPORT ORDINAL="1046" NAME="_ZN8QtCharts15QHXYModelMapperC2EP7QObject" PURGE="0" COMMENT="" />
    <EXPORT ORDINAL="1047" NAME="_ZN8QtCharts15QPieModelMapper11qt_metacallEN11QMetaObject4CallEiPPv" PURGE="-1" COMMENT="" />
    <EXPORT ORDINAL="1048" NAME="_ZN8QtCharts15QPieModelMapper11qt_metacastEPKc" PURGE="0" COMMENT="" />
    <EXPORT ORDINAL="1049" NAME="_ZN8QtCharts15QPieModelMapper14setOrientationEN2Qt11OrientationE" PURGE="0" COMMENT="" />
    <EXPORT ORDINAL="1050" NAME="_ZN8QtCharts15QPieModelMapper16setLabelsSectionEi" PURGE="0" COMMENT="" />
    <EXPORT ORDINAL="1051" NAME="_ZN8QtCharts15QPieModelMapper16setValuesSectionEi" PURGE="0" COMMENT="" />
    <EXPORT ORDINAL="1052" NAME="_ZN8QtCharts15QPieModelMapper16staticMetaObjectE" PURGE="-1" COMMENT="" />
    <EXPORT ORDINAL="1053" NAME="_ZN8QtCharts15QPieModelMapper18qt_static_metacallEP7QObjectN11QMetaObject4CallEiPPv" PURGE="0" COMMENT="" />
    <EXPORT ORDINAL="1054" NAME="_ZN8QtCharts15QPieModelMapper8setCountEi" PURGE="0" COMMENT="" />
    <EXPORT ORDINAL="1055" NAME="_ZN8QtCharts15QPieModelMapper8setFirstEi" PURGE="0" COMMENT="" />
    <EXPORT ORDINAL="1056" NAME="_ZN8QtCharts15QPieModelMapper8setModelEP18QAbstractItemModel" PURGE="0" COMMENT="" />
    <EXPORT ORDINAL="1057" NAME="_ZN8QtCharts15QPieModelMapper9setSeriesEPNS_10QPieSeriesE" PURGE="0" COMMENT="" />
    <EXPORT ORDINAL="1058" NAME="_ZN8QtCharts15QPieModelMapperC1EP7QObject" PURGE="0" COMMENT="" />
    <EXPORT ORDINAL="1059" NAME="_ZN8QtCharts15QPieModelMapperC2EP7QObject" PURGE="0" COMMENT="" />
    <EXPORT ORDINAL="1060" NAME="_ZN8QtCharts15QVXYModelMapper10setXColumnEi" PURGE="0" COMMENT="" />
    <EXPORT ORDINAL="1061" NAME="_ZN8QtCharts15QVXYModelMapper10setYColumnEi" PURGE="0" COMMENT="" />
    <EXPORT ORDINAL="1062" NAME="_ZN8QtCharts15QVXYModelMapper11qt_metacallEN11QMetaObject4CallEiPPv" PURGE="0" COMMENT="" />
    <EXPORT ORDINAL="1063" NAME="_ZN8QtCharts15QVXYModelMapper11qt_metacastEPKc" PURGE="0" COMMENT="" />
    <EXPORT ORDINAL="1064" NAME="_ZN8QtCharts15QVXYModelMapper11setFirstRowEi" PURGE="0" COMMENT="" />
    <EXPORT ORDINAL="1065" NAME="_ZN8QtCharts15QVXYModelMapper11setRowCountEi" PURGE="0" COMMENT="" />
    <EXPORT ORDINAL="1066" NAME="_ZN8QtCharts15QVXYModelMapper13modelReplacedEv" PURGE="-1" COMMENT="" />
    <EXPORT ORDINAL="1067" NAME="_ZN8QtCharts15QVXYModelMapper14seriesReplacedEv" PURGE="-1" COMMENT="" />
    <EXPORT ORDINAL="1068" NAME="_ZN8QtCharts15QVXYModelMapper14xColumnChangedEv" PURGE="-1" COMMENT="" />
    <EXPORT ORDINAL="1069" NAME="_ZN8QtCharts15QVXYModelMapper14yColumnChangedEv" PURGE="-1" COMMENT="" />
    <EXPORT ORDINAL="1070" NAME="_ZN8QtCharts15QVXYModelMapper15firstRowChangedEv" PURGE="-1" COMMENT="" />
    <EXPORT ORDINAL="1071" NAME="_ZN8QtCharts15QVXYModelMapper15rowCountChangedEv" PURGE="-1" COMMENT="" />
    <EXPORT ORDINAL="1072" NAME="_ZN8QtCharts15QVXYModelMapper16staticMetaObjectE" PURGE="-1" COMMENT="" />
    <EXPORT ORDINAL="1073" NAME="_ZN8QtCharts15QVXYModelMapper18qt_static_metacallEP7QObjectN11QMetaObject4CallEiPPv" PURGE="0" COMMENT="" />
    <EXPORT ORDINAL="1074" NAME="_ZN8QtCharts15QVXYModelMapper8setModelEP18QAbstractItemModel" PURGE="0" COMMENT="" />
    <EXPORT ORDINAL="1075" NAME="_ZN8QtCharts15QVXYModelMapper9setSeriesEPNS_9QXYSeriesE" PURGE="0" COMMENT="" />
    <EXPORT ORDINAL="1076" NAME="_ZN8QtCharts15QVXYModelMapperC1EP7QObject" PURGE="0" COMMENT="" />
    <EXPORT ORDINAL="1077" NAME="_ZN8QtCharts15QVXYModelMapperC2EP7QObject" PURGE="0" COMMENT="" />
    <EXPORT ORDINAL="1078" NAME="_ZN8QtCharts15QXYLegendMarker11qt_metacallEN11QMetaObject4CallEiPPv" PURGE="0" COMMENT="" />
    <EXPORT ORDINAL="1079" NAME="_ZN8QtCharts15QXYLegendMarker11qt_metacastEPKc" PURGE="0" COMMENT="" />
    <EXPORT ORDINAL="1080" NAME="_ZN8QtCharts15QXYLegendMarker16staticMetaObjectE" PURGE="-1" COMMENT="" />
    <EXPORT ORDINAL="1081" NAME="_ZN8QtCharts15QXYLegendMarker18qt_static_metacallEP7QObjectN11QMetaObject4CallEiPPv" PURGE="0" COMMENT="" />
    <EXPORT ORDINAL="1082" NAME="_ZN8QtCharts15QXYLegendMarker6seriesEv" PURGE="0" COMMENT="" />
    <EXPORT ORDINAL="1083" NAME="_ZN8QtCharts15QXYLegendMarkerC1EPNS_9QXYSeriesEPNS_7QLegendEP7QObject" PURGE="-1" COMMENT="" />
    <EXPORT ORDINAL="1084" NAME="_ZN8QtCharts15QXYLegendMarkerC1ERNS_22QXYLegendMarkerPrivateEP7QObject" PURGE="0" COMMENT="" />
    <EXPORT ORDINAL="1085" NAME="_ZN8QtCharts15QXYLegendMarkerC2EPNS_9QXYSeriesEPNS_7QLegendEP7QObject" PURGE="-1" COMMENT="" />
    <EXPORT ORDINAL="1086" NAME="_ZN8QtCharts15QXYLegendMarkerC2ERNS_22QXYLegendMarkerPrivateEP7QObject" PURGE="0" COMMENT="" />
    <EXPORT ORDINAL="1087" NAME="_ZN8QtCharts15QXYLegendMarkerD0Ev" PURGE="-1" COMMENT="" />
    <EXPORT ORDINAL="1088" NAME="_ZN8QtCharts15QXYLegendMarkerD1Ev" PURGE="-1" COMMENT="" />
    <EXPORT ORDINAL="1089" NAME="_ZN8QtCharts15QXYLegendMarkerD2Ev" PURGE="-1" COMMENT="" />
    <EXPORT ORDINAL="1090" NAME="_ZN8QtCharts15SplineAnimation11updateStateEN18QAbstractAnimation5StateES2_" PURGE="0" COMMENT="" />
    <EXPORT ORDINAL="1091" NAME="_ZN8QtCharts15SplineAnimation18updateCurrentValueERK8QVariant" PURGE="0" COMMENT="" />
    <EXPORT ORDINAL="1092" NAME="_ZN8QtCharts15SplineAnimation5setupER7QVectorI7QPointFES4_S4_S4_i" PURGE="0" COMMENT="" />
    <EXPORT ORDINAL="1093" NAME="_ZN8QtCharts15SplineAnimationC1EPNS_15SplineChartItemEiR12QEasingCurve" PURGE="0" COMMENT="" />
    <EXPORT ORDINAL="1094" NAME="_ZN8QtCharts15SplineAnimationC2EPNS_15SplineChartItemEiR12QEasingCurve" PURGE="0" COMMENT="" />
    <EXPORT ORDINAL="1095" NAME="_ZN8QtCharts15SplineAnimationD0Ev" PURGE="-1" COMMENT="" />
    <EXPORT ORDINAL="1096" NAME="_ZN8QtCharts15SplineAnimationD1Ev" PURGE="-1" COMMENT="" />
    <EXPORT ORDINAL="1097" NAME="_ZN8QtCharts15SplineAnimationD2Ev" PURGE="-1" COMMENT="" />
    <EXPORT ORDINAL="1098" NAME="_ZN8QtCharts15SplineChartItem11qt_metacallEN11QMetaObject4CallEiPPv" PURGE="0" COMMENT="" />
    <EXPORT ORDINAL="1099" NAME="_ZN8QtCharts15SplineChartItem11qt_metacastEPKc" PURGE="0" COMMENT="" />
    <EXPORT ORDINAL="1100" NAME="_ZN8QtCharts15SplineChartItem11updateChartER7QVectorI7QPointFES4_i" PURGE="0" COMMENT="" />
    <EXPORT ORDINAL="1101" NAME="_ZN8QtCharts15SplineChartItem12setAnimationEPNS_15SplineAnimationE" PURGE="0" COMMENT="" />
    <EXPORT ORDINAL="1102" NAME="_ZN8QtCharts15SplineChartItem13handleUpdatedEv" PURGE="0" COMMENT="" />
    <EXPORT ORDINAL="1103" NAME="_ZN8QtCharts15SplineChartItem14updateGeometryEv" PURGE="0" COMMENT="" />
    <EXPORT ORDINAL="1104" NAME="_ZN8QtCharts15SplineChartItem15hoverEnterEventEP24QGraphicsSceneHoverEvent" PURGE="0" COMMENT="" />
    <EXPORT ORDINAL="1105" NAME="_ZN8QtCharts15SplineChartItem15hoverLeaveEventEP24QGraphicsSceneHoverEvent" PURGE="0" COMMENT="" />
    <EXPORT ORDINAL="1106" NAME="_ZN8QtCharts15SplineChartItem15mousePressEventEP24QGraphicsSceneMouseEvent" PURGE="0" COMMENT="" />
    <EXPORT ORDINAL="1107" NAME="_ZN8QtCharts15SplineChartItem16staticMetaObjectE" PURGE="-1" COMMENT="" />
    <EXPORT ORDINAL="1108" NAME="_ZN8QtCharts15SplineChartItem17mouseReleaseEventEP24QGraphicsSceneMouseEvent" PURGE="0" COMMENT="" />
    <EXPORT ORDINAL="1109" NAME="_ZN8QtCharts15SplineChartItem18firstControlPointsERK7QVectorIdE" PURGE="0" COMMENT="" />
    <EXPORT ORDINAL="1110" NAME="_ZN8QtCharts15SplineChartItem18qt_static_metacallEP7QObjectN11QMetaObject4CallEiPPv" PURGE="0" COMMENT="" />
    <EXPORT ORDINAL="1111" NAME="_ZN8QtCharts15SplineChartItem21mouseDoubleClickEventEP24QGraphicsSceneMouseEvent" PURGE="0" COMMENT="" />
    <EXPORT ORDINAL="1112" NAME="_ZN8QtCharts15SplineChartItem22calculateControlPointsERK7QVectorI7QPointFE" PURGE="0" COMMENT="" />
    <EXPORT ORDINAL="1113" NAME="_ZN8QtCharts15SplineChartItem24setControlGeometryPointsER7QVectorI7QPointFE" PURGE="0" COMMENT="" />
    <EXPORT ORDINAL="1114" NAME="_ZN8QtCharts15SplineChartItem5paintEP8QPainterPK24QStyleOptionGraphicsItemP7QWidget" PURGE="0" COMMENT="" />
    <EXPORT ORDINAL="1115" NAME="_ZN8QtCharts15SplineChartItemC1EPNS_13QSplineSeriesEP13QGraphicsItem" PURGE="0" COMMENT="" />
    <EXPORT ORDINAL="1116" NAME="_ZN8QtCharts15SplineChartItemC2EPNS_13QSplineSeriesEP13QGraphicsItem" PURGE="0" COMMENT="" />
    <EXPORT ORDINAL="1117" NAME="_ZN8QtCharts16BoxPlotAnimation11qt_metacallEN11QMetaObject4CallEiPPv" PURGE="-1" COMMENT="" />
    <EXPORT ORDINAL="1118" NAME="_ZN8QtCharts16BoxPlotAnimation11qt_metacastEPKc" PURGE="0" COMMENT="" />
    <EXPORT ORDINAL="1119" NAME="_ZN8QtCharts16BoxPlotAnimation12boxAnimationEPNS_11BoxWhiskersE" PURGE="0" COMMENT="" />
    <EXPORT ORDINAL="1120" NAME="_ZN8QtCharts16BoxPlotAnimation16staticMetaObjectE" PURGE="-1" COMMENT="" />
    <EXPORT ORDINAL="1121" NAME="_ZN8QtCharts16BoxPlotAnimation17setAnimationStartEPNS_11BoxWhiskersE" PURGE="0" COMMENT="" />
    <EXPORT ORDINAL="1122" NAME="_ZN8QtCharts16BoxPlotAnimation18boxChangeAnimationEPNS_11BoxWhiskersE" PURGE="0" COMMENT="" />
    <EXPORT ORDINAL="1123" NAME="_ZN8QtCharts16BoxPlotAnimation18qt_static_metacallEP7QObjectN11QMetaObject4CallEiPPv" PURGE="0" COMMENT="" />
    <EXPORT ORDINAL="1124" NAME="_ZN8QtCharts16BoxPlotAnimation18removeBoxAnimationEPNS_11BoxWhiskersE" PURGE="0" COMMENT="" />
    <EXPORT ORDINAL="1125" NAME="_ZN8QtCharts16BoxPlotAnimation6addBoxEPNS_11BoxWhiskersE" PURGE="0" COMMENT="" />
    <EXPORT ORDINAL="1126" NAME="_ZN8QtCharts16BoxPlotAnimation7stopAllEv" PURGE="0" COMMENT="" />
    <EXPORT ORDINAL="1127" NAME="_ZN8QtCharts16BoxPlotAnimationC1EPNS_16BoxPlotChartItemEiR12QEasingCurve" PURGE="-1" COMMENT="" />
    <EXPORT ORDINAL="1128" NAME="_ZN8QtCharts16BoxPlotAnimationC2EPNS_16BoxPlotChartItemEiR12QEasingCurve" PURGE="-1" COMMENT="" />
    <EXPORT ORDINAL="1129" NAME="_ZN8QtCharts16BoxPlotAnimationD0Ev" PURGE="-1" COMMENT="" />
    <EXPORT ORDINAL="1130" NAME="_ZN8QtCharts16BoxPlotAnimationD1Ev" PURGE="-1" COMMENT="" />
    <EXPORT ORDINAL="1131" NAME="_ZN8QtCharts16BoxPlotAnimationD2Ev" PURGE="-1" COMMENT="" />
    <EXPORT ORDINAL="1132" NAME="_ZN8QtCharts16BoxPlotChartItem11qt_metacallEN11QMetaObject4CallEiPPv" PURGE="0" COMMENT="" />
    <EXPORT ORDINAL="1133" NAME="_ZN8QtCharts16BoxPlotChartItem11qt_metacastEPKc" PURGE="0" COMMENT="" />
    <EXPORT ORDINAL="1134" NAME="_ZN8QtCharts16BoxPlotChartItem12setAnimationEPNS_16BoxPlotAnimationE" PURGE="0" COMMENT="" />
    <EXPORT ORDINAL="1135" NAME="_ZN8QtCharts16BoxPlotChartItem15calculateLayoutEv" PURGE="0" COMMENT="" />
    <EXPORT ORDINAL="1136" NAME="_ZN8QtCharts16BoxPlotChartItem16initializeLayoutEv" PURGE="0" COMMENT="" />
    <EXPORT ORDINAL="1137" NAME="_ZN8QtCharts16BoxPlotChartItem16staticMetaObjectE" PURGE="-1" COMMENT="" />
    <EXPORT ORDINAL="1138" NAME="_ZN8QtCharts16BoxPlotChartItem17handleUpdatedBarsEv" PURGE="0" COMMENT="" />
    <EXPORT ORDINAL="1139" NAME="_ZN8QtCharts16BoxPlotChartItem17updateBoxGeometryEPNS_11BoxWhiskersEi" PURGE="0" COMMENT="" />
    <EXPORT ORDINAL="1140" NAME="_ZN8QtCharts16BoxPlotChartItem18handleBoxsetRemoveE5QListIPNS_7QBoxSetEE" PURGE="0" COMMENT="" />
    <EXPORT ORDINAL="1141" NAME="_ZN8QtCharts16BoxPlotChartItem18qt_static_metacallEP7QObjectN11QMetaObject4CallEiPPv" PURGE="0" COMMENT="" />
    <EXPORT ORDINAL="1142" NAME="_ZN8QtCharts16BoxPlotChartItem19handleDomainUpdatedEv" PURGE="0" COMMENT="" />
    <EXPORT ORDINAL="1143" NAME="_ZN8QtCharts16BoxPlotChartItem19handleLayoutChangedEv" PURGE="0" COMMENT="" />
    <EXPORT ORDINAL="1144" NAME="_ZN8QtCharts16BoxPlotChartItem20handleOpacityChangedEv" PURGE="-1" COMMENT="" />
    <EXPORT ORDINAL="1145" NAME="_ZN8QtCharts16BoxPlotChartItem26handleDataStructureChangedEv" PURGE="0" COMMENT="" />
    <EXPORT ORDINAL="1146" NAME="_ZN8QtCharts16BoxPlotChartItem26handleSeriesVisibleChangedEv" PURGE="-1" COMMENT="" />
    <EXPORT ORDINAL="1147" NAME="_ZN8QtCharts16BoxPlotChartItem5paintEP8QPainterPK24QStyleOptionGraphicsItemP7QWidget" PURGE="0" COMMENT="" />
    <EXPORT ORDINAL="1148" NAME="_ZN8QtCharts16BoxPlotChartItemC1EPNS_14QBoxPlotSeriesEP13QGraphicsItem" PURGE="0" COMMENT="" />
    <EXPORT ORDINAL="1149" NAME="_ZN8QtCharts16BoxPlotChartItemC2EPNS_14QBoxPlotSeriesEP13QGraphicsItem" PURGE="0" COMMENT="" />
    <EXPORT ORDINAL="1150" NAME="_ZN8QtCharts16BoxPlotChartItemD0Ev" PURGE="-1" COMMENT="" />
    <EXPORT ORDINAL="1151" NAME="_ZN8QtCharts16BoxPlotChartItemD1Ev" PURGE="-1" COMMENT="" />
    <EXPORT ORDINAL="1152" NAME="_ZN8QtCharts16BoxPlotChartItemD2Ev" PURGE="-1" COMMENT="" />
    <EXPORT ORDINAL="1153" NAME="_ZN8QtCharts16ChartAxisElement11qt_metacallEN11QMetaObject4CallEiPPv" PURGE="0" COMMENT="" />
    <EXPORT ORDINAL="1154" NAME="_ZN8QtCharts16ChartAxisElement11qt_metacastEPKc" PURGE="0" COMMENT="" />
    <EXPORT ORDINAL="1155" NAME="_ZN8QtCharts16ChartAxisElement12axisSelectedEv" PURGE="-1" COMMENT="" />
    <EXPORT ORDINAL="1156" NAME="_ZN8QtCharts16ChartAxisElement12connectSlotsEv" PURGE="0" COMMENT="" />
    <EXPORT ORDINAL="1157" NAME="_ZN8QtCharts16ChartAxisElement16staticMetaObjectE" PURGE="-1" COMMENT="" />
    <EXPORT ORDINAL="1158" NAME="_ZN8QtCharts16ChartAxisElement18handleRangeChangedEdd" PURGE="0" COMMENT="" />
    <EXPORT ORDINAL="1159" NAME="_ZN8QtCharts16ChartAxisElement18qt_static_metacallEP7QObjectN11QMetaObject4CallEiPPv" PURGE="0" COMMENT="" />
    <EXPORT ORDINAL="1160" NAME="_ZN8QtCharts16ChartAxisElement20handleReverseChangedEb" PURGE="-1" COMMENT="" />
    <EXPORT ORDINAL="1161" NAME="_ZN8QtCharts16ChartAxisElement20handleVisibleChangedEb" PURGE="0" COMMENT="" />
    <EXPORT ORDINAL="1162" NAME="_ZN8QtCharts16ChartAxisElement22handleTitleFontChangedERK5QFont" PURGE="0" COMMENT="" />
    <EXPORT ORDINAL="1163" NAME="_ZN8QtCharts16ChartAxisElement22handleTitleTextChangedERK7QString" PURGE="0" COMMENT="" />
    <EXPORT ORDINAL="1164" NAME="_ZN8QtCharts16ChartAxisElement23handleLabelsFontChangedERK5QFont" PURGE="0" COMMENT="" />
    <EXPORT ORDINAL="1165" NAME="_ZN8QtCharts16ChartAxisElement23handleTitleBrushChangedERK6QBrush" PURGE="-1" COMMENT="" />
    <EXPORT ORDINAL="1166" NAME="_ZN8QtCharts16ChartAxisElement24handleGridVisibleChangedEb" PURGE="-1" COMMENT="" />
    <EXPORT ORDINAL="1167" NAME="_ZN8QtCharts16ChartAxisElement24handleLabelsAngleChangedEi" PURGE="0" COMMENT="" />
    <EXPORT ORDINAL="1168" NAME="_ZN8QtCharts16ChartAxisElement24handleLabelsBrushChangedERK6QBrush" PURGE="0" COMMENT="" />
    <EXPORT ORDINAL="1169" NAME="_ZN8QtCharts16ChartAxisElement25handleArrowVisibleChangedEb" PURGE="-1" COMMENT="" />
    <EXPORT ORDINAL="1170" NAME="_ZN8QtCharts16ChartAxisElement25handleTitleVisibleChangedEb" PURGE="-1" COMMENT="" />
    <EXPORT ORDINAL="1171" NAME="_ZN8QtCharts16ChartAxisElement26handleLabelsVisibleChangedEb" PURGE="-1" COMMENT="" />
    <EXPORT ORDINAL="1172" NAME="_ZN8QtCharts16ChartAxisElement26handleShadesVisibleChangedEb" PURGE="-1" COMMENT="" />
    <EXPORT ORDINAL="1173" NAME="_ZN8QtCharts16ChartAxisElement27handleLabelsPositionChangedEv" PURGE="-1" COMMENT="" />
    <EXPORT ORDINAL="1174" NAME="_ZN8QtCharts16ChartAxisElement29handleMinorGridVisibleChangedEb" PURGE="-1" COMMENT="" />
    <EXPORT ORDINAL="1175" NAME="_ZN8QtCharts16ChartAxisElement30handleMinorArrowVisibleChangedEb" PURGE="-1" COMMENT="" />
    <EXPORT ORDINAL="1176" NAME="_ZN8QtCharts16ChartAxisElement7clickedEv" PURGE="-1" COMMENT="" />
    <EXPORT ORDINAL="1177" NAME="_ZN8QtCharts16ChartAxisElement7isEmptyEv" PURGE="0" COMMENT="" />
    <EXPORT ORDINAL="1178" NAME="_ZN8QtCharts16ChartAxisElementC1EPNS_13QAbstractAxisEP13QGraphicsItemb" PURGE="-1" COMMENT="" />
    <EXPORT ORDINAL="1179" NAME="_ZN8QtCharts16ChartAxisElementC2EPNS_13QAbstractAxisEP13QGraphicsItemb" PURGE="-1" COMMENT="" />
    <EXPORT ORDINAL="1180" NAME="_ZN8QtCharts16ChartAxisElementD0Ev" PURGE="-1" COMMENT="" />
    <EXPORT ORDINAL="1181" NAME="_ZN8QtCharts16ChartAxisElementD1Ev" PURGE="-1" COMMENT="" />
    <EXPORT ORDINAL="1182" NAME="_ZN8QtCharts16ChartAxisElementD2Ev" PURGE="-1" COMMENT="" />
    <EXPORT ORDINAL="1183" NAME="_ZN8QtCharts16LegendMarkerItem10setToolTipERK7QString" PURGE="-1" COMMENT="" />
    <EXPORT ORDINAL="1184" NAME="_ZN8QtCharts16LegendMarkerItem11qt_metacallEN11QMetaObject4CallEiPPv" PURGE="0" COMMENT="" />
    <EXPORT ORDINAL="1185" NAME="_ZN8QtCharts16LegendMarkerItem11qt_metacastEPKc" PURGE="0" COMMENT="" />
    <EXPORT ORDINAL="1186" NAME="_ZN8QtCharts16LegendMarkerItem11setGeometryERK6QRectF" PURGE="0" COMMENT="" />
    <EXPORT ORDINAL="1187" NAME="_ZN8QtCharts16LegendMarkerItem11setItemRectEv" PURGE="0" COMMENT="" />
    <EXPORT ORDINAL="1188" NAME="_ZN8QtCharts16LegendMarkerItem12setSeriesPenERK4QPen" PURGE="0" COMMENT="" />
    <EXPORT ORDINAL="1189" NAME="_ZN8QtCharts16LegendMarkerItem13setLabelBrushERK6QBrush" PURGE="-1" COMMENT="" />
    <EXPORT ORDINAL="1190" NAME="_ZN8QtCharts16LegendMarkerItem14setMarkerShapeENS_7QLegend11MarkerShapeE" PURGE="0" COMMENT="" />
    <EXPORT ORDINAL="1191" NAME="_ZN8QtCharts16LegendMarkerItem14setSeriesBrushERK6QBrush" PURGE="0" COMMENT="" />
    <EXPORT ORDINAL="1192" NAME="_ZN8QtCharts16LegendMarkerItem15hoverEnterEventEP24QGraphicsSceneHoverEvent" PURGE="0" COMMENT="" />
    <EXPORT ORDINAL="1193" NAME="_ZN8QtCharts16LegendMarkerItem15hoverLeaveEventEP24QGraphicsSceneHoverEvent" PURGE="0" COMMENT="" />
    <EXPORT ORDINAL="1194" NAME="_ZN8QtCharts16LegendMarkerItem16staticMetaObjectE" PURGE="-1" COMMENT="" />
    <EXPORT ORDINAL="1195" NAME="_ZN8QtCharts16LegendMarkerItem17markerRectChangedEv" PURGE="-1" COMMENT="" />
    <EXPORT ORDINAL="1196" NAME="_ZN8QtCharts16LegendMarkerItem18qt_static_metacallEP7QObjectN11QMetaObject4CallEiPPv" PURGE="0" COMMENT="" />
    <EXPORT ORDINAL="1197" NAME="_ZN8QtCharts16LegendMarkerItem18setItemBrushAndPenEv" PURGE="0" COMMENT="" />
    <EXPORT ORDINAL="1198" NAME="_ZN8QtCharts16LegendMarkerItem24updateMarkerShapeAndSizeEv" PURGE="0" COMMENT="" />
    <EXPORT ORDINAL="1199" NAME="_ZN8QtCharts16LegendMarkerItem5paintEP8QPainterPK24QStyleOptionGraphicsItemP7QWidget" PURGE="0" COMMENT="" />
    <EXPORT ORDINAL="1200" NAME="_ZN8QtCharts16LegendMarkerItem6setPenERK4QPen" PURGE="0" COMMENT="" />
    <EXPORT ORDINAL="1201" NAME="_ZN8QtCharts16LegendMarkerItem7setFontERK5QFont" PURGE="0" COMMENT="" />
    <EXPORT ORDINAL="1202" NAME="_ZN8QtCharts16LegendMarkerItem8setBrushERK6QBrush" PURGE="0" COMMENT="" />
    <EXPORT ORDINAL="1203" NAME="_ZN8QtCharts16LegendMarkerItem8setLabelE7QString" PURGE="-1" COMMENT="" />
    <EXPORT ORDINAL="1204" NAME="_ZN8QtCharts16LegendMarkerItemC1EPNS_20QLegendMarkerPrivateEP15QGraphicsObject" PURGE="-1" COMMENT="" />
    <EXPORT ORDINAL="1205" NAME="_ZN8QtCharts16LegendMarkerItemC2EPNS_20QLegendMarkerPrivateEP15QGraphicsObject" PURGE="-1" COMMENT="" />
    <EXPORT ORDINAL="1206" NAME="_ZN8QtCharts16LegendMarkerItemD0Ev" PURGE="-1" COMMENT="" />
    <EXPORT ORDINAL="1207" NAME="_ZN8QtCharts16LegendMarkerItemD1Ev" PURGE="-1" COMMENT="" />
    <EXPORT ORDINAL="1208" NAME="_ZN8QtCharts16LegendMarkerItemD2Ev" PURGE="-1" COMMENT="" />
    <EXPORT ORDINAL="1209" NAME="_ZN8QtCharts16LogXYPolarDomain10attachAxisEPNS_13QAbstractAxisE" PURGE="0" COMMENT="" />
    <EXPORT ORDINAL="1210" NAME="_ZN8QtCharts16LogXYPolarDomain10detachAxisEPNS_13QAbstractAxisE" PURGE="0" COMMENT="" />
    <EXPORT ORDINAL="1211" NAME="_ZN8QtCharts16LogXYPolarDomain11qt_metacallEN11QMetaObject4CallEiPPv" PURGE="0" COMMENT="" />
    <EXPORT ORDINAL="1212" NAME="_ZN8QtCharts16LogXYPolarDomain11qt_metacastEPKc" PURGE="0" COMMENT="" />
    <EXPORT ORDINAL="1213" NAME="_ZN8QtCharts16LogXYPolarDomain16staticMetaObjectE" PURGE="-1" COMMENT="" />
    <EXPORT ORDINAL="1214" NAME="_ZN8QtCharts16LogXYPolarDomain18qt_static_metacallEP7QObjectN11QMetaObject4CallEiPPv" PURGE="0" COMMENT="" />
    <EXPORT ORDINAL="1215" NAME="_ZN8QtCharts16LogXYPolarDomain31handleHorizontalAxisBaseChangedEd" PURGE="-1" COMMENT="" />
    <EXPORT ORDINAL="1216" NAME="_ZN8QtCharts16LogXYPolarDomain4moveEdd" PURGE="0" COMMENT="" />
    <EXPORT ORDINAL="1217" NAME="_ZN8QtCharts16LogXYPolarDomain6zoomInERK6QRectF" PURGE="0" COMMENT="" />
    <EXPORT ORDINAL="1218" NAME="_ZN8QtCharts16LogXYPolarDomain7zoomOutERK6QRectF" PURGE="0" COMMENT="" />
    <EXPORT ORDINAL="1219" NAME="_ZN8QtCharts16LogXYPolarDomain8setRangeEdddd" PURGE="0" COMMENT="" />
    <EXPORT ORDINAL="1220" NAME="_ZN8QtCharts16LogXYPolarDomainC1EP7QObject" PURGE="0" COMMENT="" />
    <EXPORT ORDINAL="1221" NAME="_ZN8QtCharts16LogXYPolarDomainC2EP7QObject" PURGE="0" COMMENT="" />
    <EXPORT ORDINAL="1222" NAME="_ZN8QtCharts16LogXYPolarDomainD0Ev" PURGE="-1" COMMENT="" />
    <EXPORT ORDINAL="1223" NAME="_ZN8QtCharts16LogXYPolarDomainD1Ev" PURGE="-1" COMMENT="" />
    <EXPORT ORDINAL="1224" NAME="_ZN8QtCharts16LogXYPolarDomainD2Ev" PURGE="-1" COMMENT="" />
    <EXPORT ORDINAL="1225" NAME="_ZN8QtCharts16PolarChartLayoutC1EPNS_14ChartPresenterE" PURGE="0" COMMENT="" />
    <EXPORT ORDINAL="1226" NAME="_ZN8QtCharts16PolarChartLayoutC2EPNS_14ChartPresenterE" PURGE="0" COMMENT="" />
    <EXPORT ORDINAL="1227" NAME="_ZN8QtCharts16PolarChartLayoutD0Ev" PURGE="-1" COMMENT="" />
    <EXPORT ORDINAL="1228" NAME="_ZN8QtCharts16PolarChartLayoutD1Ev" PURGE="-1" COMMENT="" />
    <EXPORT ORDINAL="1229" NAME="_ZN8QtCharts16PolarChartLayoutD2Ev" PURGE="-1" COMMENT="" />
    <EXPORT ORDINAL="1230" NAME="_ZN8QtCharts16QBarCategoryAxis10categoriesEv" PURGE="0" COMMENT="" />
    <EXPORT ORDINAL="1231" NAME="_ZN8QtCharts16QBarCategoryAxis10maxChangedERK7QString" PURGE="0" COMMENT="" />
    <EXPORT ORDINAL="1232" NAME="_ZN8QtCharts16QBarCategoryAxis10minChangedERK7QString" PURGE="0" COMMENT="" />
    <EXPORT ORDINAL="1233" NAME="_ZN8QtCharts16QBarCategoryAxis11qt_metacallEN11QMetaObject4CallEiPPv" PURGE="0" COMMENT="" />
    <EXPORT ORDINAL="1234" NAME="_ZN8QtCharts16QBarCategoryAxis11qt_metacastEPKc" PURGE="0" COMMENT="" />
    <EXPORT ORDINAL="1235" NAME="_ZN8QtCharts16QBarCategoryAxis12countChangedEv" PURGE="-1" COMMENT="" />
    <EXPORT ORDINAL="1236" NAME="_ZN8QtCharts16QBarCategoryAxis12rangeChangedERK7QStringS3_" PURGE="0" COMMENT="" />
    <EXPORT ORDINAL="1237" NAME="_ZN8QtCharts16QBarCategoryAxis13setCategoriesERK11QStringList" PURGE="0" COMMENT="" />
    <EXPORT ORDINAL="1238" NAME="_ZN8QtCharts16QBarCategoryAxis16staticMetaObjectE" PURGE="-1" COMMENT="" />
    <EXPORT ORDINAL="1239" NAME="_ZN8QtCharts16QBarCategoryAxis17categoriesChangedEv" PURGE="-1" COMMENT="" />
    <EXPORT ORDINAL="1240" NAME="_ZN8QtCharts16QBarCategoryAxis18qt_static_metacallEP7QObjectN11QMetaObject4CallEiPPv" PURGE="0" COMMENT="" />
    <EXPORT ORDINAL="1241" NAME="_ZN8QtCharts16QBarCategoryAxis5clearEv" PURGE="0" COMMENT="" />
    <EXPORT ORDINAL="1242" NAME="_ZN8QtCharts16QBarCategoryAxis6appendERK11QStringList" PURGE="0" COMMENT="" />
    <EXPORT ORDINAL="1243" NAME="_ZN8QtCharts16QBarCategoryAxis6appendERK7QString" PURGE="0" COMMENT="" />
    <EXPORT ORDINAL="1244" NAME="_ZN8QtCharts16QBarCategoryAxis6insertEiRK7QString" PURGE="0" COMMENT="" />
    <EXPORT ORDINAL="1245" NAME="_ZN8QtCharts16QBarCategoryAxis6removeERK7QString" PURGE="0" COMMENT="" />
    <EXPORT ORDINAL="1246" NAME="_ZN8QtCharts16QBarCategoryAxis6setMaxERK7QString" PURGE="0" COMMENT="" />
    <EXPORT ORDINAL="1247" NAME="_ZN8QtCharts16QBarCategoryAxis6setMinERK7QString" PURGE="0" COMMENT="" />
    <EXPORT ORDINAL="1248" NAME="_ZN8QtCharts16QBarCategoryAxis7replaceERK7QStringS3_" PURGE="0" COMMENT="" />
    <EXPORT ORDINAL="1249" NAME="_ZN8QtCharts16QBarCategoryAxis8setRangeERK7QStringS3_" PURGE="0" COMMENT="" />
    <EXPORT ORDINAL="1250" NAME="_ZN8QtCharts16QBarCategoryAxisC1EP7QObject" PURGE="0" COMMENT="" />
    <EXPORT ORDINAL="1251" NAME="_ZN8QtCharts16QBarCategoryAxisC1ERNS_23QBarCategoryAxisPrivateEP7QObject" PURGE="0" COMMENT="" />
    <EXPORT ORDINAL="1252" NAME="_ZN8QtCharts16QBarCategoryAxisC2EP7QObject" PURGE="0" COMMENT="" />
    <EXPORT ORDINAL="1253" NAME="_ZN8QtCharts16QBarCategoryAxisC2ERNS_23QBarCategoryAxisPrivateEP7QObject" PURGE="0" COMMENT="" />
    <EXPORT ORDINAL="1254" NAME="_ZN8QtCharts16QBarCategoryAxisD0Ev" PURGE="-1" COMMENT="" />
    <EXPORT ORDINAL="1255" NAME="_ZN8QtCharts16QBarCategoryAxisD1Ev" PURGE="0" COMMENT="" />
    <EXPORT ORDINAL="1256" NAME="_ZN8QtCharts16QBarCategoryAxisD2Ev" PURGE="0" COMMENT="" />
    <EXPORT ORDINAL="1257" NAME="_ZN8QtCharts16QBarLegendMarker11qt_metacallEN11QMetaObject4CallEiPPv" PURGE="0" COMMENT="" />
    <EXPORT ORDINAL="1258" NAME="_ZN8QtCharts16QBarLegendMarker11qt_metacastEPKc" PURGE="0" COMMENT="" />
    <EXPORT ORDINAL="1259" NAME="_ZN8QtCharts16QBarLegendMarker16staticMetaObjectE" PURGE="-1" COMMENT="" />
    <EXPORT ORDINAL="1260" NAME="_ZN8QtCharts16QBarLegendMarker18qt_static_metacallEP7QObjectN11QMetaObject4CallEiPPv" PURGE="0" COMMENT="" />
    <EXPORT ORDINAL="1261" NAME="_ZN8QtCharts16QBarLegendMarker6barsetEv" PURGE="0" COMMENT="" />
    <EXPORT ORDINAL="1262" NAME="_ZN8QtCharts16QBarLegendMarker6seriesEv" PURGE="0" COMMENT="" />
    <EXPORT ORDINAL="1263" NAME="_ZN8QtCharts16QBarLegendMarkerC1EPNS_18QAbstractBarSeriesEPNS_7QBarSetEPNS_7QLegendEP7QObject" PURGE="-1" COMMENT="" />
    <EXPORT ORDINAL="1264" NAME="_ZN8QtCharts16QBarLegendMarkerC1ERNS_23QBarLegendMarkerPrivateEP7QObject" PURGE="0" COMMENT="" />
    <EXPORT ORDINAL="1265" NAME="_ZN8QtCharts16QBarLegendMarkerC2EPNS_18QAbstractBarSeriesEPNS_7QBarSetEPNS_7QLegendEP7QObject" PURGE="-1" COMMENT="" />
    <EXPORT ORDINAL="1266" NAME="_ZN8QtCharts16QBarLegendMarkerC2ERNS_23QBarLegendMarkerPrivateEP7QObject" PURGE="0" COMMENT="" />
    <EXPORT ORDINAL="1267" NAME="_ZN8QtCharts16QBarLegendMarkerD0Ev" PURGE="-1" COMMENT="" />
    <EXPORT ORDINAL="1268" NAME="_ZN8QtCharts16QBarLegendMarkerD1Ev" PURGE="-1" COMMENT="" />
    <EXPORT ORDINAL="1269" NAME="_ZN8QtCharts16QBarLegendMarkerD2Ev" PURGE="-1" COMMENT="" />
    <EXPORT ORDINAL="1270" NAME="_ZN8QtCharts16QHBarModelMapper11qt_metacallEN11QMetaObject4CallEiPPv" PURGE="0" COMMENT="" />
    <EXPORT ORDINAL="1271" NAME="_ZN8QtCharts16QHBarModelMapper11qt_metacastEPKc" PURGE="0" COMMENT="" />
    <EXPORT ORDINAL="1272" NAME="_ZN8QtCharts16QHBarModelMapper13modelReplacedEv" PURGE="-1" COMMENT="" />
    <EXPORT ORDINAL="1273" NAME="_ZN8QtCharts16QHBarModelMapper14seriesReplacedEv" PURGE="-1" COMMENT="" />
    <EXPORT ORDINAL="1274" NAME="_ZN8QtCharts16QHBarModelMapper14setColumnCountEi" PURGE="0" COMMENT="" />
    <EXPORT ORDINAL="1275" NAME="_ZN8QtCharts16QHBarModelMapper14setFirstColumnEi" PURGE="0" COMMENT="" />
    <EXPORT ORDINAL="1276" NAME="_ZN8QtCharts16QHBarModelMapper16setLastBarSetRowEi" PURGE="0" COMMENT="" />
    <EXPORT ORDINAL="1277" NAME="_ZN8QtCharts16QHBarModelMapper16staticMetaObjectE" PURGE="-1" COMMENT="" />
    <EXPORT ORDINAL="1278" NAME="_ZN8QtCharts16QHBarModelMapper17setFirstBarSetRowEi" PURGE="0" COMMENT="" />
    <EXPORT ORDINAL="1279" NAME="_ZN8QtCharts16QHBarModelMapper18columnCountChangedEv" PURGE="-1" COMMENT="" />
    <EXPORT ORDINAL="1280" NAME="_ZN8QtCharts16QHBarModelMapper18firstColumnChangedEv" PURGE="-1" COMMENT="" />
    <EXPORT ORDINAL="1281" NAME="_ZN8QtCharts16QHBarModelMapper18qt_static_metacallEP7QObjectN11QMetaObject4CallEiPPv" PURGE="0" COMMENT="" />
    <EXPORT ORDINAL="1282" NAME="_ZN8QtCharts16QHBarModelMapper20lastBarSetRowChangedEv" PURGE="-1" COMMENT="" />
    <EXPORT ORDINAL="1283" NAME="_ZN8QtCharts16QHBarModelMapper21firstBarSetRowChangedEv" PURGE="-1" COMMENT="" />
    <EXPORT ORDINAL="1284" NAME="_ZN8QtCharts16QHBarModelMapper8setModelEP18QAbstractItemModel" PURGE="0" COMMENT="" />
    <EXPORT ORDINAL="1285" NAME="_ZN8QtCharts16QHBarModelMapper9setSeriesEPNS_18QAbstractBarSeriesE" PURGE="0" COMMENT="" />
    <EXPORT ORDINAL="1286" NAME="_ZN8QtCharts16QHBarModelMapperC1EP7QObject" PURGE="0" COMMENT="" />
    <EXPORT ORDINAL="1287" NAME="_ZN8QtCharts16QHBarModelMapperC2EP7QObject" PURGE="0" COMMENT="" />
    <EXPORT ORDINAL="1288" NAME="_ZN8QtCharts16QHPieModelMapper11qt_metacallEN11QMetaObject4CallEiPPv" PURGE="0" COMMENT="" />
    <EXPORT ORDINAL="1289" NAME="_ZN8QtCharts16QHPieModelMapper11qt_metacastEPKc" PURGE="0" COMMENT="" />
    <EXPORT ORDINAL="1290" NAME="_ZN8QtCharts16QHPieModelMapper12setLabelsRowEi" PURGE="0" COMMENT="" />
    <EXPORT ORDINAL="1291" NAME="_ZN8QtCharts16QHPieModelMapper12setValuesRowEi" PURGE="0" COMMENT="" />
    <EXPORT ORDINAL="1292" NAME="_ZN8QtCharts16QHPieModelMapper13modelReplacedEv" PURGE="-1" COMMENT="" />
    <EXPORT ORDINAL="1293" NAME="_ZN8QtCharts16QHPieModelMapper14seriesReplacedEv" PURGE="-1" COMMENT="" />
    <EXPORT ORDINAL="1294" NAME="_ZN8QtCharts16QHPieModelMapper14setColumnCountEi" PURGE="0" COMMENT="" />
    <EXPORT ORDINAL="1295" NAME="_ZN8QtCharts16QHPieModelMapper14setFirstColumnEi" PURGE="0" COMMENT="" />
    <EXPORT ORDINAL="1296" NAME="_ZN8QtCharts16QHPieModelMapper16labelsRowChangedEv" PURGE="-1" COMMENT="" />
    <EXPORT ORDINAL="1297" NAME="_ZN8QtCharts16QHPieModelMapper16staticMetaObjectE" PURGE="-1" COMMENT="" />
    <EXPORT ORDINAL="1298" NAME="_ZN8QtCharts16QHPieModelMapper16valuesRowChangedEv" PURGE="-1" COMMENT="" />
    <EXPORT ORDINAL="1299" NAME="_ZN8QtCharts16QHPieModelMapper18columnCountChangedEv" PURGE="-1" COMMENT="" />
    <EXPORT ORDINAL="1300" NAME="_ZN8QtCharts16QHPieModelMapper18firstColumnChangedEv" PURGE="-1" COMMENT="" />
    <EXPORT ORDINAL="1301" NAME="_ZN8QtCharts16QHPieModelMapper18qt_static_metacallEP7QObjectN11QMetaObject4CallEiPPv" PURGE="0" COMMENT="" />
    <EXPORT ORDINAL="1302" NAME="_ZN8QtCharts16QHPieModelMapper8setModelEP18QAbstractItemModel" PURGE="0" COMMENT="" />
    <EXPORT ORDINAL="1303" NAME="_ZN8QtCharts16QHPieModelMapper9setSeriesEPNS_10QPieSeriesE" PURGE="0" COMMENT="" />
    <EXPORT ORDINAL="1304" NAME="_ZN8QtCharts16QHPieModelMapperC1EP7QObject" PURGE="0" COMMENT="" />
    <EXPORT ORDINAL="1305" NAME="_ZN8QtCharts16QHPieModelMapperC2EP7QObject" PURGE="0" COMMENT="" />
    <EXPORT ORDINAL="1306" NAME="_ZN8QtCharts16QPieLegendMarker11qt_metacallEN11QMetaObject4CallEiPPv" PURGE="0" COMMENT="" />
    <EXPORT ORDINAL="1307" NAME="_ZN8QtCharts16QPieLegendMarker11qt_metacastEPKc" PURGE="0" COMMENT="" />
    <EXPORT ORDINAL="1308" NAME="_ZN8QtCharts16QPieLegendMarker16staticMetaObjectE" PURGE="-1" COMMENT="" />
    <EXPORT ORDINAL="1309" NAME="_ZN8QtCharts16QPieLegendMarker18qt_static_metacallEP7QObjectN11QMetaObject4CallEiPPv" PURGE="0" COMMENT="" />
    <EXPORT ORDINAL="1310" NAME="_ZN8QtCharts16QPieLegendMarker5sliceEv" PURGE="0" COMMENT="" />
    <EXPORT ORDINAL="1311" NAME="_ZN8QtCharts16QPieLegendMarker6seriesEv" PURGE="0" COMMENT="" />
    <EXPORT ORDINAL="1312" NAME="_ZN8QtCharts16QPieLegendMarkerC1EPNS_10QPieSeriesEPNS_9QPieSliceEPNS_7QLegendEP7QObject" PURGE="-1" COMMENT="" />
    <EXPORT ORDINAL="1313" NAME="_ZN8QtCharts16QPieLegendMarkerC1ERNS_23QPieLegendMarkerPrivateEP7QObject" PURGE="0" COMMENT="" />
    <EXPORT ORDINAL="1314" NAME="_ZN8QtCharts16QPieLegendMarkerC2EPNS_10QPieSeriesEPNS_9QPieSliceEPNS_7QLegendEP7QObject" PURGE="-1" COMMENT="" />
    <EXPORT ORDINAL="1315" NAME="_ZN8QtCharts16QPieLegendMarkerC2ERNS_23QPieLegendMarkerPrivateEP7QObject" PURGE="0" COMMENT="" />
    <EXPORT ORDINAL="1316" NAME="_ZN8QtCharts16QPieLegendMarkerD0Ev" PURGE="-1" COMMENT="" />
    <EXPORT ORDINAL="1317" NAME="_ZN8QtCharts16QPieLegendMarkerD1Ev" PURGE="-1" COMMENT="" />
    <EXPORT ORDINAL="1318" NAME="_ZN8QtCharts16QPieLegendMarkerD2Ev" PURGE="-1" COMMENT="" />
    <EXPORT ORDINAL="1319" NAME="_ZN8QtCharts16QPieSlicePrivate11qt_metacallEN11QMetaObject4CallEiPPv" PURGE="0" COMMENT="" />
    <EXPORT ORDINAL="1320" NAME="_ZN8QtCharts16QPieSlicePrivate11qt_metacastEPKc" PURGE="0" COMMENT="" />
    <EXPORT ORDINAL="1321" NAME="_ZN8QtCharts16QPieSlicePrivate12setAngleSpanEd" PURGE="0" COMMENT="" />
    <EXPORT ORDINAL="1322" NAME="_ZN8QtCharts16QPieSlicePrivate12setLabelFontERK5QFontb" PURGE="0" COMMENT="" />
    <EXPORT ORDINAL="1323" NAME="_ZN8QtCharts16QPieSlicePrivate13setLabelBrushERK6QBrushb" PURGE="0" COMMENT="" />
    <EXPORT ORDINAL="1324" NAME="_ZN8QtCharts16QPieSlicePrivate13setPercentageEd" PURGE="0" COMMENT="" />
    <EXPORT ORDINAL="1325" NAME="_ZN8QtCharts16QPieSlicePrivate13setStartAngleEd" PURGE="0" COMMENT="" />
    <EXPORT ORDINAL="1326" NAME="_ZN8QtCharts16QPieSlicePrivate15explodedChangedEv" PURGE="-1" COMMENT="" />
    <EXPORT ORDINAL="1327" NAME="_ZN8QtCharts16QPieSlicePrivate16staticMetaObjectE" PURGE="-1" COMMENT="" />
    <EXPORT ORDINAL="1328" NAME="_ZN8QtCharts16QPieSlicePrivate18qt_static_metacallEP7QObjectN11QMetaObject4CallEiPPv" PURGE="0" COMMENT="" />
    <EXPORT ORDINAL="1329" NAME="_ZN8QtCharts16QPieSlicePrivate20labelPositionChangedEv" PURGE="-1" COMMENT="" />
    <EXPORT ORDINAL="1330" NAME="_ZN8QtCharts16QPieSlicePrivate27labelArmLengthFactorChangedEv" PURGE="-1" COMMENT="" />
    <EXPORT ORDINAL="1331" NAME="_ZN8QtCharts16QPieSlicePrivate28explodeDistanceFactorChangedEv" PURGE="-1" COMMENT="" />
    <EXPORT ORDINAL="1332" NAME="_ZN8QtCharts16QPieSlicePrivate6setPenERK4QPenb" PURGE="0" COMMENT="" />
    <EXPORT ORDINAL="1333" NAME="_ZN8QtCharts16QPieSlicePrivate8setBrushERK6QBrushb" PURGE="0" COMMENT="" />
    <EXPORT ORDINAL="1334" NAME="_ZN8QtCharts16QPieSlicePrivate9fromSliceEPNS_9QPieSliceE" PURGE="0" COMMENT="" />
    <EXPORT ORDINAL="1335" NAME="_ZN8QtCharts16QPieSlicePrivateC1EPNS_9QPieSliceE" PURGE="0" COMMENT="" />
    <EXPORT ORDINAL="1336" NAME="_ZN8QtCharts16QPieSlicePrivateC2EPNS_9QPieSliceE" PURGE="0" COMMENT="" />
    <EXPORT ORDINAL="1337" NAME="_ZN8QtCharts16QPieSlicePrivateD0Ev" PURGE="-1" COMMENT="" />
    <EXPORT ORDINAL="1338" NAME="_ZN8QtCharts16QPieSlicePrivateD1Ev" PURGE="-1" COMMENT="" />
    <EXPORT ORDINAL="1339" NAME="_ZN8QtCharts16QPieSlicePrivateD2Ev" PURGE="-1" COMMENT="" />
    <EXPORT ORDINAL="1340" NAME="_ZN8QtCharts16QVBarModelMapper11qt_metacallEN11QMetaObject4CallEiPPv" PURGE="0" COMMENT="" />
    <EXPORT ORDINAL="1341" NAME="_ZN8QtCharts16QVBarModelMapper11qt_metacastEPKc" PURGE="0" COMMENT="" />
    <EXPORT ORDINAL="1342" NAME="_ZN8QtCharts16QVBarModelMapper11setFirstRowEi" PURGE="0" COMMENT="" />
    <EXPORT ORDINAL="1343" NAME="_ZN8QtCharts16QVBarModelMapper11setRowCountEi" PURGE="0" COMMENT="" />
    <EXPORT ORDINAL="1344" NAME="_ZN8QtCharts16QVBarModelMapper13modelReplacedEv" PURGE="-1" COMMENT="" />
    <EXPORT ORDINAL="1345" NAME="_ZN8QtCharts16QVBarModelMapper14seriesReplacedEv" PURGE="-1" COMMENT="" />
    <EXPORT ORDINAL="1346" NAME="_ZN8QtCharts16QVBarModelMapper15firstRowChangedEv" PURGE="-1" COMMENT="" />
    <EXPORT ORDINAL="1347" NAME="_ZN8QtCharts16QVBarModelMapper15rowCountChangedEv" PURGE="-1" COMMENT="" />
    <EXPORT ORDINAL="1348" NAME="_ZN8QtCharts16QVBarModelMapper16staticMetaObjectE" PURGE="-1" COMMENT="" />
    <EXPORT ORDINAL="1349" NAME="_ZN8QtCharts16QVBarModelMapper18qt_static_metacallEP7QObjectN11QMetaObject4CallEiPPv" PURGE="0" COMMENT="" />
    <EXPORT ORDINAL="1350" NAME="_ZN8QtCharts16QVBarModelMapper19setLastBarSetColumnEi" PURGE="0" COMMENT="" />
    <EXPORT ORDINAL="1351" NAME="_ZN8QtCharts16QVBarModelMapper20setFirstBarSetColumnEi" PURGE="0" COMMENT="" />
    <EXPORT ORDINAL="1352" NAME="_ZN8QtCharts16QVBarModelMapper23lastBarSetColumnChangedEv" PURGE="-1" COMMENT="" />
    <EXPORT ORDINAL="1353" NAME="_ZN8QtCharts16QVBarModelMapper24firstBarSetColumnChangedEv" PURGE="-1" COMMENT="" />
    <EXPORT ORDINAL="1354" NAME="_ZN8QtCharts16QVBarModelMapper8setModelEP18QAbstractItemModel" PURGE="0" COMMENT="" />
    <EXPORT ORDINAL="1355" NAME="_ZN8QtCharts16QVBarModelMapper9setSeriesEPNS_18QAbstractBarSeriesE" PURGE="0" COMMENT="" />
    <EXPORT ORDINAL="1356" NAME="_ZN8QtCharts16QVBarModelMapperC1EP7QObject" PURGE="0" COMMENT="" />
    <EXPORT ORDINAL="1357" NAME="_ZN8QtCharts16QVBarModelMapperC2EP7QObject" PURGE="0" COMMENT="" />
    <EXPORT ORDINAL="1358" NAME="_ZN8QtCharts16QVPieModelMapper11qt_metacallEN11QMetaObject4CallEiPPv" PURGE="0" COMMENT="" />
    <EXPORT ORDINAL="1359" NAME="_ZN8QtCharts16QVPieModelMapper11qt_metacastEPKc" PURGE="0" COMMENT="" />
    <EXPORT ORDINAL="1360" NAME="_ZN8QtCharts16QVPieModelMapper11setFirstRowEi" PURGE="0" COMMENT="" />
    <EXPORT ORDINAL="1361" NAME="_ZN8QtCharts16QVPieModelMapper11setRowCountEi" PURGE="0" COMMENT="" />
    <EXPORT ORDINAL="1362" NAME="_ZN8QtCharts16QVPieModelMapper13modelReplacedEv" PURGE="-1" COMMENT="" />
    <EXPORT ORDINAL="1363" NAME="_ZN8QtCharts16QVPieModelMapper14seriesReplacedEv" PURGE="-1" COMMENT="" />
    <EXPORT ORDINAL="1364" NAME="_ZN8QtCharts16QVPieModelMapper15firstRowChangedEv" PURGE="-1" COMMENT="" />
    <EXPORT ORDINAL="1365" NAME="_ZN8QtCharts16QVPieModelMapper15rowCountChangedEv" PURGE="-1" COMMENT="" />
    <EXPORT ORDINAL="1366" NAME="_ZN8QtCharts16QVPieModelMapper15setLabelsColumnEi" PURGE="0" COMMENT="" />
    <EXPORT ORDINAL="1367" NAME="_ZN8QtCharts16QVPieModelMapper15setValuesColumnEi" PURGE="0" COMMENT="" />
    <EXPORT ORDINAL="1368" NAME="_ZN8QtCharts16QVPieModelMapper16staticMetaObjectE" PURGE="-1" COMMENT="" />
    <EXPORT ORDINAL="1369" NAME="_ZN8QtCharts16QVPieModelMapper18qt_static_metacallEP7QObjectN11QMetaObject4CallEiPPv" PURGE="0" COMMENT="" />
    <EXPORT ORDINAL="1370" NAME="_ZN8QtCharts16QVPieModelMapper19labelsColumnChangedEv" PURGE="-1" COMMENT="" />
    <EXPORT ORDINAL="1371" NAME="_ZN8QtCharts16QVPieModelMapper19valuesColumnChangedEv" PURGE="-1" COMMENT="" />
    <EXPORT ORDINAL="1372" NAME="_ZN8QtCharts16QVPieModelMapper8setModelEP18QAbstractItemModel" PURGE="0" COMMENT="" />
    <EXPORT ORDINAL="1373" NAME="_ZN8QtCharts16QVPieModelMapper9setSeriesEPNS_10QPieSeriesE" PURGE="0" COMMENT="" />
    <EXPORT ORDINAL="1374" NAME="_ZN8QtCharts16QVPieModelMapperC1EP7QObject" PURGE="0" COMMENT="" />
    <EXPORT ORDINAL="1375" NAME="_ZN8QtCharts16QVPieModelMapperC2EP7QObject" PURGE="0" COMMENT="" />
    <EXPORT ORDINAL="1376" NAME="_ZN8QtCharts16QXYSeriesPrivate11qt_metacallEN11QMetaObject4CallEiPPv" PURGE="0" COMMENT="" />
    <EXPORT ORDINAL="1377" NAME="_ZN8QtCharts16QXYSeriesPrivate11qt_metacastEPKc" PURGE="0" COMMENT="" />
    <EXPORT ORDINAL="1378" NAME="_ZN8QtCharts16QXYSeriesPrivate14initializeAxesEv" PURGE="0" COMMENT="" />
    <EXPORT ORDINAL="1379" NAME="_ZN8QtCharts16QXYSeriesPrivate16initializeDomainEv" PURGE="0" COMMENT="" />
    <EXPORT ORDINAL="1380" NAME="_ZN8QtCharts16QXYSeriesPrivate16staticMetaObjectE" PURGE="-1" COMMENT="" />
    <EXPORT ORDINAL="1381" NAME="_ZN8QtCharts16QXYSeriesPrivate18qt_static_metacallEP7QObjectN11QMetaObject4CallEiPPv" PURGE="0" COMMENT="" />
    <EXPORT ORDINAL="1382" NAME="_ZN8QtCharts16QXYSeriesPrivate19createLegendMarkersEPNS_7QLegendE" PURGE="0" COMMENT="" />
    <EXPORT ORDINAL="1383" NAME="_ZN8QtCharts16QXYSeriesPrivate20initializeAnimationsE6QFlagsINS_6QChart15AnimationOptionEEiR12QEasingCurve" PURGE="0" COMMENT="" />
    <EXPORT ORDINAL="1384" NAME="_ZN8QtCharts16QXYSeriesPrivate21drawSeriesPointLabelsEP8QPainterRK7QVectorI7QPointFEi" PURGE="0" COMMENT="" />
    <EXPORT ORDINAL="1385" NAME="_ZN8QtCharts16QXYSeriesPrivate7updatedEv" PURGE="-1" COMMENT="" />
    <EXPORT ORDINAL="1386" NAME="_ZN8QtCharts16QXYSeriesPrivateC1EPNS_9QXYSeriesE" PURGE="0" COMMENT="" />
    <EXPORT ORDINAL="1387" NAME="_ZN8QtCharts16QXYSeriesPrivateC2EPNS_9QXYSeriesE" PURGE="0" COMMENT="" />
    <EXPORT ORDINAL="1388" NAME="_ZN8QtCharts16ScatterAnimation11updateStateEN18QAbstractAnimation5StateES2_" PURGE="0" COMMENT="" />
    <EXPORT ORDINAL="1389" NAME="_ZN8QtCharts16ScatterAnimationC1EPNS_16ScatterChartItemEiR12QEasingCurve" PURGE="0" COMMENT="" />
    <EXPORT ORDINAL="1390" NAME="_ZN8QtCharts16ScatterAnimationC2EPNS_16ScatterChartItemEiR12QEasingCurve" PURGE="0" COMMENT="" />
    <EXPORT ORDINAL="1391" NAME="_ZN8QtCharts16ScatterAnimationD0Ev" PURGE="-1" COMMENT="" />
    <EXPORT ORDINAL="1392" NAME="_ZN8QtCharts16ScatterAnimationD1Ev" PURGE="-1" COMMENT="" />
    <EXPORT ORDINAL="1393" NAME="_ZN8QtCharts16ScatterAnimationD2Ev" PURGE="-1" COMMENT="" />
    <EXPORT ORDINAL="1394" NAME="_ZN8QtCharts16ScatterChartItem11qt_metacallEN11QMetaObject4CallEiPPv" PURGE="0" COMMENT="" />
    <EXPORT ORDINAL="1395" NAME="_ZN8QtCharts16ScatterChartItem11qt_metacastEPKc" PURGE="0" COMMENT="" />
    <EXPORT ORDINAL="1396" NAME="_ZN8QtCharts16ScatterChartItem12createPointsEi" PURGE="0" COMMENT="" />
    <EXPORT ORDINAL="1397" NAME="_ZN8QtCharts16ScatterChartItem12deletePointsEi" PURGE="0" COMMENT="" />
    <EXPORT ORDINAL="1398" NAME="_ZN8QtCharts16ScatterChartItem13handleUpdatedEv" PURGE="0" COMMENT="" />
    <EXPORT ORDINAL="1399" NAME="_ZN8QtCharts16ScatterChartItem13markerHoveredEP13QGraphicsItemb" PURGE="0" COMMENT="" />
    <EXPORT ORDINAL="1400" NAME="_ZN8QtCharts16ScatterChartItem13markerPressedEP13QGraphicsItem" PURGE="0" COMMENT="" />
    <EXPORT ORDINAL="1401" NAME="_ZN8QtCharts16ScatterChartItem14markerReleasedEP13QGraphicsItem" PURGE="0" COMMENT="" />
    <EXPORT ORDINAL="1402" NAME="_ZN8QtCharts16ScatterChartItem14markerSelectedEP13QGraphicsItem" PURGE="0" COMMENT="" />
    <EXPORT ORDINAL="1403" NAME="_ZN8QtCharts16ScatterChartItem14updateGeometryEv" PURGE="0" COMMENT="" />
    <EXPORT ORDINAL="1404" NAME="_ZN8QtCharts16ScatterChartItem16staticMetaObjectE" PURGE="-1" COMMENT="" />
    <EXPORT ORDINAL="1405" NAME="_ZN8QtCharts16ScatterChartItem18qt_static_metacallEP7QObjectN11QMetaObject4CallEiPPv" PURGE="0" COMMENT="" />
    <EXPORT ORDINAL="1406" NAME="_ZN8QtCharts16ScatterChartItem19markerDoubleClickedEP13QGraphicsItem" PURGE="0" COMMENT="" />
    <EXPORT ORDINAL="1407" NAME="_ZN8QtCharts16ScatterChartItem5paintEP8QPainterPK24QStyleOptionGraphicsItemP7QWidget" PURGE="0" COMMENT="" />
    <EXPORT ORDINAL="1408" NAME="_ZN8QtCharts16ScatterChartItem6setPenERK4QPen" PURGE="0" COMMENT="" />
    <EXPORT ORDINAL="1409" NAME="_ZN8QtCharts16ScatterChartItem8setBrushERK6QBrush" PURGE="0" COMMENT="" />
    <EXPORT ORDINAL="1410" NAME="_ZN8QtCharts16ScatterChartItemC1EPNS_14QScatterSeriesEP13QGraphicsItem" PURGE="0" COMMENT="" />
    <EXPORT ORDINAL="1411" NAME="_ZN8QtCharts16ScatterChartItemC2EPNS_14QScatterSeriesEP13QGraphicsItem" PURGE="0" COMMENT="" />
    <EXPORT ORDINAL="1412" NAME="_ZN8QtCharts16XLogYPolarDomain10attachAxisEPNS_13QAbstractAxisE" PURGE="0" COMMENT="" />
    <EXPORT ORDINAL="1413" NAME="_ZN8QtCharts16XLogYPolarDomain10detachAxisEPNS_13QAbstractAxisE" PURGE="0" COMMENT="" />
    <EXPORT ORDINAL="1414" NAME="_ZN8QtCharts16XLogYPolarDomain11qt_metacallEN11QMetaObject4CallEiPPv" PURGE="0" COMMENT="" />
    <EXPORT ORDINAL="1415" NAME="_ZN8QtCharts16XLogYPolarDomain11qt_metacastEPKc" PURGE="0" COMMENT="" />
    <EXPORT ORDINAL="1416" NAME="_ZN8QtCharts16XLogYPolarDomain16staticMetaObjectE" PURGE="-1" COMMENT="" />
    <EXPORT ORDINAL="1417" NAME="_ZN8QtCharts16XLogYPolarDomain18qt_static_metacallEP7QObjectN11QMetaObject4CallEiPPv" PURGE="0" COMMENT="" />
    <EXPORT ORDINAL="1418" NAME="_ZN8QtCharts16XLogYPolarDomain29handleVerticalAxisBaseChangedEd" PURGE="-1" COMMENT="" />
    <EXPORT ORDINAL="1419" NAME="_ZN8QtCharts16XLogYPolarDomain4moveEdd" PURGE="0" COMMENT="" />
    <EXPORT ORDINAL="1420" NAME="_ZN8QtCharts16XLogYPolarDomain6zoomInERK6QRectF" PURGE="0" COMMENT="" />
    <EXPORT ORDINAL="1421" NAME="_ZN8QtCharts16XLogYPolarDomain7zoomOutERK6QRectF" PURGE="0" COMMENT="" />
    <EXPORT ORDINAL="1422" NAME="_ZN8QtCharts16XLogYPolarDomain8setRangeEdddd" PURGE="0" COMMENT="" />
    <EXPORT ORDINAL="1423" NAME="_ZN8QtCharts16XLogYPolarDomainC1EP7QObject" PURGE="0" COMMENT="" />
    <EXPORT ORDINAL="1424" NAME="_ZN8QtCharts16XLogYPolarDomainC2EP7QObject" PURGE="0" COMMENT="" />
    <EXPORT ORDINAL="1425" NAME="_ZN8QtCharts16XLogYPolarDomainD0Ev" PURGE="-1" COMMENT="" />
    <EXPORT ORDINAL="1426" NAME="_ZN8QtCharts16XLogYPolarDomainD1Ev" PURGE="-1" COMMENT="" />
    <EXPORT ORDINAL="1427" NAME="_ZN8QtCharts16XLogYPolarDomainD2Ev" PURGE="-1" COMMENT="" />
    <EXPORT ORDINAL="1428" NAME="_ZN8QtCharts17ChartThemeManager11qt_metacallEN11QMetaObject4CallEiPPv" PURGE="0" COMMENT="" />
    <EXPORT ORDINAL="1429" NAME="_ZN8QtCharts17ChartThemeManager11qt_metacastEPKc" PURGE="0" COMMENT="" />
    <EXPORT ORDINAL="1430" NAME="_ZN8QtCharts17ChartThemeManager12updateSeriesEPNS_15QAbstractSeriesE" PURGE="0" COMMENT="" />
    <EXPORT ORDINAL="1431" NAME="_ZN8QtCharts17ChartThemeManager15handleAxisAddedEPNS_13QAbstractAxisE" PURGE="-1" COMMENT="" />
    <EXPORT ORDINAL="1432" NAME="_ZN8QtCharts17ChartThemeManager16staticMetaObjectE" PURGE="-1" COMMENT="" />
    <EXPORT ORDINAL="1433" NAME="_ZN8QtCharts17ChartThemeManager17handleAxisRemovedEPNS_13QAbstractAxisE" PURGE="0" COMMENT="" />
    <EXPORT ORDINAL="1434" NAME="_ZN8QtCharts17ChartThemeManager17handleSeriesAddedEPNS_15QAbstractSeriesE" PURGE="0" COMMENT="" />
    <EXPORT ORDINAL="1435" NAME="_ZN8QtCharts17ChartThemeManager18qt_static_metacallEP7QObjectN11QMetaObject4CallEiPPv" PURGE="0" COMMENT="" />
    <EXPORT ORDINAL="1436" NAME="_ZN8QtCharts17ChartThemeManager19handleSeriesRemovedEPNS_15QAbstractSeriesE" PURGE="0" COMMENT="" />
    <EXPORT ORDINAL="1437" NAME="_ZN8QtCharts17ChartThemeManager23generateSeriesGradientsERK5QListI6QColorE" PURGE="0" COMMENT="" />
    <EXPORT ORDINAL="1438" NAME="_ZN8QtCharts17ChartThemeManager7colorAtERK6QColorS3_d" PURGE="0" COMMENT="" />
    <EXPORT ORDINAL="1439" NAME="_ZN8QtCharts17ChartThemeManager7colorAtERK9QGradientd" PURGE="0" COMMENT="" />
    <EXPORT ORDINAL="1440" NAME="_ZN8QtCharts17ChartThemeManager8setThemeENS_6QChart10ChartThemeE" PURGE="0" COMMENT="" />
    <EXPORT ORDINAL="1441" NAME="_ZN8QtCharts17ChartThemeManagerC1EPNS_6QChartE" PURGE="0" COMMENT="" />
    <EXPORT ORDINAL="1442" NAME="_ZN8QtCharts17ChartThemeManagerC2EPNS_6QChartE" PURGE="0" COMMENT="" />
    <EXPORT ORDINAL="1443" NAME="_ZN8QtCharts17PieSliceAnimation11updateValueERKNS_12PieSliceDataE" PURGE="0" COMMENT="" />
    <EXPORT ORDINAL="1444" NAME="_ZN8QtCharts17PieSliceAnimation17currentSliceValueEv" PURGE="0" COMMENT="" />
    <EXPORT ORDINAL="1445" NAME="_ZN8QtCharts17PieSliceAnimation18updateCurrentValueERK8QVariant" PURGE="0" COMMENT="" />
    <EXPORT ORDINAL="1446" NAME="_ZN8QtCharts17PieSliceAnimation8setValueERKNS_12PieSliceDataES3_" PURGE="0" COMMENT="" />
    <EXPORT ORDINAL="1447" NAME="_ZN8QtCharts17PieSliceAnimationC1EPNS_12PieSliceItemE" PURGE="0" COMMENT="" />
    <EXPORT ORDINAL="1448" NAME="_ZN8QtCharts17PieSliceAnimationC2EPNS_12PieSliceItemE" PURGE="0" COMMENT="" />
    <EXPORT ORDINAL="1449" NAME="_ZN8QtCharts17PieSliceAnimationD0Ev" PURGE="-1" COMMENT="" />
    <EXPORT ORDINAL="1450" NAME="_ZN8QtCharts17PieSliceAnimationD1Ev" PURGE="-1" COMMENT="" />
    <EXPORT ORDINAL="1451" NAME="_ZN8QtCharts17PieSliceAnimationD2Ev" PURGE="-1" COMMENT="" />
    <EXPORT ORDINAL="1452" NAME="_ZN8QtCharts17QAreaLegendMarker11qt_metacallEN11QMetaObject4CallEiPPv" PURGE="0" COMMENT="" />
    <EXPORT ORDINAL="1453" NAME="_ZN8QtCharts17QAreaLegendMarker11qt_metacastEPKc" PURGE="0" COMMENT="" />
    <EXPORT ORDINAL="1454" NAME="_ZN8QtCharts17QAreaLegendMarker16staticMetaObjectE" PURGE="-1" COMMENT="" />
    <EXPORT ORDINAL="1455" NAME="_ZN8QtCharts17QAreaLegendMarker18qt_static_metacallEP7QObjectN11QMetaObject4CallEiPPv" PURGE="0" COMMENT="" />
    <EXPORT ORDINAL="1456" NAME="_ZN8QtCharts17QAreaLegendMarker6seriesEv" PURGE="0" COMMENT="" />
    <EXPORT ORDINAL="1457" NAME="_ZN8QtCharts17QAreaLegendMarkerC1EPNS_11QAreaSeriesEPNS_7QLegendEP7QObject" PURGE="-1" COMMENT="" />
    <EXPORT ORDINAL="1458" NAME="_ZN8QtCharts17QAreaLegendMarkerC1ERNS_24QAreaLegendMarkerPrivateEP7QObject" PURGE="0" COMMENT="" />
    <EXPORT ORDINAL="1459" NAME="_ZN8QtCharts17QAreaLegendMarkerC2EPNS_11QAreaSeriesEPNS_7QLegendEP7QObject" PURGE="-1" COMMENT="" />
    <EXPORT ORDINAL="1460" NAME="_ZN8QtCharts17QAreaLegendMarkerC2ERNS_24QAreaLegendMarkerPrivateEP7QObject" PURGE="0" COMMENT="" />
    <EXPORT ORDINAL="1461" NAME="_ZN8QtCharts17QAreaLegendMarkerD0Ev" PURGE="-1" COMMENT="" />
    <EXPORT ORDINAL="1462" NAME="_ZN8QtCharts17QAreaLegendMarkerD1Ev" PURGE="-1" COMMENT="" />
    <EXPORT ORDINAL="1463" NAME="_ZN8QtCharts17QAreaLegendMarkerD2Ev" PURGE="-1" COMMENT="" />
    <EXPORT ORDINAL="1464" NAME="_ZN8QtCharts17QBarSeriesPrivate16initializeDomainEv" PURGE="0" COMMENT="" />
    <EXPORT ORDINAL="1465" NAME="_ZN8QtCharts17QBarSeriesPrivate18initializeGraphicsEP13QGraphicsItem" PURGE="0" COMMENT="" />
    <EXPORT ORDINAL="1466" NAME="_ZN8QtCharts17QBarSeriesPrivateC1EPNS_10QBarSeriesE" PURGE="0" COMMENT="" />
    <EXPORT ORDINAL="1467" NAME="_ZN8QtCharts17QBarSeriesPrivateC2EPNS_10QBarSeriesE" PURGE="0" COMMENT="" />
    <EXPORT ORDINAL="1468" NAME="_ZN8QtCharts17QChartViewPrivate6resizeEv" PURGE="0" COMMENT="" />
    <EXPORT ORDINAL="1469" NAME="_ZN8QtCharts17QChartViewPrivate8setChartEPNS_6QChartE" PURGE="0" COMMENT="" />
    <EXPORT ORDINAL="1470" NAME="_ZN8QtCharts17QChartViewPrivateC1EPNS_10QChartViewEPNS_6QChartE" PURGE="-1" COMMENT="" />
    <EXPORT ORDINAL="1471" NAME="_ZN8QtCharts17QChartViewPrivateC2EPNS_10QChartViewEPNS_6QChartE" PURGE="-1" COMMENT="" />
    <EXPORT ORDINAL="1472" NAME="_ZN8QtCharts17QChartViewPrivateD1Ev" PURGE="0" COMMENT="" />
    <EXPORT ORDINAL="1473" NAME="_ZN8QtCharts17QChartViewPrivateD2Ev" PURGE="0" COMMENT="" />
    <EXPORT ORDINAL="1474" NAME="_ZN8QtCharts17QPercentBarSeries11qt_metacallEN11QMetaObject4CallEiPPv" PURGE="0" COMMENT="" />
    <EXPORT ORDINAL="1475" NAME="_ZN8QtCharts17QPercentBarSeries11qt_metacastEPKc" PURGE="0" COMMENT="" />
    <EXPORT ORDINAL="1476" NAME="_ZN8QtCharts17QPercentBarSeries16staticMetaObjectE" PURGE="-1" COMMENT="" />
    <EXPORT ORDINAL="1477" NAME="_ZN8QtCharts17QPercentBarSeries18qt_static_metacallEP7QObjectN11QMetaObject4CallEiPPv" PURGE="0" COMMENT="" />
    <EXPORT ORDINAL="1478" NAME="_ZN8QtCharts17QPercentBarSeriesC1EP7QObject" PURGE="0" COMMENT="" />
    <EXPORT ORDINAL="1479" NAME="_ZN8QtCharts17QPercentBarSeriesC2EP7QObject" PURGE="0" COMMENT="" />
    <EXPORT ORDINAL="1480" NAME="_ZN8QtCharts17QPercentBarSeriesD0Ev" PURGE="-1" COMMENT="" />
    <EXPORT ORDINAL="1481" NAME="_ZN8QtCharts17QPercentBarSeriesD1Ev" PURGE="0" COMMENT="" />
    <EXPORT ORDINAL="1482" NAME="_ZN8QtCharts17QPercentBarSeriesD2Ev" PURGE="0" COMMENT="" />
    <EXPORT ORDINAL="1483" NAME="_ZN8QtCharts17QPieSeriesPrivate10fromSeriesEPNS_10QPieSeriesE" PURGE="0" COMMENT="" />
    <EXPORT ORDINAL="1484" NAME="_ZN8QtCharts17QPieSeriesPrivate11qt_metacallEN11QMetaObject4CallEiPPv" PURGE="0" COMMENT="" />
    <EXPORT ORDINAL="1485" NAME="_ZN8QtCharts17QPieSeriesPrivate11qt_metacastEPKc" PURGE="0" COMMENT="" />
    <EXPORT ORDINAL="1486" NAME="_ZN8QtCharts17QPieSeriesPrivate12sliceClickedEv" PURGE="0" COMMENT="" />
    <EXPORT ORDINAL="1487" NAME="_ZN8QtCharts17QPieSeriesPrivate12sliceHoveredEb" PURGE="0" COMMENT="" />
    <EXPORT ORDINAL="1488" NAME="_ZN8QtCharts17QPieSeriesPrivate12slicePressedEv" PURGE="0" COMMENT="" />
    <EXPORT ORDINAL="1489" NAME="_ZN8QtCharts17QPieSeriesPrivate13sliceReleasedEv" PURGE="0" COMMENT="" />
    <EXPORT ORDINAL="1490" NAME="_ZN8QtCharts17QPieSeriesPrivate14initializeAxesEv" PURGE="0" COMMENT="" />
    <EXPORT ORDINAL="1491" NAME="_ZN8QtCharts17QPieSeriesPrivate14pieSizeChangedEv" PURGE="-1" COMMENT="" />
    <EXPORT ORDINAL="1492" NAME="_ZN8QtCharts17QPieSeriesPrivate15initializeThemeEiPNS_10ChartThemeEb" PURGE="0" COMMENT="" />
    <EXPORT ORDINAL="1493" NAME="_ZN8QtCharts17QPieSeriesPrivate16initializeDomainEv" PURGE="0" COMMENT="" />
    <EXPORT ORDINAL="1494" NAME="_ZN8QtCharts17QPieSeriesPrivate16staticMetaObjectE" PURGE="-1" COMMENT="" />
    <EXPORT ORDINAL="1495" NAME="_ZN8QtCharts17QPieSeriesPrivate17sliceValueChangedEv" PURGE="0" COMMENT="" />
    <EXPORT ORDINAL="1496" NAME="_ZN8QtCharts17QPieSeriesPrivate18initializeGraphicsEP13QGraphicsItem" PURGE="0" COMMENT="" />
    <EXPORT ORDINAL="1497" NAME="_ZN8QtCharts17QPieSeriesPrivate18pieEndAngleChangedEv" PURGE="-1" COMMENT="" />
    <EXPORT ORDINAL="1498" NAME="_ZN8QtCharts17QPieSeriesPrivate18qt_static_metacallEP7QObjectN11QMetaObject4CallEiPPv" PURGE="0" COMMENT="" />
    <EXPORT ORDINAL="1499" NAME="_ZN8QtCharts17QPieSeriesPrivate18sliceDoubleClickedEv" PURGE="0" COMMENT="" />
    <EXPORT ORDINAL="1500" NAME="_ZN8QtCharts17QPieSeriesPrivate19createLegendMarkersEPNS_7QLegendE" PURGE="0" COMMENT="" />
    <EXPORT ORDINAL="1501" NAME="_ZN8QtCharts17QPieSeriesPrivate20initializeAnimationsE6QFlagsINS_6QChart15AnimationOptionEEiR12QEasingCurve" PURGE="0" COMMENT="" />
    <EXPORT ORDINAL="1502" NAME="_ZN8QtCharts17QPieSeriesPrivate20pieStartAngleChangedEv" PURGE="-1" COMMENT="" />
    <EXPORT ORDINAL="1503" NAME="_ZN8QtCharts17QPieSeriesPrivate20updateDerivativeDataEv" PURGE="0" COMMENT="" />
    <EXPORT ORDINAL="1504" NAME="_ZN8QtCharts17QPieSeriesPrivate21calculatedDataChangedEv" PURGE="-1" COMMENT="" />
    <EXPORT ORDINAL="1505" NAME="_ZN8QtCharts17QPieSeriesPrivate23verticalPositionChangedEv" PURGE="-1" COMMENT="" />
    <EXPORT ORDINAL="1506" NAME="_ZN8QtCharts17QPieSeriesPrivate25horizontalPositionChangedEv" PURGE="-1" COMMENT="" />
    <EXPORT ORDINAL="1507" NAME="_ZN8QtCharts17QPieSeriesPrivate8setSizesEdd" PURGE="0" COMMENT="" />
    <EXPORT ORDINAL="1508" NAME="_ZN8QtCharts17QPieSeriesPrivateC1EPNS_10QPieSeriesE" PURGE="0" COMMENT="" />
    <EXPORT ORDINAL="1509" NAME="_ZN8QtCharts17QPieSeriesPrivateC2EPNS_10QPieSeriesE" PURGE="0" COMMENT="" />
    <EXPORT ORDINAL="1510" NAME="_ZN8QtCharts17QPieSeriesPrivateD0Ev" PURGE="-1" COMMENT="" />
    <EXPORT ORDINAL="1511" NAME="_ZN8QtCharts17QPieSeriesPrivateD1Ev" PURGE="-1" COMMENT="" />
    <EXPORT ORDINAL="1512" NAME="_ZN8QtCharts17QPieSeriesPrivateD2Ev" PURGE="-1" COMMENT="" />
    <EXPORT ORDINAL="1513" NAME="_ZN8QtCharts17QStackedBarSeries11qt_metacallEN11QMetaObject4CallEiPPv" PURGE="0" COMMENT="" />
    <EXPORT ORDINAL="1514" NAME="_ZN8QtCharts17QStackedBarSeries11qt_metacastEPKc" PURGE="0" COMMENT="" />
    <EXPORT ORDINAL="1515" NAME="_ZN8QtCharts17QStackedBarSeries16staticMetaObjectE" PURGE="-1" COMMENT="" />
    <EXPORT ORDINAL="1516" NAME="_ZN8QtCharts17QStackedBarSeries18qt_static_metacallEP7QObjectN11QMetaObject4CallEiPPv" PURGE="0" COMMENT="" />
    <EXPORT ORDINAL="1517" NAME="_ZN8QtCharts17QStackedBarSeriesC1EP7QObject" PURGE="0" COMMENT="" />
    <EXPORT ORDINAL="1518" NAME="_ZN8QtCharts17QStackedBarSeriesC2EP7QObject" PURGE="0" COMMENT="" />
    <EXPORT ORDINAL="1519" NAME="_ZN8QtCharts17QStackedBarSeriesD0Ev" PURGE="-1" COMMENT="" />
    <EXPORT ORDINAL="1520" NAME="_ZN8QtCharts17QStackedBarSeriesD1Ev" PURGE="0" COMMENT="" />
    <EXPORT ORDINAL="1521" NAME="_ZN8QtCharts17QStackedBarSeriesD2Ev" PURGE="0" COMMENT="" />
    <EXPORT ORDINAL="1522" NAME="_ZN8QtCharts17QValueAxisPrivate11qt_metacallEN11QMetaObject4CallEiPPv" PURGE="0" COMMENT="" />
    <EXPORT ORDINAL="1523" NAME="_ZN8QtCharts17QValueAxisPrivate11qt_metacastEPKc" PURGE="0" COMMENT="" />
    <EXPORT ORDINAL="1524" NAME="_ZN8QtCharts17QValueAxisPrivate16initializeDomainEPNS_14AbstractDomainE" PURGE="0" COMMENT="" />
    <EXPORT ORDINAL="1525" NAME="_ZN8QtCharts17QValueAxisPrivate16staticMetaObjectE" PURGE="-1" COMMENT="" />
    <EXPORT ORDINAL="1526" NAME="_ZN8QtCharts17QValueAxisPrivate18initializeGraphicsEP13QGraphicsItem" PURGE="0" COMMENT="" />
    <EXPORT ORDINAL="1527" NAME="_ZN8QtCharts17QValueAxisPrivate18qt_static_metacallEP7QObjectN11QMetaObject4CallEiPPv" PURGE="0" COMMENT="" />
    <EXPORT ORDINAL="1528" NAME="_ZN8QtCharts17QValueAxisPrivate6setMaxERK8QVariant" PURGE="0" COMMENT="" />
    <EXPORT ORDINAL="1529" NAME="_ZN8QtCharts17QValueAxisPrivate6setMinERK8QVariant" PURGE="0" COMMENT="" />
    <EXPORT ORDINAL="1530" NAME="_ZN8QtCharts17QValueAxisPrivate8setRangeERK8QVariantS3_" PURGE="0" COMMENT="" />
    <EXPORT ORDINAL="1531" NAME="_ZN8QtCharts17QValueAxisPrivate8setRangeEdd" PURGE="0" COMMENT="" />
    <EXPORT ORDINAL="1532" NAME="_ZN8QtCharts17QValueAxisPrivateC1EPNS_10QValueAxisE" PURGE="0" COMMENT="" />
    <EXPORT ORDINAL="1533" NAME="_ZN8QtCharts17QValueAxisPrivateC2EPNS_10QValueAxisE" PURGE="0" COMMENT="" />
    <EXPORT ORDINAL="1534" NAME="_ZN8QtCharts17QValueAxisPrivateD0Ev" PURGE="-1" COMMENT="" />
    <EXPORT ORDINAL="1535" NAME="_ZN8QtCharts17QValueAxisPrivateD1Ev" PURGE="-1" COMMENT="" />
    <EXPORT ORDINAL="1536" NAME="_ZN8QtCharts17QValueAxisPrivateD2Ev" PURGE="-1" COMMENT="" />
    <EXPORT ORDINAL="1537" NAME="_ZN8QtCharts18CartesianChartAxis11createItemsEi" PURGE="0" COMMENT="" />
    <EXPORT ORDINAL="1538" NAME="_ZN8QtCharts18CartesianChartAxis11deleteItemsEi" PURGE="0" COMMENT="" />
    <EXPORT ORDINAL="1539" NAME="_ZN8QtCharts18CartesianChartAxis11qt_metacallEN11QMetaObject4CallEiPPv" PURGE="0" COMMENT="" />
    <EXPORT ORDINAL="1540" NAME="_ZN8QtCharts18CartesianChartAxis11qt_metacastEPKc" PURGE="0" COMMENT="" />
    <EXPORT ORDINAL="1541" NAME="_ZN8QtCharts18CartesianChartAxis11setGeometryERK6QRectFS3_" PURGE="0" COMMENT="" />
    <EXPORT ORDINAL="1542" NAME="_ZN8QtCharts18CartesianChartAxis12updateLayoutER7QVectorIdE" PURGE="0" COMMENT="" />
    <EXPORT ORDINAL="1543" NAME="_ZN8QtCharts18CartesianChartAxis16staticMetaObjectE" PURGE="-1" COMMENT="" />
    <EXPORT ORDINAL="1544" NAME="_ZN8QtCharts18CartesianChartAxis18qt_static_metacallEP7QObjectN11QMetaObject4CallEiPPv" PURGE="0" COMMENT="" />
    <EXPORT ORDINAL="1545" NAME="_ZN8QtCharts18CartesianChartAxis20handleGridPenChangedERK4QPen" PURGE="0" COMMENT="" />
    <EXPORT ORDINAL="1546" NAME="_ZN8QtCharts18CartesianChartAxis20updateMinorTickItemsEv" PURGE="0" COMMENT="" />
    <EXPORT ORDINAL="1547" NAME="_ZN8QtCharts18CartesianChartAxis21handleArrowPenChangedERK4QPen" PURGE="0" COMMENT="" />
    <EXPORT ORDINAL="1548" NAME="_ZN8QtCharts18CartesianChartAxis22handleShadesPenChangedERK4QPen" PURGE="0" COMMENT="" />
    <EXPORT ORDINAL="1549" NAME="_ZN8QtCharts18CartesianChartAxis24handleShadesBrushChangedERK6QBrush" PURGE="0" COMMENT="" />
    <EXPORT ORDINAL="1550" NAME="_ZN8QtCharts18CartesianChartAxis25handleMinorGridPenChangedERK4QPen" PURGE="0" COMMENT="" />
    <EXPORT ORDINAL="1551" NAME="_ZN8QtCharts18CartesianChartAxis26handleGridLineColorChangedERK6QColor" PURGE="0" COMMENT="" />
    <EXPORT ORDINAL="1552" NAME="_ZN8QtCharts18CartesianChartAxis26handleMinorArrowPenChangedERK4QPen" PURGE="0" COMMENT="" />
    <EXPORT ORDINAL="1553" NAME="_ZN8QtCharts18CartesianChartAxis31handleMinorGridLineColorChangedERK6QColor" PURGE="0" COMMENT="" />
    <EXPORT ORDINAL="1554" NAME="_ZN8QtCharts18CartesianChartAxis7isEmptyEv" PURGE="0" COMMENT="" />
    <EXPORT ORDINAL="1555" NAME="_ZN8QtCharts18CartesianChartAxisC1EPNS_13QAbstractAxisEP13QGraphicsItemb" PURGE="0" COMMENT="" />
    <EXPORT ORDINAL="1556" NAME="_ZN8QtCharts18CartesianChartAxisC2EPNS_13QAbstractAxisEP13QGraphicsItemb" PURGE="0" COMMENT="" />
    <EXPORT ORDINAL="1557" NAME="_ZN8QtCharts18CartesianChartAxisD0Ev" PURGE="-1" COMMENT="" />
    <EXPORT ORDINAL="1558" NAME="_ZN8QtCharts18CartesianChartAxisD1Ev" PURGE="-1" COMMENT="" />
    <EXPORT ORDINAL="1559" NAME="_ZN8QtCharts18CartesianChartAxisD2Ev" PURGE="-1" COMMENT="" />
    <EXPORT ORDINAL="1560" NAME="_ZN8QtCharts18ChartCategoryAxisX11qt_metacallEN11QMetaObject4CallEiPPv" PURGE="0" COMMENT="" />
    <EXPORT ORDINAL="1561" NAME="_ZN8QtCharts18ChartCategoryAxisX11qt_metacastEPKc" PURGE="0" COMMENT="" />
    <EXPORT ORDINAL="1562" NAME="_ZN8QtCharts18ChartCategoryAxisX14updateGeometryEv" PURGE="0" COMMENT="" />
    <EXPORT ORDINAL="1563" NAME="_ZN8QtCharts18ChartCategoryAxisX16staticMetaObjectE" PURGE="-1" COMMENT="" />
    <EXPORT ORDINAL="1564" NAME="_ZN8QtCharts18ChartCategoryAxisX18qt_static_metacallEP7QObjectN11QMetaObject4CallEiPPv" PURGE="0" COMMENT="" />
    <EXPORT ORDINAL="1565" NAME="_ZN8QtCharts18ChartCategoryAxisX23handleCategoriesChangedEv" PURGE="-1" COMMENT="" />
    <EXPORT ORDINAL="1566" NAME="_ZN8QtCharts18ChartCategoryAxisXC1EPNS_13QCategoryAxisEP13QGraphicsItem" PURGE="0" COMMENT="" />
    <EXPORT ORDINAL="1567" NAME="_ZN8QtCharts18ChartCategoryAxisXC2EPNS_13QCategoryAxisEP13QGraphicsItem" PURGE="0" COMMENT="" />
    <EXPORT ORDINAL="1568" NAME="_ZN8QtCharts18ChartCategoryAxisXD0Ev" PURGE="-1" COMMENT="" />
    <EXPORT ORDINAL="1569" NAME="_ZN8QtCharts18ChartCategoryAxisXD1Ev" PURGE="-1" COMMENT="" />
    <EXPORT ORDINAL="1570" NAME="_ZN8QtCharts18ChartCategoryAxisXD2Ev" PURGE="-1" COMMENT="" />
    <EXPORT ORDINAL="1571" NAME="_ZN8QtCharts18ChartCategoryAxisY11qt_metacallEN11QMetaObject4CallEiPPv" PURGE="0" COMMENT="" />
    <EXPORT ORDINAL="1572" NAME="_ZN8QtCharts18ChartCategoryAxisY11qt_metacastEPKc" PURGE="0" COMMENT="" />
    <EXPORT ORDINAL="1573" NAME="_ZN8QtCharts18ChartCategoryAxisY14updateGeometryEv" PURGE="0" COMMENT="" />
    <EXPORT ORDINAL="1574" NAME="_ZN8QtCharts18ChartCategoryAxisY16staticMetaObjectE" PURGE="-1" COMMENT="" />
    <EXPORT ORDINAL="1575" NAME="_ZN8QtCharts18ChartCategoryAxisY18qt_static_metacallEP7QObjectN11QMetaObject4CallEiPPv" PURGE="0" COMMENT="" />
    <EXPORT ORDINAL="1576" NAME="_ZN8QtCharts18ChartCategoryAxisY23handleCategoriesChangedEv" PURGE="-1" COMMENT="" />
    <EXPORT ORDINAL="1577" NAME="_ZN8QtCharts18ChartCategoryAxisYC1EPNS_13QCategoryAxisEP13QGraphicsItem" PURGE="0" COMMENT="" />
    <EXPORT ORDINAL="1578" NAME="_ZN8QtCharts18ChartCategoryAxisYC2EPNS_13QCategoryAxisEP13QGraphicsItem" PURGE="0" COMMENT="" />
    <EXPORT ORDINAL="1579" NAME="_ZN8QtCharts18ChartCategoryAxisYD0Ev" PURGE="-1" COMMENT="" />
    <EXPORT ORDINAL="1580" NAME="_ZN8QtCharts18ChartCategoryAxisYD1Ev" PURGE="-1" COMMENT="" />
    <EXPORT ORDINAL="1581" NAME="_ZN8QtCharts18ChartCategoryAxisYD2Ev" PURGE="-1" COMMENT="" />
    <EXPORT ORDINAL="1582" NAME="_ZN8QtCharts18ChartDateTimeAxisX11qt_metacallEN11QMetaObject4CallEiPPv" PURGE="0" COMMENT="" />
    <EXPORT ORDINAL="1583" NAME="_ZN8QtCharts18ChartDateTimeAxisX11qt_metacastEPKc" PURGE="0" COMMENT="" />
    <EXPORT ORDINAL="1584" NAME="_ZN8QtCharts18ChartDateTimeAxisX14updateGeometryEv" PURGE="0" COMMENT="" />
    <EXPORT ORDINAL="1585" NAME="_ZN8QtCharts18ChartDateTimeAxisX16staticMetaObjectE" PURGE="-1" COMMENT="" />
    <EXPORT ORDINAL="1586" NAME="_ZN8QtCharts18ChartDateTimeAxisX18qt_static_metacallEP7QObjectN11QMetaObject4CallEiPPv" PURGE="0" COMMENT="" />
    <EXPORT ORDINAL="1587" NAME="_ZN8QtCharts18ChartDateTimeAxisX19handleFormatChangedERK7QString" PURGE="0" COMMENT="" />
    <EXPORT ORDINAL="1588" NAME="_ZN8QtCharts18ChartDateTimeAxisX22handleTickCountChangedEi" PURGE="0" COMMENT="" />
    <EXPORT ORDINAL="1589" NAME="_ZN8QtCharts18ChartDateTimeAxisXC1EPNS_13QDateTimeAxisEP13QGraphicsItem" PURGE="0" COMMENT="" />
    <EXPORT ORDINAL="1590" NAME="_ZN8QtCharts18ChartDateTimeAxisXC2EPNS_13QDateTimeAxisEP13QGraphicsItem" PURGE="0" COMMENT="" />
    <EXPORT ORDINAL="1591" NAME="_ZN8QtCharts18ChartDateTimeAxisXD0Ev" PURGE="-1" COMMENT="" />
    <EXPORT ORDINAL="1592" NAME="_ZN8QtCharts18ChartDateTimeAxisXD1Ev" PURGE="-1" COMMENT="" />
    <EXPORT ORDINAL="1593" NAME="_ZN8QtCharts18ChartDateTimeAxisXD2Ev" PURGE="-1" COMMENT="" />
    <EXPORT ORDINAL="1594" NAME="_ZN8QtCharts18ChartDateTimeAxisY11qt_metacallEN11QMetaObject4CallEiPPv" PURGE="0" COMMENT="" />
    <EXPORT ORDINAL="1595" NAME="_ZN8QtCharts18ChartDateTimeAxisY11qt_metacastEPKc" PURGE="0" COMMENT="" />
    <EXPORT ORDINAL="1596" NAME="_ZN8QtCharts18ChartDateTimeAxisY14updateGeometryEv" PURGE="0" COMMENT="" />
    <EXPORT ORDINAL="1597" NAME="_ZN8QtCharts18ChartDateTimeAxisY16staticMetaObjectE" PURGE="-1" COMMENT="" />
    <EXPORT ORDINAL="1598" NAME="_ZN8QtCharts18ChartDateTimeAxisY18qt_static_metacallEP7QObjectN11QMetaObject4CallEiPPv" PURGE="0" COMMENT="" />
    <EXPORT ORDINAL="1599" NAME="_ZN8QtCharts18ChartDateTimeAxisY19handleFormatChangedERK7QString" PURGE="0" COMMENT="" />
    <EXPORT ORDINAL="1600" NAME="_ZN8QtCharts18ChartDateTimeAxisY22handleTickCountChangedEi" PURGE="0" COMMENT="" />
    <EXPORT ORDINAL="1601" NAME="_ZN8QtCharts18ChartDateTimeAxisYC1EPNS_13QDateTimeAxisEP13QGraphicsItem" PURGE="0" COMMENT="" />
    <EXPORT ORDINAL="1602" NAME="_ZN8QtCharts18ChartDateTimeAxisYC2EPNS_13QDateTimeAxisEP13QGraphicsItem" PURGE="0" COMMENT="" />
    <EXPORT ORDINAL="1603" NAME="_ZN8QtCharts18ChartDateTimeAxisYD0Ev" PURGE="-1" COMMENT="" />
    <EXPORT ORDINAL="1604" NAME="_ZN8QtCharts18ChartDateTimeAxisYD1Ev" PURGE="-1" COMMENT="" />
    <EXPORT ORDINAL="1605" NAME="_ZN8QtCharts18ChartDateTimeAxisYD2Ev" PURGE="-1" COMMENT="" />
    <EXPORT ORDINAL="1606" NAME="_ZN8QtCharts18ChartLogValueAxisX11qt_metacallEN11QMetaObject4CallEiPPv" PURGE="0" COMMENT="" />
    <EXPORT ORDINAL="1607" NAME="_ZN8QtCharts18ChartLogValueAxisX11qt_metacastEPKc" PURGE="0" COMMENT="" />
    <EXPORT ORDINAL="1608" NAME="_ZN8QtCharts18ChartLogValueAxisX14updateGeometryEv" PURGE="0" COMMENT="" />
    <EXPORT ORDINAL="1609" NAME="_ZN8QtCharts18ChartLogValueAxisX16staticMetaObjectE" PURGE="-1" COMMENT="" />
    <EXPORT ORDINAL="1610" NAME="_ZN8QtCharts18ChartLogValueAxisX17handleBaseChangedEd" PURGE="0" COMMENT="" />
    <EXPORT ORDINAL="1611" NAME="_ZN8QtCharts18ChartLogValueAxisX18qt_static_metacallEP7QObjectN11QMetaObject4CallEiPPv" PURGE="0" COMMENT="" />
    <EXPORT ORDINAL="1612" NAME="_ZN8QtCharts18ChartLogValueAxisX24handleLabelFormatChangedERK7QString" PURGE="0" COMMENT="" />
    <EXPORT ORDINAL="1613" NAME="_ZN8QtCharts18ChartLogValueAxisXC1EPNS_13QLogValueAxisEP13QGraphicsItem" PURGE="0" COMMENT="" />
    <EXPORT ORDINAL="1614" NAME="_ZN8QtCharts18ChartLogValueAxisXC2EPNS_13QLogValueAxisEP13QGraphicsItem" PURGE="0" COMMENT="" />
    <EXPORT ORDINAL="1615" NAME="_ZN8QtCharts18ChartLogValueAxisXD0Ev" PURGE="-1" COMMENT="" />
    <EXPORT ORDINAL="1616" NAME="_ZN8QtCharts18ChartLogValueAxisXD1Ev" PURGE="-1" COMMENT="" />
    <EXPORT ORDINAL="1617" NAME="_ZN8QtCharts18ChartLogValueAxisXD2Ev" PURGE="-1" COMMENT="" />
    <EXPORT ORDINAL="1618" NAME="_ZN8QtCharts18ChartLogValueAxisY11qt_metacallEN11QMetaObject4CallEiPPv" PURGE="0" COMMENT="" />
    <EXPORT ORDINAL="1619" NAME="_ZN8QtCharts18ChartLogValueAxisY11qt_metacastEPKc" PURGE="0" COMMENT="" />
    <EXPORT ORDINAL="1620" NAME="_ZN8QtCharts18ChartLogValueAxisY14updateGeometryEv" PURGE="0" COMMENT="" />
    <EXPORT ORDINAL="1621" NAME="_ZN8QtCharts18ChartLogValueAxisY16staticMetaObjectE" PURGE="-1" COMMENT="" />
    <EXPORT ORDINAL="1622" NAME="_ZN8QtCharts18ChartLogValueAxisY17handleBaseChangedEd" PURGE="0" COMMENT="" />
    <EXPORT ORDINAL="1623" NAME="_ZN8QtCharts18ChartLogValueAxisY18qt_static_metacallEP7QObjectN11QMetaObject4CallEiPPv" PURGE="0" COMMENT="" />
    <EXPORT ORDINAL="1624" NAME="_ZN8QtCharts18ChartLogValueAxisY24handleLabelFormatChangedERK7QString" PURGE="0" COMMENT="" />
    <EXPORT ORDINAL="1625" NAME="_ZN8QtCharts18ChartLogValueAxisYC1EPNS_13QLogValueAxisEP13QGraphicsItem" PURGE="0" COMMENT="" />
    <EXPORT ORDINAL="1626" NAME="_ZN8QtCharts18ChartLogValueAxisYC2EPNS_13QLogValueAxisEP13QGraphicsItem" PURGE="0" COMMENT="" />
    <EXPORT ORDINAL="1627" NAME="_ZN8QtCharts18ChartLogValueAxisYD0Ev" PURGE="-1" COMMENT="" />
    <EXPORT ORDINAL="1628" NAME="_ZN8QtCharts18ChartLogValueAxisYD1Ev" PURGE="-1" COMMENT="" />
    <EXPORT ORDINAL="1629" NAME="_ZN8QtCharts18ChartLogValueAxisYD2Ev" PURGE="-1" COMMENT="" />
    <EXPORT ORDINAL="1630" NAME="_ZN8QtCharts18QAbstractBarSeries11qt_metacallEN11QMetaObject4CallEiPPv" PURGE="0" COMMENT="" />
    <EXPORT ORDINAL="1631" NAME="_ZN8QtCharts18QAbstractBarSeries11qt_metacastEPKc" PURGE="0" COMMENT="" />
    <EXPORT ORDINAL="1632" NAME="_ZN8QtCharts18QAbstractBarSeries11setBarWidthEd" PURGE="-1" COMMENT="" />
    <EXPORT ORDINAL="1633" NAME="_ZN8QtCharts18QAbstractBarSeries12barsetsAddedE5QListIPNS_7QBarSetEE" PURGE="0" COMMENT="" />
    <EXPORT ORDINAL="1634" NAME="_ZN8QtCharts18QAbstractBarSeries12countChangedEv" PURGE="-1" COMMENT="" />
    <EXPORT ORDINAL="1635" NAME="_ZN8QtCharts18QAbstractBarSeries13doubleClickedEiPNS_7QBarSetE" PURGE="0" COMMENT="" />
    <EXPORT ORDINAL="1636" NAME="_ZN8QtCharts18QAbstractBarSeries14barsetsRemovedE5QListIPNS_7QBarSetEE" PURGE="0" COMMENT="" />
    <EXPORT ORDINAL="1637" NAME="_ZN8QtCharts18QAbstractBarSeries14setLabelsAngleEd" PURGE="0" COMMENT="" />
    <EXPORT ORDINAL="1638" NAME="_ZN8QtCharts18QAbstractBarSeries15setLabelsFormatERK7QString" PURGE="0" COMMENT="" />
    <EXPORT ORDINAL="1639" NAME="_ZN8QtCharts18QAbstractBarSeries16setLabelsVisibleEb" PURGE="0" COMMENT="" />
    <EXPORT ORDINAL="1640" NAME="_ZN8QtCharts18QAbstractBarSeries16staticMetaObjectE" PURGE="-1" COMMENT="" />
    <EXPORT ORDINAL="1641" NAME="_ZN8QtCharts18QAbstractBarSeries17setLabelsPositionENS0_14LabelsPositionE" PURGE="0" COMMENT="" />
    <EXPORT ORDINAL="1642" NAME="_ZN8QtCharts18QAbstractBarSeries18labelsAngleChangedEd" PURGE="0" COMMENT="" />
    <EXPORT ORDINAL="1643" NAME="_ZN8QtCharts18QAbstractBarSeries18qt_static_metacallEP7QObjectN11QMetaObject4CallEiPPv" PURGE="0" COMMENT="" />
    <EXPORT ORDINAL="1644" NAME="_ZN8QtCharts18QAbstractBarSeries18setLabelsPrecisionEi" PURGE="0" COMMENT="" />
    <EXPORT ORDINAL="1645" NAME="_ZN8QtCharts18QAbstractBarSeries19labelsFormatChangedERK7QString" PURGE="0" COMMENT="" />
    <EXPORT ORDINAL="1646" NAME="_ZN8QtCharts18QAbstractBarSeries20labelsVisibleChangedEv" PURGE="-1" COMMENT="" />
    <EXPORT ORDINAL="1647" NAME="_ZN8QtCharts18QAbstractBarSeries21labelsPositionChangedENS0_14LabelsPositionE" PURGE="0" COMMENT="" />
    <EXPORT ORDINAL="1648" NAME="_ZN8QtCharts18QAbstractBarSeries22labelsPrecisionChangedEi" PURGE="0" COMMENT="" />
    <EXPORT ORDINAL="1649" NAME="_ZN8QtCharts18QAbstractBarSeries4takeEPNS_7QBarSetE" PURGE="0" COMMENT="" />
    <EXPORT ORDINAL="1650" NAME="_ZN8QtCharts18QAbstractBarSeries5clearEv" PURGE="0" COMMENT="" />
    <EXPORT ORDINAL="1651" NAME="_ZN8QtCharts18QAbstractBarSeries6appendE5QListIPNS_7QBarSetEE" PURGE="0" COMMENT="" />
    <EXPORT ORDINAL="1652" NAME="_ZN8QtCharts18QAbstractBarSeries6appendEPNS_7QBarSetE" PURGE="0" COMMENT="" />
    <EXPORT ORDINAL="1653" NAME="_ZN8QtCharts18QAbstractBarSeries6insertEiPNS_7QBarSetE" PURGE="0" COMMENT="" />
    <EXPORT ORDINAL="1654" NAME="_ZN8QtCharts18QAbstractBarSeries6removeEPNS_7QBarSetE" PURGE="0" COMMENT="" />
    <EXPORT ORDINAL="1655" NAME="_ZN8QtCharts18QAbstractBarSeries7clickedEiPNS_7QBarSetE" PURGE="0" COMMENT="" />
    <EXPORT ORDINAL="1656" NAME="_ZN8QtCharts18QAbstractBarSeries7hoveredEbiPNS_7QBarSetE" PURGE="0" COMMENT="" />
    <EXPORT ORDINAL="1657" NAME="_ZN8QtCharts18QAbstractBarSeries7pressedEiPNS_7QBarSetE" PURGE="0" COMMENT="" />
    <EXPORT ORDINAL="1658" NAME="_ZN8QtCharts18QAbstractBarSeries8releasedEiPNS_7QBarSetE" PURGE="0" COMMENT="" />
    <EXPORT ORDINAL="1659" NAME="_ZN8QtCharts18QAbstractBarSeriesC1ERNS_25QAbstractBarSeriesPrivateEP7QObject" PURGE="0" COMMENT="" />
    <EXPORT ORDINAL="1660" NAME="_ZN8QtCharts18QAbstractBarSeriesC2ERNS_25QAbstractBarSeriesPrivateEP7QObject" PURGE="0" COMMENT="" />
    <EXPORT ORDINAL="1661" NAME="_ZN8QtCharts18QAbstractBarSeriesD0Ev" PURGE="-1" COMMENT="" />
    <EXPORT ORDINAL="1662" NAME="_ZN8QtCharts18QAbstractBarSeriesD1Ev" PURGE="0" COMMENT="" />
    <EXPORT ORDINAL="1663" NAME="_ZN8QtCharts18QAbstractBarSeriesD2Ev" PURGE="0" COMMENT="" />
    <EXPORT ORDINAL="1664" NAME="_ZN8QtCharts18QAreaSeriesPrivate11qt_metacallEN11QMetaObject4CallEiPPv" PURGE="0" COMMENT="" />
    <EXPORT ORDINAL="1665" NAME="_ZN8QtCharts18QAreaSeriesPrivate11qt_metacastEPKc" PURGE="0" COMMENT="" />
    <EXPORT ORDINAL="1666" NAME="_ZN8QtCharts18QAreaSeriesPrivate14initializeAxesEv" PURGE="0" COMMENT="" />
    <EXPORT ORDINAL="1667" NAME="_ZN8QtCharts18QAreaSeriesPrivate15initializeThemeEiPNS_10ChartThemeEb" PURGE="0" COMMENT="" />
    <EXPORT ORDINAL="1668" NAME="_ZN8QtCharts18QAreaSeriesPrivate16initializeDomainEv" PURGE="0" COMMENT="" />
    <EXPORT ORDINAL="1669" NAME="_ZN8QtCharts18QAreaSeriesPrivate16staticMetaObjectE" PURGE="-1" COMMENT="" />
    <EXPORT ORDINAL="1670" NAME="_ZN8QtCharts18QAreaSeriesPrivate18initializeGraphicsEP13QGraphicsItem" PURGE="0" COMMENT="" />
    <EXPORT ORDINAL="1671" NAME="_ZN8QtCharts18QAreaSeriesPrivate18qt_static_metacallEP7QObjectN11QMetaObject4CallEiPPv" PURGE="0" COMMENT="" />
    <EXPORT ORDINAL="1672" NAME="_ZN8QtCharts18QAreaSeriesPrivate19createLegendMarkersEPNS_7QLegendE" PURGE="0" COMMENT="" />
    <EXPORT ORDINAL="1673" NAME="_ZN8QtCharts18QAreaSeriesPrivate20initializeAnimationsE6QFlagsINS_6QChart15AnimationOptionEEiR12QEasingCurve" PURGE="0" COMMENT="" />
    <EXPORT ORDINAL="1674" NAME="_ZN8QtCharts18QAreaSeriesPrivate7updatedEv" PURGE="-1" COMMENT="" />
    <EXPORT ORDINAL="1675" NAME="_ZN8QtCharts18QAreaSeriesPrivateC1EPNS_11QLineSeriesES2_PNS_11QAreaSeriesE" PURGE="0" COMMENT="" />
    <EXPORT ORDINAL="1676" NAME="_ZN8QtCharts18QAreaSeriesPrivateC2EPNS_11QLineSeriesES2_PNS_11QAreaSeriesE" PURGE="0" COMMENT="" />
    <EXPORT ORDINAL="1677" NAME="_ZN8QtCharts18QCandlestickSeries10penChangedEv" PURGE="-1" COMMENT="" />
    <EXPORT ORDINAL="1678" NAME="_ZN8QtCharts18QCandlestickSeries11qt_metacallEN11QMetaObject4CallEiPPv" PURGE="0" COMMENT="" />
    <EXPORT ORDINAL="1679" NAME="_ZN8QtCharts18QCandlestickSeries11qt_metacastEPKc" PURGE="0" COMMENT="" />
    <EXPORT ORDINAL="1680" NAME="_ZN8QtCharts18QCandlestickSeries12brushChangedEv" PURGE="-1" COMMENT="" />
    <EXPORT ORDINAL="1681" NAME="_ZN8QtCharts18QCandlestickSeries12countChangedEv" PURGE="-1" COMMENT="" />
    <EXPORT ORDINAL="1682" NAME="_ZN8QtCharts18QCandlestickSeries12setBodyWidthEd" PURGE="0" COMMENT="" />
    <EXPORT ORDINAL="1683" NAME="_ZN8QtCharts18QCandlestickSeries12setCapsWidthEd" PURGE="0" COMMENT="" />
    <EXPORT ORDINAL="1684" NAME="_ZN8QtCharts18QCandlestickSeries13doubleClickedEPNS_15QCandlestickSetE" PURGE="0" COMMENT="" />
    <EXPORT ORDINAL="1685" NAME="_ZN8QtCharts18QCandlestickSeries14setCapsVisibleEb" PURGE="0" COMMENT="" />
    <EXPORT ORDINAL="1686" NAME="_ZN8QtCharts18QCandlestickSeries16bodyWidthChangedEv" PURGE="-1" COMMENT="" />
    <EXPORT ORDINAL="1687" NAME="_ZN8QtCharts18QCandlestickSeries16capsWidthChangedEv" PURGE="-1" COMMENT="" />
    <EXPORT ORDINAL="1688" NAME="_ZN8QtCharts18QCandlestickSeries16staticMetaObjectE" PURGE="-1" COMMENT="" />
    <EXPORT ORDINAL="1689" NAME="_ZN8QtCharts18QCandlestickSeries18qt_static_metacallEP7QObjectN11QMetaObject4CallEiPPv" PURGE="0" COMMENT="" />
    <EXPORT ORDINAL="1690" NAME="_ZN8QtCharts18QCandlestickSeries18setDecreasingColorERK6QColor" PURGE="0" COMMENT="" />
    <EXPORT ORDINAL="1691" NAME="_ZN8QtCharts18QCandlestickSeries18setIncreasingColorERK6QColor" PURGE="0" COMMENT="" />
    <EXPORT ORDINAL="1692" NAME="_ZN8QtCharts18QCandlestickSeries20candlestickSetsAddedERK5QListIPNS_15QCandlestickSetEE" PURGE="0" COMMENT="" />
    <EXPORT ORDINAL="1693" NAME="_ZN8QtCharts18QCandlestickSeries21capsVisibilityChangedEv" PURGE="-1" COMMENT="" />
    <EXPORT ORDINAL="1694" NAME="_ZN8QtCharts18QCandlestickSeries21setBodyOutlineVisibleEb" PURGE="0" COMMENT="" />
    <EXPORT ORDINAL="1695" NAME="_ZN8QtCharts18QCandlestickSeries21setMaximumColumnWidthEd" PURGE="0" COMMENT="" />
    <EXPORT ORDINAL="1696" NAME="_ZN8QtCharts18QCandlestickSeries21setMinimumColumnWidthEd" PURGE="0" COMMENT="" />
    <EXPORT ORDINAL="1697" NAME="_ZN8QtCharts18QCandlestickSeries22candlestickSetsRemovedERK5QListIPNS_15QCandlestickSetEE" PURGE="0" COMMENT="" />
    <EXPORT ORDINAL="1698" NAME="_ZN8QtCharts18QCandlestickSeries22decreasingColorChangedEv" PURGE="-1" COMMENT="" />
    <EXPORT ORDINAL="1699" NAME="_ZN8QtCharts18QCandlestickSeries22increasingColorChangedEv" PURGE="-1" COMMENT="" />
    <EXPORT ORDINAL="1700" NAME="_ZN8QtCharts18QCandlestickSeries25maximumColumnWidthChangedEv" PURGE="-1" COMMENT="" />
    <EXPORT ORDINAL="1701" NAME="_ZN8QtCharts18QCandlestickSeries25minimumColumnWidthChangedEv" PURGE="-1" COMMENT="" />
    <EXPORT ORDINAL="1702" NAME="_ZN8QtCharts18QCandlestickSeries28bodyOutlineVisibilityChangedEv" PURGE="-1" COMMENT="" />
    <EXPORT ORDINAL="1703" NAME="_ZN8QtCharts18QCandlestickSeries4takeEPNS_15QCandlestickSetE" PURGE="0" COMMENT="" />
    <EXPORT ORDINAL="1704" NAME="_ZN8QtCharts18QCandlestickSeries5clearEv" PURGE="0" COMMENT="" />
    <EXPORT ORDINAL="1705" NAME="_ZN8QtCharts18QCandlestickSeries6appendEPNS_15QCandlestickSetE" PURGE="0" COMMENT="" />
    <EXPORT ORDINAL="1706" NAME="_ZN8QtCharts18QCandlestickSeries6appendERK5QListIPNS_15QCandlestickSetEE" PURGE="0" COMMENT="" />
    <EXPORT ORDINAL="1707" NAME="_ZN8QtCharts18QCandlestickSeries6insertEiPNS_15QCandlestickSetE" PURGE="0" COMMENT="" />
    <EXPORT ORDINAL="1708" NAME="_ZN8QtCharts18QCandlestickSeries6removeEPNS_15QCandlestickSetE" PURGE="0" COMMENT="" />
    <EXPORT ORDINAL="1709" NAME="_ZN8QtCharts18QCandlestickSeries6removeERK5QListIPNS_15QCandlestickSetEE" PURGE="0" COMMENT="" />
    <EXPORT ORDINAL="1710" NAME="_ZN8QtCharts18QCandlestickSeries6setPenERK4QPen" PURGE="0" COMMENT="" />
    <EXPORT ORDINAL="1711" NAME="_ZN8QtCharts18QCandlestickSeries7clickedEPNS_15QCandlestickSetE" PURGE="0" COMMENT="" />
    <EXPORT ORDINAL="1712" NAME="_ZN8QtCharts18QCandlestickSeries7hoveredEbPNS_15QCandlestickSetE" PURGE="0" COMMENT="" />
    <EXPORT ORDINAL="1713" NAME="_ZN8QtCharts18QCandlestickSeries7pressedEPNS_15QCandlestickSetE" PURGE="0" COMMENT="" />
    <EXPORT ORDINAL="1714" NAME="_ZN8QtCharts18QCandlestickSeries8releasedEPNS_15QCandlestickSetE" PURGE="0" COMMENT="" />
    <EXPORT ORDINAL="1715" NAME="_ZN8QtCharts18QCandlestickSeries8setBrushERK6QBrush" PURGE="0" COMMENT="" />
    <EXPORT ORDINAL="1716" NAME="_ZN8QtCharts18QCandlestickSeriesC1EP7QObject" PURGE="0" COMMENT="" />
    <EXPORT ORDINAL="1717" NAME="_ZN8QtCharts18QCandlestickSeriesC2EP7QObject" PURGE="0" COMMENT="" />
    <EXPORT ORDINAL="1718" NAME="_ZN8QtCharts18QCandlestickSeriesD0Ev" PURGE="-1" COMMENT="" />
    <EXPORT ORDINAL="1719" NAME="_ZN8QtCharts18QCandlestickSeriesD1Ev" PURGE="0" COMMENT="" />
    <EXPORT ORDINAL="1720" NAME="_ZN8QtCharts18QCandlestickSeriesD2Ev" PURGE="0" COMMENT="" />
    <EXPORT ORDINAL="1721" NAME="_ZN8QtCharts18QLineSeriesPrivate15initializeThemeEiPNS_10ChartThemeEb" PURGE="0" COMMENT="" />
    <EXPORT ORDINAL="1722" NAME="_ZN8QtCharts18QLineSeriesPrivate18initializeGraphicsEP13QGraphicsItem" PURGE="0" COMMENT="" />
    <EXPORT ORDINAL="1723" NAME="_ZN8QtCharts18QLineSeriesPrivateC1EPNS_11QLineSeriesE" PURGE="0" COMMENT="" />
    <EXPORT ORDINAL="1724" NAME="_ZN8QtCharts18QLineSeriesPrivateC2EPNS_11QLineSeriesE" PURGE="0" COMMENT="" />
    <EXPORT ORDINAL="1725" NAME="_ZN8QtCharts19AbstractChartLayout10setMarginsERK8QMargins" PURGE="0" COMMENT="" />
    <EXPORT ORDINAL="1726" NAME="_ZN8QtCharts19AbstractChartLayout11setGeometryERK6QRectF" PURGE="0" COMMENT="" />
    <EXPORT ORDINAL="1727" NAME="_ZN8QtCharts19AbstractChartLayoutC1EPNS_14ChartPresenterE" PURGE="0" COMMENT="" />
    <EXPORT ORDINAL="1728" NAME="_ZN8QtCharts19AbstractChartLayoutC2EPNS_14ChartPresenterE" PURGE="0" COMMENT="" />
    <EXPORT ORDINAL="1729" NAME="_ZN8QtCharts19AbstractChartLayoutD0Ev" PURGE="-1" COMMENT="" />
    <EXPORT ORDINAL="1730" NAME="_ZN8QtCharts19AbstractChartLayoutD1Ev" PURGE="-1" COMMENT="" />
    <EXPORT ORDINAL="1731" NAME="_ZN8QtCharts19AbstractChartLayoutD2Ev" PURGE="-1" COMMENT="" />
    <EXPORT ORDINAL="1732" NAME="_ZN8QtCharts19LogXLogYPolarDomain10attachAxisEPNS_13QAbstractAxisE" PURGE="0" COMMENT="" />
    <EXPORT ORDINAL="1733" NAME="_ZN8QtCharts19LogXLogYPolarDomain10detachAxisEPNS_13QAbstractAxisE" PURGE="0" COMMENT="" />
    <EXPORT ORDINAL="1734" NAME="_ZN8QtCharts19LogXLogYPolarDomain11qt_metacallEN11QMetaObject4CallEiPPv" PURGE="0" COMMENT="" />
    <EXPORT ORDINAL="1735" NAME="_ZN8QtCharts19LogXLogYPolarDomain11qt_metacastEPKc" PURGE="0" COMMENT="" />
    <EXPORT ORDINAL="1736" NAME="_ZN8QtCharts19LogXLogYPolarDomain16staticMetaObjectE" PURGE="-1" COMMENT="" />
    <EXPORT ORDINAL="1737" NAME="_ZN8QtCharts19LogXLogYPolarDomain18qt_static_metacallEP7QObjectN11QMetaObject4CallEiPPv" PURGE="0" COMMENT="" />
    <EXPORT ORDINAL="1738" NAME="_ZN8QtCharts19LogXLogYPolarDomain29handleVerticalAxisBaseChangedEd" PURGE="-1" COMMENT="" />
    <EXPORT ORDINAL="1739" NAME="_ZN8QtCharts19LogXLogYPolarDomain31handleHorizontalAxisBaseChangedEd" PURGE="-1" COMMENT="" />
    <EXPORT ORDINAL="1740" NAME="_ZN8QtCharts19LogXLogYPolarDomain4moveEdd" PURGE="0" COMMENT="" />
    <EXPORT ORDINAL="1741" NAME="_ZN8QtCharts19LogXLogYPolarDomain6zoomInERK6QRectF" PURGE="0" COMMENT="" />
    <EXPORT ORDINAL="1742" NAME="_ZN8QtCharts19LogXLogYPolarDomain7zoomOutERK6QRectF" PURGE="0" COMMENT="" />
    <EXPORT ORDINAL="1743" NAME="_ZN8QtCharts19LogXLogYPolarDomain8setRangeEdddd" PURGE="0" COMMENT="" />
    <EXPORT ORDINAL="1744" NAME="_ZN8QtCharts19LogXLogYPolarDomainC1EP7QObject" PURGE="0" COMMENT="" />
    <EXPORT ORDINAL="1745" NAME="_ZN8QtCharts19LogXLogYPolarDomainC2EP7QObject" PURGE="0" COMMENT="" />
    <EXPORT ORDINAL="1746" NAME="_ZN8QtCharts19LogXLogYPolarDomainD0Ev" PURGE="-1" COMMENT="" />
    <EXPORT ORDINAL="1747" NAME="_ZN8QtCharts19LogXLogYPolarDomainD1Ev" PURGE="-1" COMMENT="" />
    <EXPORT ORDINAL="1748" NAME="_ZN8QtCharts19LogXLogYPolarDomainD2Ev" PURGE="-1" COMMENT="" />
    <EXPORT ORDINAL="1749" NAME="_ZN8QtCharts19PercentBarChartItem11qt_metacallEN11QMetaObject4CallEiPPv" PURGE="0" COMMENT="" />
    <EXPORT ORDINAL="1750" NAME="_ZN8QtCharts19PercentBarChartItem11qt_metacastEPKc" PURGE="0" COMMENT="" />
    <EXPORT ORDINAL="1751" NAME="_ZN8QtCharts19PercentBarChartItem12topLeftPointEidd" PURGE="0" COMMENT="" />
    <EXPORT ORDINAL="1752" NAME="_ZN8QtCharts19PercentBarChartItem14positionLabelsEv" PURGE="0" COMMENT="" />
    <EXPORT ORDINAL="1753" NAME="_ZN8QtCharts19PercentBarChartItem15calculateLayoutEv" PURGE="0" COMMENT="" />
    <EXPORT ORDINAL="1754" NAME="_ZN8QtCharts19PercentBarChartItem15markLabelsDirtyEPNS_7QBarSetEii" PURGE="0" COMMENT="" />
    <EXPORT ORDINAL="1755" NAME="_ZN8QtCharts19PercentBarChartItem16bottomRightPointEidd" PURGE="0" COMMENT="" />
    <EXPORT ORDINAL="1756" NAME="_ZN8QtCharts19PercentBarChartItem16initializeLayoutEiiib" PURGE="0" COMMENT="" />
    <EXPORT ORDINAL="1757" NAME="_ZN8QtCharts19PercentBarChartItem16staticMetaObjectE" PURGE="-1" COMMENT="" />
    <EXPORT ORDINAL="1758" NAME="_ZN8QtCharts19PercentBarChartItem17generateLabelTextEiid" PURGE="0" COMMENT="" />
    <EXPORT ORDINAL="1759" NAME="_ZN8QtCharts19PercentBarChartItem18qt_static_metacallEP7QObjectN11QMetaObject4CallEiPPv" PURGE="0" COMMENT="" />
    <EXPORT ORDINAL="1760" NAME="_ZN8QtCharts19PercentBarChartItem27handleLabelsPositionChangedEv" PURGE="0" COMMENT="" />
    <EXPORT ORDINAL="1761" NAME="_ZN8QtCharts19PercentBarChartItemC1EPNS_18QAbstractBarSeriesEP13QGraphicsItem" PURGE="0" COMMENT="" />
    <EXPORT ORDINAL="1762" NAME="_ZN8QtCharts19PercentBarChartItemC2EPNS_18QAbstractBarSeriesEP13QGraphicsItem" PURGE="0" COMMENT="" />
    <EXPORT ORDINAL="1763" NAME="_ZN8QtCharts19QBoxPlotModelMapper11qt_metacallEN11QMetaObject4CallEiPPv" PURGE="-1" COMMENT="" />
    <EXPORT ORDINAL="1764" NAME="_ZN8QtCharts19QBoxPlotModelMapper11qt_metacastEPKc" PURGE="0" COMMENT="" />
    <EXPORT ORDINAL="1765" NAME="_ZN8QtCharts19QBoxPlotModelMapper14setOrientationEN2Qt11OrientationE" PURGE="0" COMMENT="" />
    <EXPORT ORDINAL="1766" NAME="_ZN8QtCharts19QBoxPlotModelMapper16staticMetaObjectE" PURGE="-1" COMMENT="" />
    <EXPORT ORDINAL="1767" NAME="_ZN8QtCharts19QBoxPlotModelMapper18qt_static_metacallEP7QObjectN11QMetaObject4CallEiPPv" PURGE="0" COMMENT="" />
    <EXPORT ORDINAL="1768" NAME="_ZN8QtCharts19QBoxPlotModelMapper20setLastBoxSetSectionEi" PURGE="0" COMMENT="" />
    <EXPORT ORDINAL="1769" NAME="_ZN8QtCharts19QBoxPlotModelMapper21setFirstBoxSetSectionEi" PURGE="0" COMMENT="" />
    <EXPORT ORDINAL="1770" NAME="_ZN8QtCharts19QBoxPlotModelMapper8setCountEi" PURGE="0" COMMENT="" />
    <EXPORT ORDINAL="1771" NAME="_ZN8QtCharts19QBoxPlotModelMapper8setFirstEi" PURGE="0" COMMENT="" />
    <EXPORT ORDINAL="1772" NAME="_ZN8QtCharts19QBoxPlotModelMapper8setModelEP18QAbstractItemModel" PURGE="0" COMMENT="" />
    <EXPORT ORDINAL="1773" NAME="_ZN8QtCharts19QBoxPlotModelMapper9setSeriesEPNS_14QBoxPlotSeriesE" PURGE="0" COMMENT="" />
    <EXPORT ORDINAL="1774" NAME="_ZN8QtCharts19QBoxPlotModelMapperC1EP7QObject" PURGE="0" COMMENT="" />
    <EXPORT ORDINAL="1775" NAME="_ZN8QtCharts19QBoxPlotModelMapperC2EP7QObject" PURGE="0" COMMENT="" />
    <EXPORT ORDINAL="1776" NAME="_ZN8QtCharts19StackedBarChartItem11qt_metacallEN11QMetaObject4CallEiPPv" PURGE="0" COMMENT="" />
    <EXPORT ORDINAL="1777" NAME="_ZN8QtCharts19StackedBarChartItem11qt_metacastEPKc" PURGE="0" COMMENT="" />
    <EXPORT ORDINAL="1778" NAME="_ZN8QtCharts19StackedBarChartItem12topLeftPointEidd" PURGE="0" COMMENT="" />
    <EXPORT ORDINAL="1779" NAME="_ZN8QtCharts19StackedBarChartItem14positionLabelsEv" PURGE="0" COMMENT="" />
    <EXPORT ORDINAL="1780" NAME="_ZN8QtCharts19StackedBarChartItem15calculateLayoutEv" PURGE="0" COMMENT="" />
    <EXPORT ORDINAL="1781" NAME="_ZN8QtCharts19StackedBarChartItem16bottomRightPointEidd" PURGE="0" COMMENT="" />
    <EXPORT ORDINAL="1782" NAME="_ZN8QtCharts19StackedBarChartItem16initializeLayoutEiiib" PURGE="0" COMMENT="" />
    <EXPORT ORDINAL="1783" NAME="_ZN8QtCharts19StackedBarChartItem16staticMetaObjectE" PURGE="-1" COMMENT="" />
    <EXPORT ORDINAL="1784" NAME="_ZN8QtCharts19StackedBarChartItem18qt_static_metacallEP7QObjectN11QMetaObject4CallEiPPv" PURGE="0" COMMENT="" />
    <EXPORT ORDINAL="1785" NAME="_ZN8QtCharts19StackedBarChartItem27handleLabelsPositionChangedEv" PURGE="0" COMMENT="" />
    <EXPORT ORDINAL="1786" NAME="_ZN8QtCharts19StackedBarChartItemC1EPNS_18QAbstractBarSeriesEP13QGraphicsItem" PURGE="0" COMMENT="" />
    <EXPORT ORDINAL="1787" NAME="_ZN8QtCharts19StackedBarChartItemC2EPNS_18QAbstractBarSeriesEP13QGraphicsItem" PURGE="0" COMMENT="" />
    <EXPORT ORDINAL="1788" NAME="_ZN8QtCharts19qt_allocate_bar_setE" PURGE="-1" COMMENT="" />
    <EXPORT ORDINAL="1789" NAME="_ZN8QtCharts20AbstractBarChartItem11applyLayoutERK7QVectorI6QRectFE" PURGE="0" COMMENT="" />
    <EXPORT ORDINAL="1790" NAME="_ZN8QtCharts20AbstractBarChartItem11qt_metacallEN11QMetaObject4CallEiPPv" PURGE="0" COMMENT="" />
    <EXPORT ORDINAL="1791" NAME="_ZN8QtCharts20AbstractBarChartItem11qt_metacastEPKc" PURGE="0" COMMENT="" />
    <EXPORT ORDINAL="1792" NAME="_ZN8QtCharts20AbstractBarChartItem12setAnimationEPNS_12BarAnimationE" PURGE="0" COMMENT="" />
    <EXPORT ORDINAL="1793" NAME="_ZN8QtCharts20AbstractBarChartItem14positionLabelsEv" PURGE="0" COMMENT="" />
    <EXPORT ORDINAL="1794" NAME="_ZN8QtCharts20AbstractBarChartItem14resetAnimationEv" PURGE="0" COMMENT="" />
    <EXPORT ORDINAL="1795" NAME="_ZN8QtCharts20AbstractBarChartItem14updateBarItemsEv" PURGE="0" COMMENT="" />
    <EXPORT ORDINAL="1796" NAME="_ZN8QtCharts20AbstractBarChartItem15markLabelsDirtyEPNS_7QBarSetEii" PURGE="0" COMMENT="" />
    <EXPORT ORDINAL="1797" NAME="_ZN8QtCharts20AbstractBarChartItem16createLabelItemsEv" PURGE="0" COMMENT="" />
    <EXPORT ORDINAL="1798" NAME="_ZN8QtCharts20AbstractBarChartItem16staticMetaObjectE" PURGE="-1" COMMENT="" />
    <EXPORT ORDINAL="1799" NAME="_ZN8QtCharts20AbstractBarChartItem17generateLabelTextEiid" PURGE="0" COMMENT="" />
    <EXPORT ORDINAL="1800" NAME="_ZN8QtCharts20AbstractBarChartItem17handleBarValueAddEiiPNS_7QBarSetE" PURGE="0" COMMENT="" />
    <EXPORT ORDINAL="1801" NAME="_ZN8QtCharts20AbstractBarChartItem17handleSeriesAddedEPNS_15QAbstractSeriesE" PURGE="0" COMMENT="" />
    <EXPORT ORDINAL="1802" NAME="_ZN8QtCharts20AbstractBarChartItem17handleUpdatedBarsEv" PURGE="0" COMMENT="" />
    <EXPORT ORDINAL="1803" NAME="_ZN8QtCharts20AbstractBarChartItem18qt_static_metacallEP7QObjectN11QMetaObject4CallEiPPv" PURGE="0" COMMENT="" />
    <EXPORT ORDINAL="1804" NAME="_ZN8QtCharts20AbstractBarChartItem19handleDomainUpdatedEv" PURGE="0" COMMENT="" />
    <EXPORT ORDINAL="1805" NAME="_ZN8QtCharts20AbstractBarChartItem19handleLayoutChangedEv" PURGE="0" COMMENT="" />
    <EXPORT ORDINAL="1806" NAME="_ZN8QtCharts20AbstractBarChartItem19handleSeriesRemovedEPNS_15QAbstractSeriesE" PURGE="0" COMMENT="" />
    <EXPORT ORDINAL="1807" NAME="_ZN8QtCharts20AbstractBarChartItem20handleBarValueChangeEiPNS_7QBarSetE" PURGE="0" COMMENT="" />
    <EXPORT ORDINAL="1808" NAME="_ZN8QtCharts20AbstractBarChartItem20handleBarValueRemoveEiiPNS_7QBarSetE" PURGE="0" COMMENT="" />
    <EXPORT ORDINAL="1809" NAME="_ZN8QtCharts20AbstractBarChartItem20handleOpacityChangedEv" PURGE="0" COMMENT="" />
    <EXPORT ORDINAL="1810" NAME="_ZN8QtCharts20AbstractBarChartItem20handleVisibleChangedEv" PURGE="0" COMMENT="" />
    <EXPORT ORDINAL="1811" NAME="_ZN8QtCharts20AbstractBarChartItem20initializeFullLayoutEv" PURGE="0" COMMENT="" />
    <EXPORT ORDINAL="1812" NAME="_ZN8QtCharts20AbstractBarChartItem22positionLabelsVerticalEv" PURGE="0" COMMENT="" />
    <EXPORT ORDINAL="1813" NAME="_ZN8QtCharts20AbstractBarChartItem24handleSetStructureChangeEv" PURGE="0" COMMENT="" />
    <EXPORT ORDINAL="1814" NAME="_ZN8QtCharts20AbstractBarChartItem26handleDataStructureChangedEv" PURGE="0" COMMENT="" />
    <EXPORT ORDINAL="1815" NAME="_ZN8QtCharts20AbstractBarChartItem26handleLabelsVisibleChangedEb" PURGE="0" COMMENT="" />
    <EXPORT ORDINAL="1816" NAME="_ZN8QtCharts20AbstractBarChartItem27handleLabelsPositionChangedEv" PURGE="-1" COMMENT="" />
    <EXPORT ORDINAL="1817" NAME="_ZN8QtCharts20AbstractBarChartItem41calculateSeriesPositionAdjustmentAndWidthEv" PURGE="0" COMMENT="" />
    <EXPORT ORDINAL="1818" NAME="_ZN8QtCharts20AbstractBarChartItem5paintEP8QPainterPK24QStyleOptionGraphicsItemP7QWidget" PURGE="0" COMMENT="" />
    <EXPORT ORDINAL="1819" NAME="_ZN8QtCharts20AbstractBarChartItem9setLayoutERK7QVectorI6QRectFE" PURGE="0" COMMENT="" />
    <EXPORT ORDINAL="1820" NAME="_ZN8QtCharts20AbstractBarChartItemC1EPNS_18QAbstractBarSeriesEP13QGraphicsItem" PURGE="0" COMMENT="" />
    <EXPORT ORDINAL="1821" NAME="_ZN8QtCharts20AbstractBarChartItemC2EPNS_18QAbstractBarSeriesEP13QGraphicsItem" PURGE="0" COMMENT="" />
    <EXPORT ORDINAL="1822" NAME="_ZN8QtCharts20AbstractBarChartItemD0Ev" PURGE="-1" COMMENT="" />
    <EXPORT ORDINAL="1823" NAME="_ZN8QtCharts20AbstractBarChartItemD1Ev" PURGE="-1" COMMENT="" />
    <EXPORT ORDINAL="1824" NAME="_ZN8QtCharts20AbstractBarChartItemD2Ev" PURGE="-1" COMMENT="" />
    <EXPORT ORDINAL="1825" NAME="_ZN8QtCharts20BoxWhiskersAnimation10setEndDataERKNS_15BoxWhiskersDataE" PURGE="0" COMMENT="" />
    <EXPORT ORDINAL="1826" NAME="_ZN8QtCharts20BoxWhiskersAnimation11qt_metacallEN11QMetaObject4CallEiPPv" PURGE="0" COMMENT="" />
    <EXPORT ORDINAL="1827" NAME="_ZN8QtCharts20BoxWhiskersAnimation11qt_metacastEPKc" PURGE="0" COMMENT="" />
    <EXPORT ORDINAL="1828" NAME="_ZN8QtCharts20BoxWhiskersAnimation12setStartDataERKNS_15BoxWhiskersDataE" PURGE="0" COMMENT="" />
    <EXPORT ORDINAL="1829" NAME="_ZN8QtCharts20BoxWhiskersAnimation16staticMetaObjectE" PURGE="-1" COMMENT="" />
    <EXPORT ORDINAL="1830" NAME="_ZN8QtCharts20BoxWhiskersAnimation18qt_static_metacallEP7QObjectN11QMetaObject4CallEiPPv" PURGE="0" COMMENT="" />
    <EXPORT ORDINAL="1831" NAME="_ZN8QtCharts20BoxWhiskersAnimation18updateCurrentValueERK8QVariant" PURGE="0" COMMENT="" />
    <EXPORT ORDINAL="1832" NAME="_ZN8QtCharts20BoxWhiskersAnimation5setupERKNS_15BoxWhiskersDataES3_" PURGE="0" COMMENT="" />
    <EXPORT ORDINAL="1833" NAME="_ZN8QtCharts20BoxWhiskersAnimationC1EPNS_11BoxWhiskersEPNS_16BoxPlotAnimationEiR12QEasingCurve" PURGE="-1" COMMENT="" />
    <EXPORT ORDINAL="1834" NAME="_ZN8QtCharts20BoxWhiskersAnimationC2EPNS_11BoxWhiskersEPNS_16BoxPlotAnimationEiR12QEasingCurve" PURGE="-1" COMMENT="" />
    <EXPORT ORDINAL="1835" NAME="_ZN8QtCharts20BoxWhiskersAnimationD0Ev" PURGE="-1" COMMENT="" />
    <EXPORT ORDINAL="1836" NAME="_ZN8QtCharts20BoxWhiskersAnimationD1Ev" PURGE="-1" COMMENT="" />
    <EXPORT ORDINAL="1837" NAME="_ZN8QtCharts20BoxWhiskersAnimationD2Ev" PURGE="-1" COMMENT="" />
    <EXPORT ORDINAL="1838" NAME="_ZN8QtCharts20CandlestickAnimation11qt_metacallEN11QMetaObject4CallEiPPv" PURGE="-1" COMMENT="" />
    <EXPORT ORDINAL="1839" NAME="_ZN8QtCharts20CandlestickAnimation11qt_metacastEPKc" PURGE="0" COMMENT="" />
    <EXPORT ORDINAL="1840" NAME="_ZN8QtCharts20CandlestickAnimation14addCandlestickEPNS_11CandlestickE" PURGE="0" COMMENT="" />
    <EXPORT ORDINAL="1841" NAME="_ZN8QtCharts20CandlestickAnimation16staticMetaObjectE" PURGE="-1" COMMENT="" />
    <EXPORT ORDINAL="1842" NAME="_ZN8QtCharts20CandlestickAnimation17setAnimationStartEPNS_11CandlestickE" PURGE="0" COMMENT="" />
    <EXPORT ORDINAL="1843" NAME="_ZN8QtCharts20CandlestickAnimation18qt_static_metacallEP7QObjectN11QMetaObject4CallEiPPv" PURGE="0" COMMENT="" />
    <EXPORT ORDINAL="1844" NAME="_ZN8QtCharts20CandlestickAnimation20candlestickAnimationEPNS_11CandlestickE" PURGE="0" COMMENT="" />
    <EXPORT ORDINAL="1845" NAME="_ZN8QtCharts20CandlestickAnimation26candlestickChangeAnimationEPNS_11CandlestickE" PURGE="0" COMMENT="" />
    <EXPORT ORDINAL="1846" NAME="_ZN8QtCharts20CandlestickAnimation26removeCandlestickAnimationEPNS_11CandlestickE" PURGE="0" COMMENT="" />
    <EXPORT ORDINAL="1847" NAME="_ZN8QtCharts20CandlestickAnimation7stopAllEv" PURGE="0" COMMENT="" />
    <EXPORT ORDINAL="1848" NAME="_ZN8QtCharts20CandlestickAnimationC1EPNS_20CandlestickChartItemEiR12QEasingCurve" PURGE="-1" COMMENT="" />
    <EXPORT ORDINAL="1849" NAME="_ZN8QtCharts20CandlestickAnimationC2EPNS_20CandlestickChartItemEiR12QEasingCurve" PURGE="-1" COMMENT="" />
    <EXPORT ORDINAL="1850" NAME="_ZN8QtCharts20CandlestickAnimationD0Ev" PURGE="-1" COMMENT="" />
    <EXPORT ORDINAL="1851" NAME="_ZN8QtCharts20CandlestickAnimationD1Ev" PURGE="-1" COMMENT="" />
    <EXPORT ORDINAL="1852" NAME="_ZN8QtCharts20CandlestickAnimationD2Ev" PURGE="-1" COMMENT="" />
    <EXPORT ORDINAL="1853" NAME="_ZN8QtCharts20CandlestickChartItem11qt_metacallEN11QMetaObject4CallEiPPv" PURGE="0" COMMENT="" />
    <EXPORT ORDINAL="1854" NAME="_ZN8QtCharts20CandlestickChartItem11qt_metacastEPKc" PURGE="0" COMMENT="" />
    <EXPORT ORDINAL="1855" NAME="_ZN8QtCharts20CandlestickChartItem12addTimestampEd" PURGE="0" COMMENT="" />
    <EXPORT ORDINAL="1856" NAME="_ZN8QtCharts20CandlestickChartItem12setAnimationEPNS_20CandlestickAnimationE" PURGE="0" COMMENT="" />
    <EXPORT ORDINAL="1857" NAME="_ZN8QtCharts20CandlestickChartItem15removeTimestampEd" PURGE="0" COMMENT="" />
    <EXPORT ORDINAL="1858" NAME="_ZN8QtCharts20CandlestickChartItem16staticMetaObjectE" PURGE="-1" COMMENT="" />
    <EXPORT ORDINAL="1859" NAME="_ZN8QtCharts20CandlestickChartItem16updateTimePeriodEv" PURGE="0" COMMENT="" />
    <EXPORT ORDINAL="1860" NAME="_ZN8QtCharts20CandlestickChartItem18qt_static_metacallEP7QObjectN11QMetaObject4CallEiPPv" PURGE="0" COMMENT="" />
    <EXPORT ORDINAL="1861" NAME="_ZN8QtCharts20CandlestickChartItem19handleDomainUpdatedEv" PURGE="0" COMMENT="" />
    <EXPORT ORDINAL="1862" NAME="_ZN8QtCharts20CandlestickChartItem19handleLayoutUpdatedEv" PURGE="0" COMMENT="" />
    <EXPORT ORDINAL="1863" NAME="_ZN8QtCharts20CandlestickChartItem24handleCandlestickSetsAddERK5QListIPNS_15QCandlestickSetEE" PURGE="0" COMMENT="" />
    <EXPORT ORDINAL="1864" NAME="_ZN8QtCharts20CandlestickChartItem25handleCandlesticksUpdatedEv" PURGE="0" COMMENT="" />
    <EXPORT ORDINAL="1865" NAME="_ZN8QtCharts20CandlestickChartItem25updateCandlestickGeometryEPNS_11CandlestickEi" PURGE="0" COMMENT="" />
    <EXPORT ORDINAL="1866" NAME="_ZN8QtCharts20CandlestickChartItem26handleDataStructureChangedEv" PURGE="0" COMMENT="" />
    <EXPORT ORDINAL="1867" NAME="_ZN8QtCharts20CandlestickChartItem27handleCandlestickSetsRemoveERK5QListIPNS_15QCandlestickSetEE" PURGE="0" COMMENT="" />
    <EXPORT ORDINAL="1868" NAME="_ZN8QtCharts20CandlestickChartItem27updateCandlestickAppearanceEPNS_11CandlestickEPNS_15QCandlestickSetE" PURGE="0" COMMENT="" />
    <EXPORT ORDINAL="1869" NAME="_ZN8QtCharts20CandlestickChartItem29handleCandlestickSeriesChangeEv" PURGE="0" COMMENT="" />
    <EXPORT ORDINAL="1870" NAME="_ZN8QtCharts20CandlestickChartItem5paintEP8QPainterPK24QStyleOptionGraphicsItemP7QWidget" PURGE="0" COMMENT="" />
    <EXPORT ORDINAL="1871" NAME="_ZN8QtCharts20CandlestickChartItemC1EPNS_18QCandlestickSeriesEP13QGraphicsItem" PURGE="0" COMMENT="" />
    <EXPORT ORDINAL="1872" NAME="_ZN8QtCharts20CandlestickChartItemC2EPNS_18QCandlestickSeriesEP13QGraphicsItem" PURGE="0" COMMENT="" />
    <EXPORT ORDINAL="1873" NAME="_ZN8QtCharts20CandlestickChartItemD0Ev" PURGE="-1" COMMENT="" />
    <EXPORT ORDINAL="1874" NAME="_ZN8QtCharts20CandlestickChartItemD1Ev" PURGE="-1" COMMENT="" />
    <EXPORT ORDINAL="1875" NAME="_ZN8QtCharts20CandlestickChartItemD2Ev" PURGE="-1" COMMENT="" />
    <EXPORT ORDINAL="1876" NAME="_ZN8QtCharts20CartesianChartLayoutC1EPNS_14ChartPresenterE" PURGE="0" COMMENT="" />
    <EXPORT ORDINAL="1877" NAME="_ZN8QtCharts20CartesianChartLayoutC2EPNS_14ChartPresenterE" PURGE="0" COMMENT="" />
    <EXPORT ORDINAL="1878" NAME="_ZN8QtCharts20CartesianChartLayoutD0Ev" PURGE="-1" COMMENT="" />
    <EXPORT ORDINAL="1879" NAME="_ZN8QtCharts20CartesianChartLayoutD1Ev" PURGE="-1" COMMENT="" />
    <EXPORT ORDINAL="1880" NAME="_ZN8QtCharts20CartesianChartLayoutD2Ev" PURGE="-1" COMMENT="" />
    <EXPORT ORDINAL="1881" NAME="_ZN8QtCharts20PolarChartAxisRadial11createItemsEi" PURGE="0" COMMENT="" />
    <EXPORT ORDINAL="1882" NAME="_ZN8QtCharts20PolarChartAxisRadial11qt_metacallEN11QMetaObject4CallEiPPv" PURGE="0" COMMENT="" />
    <EXPORT ORDINAL="1883" NAME="_ZN8QtCharts20PolarChartAxisRadial11qt_metacastEPKc" PURGE="0" COMMENT="" />
    <EXPORT ORDINAL="1884" NAME="_ZN8QtCharts20PolarChartAxisRadial14updateGeometryEv" PURGE="0" COMMENT="" />
    <EXPORT ORDINAL="1885" NAME="_ZN8QtCharts20PolarChartAxisRadial16staticMetaObjectE" PURGE="-1" COMMENT="" />
    <EXPORT ORDINAL="1886" NAME="_ZN8QtCharts20PolarChartAxisRadial18qt_static_metacallEP7QObjectN11QMetaObject4CallEiPPv" PURGE="0" COMMENT="" />
    <EXPORT ORDINAL="1887" NAME="_ZN8QtCharts20PolarChartAxisRadial19preferredAxisRadiusERK6QSizeF" PURGE="0" COMMENT="" />
    <EXPORT ORDINAL="1888" NAME="_ZN8QtCharts20PolarChartAxisRadial20handleGridPenChangedERK4QPen" PURGE="0" COMMENT="" />
    <EXPORT ORDINAL="1889" NAME="_ZN8QtCharts20PolarChartAxisRadial20updateMinorTickItemsEv" PURGE="0" COMMENT="" />
    <EXPORT ORDINAL="1890" NAME="_ZN8QtCharts20PolarChartAxisRadial21handleArrowPenChangedERK4QPen" PURGE="0" COMMENT="" />
    <EXPORT ORDINAL="1891" NAME="_ZN8QtCharts20PolarChartAxisRadial23updateMinorTickGeometryEv" PURGE="0" COMMENT="" />
    <EXPORT ORDINAL="1892" NAME="_ZN8QtCharts20PolarChartAxisRadial25handleMinorGridPenChangedERK4QPen" PURGE="0" COMMENT="" />
    <EXPORT ORDINAL="1893" NAME="_ZN8QtCharts20PolarChartAxisRadial26handleGridLineColorChangedERK6QColor" PURGE="0" COMMENT="" />
    <EXPORT ORDINAL="1894" NAME="_ZN8QtCharts20PolarChartAxisRadial26handleMinorArrowPenChangedERK4QPen" PURGE="0" COMMENT="" />
    <EXPORT ORDINAL="1895" NAME="_ZN8QtCharts20PolarChartAxisRadial31handleMinorGridLineColorChangedERK6QColor" PURGE="0" COMMENT="" />
    <EXPORT ORDINAL="1896" NAME="_ZN8QtCharts20PolarChartAxisRadialC1EPNS_13QAbstractAxisEP13QGraphicsItemb" PURGE="0" COMMENT="" />
    <EXPORT ORDINAL="1897" NAME="_ZN8QtCharts20PolarChartAxisRadialC2EPNS_13QAbstractAxisEP13QGraphicsItemb" PURGE="0" COMMENT="" />
    <EXPORT ORDINAL="1898" NAME="_ZN8QtCharts20PolarChartAxisRadialD0Ev" PURGE="-1" COMMENT="" />
    <EXPORT ORDINAL="1899" NAME="_ZN8QtCharts20PolarChartAxisRadialD1Ev" PURGE="-1" COMMENT="" />
    <EXPORT ORDINAL="1900" NAME="_ZN8QtCharts20PolarChartAxisRadialD2Ev" PURGE="-1" COMMENT="" />
    <EXPORT ORDINAL="1901" NAME="_ZN8QtCharts20QAbstractAxisPrivate11qt_metacallEN11QMetaObject4CallEiPPv" PURGE="0" COMMENT="" />
    <EXPORT ORDINAL="1902" NAME="_ZN8QtCharts20QAbstractAxisPrivate11qt_metacastEPKc" PURGE="0" COMMENT="" />
    <EXPORT ORDINAL="1903" NAME="_ZN8QtCharts20QAbstractAxisPrivate12rangeChangedEdd" PURGE="0" COMMENT="" />
    <EXPORT ORDINAL="1904" NAME="_ZN8QtCharts20QAbstractAxisPrivate12setAlignmentE6QFlagsIN2Qt13AlignmentFlagEE" PURGE="0" COMMENT="" />
    <EXPORT ORDINAL="1905" NAME="_ZN8QtCharts20QAbstractAxisPrivate15initializeThemeEPNS_10ChartThemeEb" PURGE="0" COMMENT="" />
    <EXPORT ORDINAL="1906" NAME="_ZN8QtCharts20QAbstractAxisPrivate16staticMetaObjectE" PURGE="-1" COMMENT="" />
    <EXPORT ORDINAL="1907" NAME="_ZN8QtCharts20QAbstractAxisPrivate18handleRangeChangedEdd" PURGE="-1" COMMENT="" />
    <EXPORT ORDINAL="1908" NAME="_ZN8QtCharts20QAbstractAxisPrivate18initializeGraphicsEP13QGraphicsItem" PURGE="0" COMMENT="" />
    <EXPORT ORDINAL="1909" NAME="_ZN8QtCharts20QAbstractAxisPrivate18qt_static_metacallEP7QObjectN11QMetaObject4CallEiPPv" PURGE="0" COMMENT="" />
    <EXPORT ORDINAL="1910" NAME="_ZN8QtCharts20QAbstractAxisPrivate20initializeAnimationsE6QFlagsINS_6QChart15AnimationOptionEEiR12QEasingCurve" PURGE="0" COMMENT="" />
    <EXPORT ORDINAL="1911" NAME="_ZN8QtCharts20QAbstractAxisPrivateC1EPNS_13QAbstractAxisE" PURGE="0" COMMENT="" />
    <EXPORT ORDINAL="1912" NAME="_ZN8QtCharts20QAbstractAxisPrivateC2EPNS_13QAbstractAxisE" PURGE="0" COMMENT="" />
    <EXPORT ORDINAL="1913" NAME="_ZN8QtCharts20QAbstractAxisPrivateD0Ev" PURGE="-1" COMMENT="" />
    <EXPORT ORDINAL="1914" NAME="_ZN8QtCharts20QAbstractAxisPrivateD1Ev" PURGE="-1" COMMENT="" />
    <EXPORT ORDINAL="1915" NAME="_ZN8QtCharts20QAbstractAxisPrivateD2Ev" PURGE="-1" COMMENT="" />
    <EXPORT ORDINAL="1916" NAME="_ZN8QtCharts20QBoxPlotLegendMarker11qt_metacallEN11QMetaObject4CallEiPPv" PURGE="0" COMMENT="" />
    <EXPORT ORDINAL="1917" NAME="_ZN8QtCharts20QBoxPlotLegendMarker11qt_metacastEPKc" PURGE="0" COMMENT="" />
    <EXPORT ORDINAL="1918" NAME="_ZN8QtCharts20QBoxPlotLegendMarker16staticMetaObjectE" PURGE="-1" COMMENT="" />
    <EXPORT ORDINAL="1919" NAME="_ZN8QtCharts20QBoxPlotLegendMarker18qt_static_metacallEP7QObjectN11QMetaObject4CallEiPPv" PURGE="0" COMMENT="" />
    <EXPORT ORDINAL="1920" NAME="_ZN8QtCharts20QBoxPlotLegendMarker6seriesEv" PURGE="0" COMMENT="" />
    <EXPORT ORDINAL="1921" NAME="_ZN8QtCharts20QBoxPlotLegendMarkerC1EPNS_14QBoxPlotSeriesEPNS_7QLegendEP7QObject" PURGE="-1" COMMENT="" />
    <EXPORT ORDINAL="1922" NAME="_ZN8QtCharts20QBoxPlotLegendMarkerC1ERNS_27QBoxPlotLegendMarkerPrivateEP7QObject" PURGE="0" COMMENT="" />
    <EXPORT ORDINAL="1923" NAME="_ZN8QtCharts20QBoxPlotLegendMarkerC2EPNS_14QBoxPlotSeriesEPNS_7QLegendEP7QObject" PURGE="-1" COMMENT="" />
    <EXPORT ORDINAL="1924" NAME="_ZN8QtCharts20QBoxPlotLegendMarkerC2ERNS_27QBoxPlotLegendMarkerPrivateEP7QObject" PURGE="0" COMMENT="" />
    <EXPORT ORDINAL="1925" NAME="_ZN8QtCharts20QBoxPlotLegendMarkerD0Ev" PURGE="-1" COMMENT="" />
    <EXPORT ORDINAL="1926" NAME="_ZN8QtCharts20QBoxPlotLegendMarkerD1Ev" PURGE="-1" COMMENT="" />
    <EXPORT ORDINAL="1927" NAME="_ZN8QtCharts20QBoxPlotLegendMarkerD2Ev" PURGE="-1" COMMENT="" />
    <EXPORT ORDINAL="1928" NAME="_ZN8QtCharts20QCategoryAxisPrivate11qt_metacallEN11QMetaObject4CallEiPPv" PURGE="0" COMMENT="" />
    <EXPORT ORDINAL="1929" NAME="_ZN8QtCharts20QCategoryAxisPrivate11qt_metacastEPKc" PURGE="0" COMMENT="" />
    <EXPORT ORDINAL="1930" NAME="_ZN8QtCharts20QCategoryAxisPrivate16staticMetaObjectE" PURGE="-1" COMMENT="" />
    <EXPORT ORDINAL="1931" NAME="_ZN8QtCharts20QCategoryAxisPrivate18initializeGraphicsEP13QGraphicsItem" PURGE="0" COMMENT="" />
    <EXPORT ORDINAL="1932" NAME="_ZN8QtCharts20QCategoryAxisPrivate18qt_static_metacallEP7QObjectN11QMetaObject4CallEiPPv" PURGE="0" COMMENT="" />
    <EXPORT ORDINAL="1933" NAME="_ZN8QtCharts20QCategoryAxisPrivateC1EPNS_13QCategoryAxisE" PURGE="0" COMMENT="" />
    <EXPORT ORDINAL="1934" NAME="_ZN8QtCharts20QCategoryAxisPrivateC2EPNS_13QCategoryAxisE" PURGE="0" COMMENT="" />
    <EXPORT ORDINAL="1935" NAME="_ZN8QtCharts20QCategoryAxisPrivateD0Ev" PURGE="-1" COMMENT="" />
    <EXPORT ORDINAL="1936" NAME="_ZN8QtCharts20QCategoryAxisPrivateD1Ev" PURGE="-1" COMMENT="" />
    <EXPORT ORDINAL="1937" NAME="_ZN8QtCharts20QCategoryAxisPrivateD2Ev" PURGE="-1" COMMENT="" />
    <EXPORT ORDINAL="1938" NAME="_ZN8QtCharts20QDateTimeAxisPrivate11qt_metacallEN11QMetaObject4CallEiPPv" PURGE="0" COMMENT="" />
    <EXPORT ORDINAL="1939" NAME="_ZN8QtCharts20QDateTimeAxisPrivate11qt_metacastEPKc" PURGE="0" COMMENT="" />
    <EXPORT ORDINAL="1940" NAME="_ZN8QtCharts20QDateTimeAxisPrivate16initializeDomainEPNS_14AbstractDomainE" PURGE="0" COMMENT="" />
    <EXPORT ORDINAL="1941" NAME="_ZN8QtCharts20QDateTimeAxisPrivate16staticMetaObjectE" PURGE="-1" COMMENT="" />
    <EXPORT ORDINAL="1942" NAME="_ZN8QtCharts20QDateTimeAxisPrivate18initializeGraphicsEP13QGraphicsItem" PURGE="0" COMMENT="" />
    <EXPORT ORDINAL="1943" NAME="_ZN8QtCharts20QDateTimeAxisPrivate18qt_static_metacallEP7QObjectN11QMetaObject4CallEiPPv" PURGE="0" COMMENT="" />
    <EXPORT ORDINAL="1944" NAME="_ZN8QtCharts20QDateTimeAxisPrivate6setMaxERK8QVariant" PURGE="0" COMMENT="" />
    <EXPORT ORDINAL="1945" NAME="_ZN8QtCharts20QDateTimeAxisPrivate6setMinERK8QVariant" PURGE="0" COMMENT="" />
    <EXPORT ORDINAL="1946" NAME="_ZN8QtCharts20QDateTimeAxisPrivate8setRangeERK8QVariantS3_" PURGE="0" COMMENT="" />
    <EXPORT ORDINAL="1947" NAME="_ZN8QtCharts20QDateTimeAxisPrivate8setRangeEdd" PURGE="0" COMMENT="" />
    <EXPORT ORDINAL="1948" NAME="_ZN8QtCharts20QDateTimeAxisPrivateC1EPNS_13QDateTimeAxisE" PURGE="0" COMMENT="" />
    <EXPORT ORDINAL="1949" NAME="_ZN8QtCharts20QDateTimeAxisPrivateC2EPNS_13QDateTimeAxisE" PURGE="0" COMMENT="" />
    <EXPORT ORDINAL="1950" NAME="_ZN8QtCharts20QDateTimeAxisPrivateD0Ev" PURGE="-1" COMMENT="" />
    <EXPORT ORDINAL="1951" NAME="_ZN8QtCharts20QDateTimeAxisPrivateD1Ev" PURGE="-1" COMMENT="" />
    <EXPORT ORDINAL="1952" NAME="_ZN8QtCharts20QDateTimeAxisPrivateD2Ev" PURGE="-1" COMMENT="" />
    <EXPORT ORDINAL="1953" NAME="_ZN8QtCharts20QHBoxPlotModelMapper11qt_metacallEN11QMetaObject4CallEiPPv" PURGE="0" COMMENT="" />
    <EXPORT ORDINAL="1954" NAME="_ZN8QtCharts20QHBoxPlotModelMapper11qt_metacastEPKc" PURGE="0" COMMENT="" />
    <EXPORT ORDINAL="1955" NAME="_ZN8QtCharts20QHBoxPlotModelMapper13modelReplacedEv" PURGE="-1" COMMENT="" />
    <EXPORT ORDINAL="1956" NAME="_ZN8QtCharts20QHBoxPlotModelMapper14seriesReplacedEv" PURGE="-1" COMMENT="" />
    <EXPORT ORDINAL="1957" NAME="_ZN8QtCharts20QHBoxPlotModelMapper14setColumnCountEi" PURGE="0" COMMENT="" />
    <EXPORT ORDINAL="1958" NAME="_ZN8QtCharts20QHBoxPlotModelMapper14setFirstColumnEi" PURGE="0" COMMENT="" />
    <EXPORT ORDINAL="1959" NAME="_ZN8QtCharts20QHBoxPlotModelMapper16setLastBoxSetRowEi" PURGE="0" COMMENT="" />
    <EXPORT ORDINAL="1960" NAME="_ZN8QtCharts20QHBoxPlotModelMapper16staticMetaObjectE" PURGE="-1" COMMENT="" />
    <EXPORT ORDINAL="1961" NAME="_ZN8QtCharts20QHBoxPlotModelMapper17setFirstBoxSetRowEi" PURGE="0" COMMENT="" />
    <EXPORT ORDINAL="1962" NAME="_ZN8QtCharts20QHBoxPlotModelMapper18columnCountChangedEv" PURGE="-1" COMMENT="" />
    <EXPORT ORDINAL="1963" NAME="_ZN8QtCharts20QHBoxPlotModelMapper18firstColumnChangedEv" PURGE="-1" COMMENT="" />
    <EXPORT ORDINAL="1964" NAME="_ZN8QtCharts20QHBoxPlotModelMapper18qt_static_metacallEP7QObjectN11QMetaObject4CallEiPPv" PURGE="0" COMMENT="" />
    <EXPORT ORDINAL="1965" NAME="_ZN8QtCharts20QHBoxPlotModelMapper20lastBoxSetRowChangedEv" PURGE="-1" COMMENT="" />
    <EXPORT ORDINAL="1966" NAME="_ZN8QtCharts20QHBoxPlotModelMapper21firstBoxSetRowChangedEv" PURGE="-1" COMMENT="" />
    <EXPORT ORDINAL="1967" NAME="_ZN8QtCharts20QHBoxPlotModelMapper8setModelEP18QAbstractItemModel" PURGE="0" COMMENT="" />
    <EXPORT ORDINAL="1968" NAME="_ZN8QtCharts20QHBoxPlotModelMapper9setSeriesEPNS_14QBoxPlotSeriesE" PURGE="0" COMMENT="" />
    <EXPORT ORDINAL="1969" NAME="_ZN8QtCharts20QHBoxPlotModelMapperC1EP7QObject" PURGE="0" COMMENT="" />
    <EXPORT ORDINAL="1970" NAME="_ZN8QtCharts20QHBoxPlotModelMapperC2EP7QObject" PURGE="0" COMMENT="" />
    <EXPORT ORDINAL="1971" NAME="_ZN8QtCharts20QHorizontalBarSeries11qt_metacallEN11QMetaObject4CallEiPPv" PURGE="0" COMMENT="" />
    <EXPORT ORDINAL="1972" NAME="_ZN8QtCharts20QHorizontalBarSeries11qt_metacastEPKc" PURGE="0" COMMENT="" />
    <EXPORT ORDINAL="1973" NAME="_ZN8QtCharts20QHorizontalBarSeries16staticMetaObjectE" PURGE="-1" COMMENT="" />
    <EXPORT ORDINAL="1974" NAME="_ZN8QtCharts20QHorizontalBarSeries18qt_static_metacallEP7QObjectN11QMetaObject4CallEiPPv" PURGE="0" COMMENT="" />
    <EXPORT ORDINAL="1975" NAME="_ZN8QtCharts20QHorizontalBarSeriesC1EP7QObject" PURGE="0" COMMENT="" />
    <EXPORT ORDINAL="1976" NAME="_ZN8QtCharts20QHorizontalBarSeriesC2EP7QObject" PURGE="0" COMMENT="" />
    <EXPORT ORDINAL="1977" NAME="_ZN8QtCharts20QHorizontalBarSeriesD0Ev" PURGE="-1" COMMENT="" />
    <EXPORT ORDINAL="1978" NAME="_ZN8QtCharts20QHorizontalBarSeriesD1Ev" PURGE="0" COMMENT="" />
    <EXPORT ORDINAL="1979" NAME="_ZN8QtCharts20QHorizontalBarSeriesD2Ev" PURGE="0" COMMENT="" />
    <EXPORT ORDINAL="1980" NAME="_ZN8QtCharts20QLegendMarkerPrivate11qt_metacallEN11QMetaObject4CallEiPPv" PURGE="0" COMMENT="" />
    <EXPORT ORDINAL="1981" NAME="_ZN8QtCharts20QLegendMarkerPrivate11qt_metacastEPKc" PURGE="0" COMMENT="" />
    <EXPORT ORDINAL="1982" NAME="_ZN8QtCharts20QLegendMarkerPrivate16invalidateLegendEv" PURGE="-1" COMMENT="" />
    <EXPORT ORDINAL="1983" NAME="_ZN8QtCharts20QLegendMarkerPrivate16staticMetaObjectE" PURGE="-1" COMMENT="" />
    <EXPORT ORDINAL="1984" NAME="_ZN8QtCharts20QLegendMarkerPrivate17handleShapeChangeEv" PURGE="-1" COMMENT="" />
    <EXPORT ORDINAL="1985" NAME="_ZN8QtCharts20QLegendMarkerPrivate18invalidateAllItemsEv" PURGE="0" COMMENT="" />
    <EXPORT ORDINAL="1986" NAME="_ZN8QtCharts20QLegendMarkerPrivate18qt_static_metacallEP7QObjectN11QMetaObject4CallEiPPv" PURGE="0" COMMENT="" />
    <EXPORT ORDINAL="1987" NAME="_ZN8QtCharts20QLegendMarkerPrivateC1EPNS_13QLegendMarkerEPNS_7QLegendE" PURGE="0" COMMENT="" />
    <EXPORT ORDINAL="1988" NAME="_ZN8QtCharts20QLegendMarkerPrivateC2EPNS_13QLegendMarkerEPNS_7QLegendE" PURGE="0" COMMENT="" />
    <EXPORT ORDINAL="1989" NAME="_ZN8QtCharts20QLegendMarkerPrivateD0Ev" PURGE="-1" COMMENT="" />
    <EXPORT ORDINAL="1990" NAME="_ZN8QtCharts20QLegendMarkerPrivateD1Ev" PURGE="-1" COMMENT="" />
    <EXPORT ORDINAL="1991" NAME="_ZN8QtCharts20QLegendMarkerPrivateD2Ev" PURGE="-1" COMMENT="" />
    <EXPORT ORDINAL="1992" NAME="_ZN8QtCharts20QLogValueAxisPrivate11qt_metacallEN11QMetaObject4CallEiPPv" PURGE="0" COMMENT="" />
    <EXPORT ORDINAL="1993" NAME="_ZN8QtCharts20QLogValueAxisPrivate11qt_metacastEPKc" PURGE="0" COMMENT="" />
    <EXPORT ORDINAL="1994" NAME="_ZN8QtCharts20QLogValueAxisPrivate15updateTickCountEv" PURGE="0" COMMENT="" />
    <EXPORT ORDINAL="1995" NAME="_ZN8QtCharts20QLogValueAxisPrivate16initializeDomainEPNS_14AbstractDomainE" PURGE="0" COMMENT="" />
    <EXPORT ORDINAL="1996" NAME="_ZN8QtCharts20QLogValueAxisPrivate16staticMetaObjectE" PURGE="-1" COMMENT="" />
    <EXPORT ORDINAL="1997" NAME="_ZN8QtCharts20QLogValueAxisPrivate18initializeGraphicsEP13QGraphicsItem" PURGE="0" COMMENT="" />
    <EXPORT ORDINAL="1998" NAME="_ZN8QtCharts20QLogValueAxisPrivate18qt_static_metacallEP7QObjectN11QMetaObject4CallEiPPv" PURGE="0" COMMENT="" />
    <EXPORT ORDINAL="1999" NAME="_ZN8QtCharts20QLogValueAxisPrivate6setMaxERK8QVariant" PURGE="0" COMMENT="" />
    <EXPORT ORDINAL="2000" NAME="_ZN8QtCharts20QLogValueAxisPrivate6setMinERK8QVariant" PURGE="0" COMMENT="" />
    <EXPORT ORDINAL="2001" NAME="_ZN8QtCharts20QLogValueAxisPrivate8setRangeERK8QVariantS3_" PURGE="0" COMMENT="" />
    <EXPORT ORDINAL="2002" NAME="_ZN8QtCharts20QLogValueAxisPrivate8setRangeEdd" PURGE="0" COMMENT="" />
    <EXPORT ORDINAL="2003" NAME="_ZN8QtCharts20QLogValueAxisPrivateC1EPNS_13QLogValueAxisE" PURGE="0" COMMENT="" />
    <EXPORT ORDINAL="2004" NAME="_ZN8QtCharts20QLogValueAxisPrivateC2EPNS_13QLogValueAxisE" PURGE="0" COMMENT="" />
    <EXPORT ORDINAL="2005" NAME="_ZN8QtCharts20QLogValueAxisPrivateD0Ev" PURGE="-1" COMMENT="" />
    <EXPORT ORDINAL="2006" NAME="_ZN8QtCharts20QLogValueAxisPrivateD1Ev" PURGE="-1" COMMENT="" />
    <EXPORT ORDINAL="2007" NAME="_ZN8QtCharts20QLogValueAxisPrivateD2Ev" PURGE="-1" COMMENT="" />
    <EXPORT ORDINAL="2008" NAME="_ZN8QtCharts20QSplineSeriesPrivate11qt_metacallEN11QMetaObject4CallEiPPv" PURGE="0" COMMENT="" />
    <EXPORT ORDINAL="2009" NAME="_ZN8QtCharts20QSplineSeriesPrivate11qt_metacastEPKc" PURGE="0" COMMENT="" />
    <EXPORT ORDINAL="2010" NAME="_ZN8QtCharts20QSplineSeriesPrivate15initializeThemeEiPNS_10ChartThemeEb" PURGE="0" COMMENT="" />
    <EXPORT ORDINAL="2011" NAME="_ZN8QtCharts20QSplineSeriesPrivate16staticMetaObjectE" PURGE="-1" COMMENT="" />
    <EXPORT ORDINAL="2012" NAME="_ZN8QtCharts20QSplineSeriesPrivate18initializeGraphicsEP13QGraphicsItem" PURGE="0" COMMENT="" />
    <EXPORT ORDINAL="2013" NAME="_ZN8QtCharts20QSplineSeriesPrivate18qt_static_metacallEP7QObjectN11QMetaObject4CallEiPPv" PURGE="0" COMMENT="" />
    <EXPORT ORDINAL="2014" NAME="_ZN8QtCharts20QSplineSeriesPrivate20initializeAnimationsE6QFlagsINS_6QChart15AnimationOptionEEiR12QEasingCurve" PURGE="0" COMMENT="" />
    <EXPORT ORDINAL="2015" NAME="_ZN8QtCharts20QSplineSeriesPrivateC1EPNS_13QSplineSeriesE" PURGE="0" COMMENT="" />
    <EXPORT ORDINAL="2016" NAME="_ZN8QtCharts20QSplineSeriesPrivateC2EPNS_13QSplineSeriesE" PURGE="0" COMMENT="" />
    <EXPORT ORDINAL="2017" NAME="_ZN8QtCharts20QVBoxPlotModelMapper11qt_metacallEN11QMetaObject4CallEiPPv" PURGE="0" COMMENT="" />
    <EXPORT ORDINAL="2018" NAME="_ZN8QtCharts20QVBoxPlotModelMapper11qt_metacastEPKc" PURGE="0" COMMENT="" />
    <EXPORT ORDINAL="2019" NAME="_ZN8QtCharts20QVBoxPlotModelMapper11setFirstRowEi" PURGE="0" COMMENT="" />
    <EXPORT ORDINAL="2020" NAME="_ZN8QtCharts20QVBoxPlotModelMapper11setRowCountEi" PURGE="0" COMMENT="" />
    <EXPORT ORDINAL="2021" NAME="_ZN8QtCharts20QVBoxPlotModelMapper13modelReplacedEv" PURGE="-1" COMMENT="" />
    <EXPORT ORDINAL="2022" NAME="_ZN8QtCharts20QVBoxPlotModelMapper14seriesReplacedEv" PURGE="-1" COMMENT="" />
    <EXPORT ORDINAL="2023" NAME="_ZN8QtCharts20QVBoxPlotModelMapper15firstRowChangedEv" PURGE="-1" COMMENT="" />
    <EXPORT ORDINAL="2024" NAME="_ZN8QtCharts20QVBoxPlotModelMapper15rowCountChangedEv" PURGE="-1" COMMENT="" />
    <EXPORT ORDINAL="2025" NAME="_ZN8QtCharts20QVBoxPlotModelMapper16staticMetaObjectE" PURGE="-1" COMMENT="" />
    <EXPORT ORDINAL="2026" NAME="_ZN8QtCharts20QVBoxPlotModelMapper18qt_static_metacallEP7QObjectN11QMetaObject4CallEiPPv" PURGE="0" COMMENT="" />
    <EXPORT ORDINAL="2027" NAME="_ZN8QtCharts20QVBoxPlotModelMapper19setLastBoxSetColumnEi" PURGE="0" COMMENT="" />
    <EXPORT ORDINAL="2028" NAME="_ZN8QtCharts20QVBoxPlotModelMapper20setFirstBoxSetColumnEi" PURGE="0" COMMENT="" />
    <EXPORT ORDINAL="2029" NAME="_ZN8QtCharts20QVBoxPlotModelMapper23lastBoxSetColumnChangedEv" PURGE="-1" COMMENT="" />
    <EXPORT ORDINAL="2030" NAME="_ZN8QtCharts20QVBoxPlotModelMapper24firstBoxSetColumnChangedEv" PURGE="-1" COMMENT="" />
    <EXPORT ORDINAL="2031" NAME="_ZN8QtCharts20QVBoxPlotModelMapper8setModelEP18QAbstractItemModel" PURGE="0" COMMENT="" />
    <EXPORT ORDINAL="2032" NAME="_ZN8QtCharts20QVBoxPlotModelMapper9setSeriesEPNS_14QBoxPlotSeriesE" PURGE="0" COMMENT="" />
    <EXPORT ORDINAL="2033" NAME="_ZN8QtCharts20QVBoxPlotModelMapperC1EP7QObject" PURGE="0" COMMENT="" />
    <EXPORT ORDINAL="2034" NAME="_ZN8QtCharts20QVBoxPlotModelMapperC2EP7QObject" PURGE="0" COMMENT="" />
    <EXPORT ORDINAL="2035" NAME="_ZN8QtCharts21ChartBarCategoryAxisX11qt_metacallEN11QMetaObject4CallEiPPv" PURGE="0" COMMENT="" />
    <EXPORT ORDINAL="2036" NAME="_ZN8QtCharts21ChartBarCategoryAxisX11qt_metacastEPKc" PURGE="0" COMMENT="" />
    <EXPORT ORDINAL="2037" NAME="_ZN8QtCharts21ChartBarCategoryAxisX14updateGeometryEv" PURGE="0" COMMENT="" />
    <EXPORT ORDINAL="2038" NAME="_ZN8QtCharts21ChartBarCategoryAxisX16staticMetaObjectE" PURGE="-1" COMMENT="" />
    <EXPORT ORDINAL="2039" NAME="_ZN8QtCharts21ChartBarCategoryAxisX18qt_static_metacallEP7QObjectN11QMetaObject4CallEiPPv" PURGE="0" COMMENT="" />
    <EXPORT ORDINAL="2040" NAME="_ZN8QtCharts21ChartBarCategoryAxisX23handleCategoriesChangedEv" PURGE="0" COMMENT="" />
    <EXPORT ORDINAL="2041" NAME="_ZN8QtCharts21ChartBarCategoryAxisXC1EPNS_16QBarCategoryAxisEP13QGraphicsItem" PURGE="0" COMMENT="" />
    <EXPORT ORDINAL="2042" NAME="_ZN8QtCharts21ChartBarCategoryAxisXC2EPNS_16QBarCategoryAxisEP13QGraphicsItem" PURGE="0" COMMENT="" />
    <EXPORT ORDINAL="2043" NAME="_ZN8QtCharts21ChartBarCategoryAxisXD0Ev" PURGE="-1" COMMENT="" />
    <EXPORT ORDINAL="2044" NAME="_ZN8QtCharts21ChartBarCategoryAxisXD1Ev" PURGE="-1" COMMENT="" />
    <EXPORT ORDINAL="2045" NAME="_ZN8QtCharts21ChartBarCategoryAxisXD2Ev" PURGE="-1" COMMENT="" />
    <EXPORT ORDINAL="2046" NAME="_ZN8QtCharts21ChartBarCategoryAxisY11qt_metacallEN11QMetaObject4CallEiPPv" PURGE="0" COMMENT="" />
    <EXPORT ORDINAL="2047" NAME="_ZN8QtCharts21ChartBarCategoryAxisY11qt_metacastEPKc" PURGE="0" COMMENT="" />
    <EXPORT ORDINAL="2048" NAME="_ZN8QtCharts21ChartBarCategoryAxisY14updateGeometryEv" PURGE="0" COMMENT="" />
    <EXPORT ORDINAL="2049" NAME="_ZN8QtCharts21ChartBarCategoryAxisY16staticMetaObjectE" PURGE="-1" COMMENT="" />
    <EXPORT ORDINAL="2050" NAME="_ZN8QtCharts21ChartBarCategoryAxisY18qt_static_metacallEP7QObjectN11QMetaObject4CallEiPPv" PURGE="0" COMMENT="" />
    <EXPORT ORDINAL="2051" NAME="_ZN8QtCharts21ChartBarCategoryAxisY23handleCategoriesChangedEv" PURGE="0" COMMENT="" />
    <EXPORT ORDINAL="2052" NAME="_ZN8QtCharts21ChartBarCategoryAxisYC1EPNS_16QBarCategoryAxisEP13QGraphicsItem" PURGE="0" COMMENT="" />
    <EXPORT ORDINAL="2053" NAME="_ZN8QtCharts21ChartBarCategoryAxisYC2EPNS_16QBarCategoryAxisEP13QGraphicsItem" PURGE="0" COMMENT="" />
    <EXPORT ORDINAL="2054" NAME="_ZN8QtCharts21ChartBarCategoryAxisYD0Ev" PURGE="-1" COMMENT="" />
    <EXPORT ORDINAL="2055" NAME="_ZN8QtCharts21ChartBarCategoryAxisYD1Ev" PURGE="-1" COMMENT="" />
    <EXPORT ORDINAL="2056" NAME="_ZN8QtCharts21ChartBarCategoryAxisYD2Ev" PURGE="-1" COMMENT="" />
    <EXPORT ORDINAL="2057" NAME="_ZN8QtCharts21GLXYSeriesDataManager11qt_metacallEN11QMetaObject4CallEiPPv" PURGE="0" COMMENT="" />
    <EXPORT ORDINAL="2058" NAME="_ZN8QtCharts21GLXYSeriesDataManager11qt_metacastEPKc" PURGE="0" COMMENT="" />
    <EXPORT ORDINAL="2059" NAME="_ZN8QtCharts21GLXYSeriesDataManager12removeSeriesEPKNS_9QXYSeriesE" PURGE="0" COMMENT="" />
    <EXPORT ORDINAL="2060" NAME="_ZN8QtCharts21GLXYSeriesDataManager13seriesRemovedEPKNS_9QXYSeriesE" PURGE="0" COMMENT="" />
    <EXPORT ORDINAL="2061" NAME="_ZN8QtCharts21GLXYSeriesDataManager16staticMetaObjectE" PURGE="-1" COMMENT="" />
    <EXPORT ORDINAL="2062" NAME="_ZN8QtCharts21GLXYSeriesDataManager18qt_static_metacallEP7QObjectN11QMetaObject4CallEiPPv" PURGE="0" COMMENT="" />
    <EXPORT ORDINAL="2063" NAME="_ZN8QtCharts21GLXYSeriesDataManager21handleSeriesPenChangeEv" PURGE="0" COMMENT="" />
    <EXPORT ORDINAL="2064" NAME="_ZN8QtCharts21GLXYSeriesDataManager24handleAxisReverseChangedERK5QListIPNS_15QAbstractSeriesEE" PURGE="0" COMMENT="" />
    <EXPORT ORDINAL="2065" NAME="_ZN8QtCharts21GLXYSeriesDataManager24handleScatterColorChangeEv" PURGE="0" COMMENT="" />
    <EXPORT ORDINAL="2066" NAME="_ZN8QtCharts21GLXYSeriesDataManager24handleSeriesOpenGLChangeEv" PURGE="0" COMMENT="" />
    <EXPORT ORDINAL="2067" NAME="_ZN8QtCharts21GLXYSeriesDataManager28handleSeriesVisibilityChangeEv" PURGE="0" COMMENT="" />
    <EXPORT ORDINAL="2068" NAME="_ZN8QtCharts21GLXYSeriesDataManager29handleScatterMarkerSizeChangeEv" PURGE="0" COMMENT="" />
    <EXPORT ORDINAL="2069" NAME="_ZN8QtCharts21GLXYSeriesDataManager7cleanupEv" PURGE="0" COMMENT="" />
    <EXPORT ORDINAL="2070" NAME="_ZN8QtCharts21GLXYSeriesDataManager9setPointsEPNS_9QXYSeriesEPKNS_14AbstractDomainE" PURGE="0" COMMENT="" />
    <EXPORT ORDINAL="2071" NAME="_ZN8QtCharts21GLXYSeriesDataManagerC1EP7QObject" PURGE="0" COMMENT="" />
    <EXPORT ORDINAL="2072" NAME="_ZN8QtCharts21GLXYSeriesDataManagerC2EP7QObject" PURGE="0" COMMENT="" />
    <EXPORT ORDINAL="2073" NAME="_ZN8QtCharts21GLXYSeriesDataManagerD0Ev" PURGE="-1" COMMENT="" />
    <EXPORT ORDINAL="2074" NAME="_ZN8QtCharts21GLXYSeriesDataManagerD1Ev" PURGE="-1" COMMENT="" />
    <EXPORT ORDINAL="2075" NAME="_ZN8QtCharts21GLXYSeriesDataManagerD2Ev" PURGE="-1" COMMENT="" />
    <EXPORT ORDINAL="2076" NAME="_ZN8QtCharts21PolarChartAxisAngular11createItemsEi" PURGE="0" COMMENT="" />
    <EXPORT ORDINAL="2077" NAME="_ZN8QtCharts21PolarChartAxisAngular11qt_metacallEN11QMetaObject4CallEiPPv" PURGE="0" COMMENT="" />
    <EXPORT ORDINAL="2078" NAME="_ZN8QtCharts21PolarChartAxisAngular11qt_metacastEPKc" PURGE="0" COMMENT="" />
    <EXPORT ORDINAL="2079" NAME="_ZN8QtCharts21PolarChartAxisAngular14updateGeometryEv" PURGE="0" COMMENT="" />
    <EXPORT ORDINAL="2080" NAME="_ZN8QtCharts21PolarChartAxisAngular16staticMetaObjectE" PURGE="-1" COMMENT="" />
    <EXPORT ORDINAL="2081" NAME="_ZN8QtCharts21PolarChartAxisAngular18qt_static_metacallEP7QObjectN11QMetaObject4CallEiPPv" PURGE="0" COMMENT="" />
    <EXPORT ORDINAL="2082" NAME="_ZN8QtCharts21PolarChartAxisAngular19preferredAxisRadiusERK6QSizeF" PURGE="0" COMMENT="" />
    <EXPORT ORDINAL="2083" NAME="_ZN8QtCharts21PolarChartAxisAngular20handleGridPenChangedERK4QPen" PURGE="0" COMMENT="" />
    <EXPORT ORDINAL="2084" NAME="_ZN8QtCharts21PolarChartAxisAngular20updateMinorTickItemsEv" PURGE="0" COMMENT="" />
    <EXPORT ORDINAL="2085" NAME="_ZN8QtCharts21PolarChartAxisAngular21handleArrowPenChangedERK4QPen" PURGE="0" COMMENT="" />
    <EXPORT ORDINAL="2086" NAME="_ZN8QtCharts21PolarChartAxisAngular23updateMinorTickGeometryEv" PURGE="0" COMMENT="" />
    <EXPORT ORDINAL="2087" NAME="_ZN8QtCharts21PolarChartAxisAngular25handleMinorGridPenChangedERK4QPen" PURGE="0" COMMENT="" />
    <EXPORT ORDINAL="2088" NAME="_ZN8QtCharts21PolarChartAxisAngular26handleGridLineColorChangedERK6QColor" PURGE="0" COMMENT="" />
    <EXPORT ORDINAL="2089" NAME="_ZN8QtCharts21PolarChartAxisAngular26handleMinorArrowPenChangedERK4QPen" PURGE="0" COMMENT="" />
    <EXPORT ORDINAL="2090" NAME="_ZN8QtCharts21PolarChartAxisAngular31handleMinorGridLineColorChangedERK6QColor" PURGE="0" COMMENT="" />
    <EXPORT ORDINAL="2091" NAME="_ZN8QtCharts21PolarChartAxisAngularC1EPNS_13QAbstractAxisEP13QGraphicsItemb" PURGE="0" COMMENT="" />
    <EXPORT ORDINAL="2092" NAME="_ZN8QtCharts21PolarChartAxisAngularC2EPNS_13QAbstractAxisEP13QGraphicsItemb" PURGE="0" COMMENT="" />
    <EXPORT ORDINAL="2093" NAME="_ZN8QtCharts21PolarChartAxisAngularD0Ev" PURGE="-1" COMMENT="" />
    <EXPORT ORDINAL="2094" NAME="_ZN8QtCharts21PolarChartAxisAngularD1Ev" PURGE="-1" COMMENT="" />
    <EXPORT ORDINAL="2095" NAME="_ZN8QtCharts21PolarChartAxisAngularD2Ev" PURGE="-1" COMMENT="" />
    <EXPORT ORDINAL="2096" NAME="_ZN8QtCharts21QBoxPlotSeriesPrivate11qt_metacallEN11QMetaObject4CallEiPPv" PURGE="0" COMMENT="" />
    <EXPORT ORDINAL="2097" NAME="_ZN8QtCharts21QBoxPlotSeriesPrivate11qt_metacastEPKc" PURGE="0" COMMENT="" />
    <EXPORT ORDINAL="2098" NAME="_ZN8QtCharts21QBoxPlotSeriesPrivate12updatedBoxesEv" PURGE="-1" COMMENT="" />
    <EXPORT ORDINAL="2099" NAME="_ZN8QtCharts21QBoxPlotSeriesPrivate13doubleClickedEiPNS_7QBoxSetE" PURGE="0" COMMENT="" />
    <EXPORT ORDINAL="2100" NAME="_ZN8QtCharts21QBoxPlotSeriesPrivate13updatedLayoutEv" PURGE="-1" COMMENT="" />
    <EXPORT ORDINAL="2101" NAME="_ZN8QtCharts21QBoxPlotSeriesPrivate14initializeAxesEv" PURGE="0" COMMENT="" />
    <EXPORT ORDINAL="2102" NAME="_ZN8QtCharts21QBoxPlotSeriesPrivate15initializeThemeEiPNS_10ChartThemeEb" PURGE="0" COMMENT="" />
    <EXPORT ORDINAL="2103" NAME="_ZN8QtCharts21QBoxPlotSeriesPrivate16initializeDomainEv" PURGE="0" COMMENT="" />
    <EXPORT ORDINAL="2104" NAME="_ZN8QtCharts21QBoxPlotSeriesPrivate16staticMetaObjectE" PURGE="-1" COMMENT="" />
    <EXPORT ORDINAL="2105" NAME="_ZN8QtCharts21QBoxPlotSeriesPrivate17restructuredBoxesEv" PURGE="-1" COMMENT="" />
    <EXPORT ORDINAL="2106" NAME="_ZN8QtCharts21QBoxPlotSeriesPrivate18handleSeriesChangeEPNS_15QAbstractSeriesE" PURGE="0" COMMENT="" />
    <EXPORT ORDINAL="2107" NAME="_ZN8QtCharts21QBoxPlotSeriesPrivate18handleSeriesRemoveEPNS_15QAbstractSeriesE" PURGE="0" COMMENT="" />
    <EXPORT ORDINAL="2108" NAME="_ZN8QtCharts21QBoxPlotSeriesPrivate18initializeGraphicsEP13QGraphicsItem" PURGE="0" COMMENT="" />
    <EXPORT ORDINAL="2109" NAME="_ZN8QtCharts21QBoxPlotSeriesPrivate18populateCategoriesEPNS_16QBarCategoryAxisE" PURGE="0" COMMENT="" />
    <EXPORT ORDINAL="2110" NAME="_ZN8QtCharts21QBoxPlotSeriesPrivate18qt_static_metacallEP7QObjectN11QMetaObject4CallEiPPv" PURGE="0" COMMENT="" />
    <EXPORT ORDINAL="2111" NAME="_ZN8QtCharts21QBoxPlotSeriesPrivate19createLegendMarkersEPNS_7QLegendE" PURGE="0" COMMENT="" />
    <EXPORT ORDINAL="2112" NAME="_ZN8QtCharts21QBoxPlotSeriesPrivate20initializeAnimationsE6QFlagsINS_6QChart15AnimationOptionEEiR12QEasingCurve" PURGE="0" COMMENT="" />
    <EXPORT ORDINAL="2113" NAME="_ZN8QtCharts21QBoxPlotSeriesPrivate3maxEv" PURGE="0" COMMENT="" />
    <EXPORT ORDINAL="2114" NAME="_ZN8QtCharts21QBoxPlotSeriesPrivate3minEv" PURGE="0" COMMENT="" />
    <EXPORT ORDINAL="2115" NAME="_ZN8QtCharts21QBoxPlotSeriesPrivate6appendE5QListIPNS_7QBoxSetEE" PURGE="0" COMMENT="" />
    <EXPORT ORDINAL="2116" NAME="_ZN8QtCharts21QBoxPlotSeriesPrivate6appendEPNS_7QBoxSetE" PURGE="0" COMMENT="" />
    <EXPORT ORDINAL="2117" NAME="_ZN8QtCharts21QBoxPlotSeriesPrivate6insertEiPNS_7QBoxSetE" PURGE="0" COMMENT="" />
    <EXPORT ORDINAL="2118" NAME="_ZN8QtCharts21QBoxPlotSeriesPrivate6removeE5QListIPNS_7QBoxSetEE" PURGE="0" COMMENT="" />
    <EXPORT ORDINAL="2119" NAME="_ZN8QtCharts21QBoxPlotSeriesPrivate6removeEPNS_7QBoxSetE" PURGE="0" COMMENT="" />
    <EXPORT ORDINAL="2120" NAME="_ZN8QtCharts21QBoxPlotSeriesPrivate7clickedEiPNS_7QBoxSetE" PURGE="0" COMMENT="" />
    <EXPORT ORDINAL="2121" NAME="_ZN8QtCharts21QBoxPlotSeriesPrivate7pressedEiPNS_7QBoxSetE" PURGE="0" COMMENT="" />
    <EXPORT ORDINAL="2122" NAME="_ZN8QtCharts21QBoxPlotSeriesPrivate7updatedEv" PURGE="-1" COMMENT="" />
    <EXPORT ORDINAL="2123" NAME="_ZN8QtCharts21QBoxPlotSeriesPrivate8boxSetAtEi" PURGE="0" COMMENT="" />
    <EXPORT ORDINAL="2124" NAME="_ZN8QtCharts21QBoxPlotSeriesPrivate8releasedEiPNS_7QBoxSetE" PURGE="0" COMMENT="" />
    <EXPORT ORDINAL="2125" NAME="_ZN8QtCharts21QBoxPlotSeriesPrivateC1EPNS_14QBoxPlotSeriesE" PURGE="0" COMMENT="" />
    <EXPORT ORDINAL="2126" NAME="_ZN8QtCharts21QBoxPlotSeriesPrivateC2EPNS_14QBoxPlotSeriesE" PURGE="0" COMMENT="" />
    <EXPORT ORDINAL="2127" NAME="_ZN8QtCharts21QBoxPlotSeriesPrivateD0Ev" PURGE="-1" COMMENT="" />
    <EXPORT ORDINAL="2128" NAME="_ZN8QtCharts21QBoxPlotSeriesPrivateD1Ev" PURGE="-1" COMMENT="" />
    <EXPORT ORDINAL="2129" NAME="_ZN8QtCharts21QBoxPlotSeriesPrivateD2Ev" PURGE="-1" COMMENT="" />
    <EXPORT ORDINAL="2130" NAME="_ZN8QtCharts21QScatterSeriesPrivate15initializeThemeEiPNS_10ChartThemeEb" PURGE="0" COMMENT="" />
    <EXPORT ORDINAL="2131" NAME="_ZN8QtCharts21QScatterSeriesPrivate18initializeGraphicsEP13QGraphicsItem" PURGE="0" COMMENT="" />
    <EXPORT ORDINAL="2132" NAME="_ZN8QtCharts21QScatterSeriesPrivate20initializeAnimationsE6QFlagsINS_6QChart15AnimationOptionEEiR12QEasingCurve" PURGE="0" COMMENT="" />
    <EXPORT ORDINAL="2133" NAME="_ZN8QtCharts21QScatterSeriesPrivateC1EPNS_14QScatterSeriesE" PURGE="0" COMMENT="" />
    <EXPORT ORDINAL="2134" NAME="_ZN8QtCharts21QScatterSeriesPrivateC2EPNS_14QScatterSeriesE" PURGE="0" COMMENT="" />
    <EXPORT ORDINAL="2135" NAME="_ZN8QtCharts21QXYModelMapperPrivate10insertDataEii" PURGE="0" COMMENT="" />
    <EXPORT ORDINAL="2136" NAME="_ZN8QtCharts21QXYModelMapperPrivate10removeDataEii" PURGE="0" COMMENT="" />
    <EXPORT ORDINAL="2137" NAME="_ZN8QtCharts21QXYModelMapperPrivate11qt_metacallEN11QMetaObject4CallEiPPv" PURGE="0" COMMENT="" />
    <EXPORT ORDINAL="2138" NAME="_ZN8QtCharts21QXYModelMapperPrivate11qt_metacastEPKc" PURGE="0" COMMENT="" />
    <EXPORT ORDINAL="2139" NAME="_ZN8QtCharts21QXYModelMapperPrivate11xModelIndexEi" PURGE="0" COMMENT="" />
    <EXPORT ORDINAL="2140" NAME="_ZN8QtCharts21QXYModelMapperPrivate11yModelIndexEi" PURGE="0" COMMENT="" />
    <EXPORT ORDINAL="2141" NAME="_ZN8QtCharts21QXYModelMapperPrivate12modelUpdatedE11QModelIndexS1_" PURGE="0" COMMENT="" />
    <EXPORT ORDINAL="2142" NAME="_ZN8QtCharts21QXYModelMapperPrivate14modelRowsAddedE11QModelIndexii" PURGE="0" COMMENT="" />
    <EXPORT ORDINAL="2143" NAME="_ZN8QtCharts21QXYModelMapperPrivate14valueFromModelE11QModelIndex" PURGE="0" COMMENT="" />
    <EXPORT ORDINAL="2144" NAME="_ZN8QtCharts21QXYModelMapperPrivate15setValueToModelE11QModelIndexd" PURGE="0" COMMENT="" />
    <EXPORT ORDINAL="2145" NAME="_ZN8QtCharts21QXYModelMapperPrivate16handlePointAddedEi" PURGE="0" COMMENT="" />
    <EXPORT ORDINAL="2146" NAME="_ZN8QtCharts21QXYModelMapperPrivate16modelRowsRemovedE11QModelIndexii" PURGE="0" COMMENT="" />
    <EXPORT ORDINAL="2147" NAME="_ZN8QtCharts21QXYModelMapperPrivate16staticMetaObjectE" PURGE="-1" COMMENT="" />
    <EXPORT ORDINAL="2148" NAME="_ZN8QtCharts21QXYModelMapperPrivate17blockModelSignalsEb" PURGE="0" COMMENT="" />
    <EXPORT ORDINAL="2149" NAME="_ZN8QtCharts21QXYModelMapperPrivate17modelColumnsAddedE11QModelIndexii" PURGE="0" COMMENT="" />
    <EXPORT ORDINAL="2150" NAME="_ZN8QtCharts21QXYModelMapperPrivate18blockSeriesSignalsEb" PURGE="0" COMMENT="" />
    <EXPORT ORDINAL="2151" NAME="_ZN8QtCharts21QXYModelMapperPrivate18handlePointRemovedEi" PURGE="0" COMMENT="" />
    <EXPORT ORDINAL="2152" NAME="_ZN8QtCharts21QXYModelMapperPrivate18qt_static_metacallEP7QObjectN11QMetaObject4CallEiPPv" PURGE="0" COMMENT="" />
    <EXPORT ORDINAL="2153" NAME="_ZN8QtCharts21QXYModelMapperPrivate19handlePointReplacedEi" PURGE="0" COMMENT="" />
    <EXPORT ORDINAL="2154" NAME="_ZN8QtCharts21QXYModelMapperPrivate19handlePointsRemovedEii" PURGE="0" COMMENT="" />
    <EXPORT ORDINAL="2155" NAME="_ZN8QtCharts21QXYModelMapperPrivate19modelColumnsRemovedE11QModelIndexii" PURGE="0" COMMENT="" />
    <EXPORT ORDINAL="2156" NAME="_ZN8QtCharts21QXYModelMapperPrivate20handleModelDestroyedEv" PURGE="0" COMMENT="" />
    <EXPORT ORDINAL="2157" NAME="_ZN8QtCharts21QXYModelMapperPrivate21handleSeriesDestroyedEv" PURGE="0" COMMENT="" />
    <EXPORT ORDINAL="2158" NAME="_ZN8QtCharts21QXYModelMapperPrivate21initializeXYFromModelEv" PURGE="0" COMMENT="" />
    <EXPORT ORDINAL="2159" NAME="_ZN8QtCharts21QXYModelMapperPrivateC1EPNS_14QXYModelMapperE" PURGE="0" COMMENT="" />
    <EXPORT ORDINAL="2160" NAME="_ZN8QtCharts21QXYModelMapperPrivateC2EPNS_14QXYModelMapperE" PURGE="0" COMMENT="" />
    <EXPORT ORDINAL="2161" NAME="_ZN8QtCharts22HorizontalBarChartItem11qt_metacallEN11QMetaObject4CallEiPPv" PURGE="0" COMMENT="" />
    <EXPORT ORDINAL="2162" NAME="_ZN8QtCharts22HorizontalBarChartItem11qt_metacastEPKc" PURGE="0" COMMENT="" />
    <EXPORT ORDINAL="2163" NAME="_ZN8QtCharts22HorizontalBarChartItem12topLeftPointEiiidd" PURGE="0" COMMENT="" />
    <EXPORT ORDINAL="2164" NAME="_ZN8QtCharts22HorizontalBarChartItem15calculateLayoutEv" PURGE="0" COMMENT="" />
    <EXPORT ORDINAL="2165" NAME="_ZN8QtCharts22HorizontalBarChartItem16bottomRightPointEiiidd" PURGE="0" COMMENT="" />
    <EXPORT ORDINAL="2166" NAME="_ZN8QtCharts22HorizontalBarChartItem16initializeLayoutEiiib" PURGE="0" COMMENT="" />
    <EXPORT ORDINAL="2167" NAME="_ZN8QtCharts22HorizontalBarChartItem16staticMetaObjectE" PURGE="-1" COMMENT="" />
    <EXPORT ORDINAL="2168" NAME="_ZN8QtCharts22HorizontalBarChartItem18qt_static_metacallEP7QObjectN11QMetaObject4CallEiPPv" PURGE="0" COMMENT="" />
    <EXPORT ORDINAL="2169" NAME="_ZN8QtCharts22HorizontalBarChartItemC1EPNS_18QAbstractBarSeriesEP13QGraphicsItem" PURGE="0" COMMENT="" />
    <EXPORT ORDINAL="2170" NAME="_ZN8QtCharts22HorizontalBarChartItemC2EPNS_18QAbstractBarSeriesEP13QGraphicsItem" PURGE="0" COMMENT="" />
    <EXPORT ORDINAL="2171" NAME="_ZN8QtCharts22QAbstractSeriesPrivate11qt_metacallEN11QMetaObject4CallEiPPv" PURGE="0" COMMENT="" />
    <EXPORT ORDINAL="2172" NAME="_ZN8QtCharts22QAbstractSeriesPrivate11qt_metacastEPKc" PURGE="0" COMMENT="" />
    <EXPORT ORDINAL="2173" NAME="_ZN8QtCharts22QAbstractSeriesPrivate12countChangedEv" PURGE="-1" COMMENT="" />
    <EXPORT ORDINAL="2174" NAME="_ZN8QtCharts22QAbstractSeriesPrivate12setPresenterEPNS_14ChartPresenterE" PURGE="0" COMMENT="" />
    <EXPORT ORDINAL="2175" NAME="_ZN8QtCharts22QAbstractSeriesPrivate14setBlockOpenGLEb" PURGE="0" COMMENT="" />
    <EXPORT ORDINAL="2176" NAME="_ZN8QtCharts22QAbstractSeriesPrivate16staticMetaObjectE" PURGE="-1" COMMENT="" />
    <EXPORT ORDINAL="2177" NAME="_ZN8QtCharts22QAbstractSeriesPrivate18initializeGraphicsEP13QGraphicsItem" PURGE="0" COMMENT="" />
    <EXPORT ORDINAL="2178" NAME="_ZN8QtCharts22QAbstractSeriesPrivate18qt_static_metacallEP7QObjectN11QMetaObject4CallEiPPv" PURGE="0" COMMENT="" />
    <EXPORT ORDINAL="2179" NAME="_ZN8QtCharts22QAbstractSeriesPrivate20initializeAnimationsE6QFlagsINS_6QChart15AnimationOptionEEiR12QEasingCurve" PURGE="0" COMMENT="" />
    <EXPORT ORDINAL="2180" NAME="_ZN8QtCharts22QAbstractSeriesPrivate9setDomainEPNS_14AbstractDomainE" PURGE="0" COMMENT="" />
    <EXPORT ORDINAL="2181" NAME="_ZN8QtCharts22QAbstractSeriesPrivateC1EPNS_15QAbstractSeriesE" PURGE="0" COMMENT="" />
    <EXPORT ORDINAL="2182" NAME="_ZN8QtCharts22QAbstractSeriesPrivateC2EPNS_15QAbstractSeriesE" PURGE="0" COMMENT="" />
    <EXPORT ORDINAL="2183" NAME="_ZN8QtCharts22QAbstractSeriesPrivateD0Ev" PURGE="-1" COMMENT="" />
    <EXPORT ORDINAL="2184" NAME="_ZN8QtCharts22QAbstractSeriesPrivateD1Ev" PURGE="-1" COMMENT="" />
    <EXPORT ORDINAL="2185" NAME="_ZN8QtCharts22QAbstractSeriesPrivateD2Ev" PURGE="-1" COMMENT="" />
    <EXPORT ORDINAL="2186" NAME="_ZN8QtCharts22QBarModelMapperPrivate10insertDataEii" PURGE="0" COMMENT="" />
    <EXPORT ORDINAL="2187" NAME="_ZN8QtCharts22QBarModelMapperPrivate10removeDataEii" PURGE="0" COMMENT="" />
    <EXPORT ORDINAL="2188" NAME="_ZN8QtCharts22QBarModelMapperPrivate11qt_metacallEN11QMetaObject4CallEiPPv" PURGE="0" COMMENT="" />
    <EXPORT ORDINAL="2189" NAME="_ZN8QtCharts22QBarModelMapperPrivate11qt_metacastEPKc" PURGE="0" COMMENT="" />
    <EXPORT ORDINAL="2190" NAME="_ZN8QtCharts22QBarModelMapperPrivate11valuesAddedEii" PURGE="0" COMMENT="" />
    <EXPORT ORDINAL="2191" NAME="_ZN8QtCharts22QBarModelMapperPrivate12barSetsAddedE5QListIPNS_7QBarSetEE" PURGE="0" COMMENT="" />
    <EXPORT ORDINAL="2192" NAME="_ZN8QtCharts22QBarModelMapperPrivate12modelUpdatedE11QModelIndexS1_" PURGE="0" COMMENT="" />
    <EXPORT ORDINAL="2193" NAME="_ZN8QtCharts22QBarModelMapperPrivate13barModelIndexEii" PURGE="0" COMMENT="" />
    <EXPORT ORDINAL="2194" NAME="_ZN8QtCharts22QBarModelMapperPrivate13valuesRemovedEii" PURGE="0" COMMENT="" />
    <EXPORT ORDINAL="2195" NAME="_ZN8QtCharts22QBarModelMapperPrivate14barSetsRemovedE5QListIPNS_7QBarSetEE" PURGE="0" COMMENT="" />
    <EXPORT ORDINAL="2196" NAME="_ZN8QtCharts22QBarModelMapperPrivate14modelRowsAddedE11QModelIndexii" PURGE="0" COMMENT="" />
    <EXPORT ORDINAL="2197" NAME="_ZN8QtCharts22QBarModelMapperPrivate15barLabelChangedEv" PURGE="0" COMMENT="" />
    <EXPORT ORDINAL="2198" NAME="_ZN8QtCharts22QBarModelMapperPrivate15barValueChangedEi" PURGE="0" COMMENT="" />
    <EXPORT ORDINAL="2199" NAME="_ZN8QtCharts22QBarModelMapperPrivate16modelRowsRemovedE11QModelIndexii" PURGE="0" COMMENT="" />
    <EXPORT ORDINAL="2200" NAME="_ZN8QtCharts22QBarModelMapperPrivate16staticMetaObjectE" PURGE="-1" COMMENT="" />
    <EXPORT ORDINAL="2201" NAME="_ZN8QtCharts22QBarModelMapperPrivate17blockModelSignalsEb" PURGE="0" COMMENT="" />
    <EXPORT ORDINAL="2202" NAME="_ZN8QtCharts22QBarModelMapperPrivate17modelColumnsAddedE11QModelIndexii" PURGE="0" COMMENT="" />
    <EXPORT ORDINAL="2203" NAME="_ZN8QtCharts22QBarModelMapperPrivate18blockSeriesSignalsEb" PURGE="0" COMMENT="" />
    <EXPORT ORDINAL="2204" NAME="_ZN8QtCharts22QBarModelMapperPrivate18qt_static_metacallEP7QObjectN11QMetaObject4CallEiPPv" PURGE="0" COMMENT="" />
    <EXPORT ORDINAL="2205" NAME="_ZN8QtCharts22QBarModelMapperPrivate19modelColumnsRemovedE11QModelIndexii" PURGE="0" COMMENT="" />
    <EXPORT ORDINAL="2206" NAME="_ZN8QtCharts22QBarModelMapperPrivate20handleModelDestroyedEv" PURGE="0" COMMENT="" />
    <EXPORT ORDINAL="2207" NAME="_ZN8QtCharts22QBarModelMapperPrivate21handleSeriesDestroyedEv" PURGE="0" COMMENT="" />
    <EXPORT ORDINAL="2208" NAME="_ZN8QtCharts22QBarModelMapperPrivate22initializeBarFromModelEv" PURGE="0" COMMENT="" />
    <EXPORT ORDINAL="2209" NAME="_ZN8QtCharts22QBarModelMapperPrivate22modelHeaderDataUpdatedEN2Qt11OrientationEii" PURGE="0" COMMENT="" />
    <EXPORT ORDINAL="2210" NAME="_ZN8QtCharts22QBarModelMapperPrivate6barSetE11QModelIndex" PURGE="0" COMMENT="" />
    <EXPORT ORDINAL="2211" NAME="_ZN8QtCharts22QBarModelMapperPrivateC1EPNS_15QBarModelMapperE" PURGE="0" COMMENT="" />
    <EXPORT ORDINAL="2212" NAME="_ZN8QtCharts22QBarModelMapperPrivateC2EPNS_15QBarModelMapperE" PURGE="0" COMMENT="" />
    <EXPORT ORDINAL="2213" NAME="_ZN8QtCharts22QCandlestickSetPrivate11qt_metacallEN11QMetaObject4CallEiPPv" PURGE="0" COMMENT="" />
    <EXPORT ORDINAL="2214" NAME="_ZN8QtCharts22QCandlestickSetPrivate11qt_metacastEPKc" PURGE="0" COMMENT="" />
    <EXPORT ORDINAL="2215" NAME="_ZN8QtCharts22QCandlestickSetPrivate12setTimestampEd" PURGE="0" COMMENT="" />
    <EXPORT ORDINAL="2216" NAME="_ZN8QtCharts22QCandlestickSetPrivate13updatedLayoutEv" PURGE="-1" COMMENT="" />
    <EXPORT ORDINAL="2217" NAME="_ZN8QtCharts22QCandlestickSetPrivate16staticMetaObjectE" PURGE="-1" COMMENT="" />
    <EXPORT ORDINAL="2218" NAME="_ZN8QtCharts22QCandlestickSetPrivate18qt_static_metacallEP7QObjectN11QMetaObject4CallEiPPv" PURGE="0" COMMENT="" />
    <EXPORT ORDINAL="2219" NAME="_ZN8QtCharts22QCandlestickSetPrivate18updatedCandlestickEv" PURGE="-1" COMMENT="" />
    <EXPORT ORDINAL="2220" NAME="_ZN8QtCharts22QCandlestickSetPrivateC1EdPNS_15QCandlestickSetE" PURGE="0" COMMENT="" />
    <EXPORT ORDINAL="2221" NAME="_ZN8QtCharts22QCandlestickSetPrivateC2EdPNS_15QCandlestickSetE" PURGE="0" COMMENT="" />
    <EXPORT ORDINAL="2222" NAME="_ZN8QtCharts22QCandlestickSetPrivateD0Ev" PURGE="-1" COMMENT="" />
    <EXPORT ORDINAL="2223" NAME="_ZN8QtCharts22QCandlestickSetPrivateD1Ev" PURGE="-1" COMMENT="" />
    <EXPORT ORDINAL="2224" NAME="_ZN8QtCharts22QCandlestickSetPrivateD2Ev" PURGE="-1" COMMENT="" />
    <EXPORT ORDINAL="2225" NAME="_ZN8QtCharts22QPieModelMapperPrivate10insertDataEii" PURGE="0" COMMENT="" />
    <EXPORT ORDINAL="2226" NAME="_ZN8QtCharts22QPieModelMapperPrivate10removeDataEii" PURGE="0" COMMENT="" />
    <EXPORT ORDINAL="2227" NAME="_ZN8QtCharts22QPieModelMapperPrivate11qt_metacallEN11QMetaObject4CallEiPPv" PURGE="0" COMMENT="" />
    <EXPORT ORDINAL="2228" NAME="_ZN8QtCharts22QPieModelMapperPrivate11qt_metacastEPKc" PURGE="0" COMMENT="" />
    <EXPORT ORDINAL="2229" NAME="_ZN8QtCharts22QPieModelMapperPrivate11slicesAddedE5QListIPNS_9QPieSliceEE" PURGE="0" COMMENT="" />
    <EXPORT ORDINAL="2230" NAME="_ZN8QtCharts22QPieModelMapperPrivate12modelUpdatedE11QModelIndexS1_" PURGE="0" COMMENT="" />
    <EXPORT ORDINAL="2231" NAME="_ZN8QtCharts22QPieModelMapperPrivate13slicesRemovedE5QListIPNS_9QPieSliceEE" PURGE="0" COMMENT="" />
    <EXPORT ORDINAL="2232" NAME="_ZN8QtCharts22QPieModelMapperPrivate14modelRowsAddedE11QModelIndexii" PURGE="0" COMMENT="" />
    <EXPORT ORDINAL="2233" NAME="_ZN8QtCharts22QPieModelMapperPrivate15labelModelIndexEi" PURGE="0" COMMENT="" />
    <EXPORT ORDINAL="2234" NAME="_ZN8QtCharts22QPieModelMapperPrivate15valueModelIndexEi" PURGE="0" COMMENT="" />
    <EXPORT ORDINAL="2235" NAME="_ZN8QtCharts22QPieModelMapperPrivate16modelRowsRemovedE11QModelIndexii" PURGE="0" COMMENT="" />
    <EXPORT ORDINAL="2236" NAME="_ZN8QtCharts22QPieModelMapperPrivate16staticMetaObjectE" PURGE="-1" COMMENT="" />
    <EXPORT ORDINAL="2237" NAME="_ZN8QtCharts22QPieModelMapperPrivate17blockModelSignalsEb" PURGE="0" COMMENT="" />
    <EXPORT ORDINAL="2238" NAME="_ZN8QtCharts22QPieModelMapperPrivate17modelColumnsAddedE11QModelIndexii" PURGE="0" COMMENT="" />
    <EXPORT ORDINAL="2239" NAME="_ZN8QtCharts22QPieModelMapperPrivate17sliceLabelChangedEv" PURGE="0" COMMENT="" />
    <EXPORT ORDINAL="2240" NAME="_ZN8QtCharts22QPieModelMapperPrivate17sliceValueChangedEv" PURGE="0" COMMENT="" />
    <EXPORT ORDINAL="2241" NAME="_ZN8QtCharts22QPieModelMapperPrivate18blockSeriesSignalsEb" PURGE="0" COMMENT="" />
    <EXPORT ORDINAL="2242" NAME="_ZN8QtCharts22QPieModelMapperPrivate18qt_static_metacallEP7QObjectN11QMetaObject4CallEiPPv" PURGE="0" COMMENT="" />
    <EXPORT ORDINAL="2243" NAME="_ZN8QtCharts22QPieModelMapperPrivate19modelColumnsRemovedE11QModelIndexii" PURGE="0" COMMENT="" />
    <EXPORT ORDINAL="2244" NAME="_ZN8QtCharts22QPieModelMapperPrivate20handleModelDestroyedEv" PURGE="0" COMMENT="" />
    <EXPORT ORDINAL="2245" NAME="_ZN8QtCharts22QPieModelMapperPrivate21handleSeriesDestroyedEv" PURGE="0" COMMENT="" />
    <EXPORT ORDINAL="2246" NAME="_ZN8QtCharts22QPieModelMapperPrivate22initializePieFromModelEv" PURGE="0" COMMENT="" />
    <EXPORT ORDINAL="2247" NAME="_ZN8QtCharts22QPieModelMapperPrivateC1EPNS_15QPieModelMapperE" PURGE="0" COMMENT="" />
    <EXPORT ORDINAL="2248" NAME="_ZN8QtCharts22QPieModelMapperPrivateC2EPNS_15QPieModelMapperE" PURGE="0" COMMENT="" />
    <EXPORT ORDINAL="2249" NAME="_ZN8QtCharts22QXYLegendMarkerPrivate11qt_metacallEN11QMetaObject4CallEiPPv" PURGE="0" COMMENT="" />
    <EXPORT ORDINAL="2250" NAME="_ZN8QtCharts22QXYLegendMarkerPrivate11qt_metacastEPKc" PURGE="0" COMMENT="" />
    <EXPORT ORDINAL="2251" NAME="_ZN8QtCharts22QXYLegendMarkerPrivate13relatedObjectEv" PURGE="0" COMMENT="" />
    <EXPORT ORDINAL="2252" NAME="_ZN8QtCharts22QXYLegendMarkerPrivate16staticMetaObjectE" PURGE="-1" COMMENT="" />
    <EXPORT ORDINAL="2253" NAME="_ZN8QtCharts22QXYLegendMarkerPrivate18qt_static_metacallEP7QObjectN11QMetaObject4CallEiPPv" PURGE="0" COMMENT="" />
    <EXPORT ORDINAL="2254" NAME="_ZN8QtCharts22QXYLegendMarkerPrivate6seriesEv" PURGE="0" COMMENT="" />
    <EXPORT ORDINAL="2255" NAME="_ZN8QtCharts22QXYLegendMarkerPrivate7updatedEv" PURGE="0" COMMENT="" />
    <EXPORT ORDINAL="2256" NAME="_ZN8QtCharts22QXYLegendMarkerPrivateC1EPNS_15QXYLegendMarkerEPNS_9QXYSeriesEPNS_7QLegendE" PURGE="0" COMMENT="" />
    <EXPORT ORDINAL="2257" NAME="_ZN8QtCharts22QXYLegendMarkerPrivateC2EPNS_15QXYLegendMarkerEPNS_9QXYSeriesEPNS_7QLegendE" PURGE="0" COMMENT="" />
    <EXPORT ORDINAL="2258" NAME="_ZN8QtCharts22QXYLegendMarkerPrivateD0Ev" PURGE="-1" COMMENT="" />
    <EXPORT ORDINAL="2259" NAME="_ZN8QtCharts22QXYLegendMarkerPrivateD1Ev" PURGE="-1" COMMENT="" />
    <EXPORT ORDINAL="2260" NAME="_ZN8QtCharts22QXYLegendMarkerPrivateD2Ev" PURGE="-1" COMMENT="" />
    <EXPORT ORDINAL="2261" NAME="_ZN8QtCharts23QBarCategoryAxisPrivate11qt_metacallEN11QMetaObject4CallEiPPv" PURGE="0" COMMENT="" />
    <EXPORT ORDINAL="2262" NAME="_ZN8QtCharts23QBarCategoryAxisPrivate11qt_metacastEPKc" PURGE="0" COMMENT="" />
    <EXPORT ORDINAL="2263" NAME="_ZN8QtCharts23QBarCategoryAxisPrivate16initializeDomainEPNS_14AbstractDomainE" PURGE="0" COMMENT="" />
    <EXPORT ORDINAL="2264" NAME="_ZN8QtCharts23QBarCategoryAxisPrivate16staticMetaObjectE" PURGE="-1" COMMENT="" />
    <EXPORT ORDINAL="2265" NAME="_ZN8QtCharts23QBarCategoryAxisPrivate18initializeGraphicsEP13QGraphicsItem" PURGE="0" COMMENT="" />
    <EXPORT ORDINAL="2266" NAME="_ZN8QtCharts23QBarCategoryAxisPrivate18qt_static_metacallEP7QObjectN11QMetaObject4CallEiPPv" PURGE="0" COMMENT="" />
    <EXPORT ORDINAL="2267" NAME="_ZN8QtCharts23QBarCategoryAxisPrivate20updateCategoryDomainEv" PURGE="0" COMMENT="" />
    <EXPORT ORDINAL="2268" NAME="_ZN8QtCharts23QBarCategoryAxisPrivate6setMaxERK8QVariant" PURGE="0" COMMENT="" />
    <EXPORT ORDINAL="2269" NAME="_ZN8QtCharts23QBarCategoryAxisPrivate6setMinERK8QVariant" PURGE="0" COMMENT="" />
    <EXPORT ORDINAL="2270" NAME="_ZN8QtCharts23QBarCategoryAxisPrivate8setRangeERK7QStringS3_" PURGE="0" COMMENT="" />
    <EXPORT ORDINAL="2271" NAME="_ZN8QtCharts23QBarCategoryAxisPrivate8setRangeERK8QVariantS3_" PURGE="0" COMMENT="" />
    <EXPORT ORDINAL="2272" NAME="_ZN8QtCharts23QBarCategoryAxisPrivate8setRangeEdd" PURGE="0" COMMENT="" />
    <EXPORT ORDINAL="2273" NAME="_ZN8QtCharts23QBarCategoryAxisPrivateC1EPNS_16QBarCategoryAxisE" PURGE="0" COMMENT="" />
    <EXPORT ORDINAL="2274" NAME="_ZN8QtCharts23QBarCategoryAxisPrivateC2EPNS_16QBarCategoryAxisE" PURGE="0" COMMENT="" />
    <EXPORT ORDINAL="2275" NAME="_ZN8QtCharts23QBarCategoryAxisPrivateD0Ev" PURGE="-1" COMMENT="" />
    <EXPORT ORDINAL="2276" NAME="_ZN8QtCharts23QBarCategoryAxisPrivateD1Ev" PURGE="-1" COMMENT="" />
    <EXPORT ORDINAL="2277" NAME="_ZN8QtCharts23QBarCategoryAxisPrivateD2Ev" PURGE="-1" COMMENT="" />
    <EXPORT ORDINAL="2278" NAME="_ZN8QtCharts23QBarLegendMarkerPrivate11qt_metacallEN11QMetaObject4CallEiPPv" PURGE="0" COMMENT="" />
    <EXPORT ORDINAL="2279" NAME="_ZN8QtCharts23QBarLegendMarkerPrivate11qt_metacastEPKc" PURGE="0" COMMENT="" />
    <EXPORT ORDINAL="2280" NAME="_ZN8QtCharts23QBarLegendMarkerPrivate13relatedObjectEv" PURGE="0" COMMENT="" />
    <EXPORT ORDINAL="2281" NAME="_ZN8QtCharts23QBarLegendMarkerPrivate16staticMetaObjectE" PURGE="-1" COMMENT="" />
    <EXPORT ORDINAL="2282" NAME="_ZN8QtCharts23QBarLegendMarkerPrivate18qt_static_metacallEP7QObjectN11QMetaObject4CallEiPPv" PURGE="0" COMMENT="" />
    <EXPORT ORDINAL="2283" NAME="_ZN8QtCharts23QBarLegendMarkerPrivate6seriesEv" PURGE="0" COMMENT="" />
    <EXPORT ORDINAL="2284" NAME="_ZN8QtCharts23QBarLegendMarkerPrivate7updatedEv" PURGE="0" COMMENT="" />
    <EXPORT ORDINAL="2285" NAME="_ZN8QtCharts23QBarLegendMarkerPrivateC1EPNS_16QBarLegendMarkerEPNS_18QAbstractBarSeriesEPNS_7QBarSetEPNS_7QLegendE" PURGE="0" COMMENT="" />
    <EXPORT ORDINAL="2286" NAME="_ZN8QtCharts23QBarLegendMarkerPrivateC2EPNS_16QBarLegendMarkerEPNS_18QAbstractBarSeriesEPNS_7QBarSetEPNS_7QLegendE" PURGE="0" COMMENT="" />
    <EXPORT ORDINAL="2287" NAME="_ZN8QtCharts23QBarLegendMarkerPrivateD0Ev" PURGE="-1" COMMENT="" />
    <EXPORT ORDINAL="2288" NAME="_ZN8QtCharts23QBarLegendMarkerPrivateD1Ev" PURGE="-1" COMMENT="" />
    <EXPORT ORDINAL="2289" NAME="_ZN8QtCharts23QBarLegendMarkerPrivateD2Ev" PURGE="-1" COMMENT="" />
    <EXPORT ORDINAL="2290" NAME="_ZN8QtCharts23QCandlestickModelMapper11qt_metacallEN11QMetaObject4CallEiPPv" PURGE="0" COMMENT="" />
    <EXPORT ORDINAL="2291" NAME="_ZN8QtCharts23QCandlestickModelMapper11qt_metacastEPKc" PURGE="0" COMMENT="" />
    <EXPORT ORDINAL="2292" NAME="_ZN8QtCharts23QCandlestickModelMapper12setTimestampEi" PURGE="0" COMMENT="" />
    <EXPORT ORDINAL="2293" NAME="_ZN8QtCharts23QCandlestickModelMapper13modelReplacedEv" PURGE="-1" COMMENT="" />
    <EXPORT ORDINAL="2294" NAME="_ZN8QtCharts23QCandlestickModelMapper14seriesReplacedEv" PURGE="-1" COMMENT="" />
    <EXPORT ORDINAL="2295" NAME="_ZN8QtCharts23QCandlestickModelMapper16staticMetaObjectE" PURGE="-1" COMMENT="" />
    <EXPORT ORDINAL="2296" NAME="_ZN8QtCharts23QCandlestickModelMapper17setLastSetSectionEi" PURGE="0" COMMENT="" />
    <EXPORT ORDINAL="2297" NAME="_ZN8QtCharts23QCandlestickModelMapper18qt_static_metacallEP7QObjectN11QMetaObject4CallEiPPv" PURGE="0" COMMENT="" />
    <EXPORT ORDINAL="2298" NAME="_ZN8QtCharts23QCandlestickModelMapper18setFirstSetSectionEi" PURGE="0" COMMENT="" />
    <EXPORT ORDINAL="2299" NAME="_ZN8QtCharts23QCandlestickModelMapper6setLowEi" PURGE="0" COMMENT="" />
    <EXPORT ORDINAL="2300" NAME="_ZN8QtCharts23QCandlestickModelMapper7setHighEi" PURGE="0" COMMENT="" />
    <EXPORT ORDINAL="2301" NAME="_ZN8QtCharts23QCandlestickModelMapper7setOpenEi" PURGE="0" COMMENT="" />
    <EXPORT ORDINAL="2302" NAME="_ZN8QtCharts23QCandlestickModelMapper8setCloseEi" PURGE="0" COMMENT="" />
    <EXPORT ORDINAL="2303" NAME="_ZN8QtCharts23QCandlestickModelMapper8setModelEP18QAbstractItemModel" PURGE="0" COMMENT="" />
    <EXPORT ORDINAL="2304" NAME="_ZN8QtCharts23QCandlestickModelMapper9setSeriesEPNS_18QCandlestickSeriesE" PURGE="0" COMMENT="" />
    <EXPORT ORDINAL="2305" NAME="_ZN8QtCharts23QCandlestickModelMapperC1EP7QObject" PURGE="0" COMMENT="" />
    <EXPORT ORDINAL="2306" NAME="_ZN8QtCharts23QCandlestickModelMapperC2EP7QObject" PURGE="0" COMMENT="" />
    <EXPORT ORDINAL="2307" NAME="_ZN8QtCharts23QPieLegendMarkerPrivate11qt_metacallEN11QMetaObject4CallEiPPv" PURGE="0" COMMENT="" />
    <EXPORT ORDINAL="2308" NAME="_ZN8QtCharts23QPieLegendMarkerPrivate11qt_metacastEPKc" PURGE="0" COMMENT="" />
    <EXPORT ORDINAL="2309" NAME="_ZN8QtCharts23QPieLegendMarkerPrivate13relatedObjectEv" PURGE="0" COMMENT="" />
    <EXPORT ORDINAL="2310" NAME="_ZN8QtCharts23QPieLegendMarkerPrivate16staticMetaObjectE" PURGE="-1" COMMENT="" />
    <EXPORT ORDINAL="2311" NAME="_ZN8QtCharts23QPieLegendMarkerPrivate18qt_static_metacallEP7QObjectN11QMetaObject4CallEiPPv" PURGE="0" COMMENT="" />
    <EXPORT ORDINAL="2312" NAME="_ZN8QtCharts23QPieLegendMarkerPrivate6seriesEv" PURGE="0" COMMENT="" />
    <EXPORT ORDINAL="2313" NAME="_ZN8QtCharts23QPieLegendMarkerPrivate7updatedEv" PURGE="0" COMMENT="" />
    <EXPORT ORDINAL="2314" NAME="_ZN8QtCharts23QPieLegendMarkerPrivateC1EPNS_16QPieLegendMarkerEPNS_10QPieSeriesEPNS_9QPieSliceEPNS_7QLegendE" PURGE="0" COMMENT="" />
    <EXPORT ORDINAL="2315" NAME="_ZN8QtCharts23QPieLegendMarkerPrivateC2EPNS_16QPieLegendMarkerEPNS_10QPieSeriesEPNS_9QPieSliceEPNS_7QLegendE" PURGE="0" COMMENT="" />
    <EXPORT ORDINAL="2316" NAME="_ZN8QtCharts23QPieLegendMarkerPrivateD0Ev" PURGE="-1" COMMENT="" />
    <EXPORT ORDINAL="2317" NAME="_ZN8QtCharts23QPieLegendMarkerPrivateD1Ev" PURGE="-1" COMMENT="" />
    <EXPORT ORDINAL="2318" NAME="_ZN8QtCharts23QPieLegendMarkerPrivateD2Ev" PURGE="-1" COMMENT="" />
    <EXPORT ORDINAL="2319" NAME="_ZN8QtCharts24QAreaLegendMarkerPrivate11qt_metacallEN11QMetaObject4CallEiPPv" PURGE="0" COMMENT="" />
    <EXPORT ORDINAL="2320" NAME="_ZN8QtCharts24QAreaLegendMarkerPrivate11qt_metacastEPKc" PURGE="0" COMMENT="" />
    <EXPORT ORDINAL="2321" NAME="_ZN8QtCharts24QAreaLegendMarkerPrivate13relatedObjectEv" PURGE="0" COMMENT="" />
    <EXPORT ORDINAL="2322" NAME="_ZN8QtCharts24QAreaLegendMarkerPrivate16staticMetaObjectE" PURGE="-1" COMMENT="" />
    <EXPORT ORDINAL="2323" NAME="_ZN8QtCharts24QAreaLegendMarkerPrivate18qt_static_metacallEP7QObjectN11QMetaObject4CallEiPPv" PURGE="0" COMMENT="" />
    <EXPORT ORDINAL="2324" NAME="_ZN8QtCharts24QAreaLegendMarkerPrivate6seriesEv" PURGE="0" COMMENT="" />
    <EXPORT ORDINAL="2325" NAME="_ZN8QtCharts24QAreaLegendMarkerPrivate7updatedEv" PURGE="0" COMMENT="" />
    <EXPORT ORDINAL="2326" NAME="_ZN8QtCharts24QAreaLegendMarkerPrivateC1EPNS_17QAreaLegendMarkerEPNS_11QAreaSeriesEPNS_7QLegendE" PURGE="0" COMMENT="" />
    <EXPORT ORDINAL="2327" NAME="_ZN8QtCharts24QAreaLegendMarkerPrivateC2EPNS_17QAreaLegendMarkerEPNS_11QAreaSeriesEPNS_7QLegendE" PURGE="0" COMMENT="" />
    <EXPORT ORDINAL="2328" NAME="_ZN8QtCharts24QAreaLegendMarkerPrivateD0Ev" PURGE="-1" COMMENT="" />
    <EXPORT ORDINAL="2329" NAME="_ZN8QtCharts24QAreaLegendMarkerPrivateD1Ev" PURGE="-1" COMMENT="" />
    <EXPORT ORDINAL="2330" NAME="_ZN8QtCharts24QAreaLegendMarkerPrivateD2Ev" PURGE="-1" COMMENT="" />
    <EXPORT ORDINAL="2331" NAME="_ZN8QtCharts24QCandlestickLegendMarker11qt_metacallEN11QMetaObject4CallEiPPv" PURGE="0" COMMENT="" />
    <EXPORT ORDINAL="2332" NAME="_ZN8QtCharts24QCandlestickLegendMarker11qt_metacastEPKc" PURGE="0" COMMENT="" />
    <EXPORT ORDINAL="2333" NAME="_ZN8QtCharts24QCandlestickLegendMarker16staticMetaObjectE" PURGE="-1" COMMENT="" />
    <EXPORT ORDINAL="2334" NAME="_ZN8QtCharts24QCandlestickLegendMarker18qt_static_metacallEP7QObjectN11QMetaObject4CallEiPPv" PURGE="0" COMMENT="" />
    <EXPORT ORDINAL="2335" NAME="_ZN8QtCharts24QCandlestickLegendMarker4typeEv" PURGE="0" COMMENT="" />
    <EXPORT ORDINAL="2336" NAME="_ZN8QtCharts24QCandlestickLegendMarker6seriesEv" PURGE="0" COMMENT="" />
    <EXPORT ORDINAL="2337" NAME="_ZN8QtCharts24QCandlestickLegendMarkerC1EPNS_18QCandlestickSeriesEPNS_7QLegendEP7QObject" PURGE="-1" COMMENT="" />
    <EXPORT ORDINAL="2338" NAME="_ZN8QtCharts24QCandlestickLegendMarkerC2EPNS_18QCandlestickSeriesEPNS_7QLegendEP7QObject" PURGE="-1" COMMENT="" />
    <EXPORT ORDINAL="2339" NAME="_ZN8QtCharts24QCandlestickLegendMarkerD0Ev" PURGE="-1" COMMENT="" />
    <EXPORT ORDINAL="2340" NAME="_ZN8QtCharts24QCandlestickLegendMarkerD1Ev" PURGE="-1" COMMENT="" />
    <EXPORT ORDINAL="2341" NAME="_ZN8QtCharts24QCandlestickLegendMarkerD2Ev" PURGE="-1" COMMENT="" />
    <EXPORT ORDINAL="2342" NAME="_ZN8QtCharts24QHCandlestickModelMapper11qt_metacallEN11QMetaObject4CallEiPPv" PURGE="0" COMMENT="" />
    <EXPORT ORDINAL="2343" NAME="_ZN8QtCharts24QHCandlestickModelMapper11qt_metacastEPKc" PURGE="0" COMMENT="" />
    <EXPORT ORDINAL="2344" NAME="_ZN8QtCharts24QHCandlestickModelMapper12setLowColumnEi" PURGE="0" COMMENT="" />
    <EXPORT ORDINAL="2345" NAME="_ZN8QtCharts24QHCandlestickModelMapper13setHighColumnEi" PURGE="0" COMMENT="" />
    <EXPORT ORDINAL="2346" NAME="_ZN8QtCharts24QHCandlestickModelMapper13setLastSetRowEi" PURGE="0" COMMENT="" />
    <EXPORT ORDINAL="2347" NAME="_ZN8QtCharts24QHCandlestickModelMapper13setOpenColumnEi" PURGE="0" COMMENT="" />
    <EXPORT ORDINAL="2348" NAME="_ZN8QtCharts24QHCandlestickModelMapper14setCloseColumnEi" PURGE="0" COMMENT="" />
    <EXPORT ORDINAL="2349" NAME="_ZN8QtCharts24QHCandlestickModelMapper14setFirstSetRowEi" PURGE="0" COMMENT="" />
    <EXPORT ORDINAL="2350" NAME="_ZN8QtCharts24QHCandlestickModelMapper16lowColumnChangedEv" PURGE="-1" COMMENT="" />
    <EXPORT ORDINAL="2351" NAME="_ZN8QtCharts24QHCandlestickModelMapper16staticMetaObjectE" PURGE="-1" COMMENT="" />
    <EXPORT ORDINAL="2352" NAME="_ZN8QtCharts24QHCandlestickModelMapper17highColumnChangedEv" PURGE="-1" COMMENT="" />
    <EXPORT ORDINAL="2353" NAME="_ZN8QtCharts24QHCandlestickModelMapper17lastSetRowChangedEv" PURGE="-1" COMMENT="" />
    <EXPORT ORDINAL="2354" NAME="_ZN8QtCharts24QHCandlestickModelMapper17openColumnChangedEv" PURGE="-1" COMMENT="" />
    <EXPORT ORDINAL="2355" NAME="_ZN8QtCharts24QHCandlestickModelMapper18closeColumnChangedEv" PURGE="-1" COMMENT="" />
    <EXPORT ORDINAL="2356" NAME="_ZN8QtCharts24QHCandlestickModelMapper18firstSetRowChangedEv" PURGE="-1" COMMENT="" />
    <EXPORT ORDINAL="2357" NAME="_ZN8QtCharts24QHCandlestickModelMapper18qt_static_metacallEP7QObjectN11QMetaObject4CallEiPPv" PURGE="0" COMMENT="" />
    <EXPORT ORDINAL="2358" NAME="_ZN8QtCharts24QHCandlestickModelMapper18setTimestampColumnEi" PURGE="0" COMMENT="" />
    <EXPORT ORDINAL="2359" NAME="_ZN8QtCharts24QHCandlestickModelMapper22timestampColumnChangedEv" PURGE="-1" COMMENT="" />
    <EXPORT ORDINAL="2360" NAME="_ZN8QtCharts24QHCandlestickModelMapperC1EP7QObject" PURGE="0" COMMENT="" />
    <EXPORT ORDINAL="2361" NAME="_ZN8QtCharts24QHCandlestickModelMapperC2EP7QObject" PURGE="0" COMMENT="" />
    <EXPORT ORDINAL="2362" NAME="_ZN8QtCharts24QPercentBarSeriesPrivate16initializeDomainEv" PURGE="0" COMMENT="" />
    <EXPORT ORDINAL="2363" NAME="_ZN8QtCharts24QPercentBarSeriesPrivate18initializeGraphicsEP13QGraphicsItem" PURGE="0" COMMENT="" />
    <EXPORT ORDINAL="2364" NAME="_ZN8QtCharts24QPercentBarSeriesPrivateC1EPNS_17QPercentBarSeriesE" PURGE="0" COMMENT="" />
    <EXPORT ORDINAL="2365" NAME="_ZN8QtCharts24QPercentBarSeriesPrivateC2EPNS_17QPercentBarSeriesE" PURGE="0" COMMENT="" />
    <EXPORT ORDINAL="2366" NAME="_ZN8QtCharts24QStackedBarSeriesPrivate16initializeDomainEv" PURGE="0" COMMENT="" />
    <EXPORT ORDINAL="2367" NAME="_ZN8QtCharts24QStackedBarSeriesPrivate18initializeGraphicsEP13QGraphicsItem" PURGE="0" COMMENT="" />
    <EXPORT ORDINAL="2368" NAME="_ZN8QtCharts24QStackedBarSeriesPrivateC1EPNS_17QStackedBarSeriesE" PURGE="0" COMMENT="" />
    <EXPORT ORDINAL="2369" NAME="_ZN8QtCharts24QStackedBarSeriesPrivateC2EPNS_17QStackedBarSeriesE" PURGE="0" COMMENT="" />
    <EXPORT ORDINAL="2370" NAME="_ZN8QtCharts24QVCandlestickModelMapper10setHighRowEi" PURGE="0" COMMENT="" />
    <EXPORT ORDINAL="2371" NAME="_ZN8QtCharts24QVCandlestickModelMapper10setOpenRowEi" PURGE="0" COMMENT="" />
    <EXPORT ORDINAL="2372" NAME="_ZN8QtCharts24QVCandlestickModelMapper11qt_metacallEN11QMetaObject4CallEiPPv" PURGE="0" COMMENT="" />
    <EXPORT ORDINAL="2373" NAME="_ZN8QtCharts24QVCandlestickModelMapper11qt_metacastEPKc" PURGE="0" COMMENT="" />
    <EXPORT ORDINAL="2374" NAME="_ZN8QtCharts24QVCandlestickModelMapper11setCloseRowEi" PURGE="0" COMMENT="" />
    <EXPORT ORDINAL="2375" NAME="_ZN8QtCharts24QVCandlestickModelMapper13lowRowChangedEv" PURGE="-1" COMMENT="" />
    <EXPORT ORDINAL="2376" NAME="_ZN8QtCharts24QVCandlestickModelMapper14highRowChangedEv" PURGE="-1" COMMENT="" />
    <EXPORT ORDINAL="2377" NAME="_ZN8QtCharts24QVCandlestickModelMapper14openRowChangedEv" PURGE="-1" COMMENT="" />
    <EXPORT ORDINAL="2378" NAME="_ZN8QtCharts24QVCandlestickModelMapper15closeRowChangedEv" PURGE="-1" COMMENT="" />
    <EXPORT ORDINAL="2379" NAME="_ZN8QtCharts24QVCandlestickModelMapper15setTimestampRowEi" PURGE="0" COMMENT="" />
    <EXPORT ORDINAL="2380" NAME="_ZN8QtCharts24QVCandlestickModelMapper16setLastSetColumnEi" PURGE="0" COMMENT="" />
    <EXPORT ORDINAL="2381" NAME="_ZN8QtCharts24QVCandlestickModelMapper16staticMetaObjectE" PURGE="-1" COMMENT="" />
    <EXPORT ORDINAL="2382" NAME="_ZN8QtCharts24QVCandlestickModelMapper17setFirstSetColumnEi" PURGE="0" COMMENT="" />
    <EXPORT ORDINAL="2383" NAME="_ZN8QtCharts24QVCandlestickModelMapper18qt_static_metacallEP7QObjectN11QMetaObject4CallEiPPv" PURGE="0" COMMENT="" />
    <EXPORT ORDINAL="2384" NAME="_ZN8QtCharts24QVCandlestickModelMapper19timestampRowChangedEv" PURGE="-1" COMMENT="" />
    <EXPORT ORDINAL="2385" NAME="_ZN8QtCharts24QVCandlestickModelMapper20lastSetColumnChangedEv" PURGE="-1" COMMENT="" />
    <EXPORT ORDINAL="2386" NAME="_ZN8QtCharts24QVCandlestickModelMapper21firstSetColumnChangedEv" PURGE="-1" COMMENT="" />
    <EXPORT ORDINAL="2387" NAME="_ZN8QtCharts24QVCandlestickModelMapper9setLowRowEi" PURGE="0" COMMENT="" />
    <EXPORT ORDINAL="2388" NAME="_ZN8QtCharts24QVCandlestickModelMapperC1EP7QObject" PURGE="0" COMMENT="" />
    <EXPORT ORDINAL="2389" NAME="_ZN8QtCharts24QVCandlestickModelMapperC2EP7QObject" PURGE="0" COMMENT="" />
    <EXPORT ORDINAL="2390" NAME="_ZN8QtCharts25PolarChartValueAxisRadial11qt_metacallEN11QMetaObject4CallEiPPv" PURGE="0" COMMENT="" />
    <EXPORT ORDINAL="2391" NAME="_ZN8QtCharts25PolarChartValueAxisRadial11qt_metacastEPKc" PURGE="0" COMMENT="" />
    <EXPORT ORDINAL="2392" NAME="_ZN8QtCharts25PolarChartValueAxisRadial16createAxisLabelsERK7QVectorIdE" PURGE="0" COMMENT="" />
    <EXPORT ORDINAL="2393" NAME="_ZN8QtCharts25PolarChartValueAxisRadial16staticMetaObjectE" PURGE="-1" COMMENT="" />
    <EXPORT ORDINAL="2394" NAME="_ZN8QtCharts25PolarChartValueAxisRadial18qt_static_metacallEP7QObjectN11QMetaObject4CallEiPPv" PURGE="0" COMMENT="" />
    <EXPORT ORDINAL="2395" NAME="_ZN8QtCharts25PolarChartValueAxisRadial22handleTickCountChangedEi" PURGE="0" COMMENT="" />
    <EXPORT ORDINAL="2396" NAME="_ZN8QtCharts25PolarChartValueAxisRadial24handleLabelFormatChangedERK7QString" PURGE="0" COMMENT="" />
    <EXPORT ORDINAL="2397" NAME="_ZN8QtCharts25PolarChartValueAxisRadial27handleMinorTickCountChangedEi" PURGE="0" COMMENT="" />
    <EXPORT ORDINAL="2398" NAME="_ZN8QtCharts25PolarChartValueAxisRadialC1EPNS_10QValueAxisEP13QGraphicsItem" PURGE="0" COMMENT="" />
    <EXPORT ORDINAL="2399" NAME="_ZN8QtCharts25PolarChartValueAxisRadialC2EPNS_10QValueAxisEP13QGraphicsItem" PURGE="0" COMMENT="" />
    <EXPORT ORDINAL="2400" NAME="_ZN8QtCharts25PolarChartValueAxisRadialD0Ev" PURGE="-1" COMMENT="" />
    <EXPORT ORDINAL="2401" NAME="_ZN8QtCharts25PolarChartValueAxisRadialD1Ev" PURGE="-1" COMMENT="" />
    <EXPORT ORDINAL="2402" NAME="_ZN8QtCharts25PolarChartValueAxisRadialD2Ev" PURGE="-1" COMMENT="" />
    <EXPORT ORDINAL="2403" NAME="_ZN8QtCharts25QAbstractBarSeriesPrivate10setVisibleEb" PURGE="-1" COMMENT="" />
    <EXPORT ORDINAL="2404" NAME="_ZN8QtCharts25QAbstractBarSeriesPrivate11categorySumEi" PURGE="0" COMMENT="" />
    <EXPORT ORDINAL="2405" NAME="_ZN8QtCharts25QAbstractBarSeriesPrivate11categoryTopEi" PURGE="0" COMMENT="" />
    <EXPORT ORDINAL="2406" NAME="_ZN8QtCharts25QAbstractBarSeriesPrivate11qt_metacallEN11QMetaObject4CallEiPPv" PURGE="0" COMMENT="" />
    <EXPORT ORDINAL="2407" NAME="_ZN8QtCharts25QAbstractBarSeriesPrivate11qt_metacastEPKc" PURGE="0" COMMENT="" />
    <EXPORT ORDINAL="2408" NAME="_ZN8QtCharts25QAbstractBarSeriesPrivate11setBarWidthEd" PURGE="-1" COMMENT="" />
    <EXPORT ORDINAL="2409" NAME="_ZN8QtCharts25QAbstractBarSeriesPrivate11updatedBarsEv" PURGE="-1" COMMENT="" />
    <EXPORT ORDINAL="2410" NAME="_ZN8QtCharts25QAbstractBarSeriesPrivate12percentageAtEii" PURGE="0" COMMENT="" />
    <EXPORT ORDINAL="2411" NAME="_ZN8QtCharts25QAbstractBarSeriesPrivate13doubleClickedEiPNS_7QBarSetE" PURGE="0" COMMENT="" />
    <EXPORT ORDINAL="2412" NAME="_ZN8QtCharts25QAbstractBarSeriesPrivate13setValueAddedEiiPNS_7QBarSetE" PURGE="0" COMMENT="" />
    <EXPORT ORDINAL="2413" NAME="_ZN8QtCharts25QAbstractBarSeriesPrivate13updatedLayoutEv" PURGE="-1" COMMENT="" />
    <EXPORT ORDINAL="2414" NAME="_ZN8QtCharts25QAbstractBarSeriesPrivate14blockBarUpdateEv" PURGE="0" COMMENT="" />
    <EXPORT ORDINAL="2415" NAME="_ZN8QtCharts25QAbstractBarSeriesPrivate14categoryBottomEi" PURGE="0" COMMENT="" />
    <EXPORT ORDINAL="2416" NAME="_ZN8QtCharts25QAbstractBarSeriesPrivate14initializeAxesEv" PURGE="0" COMMENT="" />
    <EXPORT ORDINAL="2417" NAME="_ZN8QtCharts25QAbstractBarSeriesPrivate14maxCategorySumEv" PURGE="0" COMMENT="" />
    <EXPORT ORDINAL="2418" NAME="_ZN8QtCharts25QAbstractBarSeriesPrivate14visibleChangedEv" PURGE="-1" COMMENT="" />
    <EXPORT ORDINAL="2419" NAME="_ZN8QtCharts25QAbstractBarSeriesPrivate15initializeThemeEiPNS_10ChartThemeEb" PURGE="0" COMMENT="" />
    <EXPORT ORDINAL="2420" NAME="_ZN8QtCharts25QAbstractBarSeriesPrivate15setValueChangedEiPNS_7QBarSetE" PURGE="0" COMMENT="" />
    <EXPORT ORDINAL="2421" NAME="_ZN8QtCharts25QAbstractBarSeriesPrivate15setValueRemovedEiiPNS_7QBarSetE" PURGE="0" COMMENT="" />
    <EXPORT ORDINAL="2422" NAME="_ZN8QtCharts25QAbstractBarSeriesPrivate16initializeDomainEv" PURGE="0" COMMENT="" />
    <EXPORT ORDINAL="2423" NAME="_ZN8QtCharts25QAbstractBarSeriesPrivate16restructuredBarsEv" PURGE="-1" COMMENT="" />
    <EXPORT ORDINAL="2424" NAME="_ZN8QtCharts25QAbstractBarSeriesPrivate16setLabelsVisibleEb" PURGE="0" COMMENT="" />
    <EXPORT ORDINAL="2425" NAME="_ZN8QtCharts25QAbstractBarSeriesPrivate16staticMetaObjectE" PURGE="-1" COMMENT="" />
    <EXPORT ORDINAL="2426" NAME="_ZN8QtCharts25QAbstractBarSeriesPrivate17handleSetValueAddEii" PURGE="0" COMMENT="" />
    <EXPORT ORDINAL="2427" NAME="_ZN8QtCharts25QAbstractBarSeriesPrivate18populateCategoriesEPNS_16QBarCategoryAxisE" PURGE="0" COMMENT="" />
    <EXPORT ORDINAL="2428" NAME="_ZN8QtCharts25QAbstractBarSeriesPrivate18qt_static_metacallEP7QObjectN11QMetaObject4CallEiPPv" PURGE="0" COMMENT="" />
    <EXPORT ORDINAL="2429" NAME="_ZN8QtCharts25QAbstractBarSeriesPrivate19absoluteCategorySumEi" PURGE="0" COMMENT="" />
    <EXPORT ORDINAL="2430" NAME="_ZN8QtCharts25QAbstractBarSeriesPrivate19createLegendMarkersEPNS_7QLegendE" PURGE="0" COMMENT="" />
    <EXPORT ORDINAL="2431" NAME="_ZN8QtCharts25QAbstractBarSeriesPrivate20handleSetValueChangeEi" PURGE="0" COMMENT="" />
    <EXPORT ORDINAL="2432" NAME="_ZN8QtCharts25QAbstractBarSeriesPrivate20handleSetValueRemoveEii" PURGE="0" COMMENT="" />
    <EXPORT ORDINAL="2433" NAME="_ZN8QtCharts25QAbstractBarSeriesPrivate20initializeAnimationsE6QFlagsINS_6QChart15AnimationOptionEEiR12QEasingCurve" PURGE="0" COMMENT="" />
    <EXPORT ORDINAL="2434" NAME="_ZN8QtCharts25QAbstractBarSeriesPrivate20labelsVisibleChangedEb" PURGE="0" COMMENT="" />
    <EXPORT ORDINAL="2435" NAME="_ZN8QtCharts25QAbstractBarSeriesPrivate3maxEv" PURGE="0" COMMENT="" />
    <EXPORT ORDINAL="2436" NAME="_ZN8QtCharts25QAbstractBarSeriesPrivate3minEv" PURGE="0" COMMENT="" />
    <EXPORT ORDINAL="2437" NAME="_ZN8QtCharts25QAbstractBarSeriesPrivate3topEv" PURGE="0" COMMENT="" />
    <EXPORT ORDINAL="2438" NAME="_ZN8QtCharts25QAbstractBarSeriesPrivate4maxXEv" PURGE="0" COMMENT="" />
    <EXPORT ORDINAL="2439" NAME="_ZN8QtCharts25QAbstractBarSeriesPrivate4minXEv" PURGE="0" COMMENT="" />
    <EXPORT ORDINAL="2440" NAME="_ZN8QtCharts25QAbstractBarSeriesPrivate6appendE5QListIPNS_7QBarSetEE" PURGE="0" COMMENT="" />
    <EXPORT ORDINAL="2441" NAME="_ZN8QtCharts25QAbstractBarSeriesPrivate6appendEPNS_7QBarSetE" PURGE="0" COMMENT="" />
    <EXPORT ORDINAL="2442" NAME="_ZN8QtCharts25QAbstractBarSeriesPrivate6bottomEv" PURGE="0" COMMENT="" />
    <EXPORT ORDINAL="2443" NAME="_ZN8QtCharts25QAbstractBarSeriesPrivate6insertEiPNS_7QBarSetE" PURGE="0" COMMENT="" />
    <EXPORT ORDINAL="2444" NAME="_ZN8QtCharts25QAbstractBarSeriesPrivate6removeE5QListIPNS_7QBarSetEE" PURGE="0" COMMENT="" />
    <EXPORT ORDINAL="2445" NAME="_ZN8QtCharts25QAbstractBarSeriesPrivate6removeEPNS_7QBarSetE" PURGE="0" COMMENT="" />
    <EXPORT ORDINAL="2446" NAME="_ZN8QtCharts25QAbstractBarSeriesPrivate7clickedEiPNS_7QBarSetE" PURGE="0" COMMENT="" />
    <EXPORT ORDINAL="2447" NAME="_ZN8QtCharts25QAbstractBarSeriesPrivate7pressedEiPNS_7QBarSetE" PURGE="0" COMMENT="" />
    <EXPORT ORDINAL="2448" NAME="_ZN8QtCharts25QAbstractBarSeriesPrivate7valueAtEii" PURGE="0" COMMENT="" />
    <EXPORT ORDINAL="2449" NAME="_ZN8QtCharts25QAbstractBarSeriesPrivate8barsetAtEi" PURGE="0" COMMENT="" />
    <EXPORT ORDINAL="2450" NAME="_ZN8QtCharts25QAbstractBarSeriesPrivate8releasedEiPNS_7QBarSetE" PURGE="0" COMMENT="" />
    <EXPORT ORDINAL="2451" NAME="_ZN8QtCharts25QAbstractBarSeriesPrivateC1EPNS_18QAbstractBarSeriesE" PURGE="0" COMMENT="" />
    <EXPORT ORDINAL="2452" NAME="_ZN8QtCharts25QAbstractBarSeriesPrivateC2EPNS_18QAbstractBarSeriesE" PURGE="0" COMMENT="" />
    <EXPORT ORDINAL="2453" NAME="_ZN8QtCharts25QCandlestickSeriesPrivate11qt_metacallEN11QMetaObject4CallEiPPv" PURGE="0" COMMENT="" />
    <EXPORT ORDINAL="2454" NAME="_ZN8QtCharts25QCandlestickSeriesPrivate11qt_metacastEPKc" PURGE="0" COMMENT="" />
    <EXPORT ORDINAL="2455" NAME="_ZN8QtCharts25QCandlestickSeriesPrivate13doubleClickedEiPNS_15QCandlestickSetE" PURGE="0" COMMENT="" />
    <EXPORT ORDINAL="2456" NAME="_ZN8QtCharts25QCandlestickSeriesPrivate13updatedLayoutEv" PURGE="-1" COMMENT="" />
    <EXPORT ORDINAL="2457" NAME="_ZN8QtCharts25QCandlestickSeriesPrivate14initializeAxesEv" PURGE="0" COMMENT="" />
    <EXPORT ORDINAL="2458" NAME="_ZN8QtCharts25QCandlestickSeriesPrivate15initializeThemeEiPNS_10ChartThemeEb" PURGE="0" COMMENT="" />
    <EXPORT ORDINAL="2459" NAME="_ZN8QtCharts25QCandlestickSeriesPrivate16initializeDomainEv" PURGE="0" COMMENT="" />
    <EXPORT ORDINAL="2460" NAME="_ZN8QtCharts25QCandlestickSeriesPrivate16staticMetaObjectE" PURGE="-1" COMMENT="" />
    <EXPORT ORDINAL="2461" NAME="_ZN8QtCharts25QCandlestickSeriesPrivate18handleSeriesChangeEPNS_15QAbstractSeriesE" PURGE="0" COMMENT="" />
    <EXPORT ORDINAL="2462" NAME="_ZN8QtCharts25QCandlestickSeriesPrivate18handleSeriesRemoveEPNS_15QAbstractSeriesE" PURGE="0" COMMENT="" />
    <EXPORT ORDINAL="2463" NAME="_ZN8QtCharts25QCandlestickSeriesPrivate18initializeGraphicsEP13QGraphicsItem" PURGE="0" COMMENT="" />
    <EXPORT ORDINAL="2464" NAME="_ZN8QtCharts25QCandlestickSeriesPrivate18qt_static_metacallEP7QObjectN11QMetaObject4CallEiPPv" PURGE="0" COMMENT="" />
    <EXPORT ORDINAL="2465" NAME="_ZN8QtCharts25QCandlestickSeriesPrivate19createLegendMarkersEPNS_7QLegendE" PURGE="0" COMMENT="" />
    <EXPORT ORDINAL="2466" NAME="_ZN8QtCharts25QCandlestickSeriesPrivate19updatedCandlesticksEv" PURGE="-1" COMMENT="" />
    <EXPORT ORDINAL="2467" NAME="_ZN8QtCharts25QCandlestickSeriesPrivate20initializeAnimationsE6QFlagsINS_6QChart15AnimationOptionEEiR12QEasingCurve" PURGE="0" COMMENT="" />
    <EXPORT ORDINAL="2468" NAME="_ZN8QtCharts25QCandlestickSeriesPrivate21populateBarCategoriesEPNS_16QBarCategoryAxisE" PURGE="0" COMMENT="" />
    <EXPORT ORDINAL="2469" NAME="_ZN8QtCharts25QCandlestickSeriesPrivate6appendERK5QListIPNS_15QCandlestickSetEE" PURGE="0" COMMENT="" />
    <EXPORT ORDINAL="2470" NAME="_ZN8QtCharts25QCandlestickSeriesPrivate6insertEiPNS_15QCandlestickSetE" PURGE="0" COMMENT="" />
    <EXPORT ORDINAL="2471" NAME="_ZN8QtCharts25QCandlestickSeriesPrivate6removeERK5QListIPNS_15QCandlestickSetEE" PURGE="0" COMMENT="" />
    <EXPORT ORDINAL="2472" NAME="_ZN8QtCharts25QCandlestickSeriesPrivate7clickedEiPNS_15QCandlestickSetE" PURGE="0" COMMENT="" />
    <EXPORT ORDINAL="2473" NAME="_ZN8QtCharts25QCandlestickSeriesPrivate7pressedEiPNS_15QCandlestickSetE" PURGE="0" COMMENT="" />
    <EXPORT ORDINAL="2474" NAME="_ZN8QtCharts25QCandlestickSeriesPrivate7updatedEv" PURGE="-1" COMMENT="" />
    <EXPORT ORDINAL="2475" NAME="_ZN8QtCharts25QCandlestickSeriesPrivate8releasedEiPNS_15QCandlestickSetE" PURGE="0" COMMENT="" />
    <EXPORT ORDINAL="2476" NAME="_ZN8QtCharts25QCandlestickSeriesPrivateC1EPNS_18QCandlestickSeriesE" PURGE="0" COMMENT="" />
    <EXPORT ORDINAL="2477" NAME="_ZN8QtCharts25QCandlestickSeriesPrivateC2EPNS_18QCandlestickSeriesE" PURGE="0" COMMENT="" />
    <EXPORT ORDINAL="2478" NAME="_ZN8QtCharts25QCandlestickSeriesPrivateD0Ev" PURGE="-1" COMMENT="" />
    <EXPORT ORDINAL="2479" NAME="_ZN8QtCharts25QCandlestickSeriesPrivateD1Ev" PURGE="-1" COMMENT="" />
    <EXPORT ORDINAL="2480" NAME="_ZN8QtCharts25QCandlestickSeriesPrivateD2Ev" PURGE="-1" COMMENT="" />
    <EXPORT ORDINAL="2481" NAME="_ZN8QtCharts26PolarChartValueAxisAngular11qt_metacallEN11QMetaObject4CallEiPPv" PURGE="0" COMMENT="" />
    <EXPORT ORDINAL="2482" NAME="_ZN8QtCharts26PolarChartValueAxisAngular11qt_metacastEPKc" PURGE="0" COMMENT="" />
    <EXPORT ORDINAL="2483" NAME="_ZN8QtCharts26PolarChartValueAxisAngular16createAxisLabelsERK7QVectorIdE" PURGE="0" COMMENT="" />
    <EXPORT ORDINAL="2484" NAME="_ZN8QtCharts26PolarChartValueAxisAngular16staticMetaObjectE" PURGE="-1" COMMENT="" />
    <EXPORT ORDINAL="2485" NAME="_ZN8QtCharts26PolarChartValueAxisAngular18qt_static_metacallEP7QObjectN11QMetaObject4CallEiPPv" PURGE="0" COMMENT="" />
    <EXPORT ORDINAL="2486" NAME="_ZN8QtCharts26PolarChartValueAxisAngular22handleTickCountChangedEi" PURGE="0" COMMENT="" />
    <EXPORT ORDINAL="2487" NAME="_ZN8QtCharts26PolarChartValueAxisAngular24handleLabelFormatChangedERK7QString" PURGE="0" COMMENT="" />
    <EXPORT ORDINAL="2488" NAME="_ZN8QtCharts26PolarChartValueAxisAngular27handleMinorTickCountChangedEi" PURGE="0" COMMENT="" />
    <EXPORT ORDINAL="2489" NAME="_ZN8QtCharts26PolarChartValueAxisAngularC1EPNS_10QValueAxisEP13QGraphicsItem" PURGE="0" COMMENT="" />
    <EXPORT ORDINAL="2490" NAME="_ZN8QtCharts26PolarChartValueAxisAngularC2EPNS_10QValueAxisEP13QGraphicsItem" PURGE="0" COMMENT="" />
    <EXPORT ORDINAL="2491" NAME="_ZN8QtCharts26PolarChartValueAxisAngularD0Ev" PURGE="-1" COMMENT="" />
    <EXPORT ORDINAL="2492" NAME="_ZN8QtCharts26PolarChartValueAxisAngularD1Ev" PURGE="-1" COMMENT="" />
    <EXPORT ORDINAL="2493" NAME="_ZN8QtCharts26PolarChartValueAxisAngularD2Ev" PURGE="-1" COMMENT="" />
    <EXPORT ORDINAL="2494" NAME="_ZN8QtCharts27QBoxPlotLegendMarkerPrivate11qt_metacallEN11QMetaObject4CallEiPPv" PURGE="0" COMMENT="" />
    <EXPORT ORDINAL="2495" NAME="_ZN8QtCharts27QBoxPlotLegendMarkerPrivate11qt_metacastEPKc" PURGE="0" COMMENT="" />
    <EXPORT ORDINAL="2496" NAME="_ZN8QtCharts27QBoxPlotLegendMarkerPrivate13relatedObjectEv" PURGE="0" COMMENT="" />
    <EXPORT ORDINAL="2497" NAME="_ZN8QtCharts27QBoxPlotLegendMarkerPrivate16staticMetaObjectE" PURGE="-1" COMMENT="" />
    <EXPORT ORDINAL="2498" NAME="_ZN8QtCharts27QBoxPlotLegendMarkerPrivate18qt_static_metacallEP7QObjectN11QMetaObject4CallEiPPv" PURGE="0" COMMENT="" />
    <EXPORT ORDINAL="2499" NAME="_ZN8QtCharts27QBoxPlotLegendMarkerPrivate6seriesEv" PURGE="0" COMMENT="" />
    <EXPORT ORDINAL="2500" NAME="_ZN8QtCharts27QBoxPlotLegendMarkerPrivate7updatedEv" PURGE="0" COMMENT="" />
    <EXPORT ORDINAL="2501" NAME="_ZN8QtCharts27QBoxPlotLegendMarkerPrivateC1EPNS_20QBoxPlotLegendMarkerEPNS_14QBoxPlotSeriesEPNS_7QLegendE" PURGE="0" COMMENT="" />
    <EXPORT ORDINAL="2502" NAME="_ZN8QtCharts27QBoxPlotLegendMarkerPrivateC2EPNS_20QBoxPlotLegendMarkerEPNS_14QBoxPlotSeriesEPNS_7QLegendE" PURGE="0" COMMENT="" />
    <EXPORT ORDINAL="2503" NAME="_ZN8QtCharts27QBoxPlotLegendMarkerPrivateD0Ev" PURGE="-1" COMMENT="" />
    <EXPORT ORDINAL="2504" NAME="_ZN8QtCharts27QBoxPlotLegendMarkerPrivateD1Ev" PURGE="-1" COMMENT="" />
    <EXPORT ORDINAL="2505" NAME="_ZN8QtCharts27QBoxPlotLegendMarkerPrivateD2Ev" PURGE="-1" COMMENT="" />
    <EXPORT ORDINAL="2506" NAME="_ZN8QtCharts27QHorizontalBarSeriesPrivate16initializeDomainEv" PURGE="0" COMMENT="" />
    <EXPORT ORDINAL="2507" NAME="_ZN8QtCharts27QHorizontalBarSeriesPrivate18initializeGraphicsEP13QGraphicsItem" PURGE="0" COMMENT="" />
    <EXPORT ORDINAL="2508" NAME="_ZN8QtCharts27QHorizontalBarSeriesPrivateC1EPNS_20QHorizontalBarSeriesE" PURGE="0" COMMENT="" />
    <EXPORT ORDINAL="2509" NAME="_ZN8QtCharts27QHorizontalBarSeriesPrivateC2EPNS_20QHorizontalBarSeriesE" PURGE="0" COMMENT="" />
    <EXPORT ORDINAL="2510" NAME="_ZN8QtCharts27QHorizontalPercentBarSeries11qt_metacallEN11QMetaObject4CallEiPPv" PURGE="0" COMMENT="" />
    <EXPORT ORDINAL="2511" NAME="_ZN8QtCharts27QHorizontalPercentBarSeries11qt_metacastEPKc" PURGE="0" COMMENT="" />
    <EXPORT ORDINAL="2512" NAME="_ZN8QtCharts27QHorizontalPercentBarSeries16staticMetaObjectE" PURGE="-1" COMMENT="" />
    <EXPORT ORDINAL="2513" NAME="_ZN8QtCharts27QHorizontalPercentBarSeries18qt_static_metacallEP7QObjectN11QMetaObject4CallEiPPv" PURGE="0" COMMENT="" />
    <EXPORT ORDINAL="2514" NAME="_ZN8QtCharts27QHorizontalPercentBarSeriesC1EP7QObject" PURGE="0" COMMENT="" />
    <EXPORT ORDINAL="2515" NAME="_ZN8QtCharts27QHorizontalPercentBarSeriesC2EP7QObject" PURGE="0" COMMENT="" />
    <EXPORT ORDINAL="2516" NAME="_ZN8QtCharts27QHorizontalPercentBarSeriesD0Ev" PURGE="-1" COMMENT="" />
    <EXPORT ORDINAL="2517" NAME="_ZN8QtCharts27QHorizontalPercentBarSeriesD1Ev" PURGE="0" COMMENT="" />
    <EXPORT ORDINAL="2518" NAME="_ZN8QtCharts27QHorizontalPercentBarSeriesD2Ev" PURGE="0" COMMENT="" />
    <EXPORT ORDINAL="2519" NAME="_ZN8QtCharts27QHorizontalStackedBarSeries11qt_metacallEN11QMetaObject4CallEiPPv" PURGE="0" COMMENT="" />
    <EXPORT ORDINAL="2520" NAME="_ZN8QtCharts27QHorizontalStackedBarSeries11qt_metacastEPKc" PURGE="0" COMMENT="" />
    <EXPORT ORDINAL="2521" NAME="_ZN8QtCharts27QHorizontalStackedBarSeries16staticMetaObjectE" PURGE="-1" COMMENT="" />
    <EXPORT ORDINAL="2522" NAME="_ZN8QtCharts27QHorizontalStackedBarSeries18qt_static_metacallEP7QObjectN11QMetaObject4CallEiPPv" PURGE="0" COMMENT="" />
    <EXPORT ORDINAL="2523" NAME="_ZN8QtCharts27QHorizontalStackedBarSeriesC1EP7QObject" PURGE="0" COMMENT="" />
    <EXPORT ORDINAL="2524" NAME="_ZN8QtCharts27QHorizontalStackedBarSeriesC2EP7QObject" PURGE="0" COMMENT="" />
    <EXPORT ORDINAL="2525" NAME="_ZN8QtCharts27QHorizontalStackedBarSeriesD0Ev" PURGE="-1" COMMENT="" />
    <EXPORT ORDINAL="2526" NAME="_ZN8QtCharts27QHorizontalStackedBarSeriesD1Ev" PURGE="0" COMMENT="" />
    <EXPORT ORDINAL="2527" NAME="_ZN8QtCharts27QHorizontalStackedBarSeriesD2Ev" PURGE="0" COMMENT="" />
    <EXPORT ORDINAL="2528" NAME="_ZN8QtCharts28PolarChartCategoryAxisRadial11qt_metacallEN11QMetaObject4CallEiPPv" PURGE="0" COMMENT="" />
    <EXPORT ORDINAL="2529" NAME="_ZN8QtCharts28PolarChartCategoryAxisRadial11qt_metacastEPKc" PURGE="0" COMMENT="" />
    <EXPORT ORDINAL="2530" NAME="_ZN8QtCharts28PolarChartCategoryAxisRadial16createAxisLabelsERK7QVectorIdE" PURGE="0" COMMENT="" />
    <EXPORT ORDINAL="2531" NAME="_ZN8QtCharts28PolarChartCategoryAxisRadial16staticMetaObjectE" PURGE="-1" COMMENT="" />
    <EXPORT ORDINAL="2532" NAME="_ZN8QtCharts28PolarChartCategoryAxisRadial18qt_static_metacallEP7QObjectN11QMetaObject4CallEiPPv" PURGE="0" COMMENT="" />
    <EXPORT ORDINAL="2533" NAME="_ZN8QtCharts28PolarChartCategoryAxisRadial23handleCategoriesChangedEv" PURGE="-1" COMMENT="" />
    <EXPORT ORDINAL="2534" NAME="_ZN8QtCharts28PolarChartCategoryAxisRadialC1EPNS_13QCategoryAxisEP13QGraphicsItem" PURGE="0" COMMENT="" />
    <EXPORT ORDINAL="2535" NAME="_ZN8QtCharts28PolarChartCategoryAxisRadialC2EPNS_13QCategoryAxisEP13QGraphicsItem" PURGE="0" COMMENT="" />
    <EXPORT ORDINAL="2536" NAME="_ZN8QtCharts28PolarChartCategoryAxisRadialD0Ev" PURGE="-1" COMMENT="" />
    <EXPORT ORDINAL="2537" NAME="_ZN8QtCharts28PolarChartCategoryAxisRadialD1Ev" PURGE="-1" COMMENT="" />
    <EXPORT ORDINAL="2538" NAME="_ZN8QtCharts28PolarChartCategoryAxisRadialD2Ev" PURGE="-1" COMMENT="" />
    <EXPORT ORDINAL="2539" NAME="_ZN8QtCharts28PolarChartDateTimeAxisRadial11qt_metacallEN11QMetaObject4CallEiPPv" PURGE="0" COMMENT="" />
    <EXPORT ORDINAL="2540" NAME="_ZN8QtCharts28PolarChartDateTimeAxisRadial11qt_metacastEPKc" PURGE="0" COMMENT="" />
    <EXPORT ORDINAL="2541" NAME="_ZN8QtCharts28PolarChartDateTimeAxisRadial16createAxisLabelsERK7QVectorIdE" PURGE="0" COMMENT="" />
    <EXPORT ORDINAL="2542" NAME="_ZN8QtCharts28PolarChartDateTimeAxisRadial16staticMetaObjectE" PURGE="-1" COMMENT="" />
    <EXPORT ORDINAL="2543" NAME="_ZN8QtCharts28PolarChartDateTimeAxisRadial18qt_static_metacallEP7QObjectN11QMetaObject4CallEiPPv" PURGE="0" COMMENT="" />
    <EXPORT ORDINAL="2544" NAME="_ZN8QtCharts28PolarChartDateTimeAxisRadial19handleFormatChangedERK7QString" PURGE="0" COMMENT="" />
    <EXPORT ORDINAL="2545" NAME="_ZN8QtCharts28PolarChartDateTimeAxisRadial22handleTickCountChangedEi" PURGE="0" COMMENT="" />
    <EXPORT ORDINAL="2546" NAME="_ZN8QtCharts28PolarChartDateTimeAxisRadialC1EPNS_13QDateTimeAxisEP13QGraphicsItem" PURGE="0" COMMENT="" />
    <EXPORT ORDINAL="2547" NAME="_ZN8QtCharts28PolarChartDateTimeAxisRadialC2EPNS_13QDateTimeAxisEP13QGraphicsItem" PURGE="0" COMMENT="" />
    <EXPORT ORDINAL="2548" NAME="_ZN8QtCharts28PolarChartDateTimeAxisRadialD0Ev" PURGE="-1" COMMENT="" />
    <EXPORT ORDINAL="2549" NAME="_ZN8QtCharts28PolarChartDateTimeAxisRadialD1Ev" PURGE="-1" COMMENT="" />
    <EXPORT ORDINAL="2550" NAME="_ZN8QtCharts28PolarChartDateTimeAxisRadialD2Ev" PURGE="-1" COMMENT="" />
    <EXPORT ORDINAL="2551" NAME="_ZN8QtCharts28PolarChartLogValueAxisRadial11qt_metacallEN11QMetaObject4CallEiPPv" PURGE="0" COMMENT="" />
    <EXPORT ORDINAL="2552" NAME="_ZN8QtCharts28PolarChartLogValueAxisRadial11qt_metacastEPKc" PURGE="0" COMMENT="" />
    <EXPORT ORDINAL="2553" NAME="_ZN8QtCharts28PolarChartLogValueAxisRadial16createAxisLabelsERK7QVectorIdE" PURGE="0" COMMENT="" />
    <EXPORT ORDINAL="2554" NAME="_ZN8QtCharts28PolarChartLogValueAxisRadial16staticMetaObjectE" PURGE="-1" COMMENT="" />
    <EXPORT ORDINAL="2555" NAME="_ZN8QtCharts28PolarChartLogValueAxisRadial17handleBaseChangedEd" PURGE="0" COMMENT="" />
    <EXPORT ORDINAL="2556" NAME="_ZN8QtCharts28PolarChartLogValueAxisRadial18qt_static_metacallEP7QObjectN11QMetaObject4CallEiPPv" PURGE="0" COMMENT="" />
    <EXPORT ORDINAL="2557" NAME="_ZN8QtCharts28PolarChartLogValueAxisRadial24handleLabelFormatChangedERK7QString" PURGE="0" COMMENT="" />
    <EXPORT ORDINAL="2558" NAME="_ZN8QtCharts28PolarChartLogValueAxisRadialC1EPNS_13QLogValueAxisEP13QGraphicsItem" PURGE="0" COMMENT="" />
    <EXPORT ORDINAL="2559" NAME="_ZN8QtCharts28PolarChartLogValueAxisRadialC2EPNS_13QLogValueAxisEP13QGraphicsItem" PURGE="0" COMMENT="" />
    <EXPORT ORDINAL="2560" NAME="_ZN8QtCharts28PolarChartLogValueAxisRadialD0Ev" PURGE="-1" COMMENT="" />
    <EXPORT ORDINAL="2561" NAME="_ZN8QtCharts28PolarChartLogValueAxisRadialD1Ev" PURGE="-1" COMMENT="" />
    <EXPORT ORDINAL="2562" NAME="_ZN8QtCharts28PolarChartLogValueAxisRadialD2Ev" PURGE="-1" COMMENT="" />
    <EXPORT ORDINAL="2563" NAME="_ZN8QtCharts29CandlestickBodyWicksAnimation10setEndDataERKNS_15CandlestickDataE" PURGE="0" COMMENT="" />
    <EXPORT ORDINAL="2564" NAME="_ZN8QtCharts29CandlestickBodyWicksAnimation11qt_metacallEN11QMetaObject4CallEiPPv" PURGE="0" COMMENT="" />
    <EXPORT ORDINAL="2565" NAME="_ZN8QtCharts29CandlestickBodyWicksAnimation11qt_metacastEPKc" PURGE="0" COMMENT="" />
    <EXPORT ORDINAL="2566" NAME="_ZN8QtCharts29CandlestickBodyWicksAnimation12setStartDataERKNS_15CandlestickDataE" PURGE="0" COMMENT="" />
    <EXPORT ORDINAL="2567" NAME="_ZN8QtCharts29CandlestickBodyWicksAnimation16staticMetaObjectE" PURGE="-1" COMMENT="" />
    <EXPORT ORDINAL="2568" NAME="_ZN8QtCharts29CandlestickBodyWicksAnimation18qt_static_metacallEP7QObjectN11QMetaObject4CallEiPPv" PURGE="0" COMMENT="" />
    <EXPORT ORDINAL="2569" NAME="_ZN8QtCharts29CandlestickBodyWicksAnimation18updateCurrentValueERK8QVariant" PURGE="0" COMMENT="" />
    <EXPORT ORDINAL="2570" NAME="_ZN8QtCharts29CandlestickBodyWicksAnimation5setupERKNS_15CandlestickDataES3_" PURGE="0" COMMENT="" />
    <EXPORT ORDINAL="2571" NAME="_ZN8QtCharts29CandlestickBodyWicksAnimationC1EPNS_11CandlestickEPNS_20CandlestickAnimationEiR12QEasingCurve" PURGE="-1" COMMENT="" />
    <EXPORT ORDINAL="2572" NAME="_ZN8QtCharts29CandlestickBodyWicksAnimationC2EPNS_11CandlestickEPNS_20CandlestickAnimationEiR12QEasingCurve" PURGE="-1" COMMENT="" />
    <EXPORT ORDINAL="2573" NAME="_ZN8QtCharts29CandlestickBodyWicksAnimationD0Ev" PURGE="-1" COMMENT="" />
    <EXPORT ORDINAL="2574" NAME="_ZN8QtCharts29CandlestickBodyWicksAnimationD1Ev" PURGE="-1" COMMENT="" />
    <EXPORT ORDINAL="2575" NAME="_ZN8QtCharts29CandlestickBodyWicksAnimationD2Ev" PURGE="-1" COMMENT="" />
    <EXPORT ORDINAL="2576" NAME="_ZN8QtCharts29HorizontalPercentBarChartItem11qt_metacallEN11QMetaObject4CallEiPPv" PURGE="0" COMMENT="" />
    <EXPORT ORDINAL="2577" NAME="_ZN8QtCharts29HorizontalPercentBarChartItem11qt_metacastEPKc" PURGE="0" COMMENT="" />
    <EXPORT ORDINAL="2578" NAME="_ZN8QtCharts29HorizontalPercentBarChartItem12topLeftPointEidd" PURGE="0" COMMENT="" />
    <EXPORT ORDINAL="2579" NAME="_ZN8QtCharts29HorizontalPercentBarChartItem15calculateLayoutEv" PURGE="0" COMMENT="" />
    <EXPORT ORDINAL="2580" NAME="_ZN8QtCharts29HorizontalPercentBarChartItem15markLabelsDirtyEPNS_7QBarSetEii" PURGE="0" COMMENT="" />
    <EXPORT ORDINAL="2581" NAME="_ZN8QtCharts29HorizontalPercentBarChartItem16bottomRightPointEidd" PURGE="0" COMMENT="" />
    <EXPORT ORDINAL="2582" NAME="_ZN8QtCharts29HorizontalPercentBarChartItem16initializeLayoutEiiib" PURGE="0" COMMENT="" />
    <EXPORT ORDINAL="2583" NAME="_ZN8QtCharts29HorizontalPercentBarChartItem16staticMetaObjectE" PURGE="-1" COMMENT="" />
    <EXPORT ORDINAL="2584" NAME="_ZN8QtCharts29HorizontalPercentBarChartItem17generateLabelTextEiid" PURGE="0" COMMENT="" />
    <EXPORT ORDINAL="2585" NAME="_ZN8QtCharts29HorizontalPercentBarChartItem18qt_static_metacallEP7QObjectN11QMetaObject4CallEiPPv" PURGE="0" COMMENT="" />
    <EXPORT ORDINAL="2586" NAME="_ZN8QtCharts29HorizontalPercentBarChartItemC1EPNS_18QAbstractBarSeriesEP13QGraphicsItem" PURGE="0" COMMENT="" />
    <EXPORT ORDINAL="2587" NAME="_ZN8QtCharts29HorizontalPercentBarChartItemC2EPNS_18QAbstractBarSeriesEP13QGraphicsItem" PURGE="0" COMMENT="" />
    <EXPORT ORDINAL="2588" NAME="_ZN8QtCharts29HorizontalStackedBarChartItem11qt_metacallEN11QMetaObject4CallEiPPv" PURGE="0" COMMENT="" />
    <EXPORT ORDINAL="2589" NAME="_ZN8QtCharts29HorizontalStackedBarChartItem11qt_metacastEPKc" PURGE="0" COMMENT="" />
    <EXPORT ORDINAL="2590" NAME="_ZN8QtCharts29HorizontalStackedBarChartItem12topLeftPointEidd" PURGE="0" COMMENT="" />
    <EXPORT ORDINAL="2591" NAME="_ZN8QtCharts29HorizontalStackedBarChartItem15calculateLayoutEv" PURGE="0" COMMENT="" />
    <EXPORT ORDINAL="2592" NAME="_ZN8QtCharts29HorizontalStackedBarChartItem16bottomRightPointEidd" PURGE="0" COMMENT="" />
    <EXPORT ORDINAL="2593" NAME="_ZN8QtCharts29HorizontalStackedBarChartItem16initializeLayoutEiiib" PURGE="0" COMMENT="" />
    <EXPORT ORDINAL="2594" NAME="_ZN8QtCharts29HorizontalStackedBarChartItem16staticMetaObjectE" PURGE="-1" COMMENT="" />
    <EXPORT ORDINAL="2595" NAME="_ZN8QtCharts29HorizontalStackedBarChartItem18qt_static_metacallEP7QObjectN11QMetaObject4CallEiPPv" PURGE="0" COMMENT="" />
    <EXPORT ORDINAL="2596" NAME="_ZN8QtCharts29HorizontalStackedBarChartItemC1EPNS_18QAbstractBarSeriesEP13QGraphicsItem" PURGE="0" COMMENT="" />
    <EXPORT ORDINAL="2597" NAME="_ZN8QtCharts29HorizontalStackedBarChartItemC2EPNS_18QAbstractBarSeriesEP13QGraphicsItem" PURGE="0" COMMENT="" />
    <EXPORT ORDINAL="2598" NAME="_ZN8QtCharts29PolarChartCategoryAxisAngular11qt_metacallEN11QMetaObject4CallEiPPv" PURGE="0" COMMENT="" />
    <EXPORT ORDINAL="2599" NAME="_ZN8QtCharts29PolarChartCategoryAxisAngular11qt_metacastEPKc" PURGE="0" COMMENT="" />
    <EXPORT ORDINAL="2600" NAME="_ZN8QtCharts29PolarChartCategoryAxisAngular16createAxisLabelsERK7QVectorIdE" PURGE="0" COMMENT="" />
    <EXPORT ORDINAL="2601" NAME="_ZN8QtCharts29PolarChartCategoryAxisAngular16staticMetaObjectE" PURGE="-1" COMMENT="" />
    <EXPORT ORDINAL="2602" NAME="_ZN8QtCharts29PolarChartCategoryAxisAngular18qt_static_metacallEP7QObjectN11QMetaObject4CallEiPPv" PURGE="0" COMMENT="" />
    <EXPORT ORDINAL="2603" NAME="_ZN8QtCharts29PolarChartCategoryAxisAngular23handleCategoriesChangedEv" PURGE="-1" COMMENT="" />
    <EXPORT ORDINAL="2604" NAME="_ZN8QtCharts29PolarChartCategoryAxisAngularC1EPNS_13QCategoryAxisEP13QGraphicsItem" PURGE="0" COMMENT="" />
    <EXPORT ORDINAL="2605" NAME="_ZN8QtCharts29PolarChartCategoryAxisAngularC2EPNS_13QCategoryAxisEP13QGraphicsItem" PURGE="0" COMMENT="" />
    <EXPORT ORDINAL="2606" NAME="_ZN8QtCharts29PolarChartCategoryAxisAngularD0Ev" PURGE="-1" COMMENT="" />
    <EXPORT ORDINAL="2607" NAME="_ZN8QtCharts29PolarChartCategoryAxisAngularD1Ev" PURGE="-1" COMMENT="" />
    <EXPORT ORDINAL="2608" NAME="_ZN8QtCharts29PolarChartCategoryAxisAngularD2Ev" PURGE="-1" COMMENT="" />
    <EXPORT ORDINAL="2609" NAME="_ZN8QtCharts29PolarChartDateTimeAxisAngular11qt_metacallEN11QMetaObject4CallEiPPv" PURGE="0" COMMENT="" />
    <EXPORT ORDINAL="2610" NAME="_ZN8QtCharts29PolarChartDateTimeAxisAngular11qt_metacastEPKc" PURGE="0" COMMENT="" />
    <EXPORT ORDINAL="2611" NAME="_ZN8QtCharts29PolarChartDateTimeAxisAngular16createAxisLabelsERK7QVectorIdE" PURGE="0" COMMENT="" />
    <EXPORT ORDINAL="2612" NAME="_ZN8QtCharts29PolarChartDateTimeAxisAngular16staticMetaObjectE" PURGE="-1" COMMENT="" />
    <EXPORT ORDINAL="2613" NAME="_ZN8QtCharts29PolarChartDateTimeAxisAngular18qt_static_metacallEP7QObjectN11QMetaObject4CallEiPPv" PURGE="0" COMMENT="" />
    <EXPORT ORDINAL="2614" NAME="_ZN8QtCharts29PolarChartDateTimeAxisAngular19handleFormatChangedERK7QString" PURGE="0" COMMENT="" />
    <EXPORT ORDINAL="2615" NAME="_ZN8QtCharts29PolarChartDateTimeAxisAngular22handleTickCountChangedEi" PURGE="0" COMMENT="" />
    <EXPORT ORDINAL="2616" NAME="_ZN8QtCharts29PolarChartDateTimeAxisAngularC1EPNS_13QDateTimeAxisEP13QGraphicsItem" PURGE="0" COMMENT="" />
    <EXPORT ORDINAL="2617" NAME="_ZN8QtCharts29PolarChartDateTimeAxisAngularC2EPNS_13QDateTimeAxisEP13QGraphicsItem" PURGE="0" COMMENT="" />
    <EXPORT ORDINAL="2618" NAME="_ZN8QtCharts29PolarChartDateTimeAxisAngularD0Ev" PURGE="-1" COMMENT="" />
    <EXPORT ORDINAL="2619" NAME="_ZN8QtCharts29PolarChartDateTimeAxisAngularD1Ev" PURGE="-1" COMMENT="" />
    <EXPORT ORDINAL="2620" NAME="_ZN8QtCharts29PolarChartDateTimeAxisAngularD2Ev" PURGE="-1" COMMENT="" />
    <EXPORT ORDINAL="2621" NAME="_ZN8QtCharts29PolarChartLogValueAxisAngular11qt_metacallEN11QMetaObject4CallEiPPv" PURGE="0" COMMENT="" />
    <EXPORT ORDINAL="2622" NAME="_ZN8QtCharts29PolarChartLogValueAxisAngular11qt_metacastEPKc" PURGE="0" COMMENT="" />
    <EXPORT ORDINAL="2623" NAME="_ZN8QtCharts29PolarChartLogValueAxisAngular16createAxisLabelsERK7QVectorIdE" PURGE="0" COMMENT="" />
    <EXPORT ORDINAL="2624" NAME="_ZN8QtCharts29PolarChartLogValueAxisAngular16staticMetaObjectE" PURGE="-1" COMMENT="" />
    <EXPORT ORDINAL="2625" NAME="_ZN8QtCharts29PolarChartLogValueAxisAngular17handleBaseChangedEd" PURGE="0" COMMENT="" />
    <EXPORT ORDINAL="2626" NAME="_ZN8QtCharts29PolarChartLogValueAxisAngular18qt_static_metacallEP7QObjectN11QMetaObject4CallEiPPv" PURGE="0" COMMENT="" />
    <EXPORT ORDINAL="2627" NAME="_ZN8QtCharts29PolarChartLogValueAxisAngular24handleLabelFormatChangedERK7QString" PURGE="0" COMMENT="" />
    <EXPORT ORDINAL="2628" NAME="_ZN8QtCharts29PolarChartLogValueAxisAngularC1EPNS_13QLogValueAxisEP13QGraphicsItem" PURGE="0" COMMENT="" />
    <EXPORT ORDINAL="2629" NAME="_ZN8QtCharts29PolarChartLogValueAxisAngularC2EPNS_13QLogValueAxisEP13QGraphicsItem" PURGE="0" COMMENT="" />
    <EXPORT ORDINAL="2630" NAME="_ZN8QtCharts29PolarChartLogValueAxisAngularD0Ev" PURGE="-1" COMMENT="" />
    <EXPORT ORDINAL="2631" NAME="_ZN8QtCharts29PolarChartLogValueAxisAngularD1Ev" PURGE="-1" COMMENT="" />
    <EXPORT ORDINAL="2632" NAME="_ZN8QtCharts29PolarChartLogValueAxisAngularD2Ev" PURGE="-1" COMMENT="" />
    <EXPORT ORDINAL="2633" NAME="_ZN8QtCharts30QCandlestickModelMapperPrivate10insertDataEii" PURGE="0" COMMENT="" />
    <EXPORT ORDINAL="2634" NAME="_ZN8QtCharts30QCandlestickModelMapperPrivate10lowChangedEv" PURGE="-1" COMMENT="" />
    <EXPORT ORDINAL="2635" NAME="_ZN8QtCharts30QCandlestickModelMapperPrivate10removeDataEii" PURGE="0" COMMENT="" />
    <EXPORT ORDINAL="2636" NAME="_ZN8QtCharts30QCandlestickModelMapperPrivate11highChangedEv" PURGE="-1" COMMENT="" />
    <EXPORT ORDINAL="2637" NAME="_ZN8QtCharts30QCandlestickModelMapperPrivate11openChangedEv" PURGE="-1" COMMENT="" />
    <EXPORT ORDINAL="2638" NAME="_ZN8QtCharts30QCandlestickModelMapperPrivate11qt_metacallEN11QMetaObject4CallEiPPv" PURGE="0" COMMENT="" />
    <EXPORT ORDINAL="2639" NAME="_ZN8QtCharts30QCandlestickModelMapperPrivate11qt_metacastEPKc" PURGE="0" COMMENT="" />
    <EXPORT ORDINAL="2640" NAME="_ZN8QtCharts30QCandlestickModelMapperPrivate12closeChangedEv" PURGE="-1" COMMENT="" />
    <EXPORT ORDINAL="2641" NAME="_ZN8QtCharts30QCandlestickModelMapperPrivate14candlestickSetE11QModelIndex" PURGE="0" COMMENT="" />
    <EXPORT ORDINAL="2642" NAME="_ZN8QtCharts30QCandlestickModelMapperPrivate14modelDestroyedEv" PURGE="0" COMMENT="" />
    <EXPORT ORDINAL="2643" NAME="_ZN8QtCharts30QCandlestickModelMapperPrivate15seriesDestroyedEv" PURGE="0" COMMENT="" />
    <EXPORT ORDINAL="2644" NAME="_ZN8QtCharts30QCandlestickModelMapperPrivate16modelDataUpdatedE11QModelIndexS1_" PURGE="0" COMMENT="" />
    <EXPORT ORDINAL="2645" NAME="_ZN8QtCharts30QCandlestickModelMapperPrivate16modelRowsRemovedE11QModelIndexii" PURGE="0" COMMENT="" />
    <EXPORT ORDINAL="2646" NAME="_ZN8QtCharts30QCandlestickModelMapperPrivate16staticMetaObjectE" PURGE="-1" COMMENT="" />
    <EXPORT ORDINAL="2647" NAME="_ZN8QtCharts30QCandlestickModelMapperPrivate16timestampChangedEv" PURGE="-1" COMMENT="" />
    <EXPORT ORDINAL="2648" NAME="_ZN8QtCharts30QCandlestickModelMapperPrivate17blockModelSignalsEb" PURGE="0" COMMENT="" />
    <EXPORT ORDINAL="2649" NAME="_ZN8QtCharts30QCandlestickModelMapperPrivate17modelRowsInsertedE11QModelIndexii" PURGE="0" COMMENT="" />
    <EXPORT ORDINAL="2650" NAME="_ZN8QtCharts30QCandlestickModelMapperPrivate18blockSeriesSignalsEb" PURGE="0" COMMENT="" />
    <EXPORT ORDINAL="2651" NAME="_ZN8QtCharts30QCandlestickModelMapperPrivate18qt_static_metacallEP7QObjectN11QMetaObject4CallEiPPv" PURGE="0" COMMENT="" />
    <EXPORT ORDINAL="2652" NAME="_ZN8QtCharts30QCandlestickModelMapperPrivate19modelColumnsRemovedE11QModelIndexii" PURGE="0" COMMENT="" />
    <EXPORT ORDINAL="2653" NAME="_ZN8QtCharts30QCandlestickModelMapperPrivate20candlestickSetsAddedERK5QListIPNS_15QCandlestickSetEE" PURGE="0" COMMENT="" />
    <EXPORT ORDINAL="2654" NAME="_ZN8QtCharts30QCandlestickModelMapperPrivate20modelColumnsInsertedE11QModelIndexii" PURGE="0" COMMENT="" />
    <EXPORT ORDINAL="2655" NAME="_ZN8QtCharts30QCandlestickModelMapperPrivate21candlestickModelIndexEii" PURGE="0" COMMENT="" />
    <EXPORT ORDINAL="2656" NAME="_ZN8QtCharts30QCandlestickModelMapperPrivate21candlestickSetChangedEv" PURGE="0" COMMENT="" />
    <EXPORT ORDINAL="2657" NAME="_ZN8QtCharts30QCandlestickModelMapperPrivate21lastSetSectionChangedEv" PURGE="-1" COMMENT="" />
    <EXPORT ORDINAL="2658" NAME="_ZN8QtCharts30QCandlestickModelMapperPrivate22candlestickSetsRemovedERK5QListIPNS_15QCandlestickSetEE" PURGE="0" COMMENT="" />
    <EXPORT ORDINAL="2659" NAME="_ZN8QtCharts30QCandlestickModelMapperPrivate22firstSetSectionChangedEv" PURGE="-1" COMMENT="" />
    <EXPORT ORDINAL="2660" NAME="_ZN8QtCharts30QCandlestickModelMapperPrivate22modelHeaderDataUpdatedEN2Qt11OrientationEii" PURGE="0" COMMENT="" />
    <EXPORT ORDINAL="2661" NAME="_ZN8QtCharts30QCandlestickModelMapperPrivate30initializeCandlestickFromModelEv" PURGE="0" COMMENT="" />
    <EXPORT ORDINAL="2662" NAME="_ZN8QtCharts30QCandlestickModelMapperPrivateC1EPNS_23QCandlestickModelMapperE" PURGE="0" COMMENT="" />
    <EXPORT ORDINAL="2663" NAME="_ZN8QtCharts30QCandlestickModelMapperPrivateC2EPNS_23QCandlestickModelMapperE" PURGE="0" COMMENT="" />
    <EXPORT ORDINAL="2664" NAME="_ZN8QtCharts31QCandlestickLegendMarkerPrivate11qt_metacallEN11QMetaObject4CallEiPPv" PURGE="0" COMMENT="" />
    <EXPORT ORDINAL="2665" NAME="_ZN8QtCharts31QCandlestickLegendMarkerPrivate11qt_metacastEPKc" PURGE="0" COMMENT="" />
    <EXPORT ORDINAL="2666" NAME="_ZN8QtCharts31QCandlestickLegendMarkerPrivate13relatedObjectEv" PURGE="0" COMMENT="" />
    <EXPORT ORDINAL="2667" NAME="_ZN8QtCharts31QCandlestickLegendMarkerPrivate16staticMetaObjectE" PURGE="-1" COMMENT="" />
    <EXPORT ORDINAL="2668" NAME="_ZN8QtCharts31QCandlestickLegendMarkerPrivate18qt_static_metacallEP7QObjectN11QMetaObject4CallEiPPv" PURGE="0" COMMENT="" />
    <EXPORT ORDINAL="2669" NAME="_ZN8QtCharts31QCandlestickLegendMarkerPrivate6seriesEv" PURGE="0" COMMENT="" />
    <EXPORT ORDINAL="2670" NAME="_ZN8QtCharts31QCandlestickLegendMarkerPrivate7updatedEv" PURGE="0" COMMENT="" />
    <EXPORT ORDINAL="2671" NAME="_ZN8QtCharts31QCandlestickLegendMarkerPrivateC1EPNS_24QCandlestickLegendMarkerEPNS_18QCandlestickSeriesEPNS_7QLegendE" PURGE="0" COMMENT="" />
    <EXPORT ORDINAL="2672" NAME="_ZN8QtCharts31QCandlestickLegendMarkerPrivateC2EPNS_24QCandlestickLegendMarkerEPNS_18QCandlestickSeriesEPNS_7QLegendE" PURGE="0" COMMENT="" />
    <EXPORT ORDINAL="2673" NAME="_ZN8QtCharts31QCandlestickLegendMarkerPrivateD0Ev" PURGE="-1" COMMENT="" />
    <EXPORT ORDINAL="2674" NAME="_ZN8QtCharts31QCandlestickLegendMarkerPrivateD1Ev" PURGE="-1" COMMENT="" />
    <EXPORT ORDINAL="2675" NAME="_ZN8QtCharts31QCandlestickLegendMarkerPrivateD2Ev" PURGE="-1" COMMENT="" />
    <EXPORT ORDINAL="2676" NAME="_ZN8QtCharts34QHorizontalPercentBarSeriesPrivate16initializeDomainEv" PURGE="0" COMMENT="" />
    <EXPORT ORDINAL="2677" NAME="_ZN8QtCharts34QHorizontalPercentBarSeriesPrivate18initializeGraphicsEP13QGraphicsItem" PURGE="0" COMMENT="" />
    <EXPORT ORDINAL="2678" NAME="_ZN8QtCharts34QHorizontalPercentBarSeriesPrivateC1EPNS_27QHorizontalPercentBarSeriesE" PURGE="0" COMMENT="" />
    <EXPORT ORDINAL="2679" NAME="_ZN8QtCharts34QHorizontalPercentBarSeriesPrivateC2EPNS_27QHorizontalPercentBarSeriesE" PURGE="0" COMMENT="" />
    <EXPORT ORDINAL="2680" NAME="_ZN8QtCharts34QHorizontalStackedBarSeriesPrivate16initializeDomainEv" PURGE="0" COMMENT="" />
    <EXPORT ORDINAL="2681" NAME="_ZN8QtCharts34QHorizontalStackedBarSeriesPrivate18initializeGraphicsEP13QGraphicsItem" PURGE="0" COMMENT="" />
    <EXPORT ORDINAL="2682" NAME="_ZN8QtCharts34QHorizontalStackedBarSeriesPrivateC1EPNS_27QHorizontalStackedBarSeriesE" PURGE="0" COMMENT="" />
    <EXPORT ORDINAL="2683" NAME="_ZN8QtCharts34QHorizontalStackedBarSeriesPrivateC2EPNS_27QHorizontalStackedBarSeriesE" PURGE="0" COMMENT="" />
    <EXPORT ORDINAL="2684" NAME="_ZN8QtCharts3Bar11qt_metacallEN11QMetaObject4CallEiPPv" PURGE="0" COMMENT="" />
    <EXPORT ORDINAL="2685" NAME="_ZN8QtCharts3Bar11qt_metacastEPKc" PURGE="0" COMMENT="" />
    <EXPORT ORDINAL="2686" NAME="_ZN8QtCharts3Bar13doubleClickedEiPNS_7QBarSetE" PURGE="0" COMMENT="" />
    <EXPORT ORDINAL="2687" NAME="_ZN8QtCharts3Bar15hoverEnterEventEP24QGraphicsSceneHoverEvent" PURGE="0" COMMENT="" />
    <EXPORT ORDINAL="2688" NAME="_ZN8QtCharts3Bar15hoverLeaveEventEP24QGraphicsSceneHoverEvent" PURGE="0" COMMENT="" />
    <EXPORT ORDINAL="2689" NAME="_ZN8QtCharts3Bar15mousePressEventEP24QGraphicsSceneMouseEvent" PURGE="0" COMMENT="" />
    <EXPORT ORDINAL="2690" NAME="_ZN8QtCharts3Bar16staticMetaObjectE" PURGE="-1" COMMENT="" />
    <EXPORT ORDINAL="2691" NAME="_ZN8QtCharts3Bar17mouseReleaseEventEP24QGraphicsSceneMouseEvent" PURGE="0" COMMENT="" />
    <EXPORT ORDINAL="2692" NAME="_ZN8QtCharts3Bar18qt_static_metacallEP7QObjectN11QMetaObject4CallEiPPv" PURGE="0" COMMENT="" />
    <EXPORT ORDINAL="2693" NAME="_ZN8QtCharts3Bar21mouseDoubleClickEventEP24QGraphicsSceneMouseEvent" PURGE="0" COMMENT="" />
    <EXPORT ORDINAL="2694" NAME="_ZN8QtCharts3Bar5paintEP8QPainterPK24QStyleOptionGraphicsItemP7QWidget" PURGE="0" COMMENT="" />
    <EXPORT ORDINAL="2695" NAME="_ZN8QtCharts3Bar7clickedEiPNS_7QBarSetE" PURGE="0" COMMENT="" />
    <EXPORT ORDINAL="2696" NAME="_ZN8QtCharts3Bar7hoveredEbiPNS_7QBarSetE" PURGE="0" COMMENT="" />
    <EXPORT ORDINAL="2697" NAME="_ZN8QtCharts3Bar7pressedEiPNS_7QBarSetE" PURGE="0" COMMENT="" />
    <EXPORT ORDINAL="2698" NAME="_ZN8QtCharts3Bar8releasedEiPNS_7QBarSetE" PURGE="0" COMMENT="" />
    <EXPORT ORDINAL="2699" NAME="_ZN8QtCharts3BarC1EPNS_7QBarSetEP13QGraphicsItem" PURGE="-1" COMMENT="" />
    <EXPORT ORDINAL="2700" NAME="_ZN8QtCharts3BarC2EPNS_7QBarSetEP13QGraphicsItem" PURGE="-1" COMMENT="" />
    <EXPORT ORDINAL="2701" NAME="_ZN8QtCharts3BarD0Ev" PURGE="-1" COMMENT="" />
    <EXPORT ORDINAL="2702" NAME="_ZN8QtCharts3BarD1Ev" PURGE="0" COMMENT="" />
    <EXPORT ORDINAL="2703" NAME="_ZN8QtCharts3BarD2Ev" PURGE="0" COMMENT="" />
    <EXPORT ORDINAL="2704" NAME="_ZN8QtCharts6QChart10mapToValueERK7QPointFPNS_15QAbstractSeriesE" PURGE="0" COMMENT="" />
    <EXPORT ORDINAL="2705" NAME="_ZN8QtCharts6QChart10removeAxisEPNS_13QAbstractAxisE" PURGE="0" COMMENT="" />
    <EXPORT ORDINAL="2706" NAME="_ZN8QtCharts6QChart10setMarginsERK8QMargins" PURGE="-1" COMMENT="" />
    <EXPORT ORDINAL="2707" NAME="_ZN8QtCharts6QChart11qt_metacallEN11QMetaObject4CallEiPPv" PURGE="0" COMMENT="" />
    <EXPORT ORDINAL="2708" NAME="_ZN8QtCharts6QChart11qt_metacastEPKc" PURGE="0" COMMENT="" />
    <EXPORT ORDINAL="2709" NAME="_ZN8QtCharts6QChart11setPlotAreaERK6QRectF" PURGE="0" COMMENT="" />
    <EXPORT ORDINAL="2710" NAME="_ZN8QtCharts6QChart12removeSeriesEPNS_15QAbstractSeriesE" PURGE="0" COMMENT="" />
    <EXPORT ORDINAL="2711" NAME="_ZN8QtCharts6QChart12setTitleFontERK5QFont" PURGE="-1" COMMENT="" />
    <EXPORT ORDINAL="2712" NAME="_ZN8QtCharts6QChart13mapToPositionERK7QPointFPNS_15QAbstractSeriesE" PURGE="0" COMMENT="" />
    <EXPORT ORDINAL="2713" NAME="_ZN8QtCharts6QChart13setTitleBrushERK6QBrush" PURGE="-1" COMMENT="" />
    <EXPORT ORDINAL="2714" NAME="_ZN8QtCharts6QChart15plotAreaChangedERK6QRectF" PURGE="0" COMMENT="" />
    <EXPORT ORDINAL="2715" NAME="_ZN8QtCharts6QChart15removeAllSeriesEv" PURGE="0" COMMENT="" />
    <EXPORT ORDINAL="2716" NAME="_ZN8QtCharts6QChart16setBackgroundPenERK4QPen" PURGE="-1" COMMENT="" />
    <EXPORT ORDINAL="2717" NAME="_ZN8QtCharts6QChart16staticMetaObjectE" PURGE="-1" COMMENT="" />
    <EXPORT ORDINAL="2718" NAME="_ZN8QtCharts6QChart17createDefaultAxesEv" PURGE="0" COMMENT="" />
    <EXPORT ORDINAL="2719" NAME="_ZN8QtCharts6QChart18qt_static_metacallEP7QObjectN11QMetaObject4CallEiPPv" PURGE="0" COMMENT="" />
    <EXPORT ORDINAL="2720" NAME="_ZN8QtCharts6QChart18setBackgroundBrushERK6QBrush" PURGE="-1" COMMENT="" />
    <EXPORT ORDINAL="2721" NAME="_ZN8QtCharts6QChart18setLocalizeNumbersEb" PURGE="-1" COMMENT="" />
    <EXPORT ORDINAL="2722" NAME="_ZN8QtCharts6QChart19setAnimationOptionsE6QFlagsINS0_15AnimationOptionEE" PURGE="0" COMMENT="" />
    <EXPORT ORDINAL="2723" NAME="_ZN8QtCharts6QChart20setAnimationDurationEi" PURGE="0" COMMENT="" />
    <EXPORT ORDINAL="2724" NAME="_ZN8QtCharts6QChart20setBackgroundVisibleEb" PURGE="-1" COMMENT="" />
    <EXPORT ORDINAL="2725" NAME="_ZN8QtCharts6QChart20setDropShadowEnabledEb" PURGE="0" COMMENT="" />
    <EXPORT ORDINAL="2726" NAME="_ZN8QtCharts6QChart22setBackgroundRoundnessEd" PURGE="-1" COMMENT="" />
    <EXPORT ORDINAL="2727" NAME="_ZN8QtCharts6QChart23setAnimationEasingCurveERK12QEasingCurve" PURGE="0" COMMENT="" />
    <EXPORT ORDINAL="2728" NAME="_ZN8QtCharts6QChart24setPlotAreaBackgroundPenERK4QPen" PURGE="-1" COMMENT="" />
    <EXPORT ORDINAL="2729" NAME="_ZN8QtCharts6QChart26setPlotAreaBackgroundBrushERK6QBrush" PURGE="-1" COMMENT="" />
    <EXPORT ORDINAL="2730" NAME="_ZN8QtCharts6QChart28setPlotAreaBackgroundVisibleEb" PURGE="-1" COMMENT="" />
    <EXPORT ORDINAL="2731" NAME="_ZN8QtCharts6QChart4zoomEd" PURGE="0" COMMENT="" />
    <EXPORT ORDINAL="2732" NAME="_ZN8QtCharts6QChart6scrollEdd" PURGE="0" COMMENT="" />
    <EXPORT ORDINAL="2733" NAME="_ZN8QtCharts6QChart6zoomInERK6QRectF" PURGE="0" COMMENT="" />
    <EXPORT ORDINAL="2734" NAME="_ZN8QtCharts6QChart6zoomInEv" PURGE="0" COMMENT="" />
    <EXPORT ORDINAL="2735" NAME="_ZN8QtCharts6QChart7addAxisEPNS_13QAbstractAxisE6QFlagsIN2Qt13AlignmentFlagEE" PURGE="0" COMMENT="" />
    <EXPORT ORDINAL="2736" NAME="_ZN8QtCharts6QChart7zoomOutEv" PURGE="0" COMMENT="" />
    <EXPORT ORDINAL="2737" NAME="_ZN8QtCharts6QChart8isZoomedEv" PURGE="0" COMMENT="" />
    <EXPORT ORDINAL="2738" NAME="_ZN8QtCharts6QChart8setAxisXEPNS_13QAbstractAxisEPNS_15QAbstractSeriesE" PURGE="0" COMMENT="" />
    <EXPORT ORDINAL="2739" NAME="_ZN8QtCharts6QChart8setAxisYEPNS_13QAbstractAxisEPNS_15QAbstractSeriesE" PURGE="0" COMMENT="" />
    <EXPORT ORDINAL="2740" NAME="_ZN8QtCharts6QChart8setThemeENS0_10ChartThemeE" PURGE="0" COMMENT="" />
    <EXPORT ORDINAL="2741" NAME="_ZN8QtCharts6QChart8setTitleERK7QString" PURGE="-1" COMMENT="" />
    <EXPORT ORDINAL="2742" NAME="_ZN8QtCharts6QChart9addSeriesEPNS_15QAbstractSeriesE" PURGE="0" COMMENT="" />
    <EXPORT ORDINAL="2743" NAME="_ZN8QtCharts6QChart9setLocaleERK7QLocale" PURGE="-1" COMMENT="" />
    <EXPORT ORDINAL="2744" NAME="_ZN8QtCharts6QChart9zoomResetEv" PURGE="0" COMMENT="" />
    <EXPORT ORDINAL="2745" NAME="_ZN8QtCharts6QChartC1ENS0_9ChartTypeEP13QGraphicsItem6QFlagsIN2Qt10WindowTypeEE" PURGE="-1" COMMENT="" />
    <EXPORT ORDINAL="2746" NAME="_ZN8QtCharts6QChartC1EP13QGraphicsItem6QFlagsIN2Qt10WindowTypeEE" PURGE="-1" COMMENT="" />
    <EXPORT ORDINAL="2747" NAME="_ZN8QtCharts6QChartC2ENS0_9ChartTypeEP13QGraphicsItem6QFlagsIN2Qt10WindowTypeEE" PURGE="-1" COMMENT="" />
    <EXPORT ORDINAL="2748" NAME="_ZN8QtCharts6QChartC2EP13QGraphicsItem6QFlagsIN2Qt10WindowTypeEE" PURGE="-1" COMMENT="" />
    <EXPORT ORDINAL="2749" NAME="_ZN8QtCharts6QChartD0Ev" PURGE="-1" COMMENT="" />
    <EXPORT ORDINAL="2750" NAME="_ZN8QtCharts6QChartD1Ev" PURGE="-1" COMMENT="" />
    <EXPORT ORDINAL="2751" NAME="_ZN8QtCharts6QChartD2Ev" PURGE="-1" COMMENT="" />
    <EXPORT ORDINAL="2752" NAME="_ZN8QtCharts7QBarSet10labelColorEv" PURGE="0" COMMENT="" />
    <EXPORT ORDINAL="2753" NAME="_ZN8QtCharts7QBarSet10penChangedEv" PURGE="-1" COMMENT="" />
    <EXPORT ORDINAL="2754" NAME="_ZN8QtCharts7QBarSet11borderColorEv" PURGE="0" COMMENT="" />
    <EXPORT ORDINAL="2755" NAME="_ZN8QtCharts7QBarSet11qt_metacallEN11QMetaObject4CallEiPPv" PURGE="0" COMMENT="" />
    <EXPORT ORDINAL="2756" NAME="_ZN8QtCharts7QBarSet11qt_metacastEPKc" PURGE="0" COMMENT="" />
    <EXPORT ORDINAL="2757" NAME="_ZN8QtCharts7QBarSet11valuesAddedEii" PURGE="0" COMMENT="" />
    <EXPORT ORDINAL="2758" NAME="_ZN8QtCharts7QBarSet12brushChangedEv" PURGE="-1" COMMENT="" />
    <EXPORT ORDINAL="2759" NAME="_ZN8QtCharts7QBarSet12colorChangedE6QColor" PURGE="0" COMMENT="" />
    <EXPORT ORDINAL="2760" NAME="_ZN8QtCharts7QBarSet12labelChangedEv" PURGE="-1" COMMENT="" />
    <EXPORT ORDINAL="2761" NAME="_ZN8QtCharts7QBarSet12setLabelFontERK5QFont" PURGE="0" COMMENT="" />
    <EXPORT ORDINAL="2762" NAME="_ZN8QtCharts7QBarSet12valueChangedEi" PURGE="0" COMMENT="" />
    <EXPORT ORDINAL="2763" NAME="_ZN8QtCharts7QBarSet13doubleClickedEi" PURGE="0" COMMENT="" />
    <EXPORT ORDINAL="2764" NAME="_ZN8QtCharts7QBarSet13setLabelBrushERK6QBrush" PURGE="0" COMMENT="" />
    <EXPORT ORDINAL="2765" NAME="_ZN8QtCharts7QBarSet13setLabelColorE6QColor" PURGE="0" COMMENT="" />
    <EXPORT ORDINAL="2766" NAME="_ZN8QtCharts7QBarSet13valuesRemovedEii" PURGE="0" COMMENT="" />
    <EXPORT ORDINAL="2767" NAME="_ZN8QtCharts7QBarSet14setBorderColorE6QColor" PURGE="0" COMMENT="" />
    <EXPORT ORDINAL="2768" NAME="_ZN8QtCharts7QBarSet16labelFontChangedEv" PURGE="-1" COMMENT="" />
    <EXPORT ORDINAL="2769" NAME="_ZN8QtCharts7QBarSet16staticMetaObjectE" PURGE="-1" COMMENT="" />
    <EXPORT ORDINAL="2770" NAME="_ZN8QtCharts7QBarSet17labelBrushChangedEv" PURGE="-1" COMMENT="" />
    <EXPORT ORDINAL="2771" NAME="_ZN8QtCharts7QBarSet17labelColorChangedE6QColor" PURGE="0" COMMENT="" />
    <EXPORT ORDINAL="2772" NAME="_ZN8QtCharts7QBarSet18borderColorChangedE6QColor" PURGE="0" COMMENT="" />
    <EXPORT ORDINAL="2773" NAME="_ZN8QtCharts7QBarSet18qt_static_metacallEP7QObjectN11QMetaObject4CallEiPPv" PURGE="0" COMMENT="" />
    <EXPORT ORDINAL="2774" NAME="_ZN8QtCharts7QBarSet5colorEv" PURGE="0" COMMENT="" />
    <EXPORT ORDINAL="2775" NAME="_ZN8QtCharts7QBarSet6appendERK5QListIdE" PURGE="0" COMMENT="" />
    <EXPORT ORDINAL="2776" NAME="_ZN8QtCharts7QBarSet6appendEd" PURGE="0" COMMENT="" />
    <EXPORT ORDINAL="2777" NAME="_ZN8QtCharts7QBarSet6insertEid" PURGE="0" COMMENT="" />
    <EXPORT ORDINAL="2778" NAME="_ZN8QtCharts7QBarSet6removeEii" PURGE="0" COMMENT="" />
    <EXPORT ORDINAL="2779" NAME="_ZN8QtCharts7QBarSet6setPenERK4QPen" PURGE="0" COMMENT="" />
    <EXPORT ORDINAL="2780" NAME="_ZN8QtCharts7QBarSet7clickedEi" PURGE="0" COMMENT="" />
    <EXPORT ORDINAL="2781" NAME="_ZN8QtCharts7QBarSet7hoveredEbi" PURGE="0" COMMENT="" />
    <EXPORT ORDINAL="2782" NAME="_ZN8QtCharts7QBarSet7pressedEi" PURGE="0" COMMENT="" />
    <EXPORT ORDINAL="2783" NAME="_ZN8QtCharts7QBarSet7replaceEid" PURGE="0" COMMENT="" />
    <EXPORT ORDINAL="2784" NAME="_ZN8QtCharts7QBarSet8releasedEi" PURGE="0" COMMENT="" />
    <EXPORT ORDINAL="2785" NAME="_ZN8QtCharts7QBarSet8setBrushERK6QBrush" PURGE="0" COMMENT="" />
    <EXPORT ORDINAL="2786" NAME="_ZN8QtCharts7QBarSet8setColorE6QColor" PURGE="0" COMMENT="" />
    <EXPORT ORDINAL="2787" NAME="_ZN8QtCharts7QBarSet8setLabelE7QString" PURGE="-1" COMMENT="" />
    <EXPORT ORDINAL="2788" NAME="_ZN8QtCharts7QBarSetC1E7QStringP7QObject" PURGE="0" COMMENT="" />
    <EXPORT ORDINAL="2789" NAME="_ZN8QtCharts7QBarSetC2E7QStringP7QObject" PURGE="0" COMMENT="" />
    <EXPORT ORDINAL="2790" NAME="_ZN8QtCharts7QBarSetD0Ev" PURGE="-1" COMMENT="" />
    <EXPORT ORDINAL="2791" NAME="_ZN8QtCharts7QBarSetD1Ev" PURGE="-1" COMMENT="" />
    <EXPORT ORDINAL="2792" NAME="_ZN8QtCharts7QBarSetD2Ev" PURGE="-1" COMMENT="" />
    <EXPORT ORDINAL="2793" NAME="_ZN8QtCharts7QBarSetlsERKd" PURGE="0" COMMENT="" />
    <EXPORT ORDINAL="2794" NAME="_ZN8QtCharts7QBoxSet10penChangedEv" PURGE="-1" COMMENT="" />
    <EXPORT ORDINAL="2795" NAME="_ZN8QtCharts7QBoxSet11qt_metacallEN11QMetaObject4CallEiPPv" PURGE="0" COMMENT="" />
    <EXPORT ORDINAL="2796" NAME="_ZN8QtCharts7QBoxSet11qt_metacastEPKc" PURGE="0" COMMENT="" />
    <EXPORT ORDINAL="2797" NAME="_ZN8QtCharts7QBoxSet12brushChangedEv" PURGE="-1" COMMENT="" />
    <EXPORT ORDINAL="2798" NAME="_ZN8QtCharts7QBoxSet12valueChangedEi" PURGE="0" COMMENT="" />
    <EXPORT ORDINAL="2799" NAME="_ZN8QtCharts7QBoxSet13doubleClickedEv" PURGE="-1" COMMENT="" />
    <EXPORT ORDINAL="2800" NAME="_ZN8QtCharts7QBoxSet13valuesChangedEv" PURGE="-1" COMMENT="" />
    <EXPORT ORDINAL="2801" NAME="_ZN8QtCharts7QBoxSet16staticMetaObjectE" PURGE="-1" COMMENT="" />
    <EXPORT ORDINAL="2802" NAME="_ZN8QtCharts7QBoxSet18qt_static_metacallEP7QObjectN11QMetaObject4CallEiPPv" PURGE="0" COMMENT="" />
    <EXPORT ORDINAL="2803" NAME="_ZN8QtCharts7QBoxSet5clearEv" PURGE="-1" COMMENT="" />
    <EXPORT ORDINAL="2804" NAME="_ZN8QtCharts7QBoxSet6appendERK5QListIdE" PURGE="0" COMMENT="" />
    <EXPORT ORDINAL="2805" NAME="_ZN8QtCharts7QBoxSet6appendEd" PURGE="0" COMMENT="" />
    <EXPORT ORDINAL="2806" NAME="_ZN8QtCharts7QBoxSet6setPenERK4QPen" PURGE="0" COMMENT="" />
    <EXPORT ORDINAL="2807" NAME="_ZN8QtCharts7QBoxSet7clearedEv" PURGE="-1" COMMENT="" />
    <EXPORT ORDINAL="2808" NAME="_ZN8QtCharts7QBoxSet7clickedEv" PURGE="-1" COMMENT="" />
    <EXPORT ORDINAL="2809" NAME="_ZN8QtCharts7QBoxSet7hoveredEb" PURGE="0" COMMENT="" />
    <EXPORT ORDINAL="2810" NAME="_ZN8QtCharts7QBoxSet7pressedEv" PURGE="-1" COMMENT="" />
    <EXPORT ORDINAL="2811" NAME="_ZN8QtCharts7QBoxSet8releasedEv" PURGE="-1" COMMENT="" />
    <EXPORT ORDINAL="2812" NAME="_ZN8QtCharts7QBoxSet8setBrushERK6QBrush" PURGE="0" COMMENT="" />
    <EXPORT ORDINAL="2813" NAME="_ZN8QtCharts7QBoxSet8setLabelE7QString" PURGE="-1" COMMENT="" />
    <EXPORT ORDINAL="2814" NAME="_ZN8QtCharts7QBoxSet8setValueEid" PURGE="0" COMMENT="" />
    <EXPORT ORDINAL="2815" NAME="_ZN8QtCharts7QBoxSetC1E7QStringP7QObject" PURGE="0" COMMENT="" />
    <EXPORT ORDINAL="2816" NAME="_ZN8QtCharts7QBoxSetC1Eddddd7QStringP7QObject" PURGE="0" COMMENT="" />
    <EXPORT ORDINAL="2817" NAME="_ZN8QtCharts7QBoxSetC2E7QStringP7QObject" PURGE="0" COMMENT="" />
    <EXPORT ORDINAL="2818" NAME="_ZN8QtCharts7QBoxSetC2Eddddd7QStringP7QObject" PURGE="0" COMMENT="" />
    <EXPORT ORDINAL="2819" NAME="_ZN8QtCharts7QBoxSetD0Ev" PURGE="-1" COMMENT="" />
    <EXPORT ORDINAL="2820" NAME="_ZN8QtCharts7QBoxSetD1Ev" PURGE="-1" COMMENT="" />
    <EXPORT ORDINAL="2821" NAME="_ZN8QtCharts7QBoxSetD2Ev" PURGE="-1" COMMENT="" />
    <EXPORT ORDINAL="2822" NAME="_ZN8QtCharts7QBoxSetlsERKd" PURGE="0" COMMENT="" />
    <EXPORT ORDINAL="2823" NAME="_ZN8QtCharts7QLegend11borderColorEv" PURGE="0" COMMENT="" />
    <EXPORT ORDINAL="2824" NAME="_ZN8QtCharts7QLegend11fontChangedE5QFont" PURGE="0" COMMENT="" />
    <EXPORT ORDINAL="2825" NAME="_ZN8QtCharts7QLegend11qt_metacallEN11QMetaObject4CallEiPPv" PURGE="0" COMMENT="" />
    <EXPORT ORDINAL="2826" NAME="_ZN8QtCharts7QLegend11qt_metacastEPKc" PURGE="0" COMMENT="" />
    <EXPORT ORDINAL="2827" NAME="_ZN8QtCharts7QLegend12colorChangedE6QColor" PURGE="0" COMMENT="" />
    <EXPORT ORDINAL="2828" NAME="_ZN8QtCharts7QLegend12setAlignmentE6QFlagsIN2Qt13AlignmentFlagEE" PURGE="0" COMMENT="" />
    <EXPORT ORDINAL="2829" NAME="_ZN8QtCharts7QLegend13attachToChartEv" PURGE="-1" COMMENT="" />
    <EXPORT ORDINAL="2830" NAME="_ZN8QtCharts7QLegend13setLabelBrushERK6QBrush" PURGE="0" COMMENT="" />
    <EXPORT ORDINAL="2831" NAME="_ZN8QtCharts7QLegend13setLabelColorE6QColor" PURGE="0" COMMENT="" />
    <EXPORT ORDINAL="2832" NAME="_ZN8QtCharts7QLegend14reverseMarkersEv" PURGE="0" COMMENT="" />
    <EXPORT ORDINAL="2833" NAME="_ZN8QtCharts7QLegend14setBorderColorE6QColor" PURGE="0" COMMENT="" />
    <EXPORT ORDINAL="2834" NAME="_ZN8QtCharts7QLegend14setMarkerShapeENS0_11MarkerShapeE" PURGE="0" COMMENT="" />
    <EXPORT ORDINAL="2835" NAME="_ZN8QtCharts7QLegend15detachFromChartEv" PURGE="-1" COMMENT="" />
    <EXPORT ORDINAL="2836" NAME="_ZN8QtCharts7QLegend15setShowToolTipsEb" PURGE="0" COMMENT="" />
    <EXPORT ORDINAL="2837" NAME="_ZN8QtCharts7QLegend16staticMetaObjectE" PURGE="-1" COMMENT="" />
    <EXPORT ORDINAL="2838" NAME="_ZN8QtCharts7QLegend17isAttachedToChartEv" PURGE="0" COMMENT="" />
    <EXPORT ORDINAL="2839" NAME="_ZN8QtCharts7QLegend17labelColorChangedE6QColor" PURGE="0" COMMENT="" />
    <EXPORT ORDINAL="2840" NAME="_ZN8QtCharts7QLegend17setReverseMarkersEb" PURGE="0" COMMENT="" />
    <EXPORT ORDINAL="2841" NAME="_ZN8QtCharts7QLegend18borderColorChangedE6QColor" PURGE="0" COMMENT="" />
    <EXPORT ORDINAL="2842" NAME="_ZN8QtCharts7QLegend18markerShapeChangedENS0_11MarkerShapeE" PURGE="0" COMMENT="" />
    <EXPORT ORDINAL="2843" NAME="_ZN8QtCharts7QLegend18qt_static_metacallEP7QObjectN11QMetaObject4CallEiPPv" PURGE="0" COMMENT="" />
    <EXPORT ORDINAL="2844" NAME="_ZN8QtCharts7QLegend19showToolTipsChangedEb" PURGE="0" COMMENT="" />
    <EXPORT ORDINAL="2845" NAME="_ZN8QtCharts7QLegend20setBackgroundVisibleEb" PURGE="0" COMMENT="" />
    <EXPORT ORDINAL="2846" NAME="_ZN8QtCharts7QLegend21reverseMarkersChangedEb" PURGE="0" COMMENT="" />
    <EXPORT ORDINAL="2847" NAME="_ZN8QtCharts7QLegend24backgroundVisibleChangedEb" PURGE="0" COMMENT="" />
    <EXPORT ORDINAL="2848" NAME="_ZN8QtCharts7QLegend5colorEv" PURGE="0" COMMENT="" />
    <EXPORT ORDINAL="2849" NAME="_ZN8QtCharts7QLegend5paintEP8QPainterPK24QStyleOptionGraphicsItemP7QWidget" PURGE="0" COMMENT="" />
    <EXPORT ORDINAL="2850" NAME="_ZN8QtCharts7QLegend6setPenERK4QPen" PURGE="0" COMMENT="" />
    <EXPORT ORDINAL="2851" NAME="_ZN8QtCharts7QLegend7setFontERK5QFont" PURGE="0" COMMENT="" />
    <EXPORT ORDINAL="2852" NAME="_ZN8QtCharts7QLegend8setBrushERK6QBrush" PURGE="0" COMMENT="" />
    <EXPORT ORDINAL="2853" NAME="_ZN8QtCharts7QLegend8setColorE6QColor" PURGE="0" COMMENT="" />
    <EXPORT ORDINAL="2854" NAME="_ZN8QtCharts7QLegend9hideEventEP10QHideEvent" PURGE="-1" COMMENT="" />
    <EXPORT ORDINAL="2855" NAME="_ZN8QtCharts7QLegend9showEventEP10QShowEvent" PURGE="-1" COMMENT="" />
    <EXPORT ORDINAL="2856" NAME="_ZN8QtCharts7QLegendC1EPNS_6QChartE" PURGE="0" COMMENT="" />
    <EXPORT ORDINAL="2857" NAME="_ZN8QtCharts7QLegendC2EPNS_6QChartE" PURGE="0" COMMENT="" />
    <EXPORT ORDINAL="2858" NAME="_ZN8QtCharts7QLegendD0Ev" PURGE="-1" COMMENT="" />
    <EXPORT ORDINAL="2859" NAME="_ZN8QtCharts7QLegendD1Ev" PURGE="-1" COMMENT="" />
    <EXPORT ORDINAL="2860" NAME="_ZN8QtCharts7QLegendD2Ev" PURGE="-1" COMMENT="" />
    <EXPORT ORDINAL="2861" NAME="_ZN8QtCharts7XYChart11qt_metacallEN11QMetaObject4CallEiPPv" PURGE="0" COMMENT="" />
    <EXPORT ORDINAL="2862" NAME="_ZN8QtCharts7XYChart11qt_metacastEPKc" PURGE="0" COMMENT="" />
    <EXPORT ORDINAL="2863" NAME="_ZN8QtCharts7XYChart11updateChartER7QVectorI7QPointFES4_i" PURGE="-1" COMMENT="" />
    <EXPORT ORDINAL="2864" NAME="_ZN8QtCharts7XYChart12setAnimationEPNS_11XYAnimationE" PURGE="0" COMMENT="" />
    <EXPORT ORDINAL="2865" NAME="_ZN8QtCharts7XYChart13doubleClickedERK7QPointF" PURGE="0" COMMENT="" />
    <EXPORT ORDINAL="2866" NAME="_ZN8QtCharts7XYChart13updateGlChartEv" PURGE="-1" COMMENT="" />
    <EXPORT ORDINAL="2867" NAME="_ZN8QtCharts7XYChart14refreshGlChartEv" PURGE="0" COMMENT="" />
    <EXPORT ORDINAL="2868" NAME="_ZN8QtCharts7XYChart16handlePointAddedEi" PURGE="0" COMMENT="" />
    <EXPORT ORDINAL="2869" NAME="_ZN8QtCharts7XYChart16staticMetaObjectE" PURGE="-1" COMMENT="" />
    <EXPORT ORDINAL="2870" NAME="_ZN8QtCharts7XYChart17setGeometryPointsERK7QVectorI7QPointFE" PURGE="0" COMMENT="" />
    <EXPORT ORDINAL="2871" NAME="_ZN8QtCharts7XYChart18handlePointRemovedEi" PURGE="0" COMMENT="" />
    <EXPORT ORDINAL="2872" NAME="_ZN8QtCharts7XYChart18qt_static_metacallEP7QObjectN11QMetaObject4CallEiPPv" PURGE="0" COMMENT="" />
    <EXPORT ORDINAL="2873" NAME="_ZN8QtCharts7XYChart19handleDomainUpdatedEv" PURGE="0" COMMENT="" />
    <EXPORT ORDINAL="2874" NAME="_ZN8QtCharts7XYChart19handlePointReplacedEi" PURGE="0" COMMENT="" />
    <EXPORT ORDINAL="2875" NAME="_ZN8QtCharts7XYChart19handlePointsRemovedEii" PURGE="0" COMMENT="" />
    <EXPORT ORDINAL="2876" NAME="_ZN8QtCharts7XYChart19offGridStatusVectorEv" PURGE="0" COMMENT="" />
    <EXPORT ORDINAL="2877" NAME="_ZN8QtCharts7XYChart20handlePointsReplacedEv" PURGE="0" COMMENT="" />
    <EXPORT ORDINAL="2878" NAME="_ZN8QtCharts7XYChart7clickedERK7QPointF" PURGE="0" COMMENT="" />
    <EXPORT ORDINAL="2879" NAME="_ZN8QtCharts7XYChart7hoveredERK7QPointFb" PURGE="0" COMMENT="" />
    <EXPORT ORDINAL="2880" NAME="_ZN8QtCharts7XYChart7pressedERK7QPointF" PURGE="0" COMMENT="" />
    <EXPORT ORDINAL="2881" NAME="_ZN8QtCharts7XYChart8releasedERK7QPointF" PURGE="0" COMMENT="" />
    <EXPORT ORDINAL="2882" NAME="_ZN8QtCharts7XYChart8setDirtyEb" PURGE="0" COMMENT="" />
    <EXPORT ORDINAL="2883" NAME="_ZN8QtCharts7XYChartC1EPNS_9QXYSeriesEP13QGraphicsItem" PURGE="0" COMMENT="" />
    <EXPORT ORDINAL="2884" NAME="_ZN8QtCharts7XYChartC2EPNS_9QXYSeriesEP13QGraphicsItem" PURGE="0" COMMENT="" />
    <EXPORT ORDINAL="2885" NAME="_ZN8QtCharts8Scroller10lowerSpeedER7QPointFd" PURGE="0" COMMENT="" />
    <EXPORT ORDINAL="2886" NAME="_ZN8QtCharts8Scroller10scrollTickEv" PURGE="0" COMMENT="" />
    <EXPORT ORDINAL="2887" NAME="_ZN8QtCharts8Scroller10stopTickerEv" PURGE="-1" COMMENT="" />
    <EXPORT ORDINAL="2888" NAME="_ZN8QtCharts8Scroller11startTickerEi" PURGE="0" COMMENT="" />
    <EXPORT ORDINAL="2889" NAME="_ZN8QtCharts8Scroller20handleMouseMoveEventEP24QGraphicsSceneMouseEvent" PURGE="0" COMMENT="" />
    <EXPORT ORDINAL="2890" NAME="_ZN8QtCharts8Scroller21handleMousePressEventEP24QGraphicsSceneMouseEvent" PURGE="0" COMMENT="" />
    <EXPORT ORDINAL="2891" NAME="_ZN8QtCharts8Scroller23handleMouseReleaseEventEP24QGraphicsSceneMouseEvent" PURGE="0" COMMENT="" />
    <EXPORT ORDINAL="2892" NAME="_ZN8QtCharts8Scroller4moveERK7QPointF" PURGE="0" COMMENT="" />
    <EXPORT ORDINAL="2893" NAME="_ZN8QtCharts8Scroller8scrollToERK7QPointF" PURGE="0" COMMENT="" />
    <EXPORT ORDINAL="2894" NAME="_ZN8QtCharts8ScrollerC1Ev" PURGE="0" COMMENT="" />
    <EXPORT ORDINAL="2895" NAME="_ZN8QtCharts8ScrollerC2Ev" PURGE="0" COMMENT="" />
    <EXPORT ORDINAL="2896" NAME="_ZN8QtCharts8ScrollerD0Ev" PURGE="-1" COMMENT="" />
    <EXPORT ORDINAL="2897" NAME="_ZN8QtCharts8ScrollerD1Ev" PURGE="-1" COMMENT="" />
    <EXPORT ORDINAL="2898" NAME="_ZN8QtCharts8ScrollerD2Ev" PURGE="-1" COMMENT="" />
    <EXPORT ORDINAL="2899" NAME="_ZN8QtCharts8XYDomain11qt_metacallEN11QMetaObject4CallEiPPv" PURGE="0" COMMENT="" />
    <EXPORT ORDINAL="2900" NAME="_ZN8QtCharts8XYDomain11qt_metacastEPKc" PURGE="0" COMMENT="" />
    <EXPORT ORDINAL="2901" NAME="_ZN8QtCharts8XYDomain16staticMetaObjectE" PURGE="-1" COMMENT="" />
    <EXPORT ORDINAL="2902" NAME="_ZN8QtCharts8XYDomain18qt_static_metacallEP7QObjectN11QMetaObject4CallEiPPv" PURGE="0" COMMENT="" />
    <EXPORT ORDINAL="2903" NAME="_ZN8QtCharts8XYDomain4moveEdd" PURGE="0" COMMENT="" />
    <EXPORT ORDINAL="2904" NAME="_ZN8QtCharts8XYDomain6zoomInERK6QRectF" PURGE="0" COMMENT="" />
    <EXPORT ORDINAL="2905" NAME="_ZN8QtCharts8XYDomain7zoomOutERK6QRectF" PURGE="0" COMMENT="" />
    <EXPORT ORDINAL="2906" NAME="_ZN8QtCharts8XYDomain8setRangeEdddd" PURGE="0" COMMENT="" />
    <EXPORT ORDINAL="2907" NAME="_ZN8QtCharts8XYDomainC1EP7QObject" PURGE="0" COMMENT="" />
    <EXPORT ORDINAL="2908" NAME="_ZN8QtCharts8XYDomainC2EP7QObject" PURGE="0" COMMENT="" />
    <EXPORT ORDINAL="2909" NAME="_ZN8QtCharts8XYDomainD0Ev" PURGE="-1" COMMENT="" />
    <EXPORT ORDINAL="2910" NAME="_ZN8QtCharts8XYDomainD1Ev" PURGE="-1" COMMENT="" />
    <EXPORT ORDINAL="2911" NAME="_ZN8QtCharts8XYDomainD2Ev" PURGE="-1" COMMENT="" />
    <EXPORT ORDINAL="2912" NAME="_ZN8QtCharts9ChartItem11qt_metacallEN11QMetaObject4CallEiPPv" PURGE="0" COMMENT="" />
    <EXPORT ORDINAL="2913" NAME="_ZN8QtCharts9ChartItem11qt_metacastEPKc" PURGE="0" COMMENT="" />
    <EXPORT ORDINAL="2914" NAME="_ZN8QtCharts9ChartItem16staticMetaObjectE" PURGE="-1" COMMENT="" />
    <EXPORT ORDINAL="2915" NAME="_ZN8QtCharts9ChartItem18qt_static_metacallEP7QObjectN11QMetaObject4CallEiPPv" PURGE="0" COMMENT="" />
    <EXPORT ORDINAL="2916" NAME="_ZN8QtCharts9ChartItem19handleDomainUpdatedEv" PURGE="0" COMMENT="" />
    <EXPORT ORDINAL="2917" NAME="_ZN8QtCharts9ChartItem7cleanupEv" PURGE="-1" COMMENT="" />
    <EXPORT ORDINAL="2918" NAME="_ZN8QtCharts9ChartItemC1EPNS_22QAbstractSeriesPrivateEP13QGraphicsItem" PURGE="0" COMMENT="" />
    <EXPORT ORDINAL="2919" NAME="_ZN8QtCharts9ChartItemC2EPNS_22QAbstractSeriesPrivateEP13QGraphicsItem" PURGE="0" COMMENT="" />
    <EXPORT ORDINAL="2920" NAME="_ZN8QtCharts9QPieSlice10labelColorEv" PURGE="0" COMMENT="" />
    <EXPORT ORDINAL="2921" NAME="_ZN8QtCharts9QPieSlice10penChangedEv" PURGE="-1" COMMENT="" />
    <EXPORT ORDINAL="2922" NAME="_ZN8QtCharts9QPieSlice11borderColorEv" PURGE="0" COMMENT="" />
    <EXPORT ORDINAL="2923" NAME="_ZN8QtCharts9QPieSlice11borderWidthEv" PURGE="0" COMMENT="" />
    <EXPORT ORDINAL="2924" NAME="_ZN8QtCharts9QPieSlice11qt_metacallEN11QMetaObject4CallEiPPv" PURGE="0" COMMENT="" />
    <EXPORT ORDINAL="2925" NAME="_ZN8QtCharts9QPieSlice11qt_metacastEPKc" PURGE="0" COMMENT="" />
    <EXPORT ORDINAL="2926" NAME="_ZN8QtCharts9QPieSlice11setExplodedEb" PURGE="0" COMMENT="" />
    <EXPORT ORDINAL="2927" NAME="_ZN8QtCharts9QPieSlice12brushChangedEv" PURGE="-1" COMMENT="" />
    <EXPORT ORDINAL="2928" NAME="_ZN8QtCharts9QPieSlice12colorChangedEv" PURGE="-1" COMMENT="" />
    <EXPORT ORDINAL="2929" NAME="_ZN8QtCharts9QPieSlice12labelChangedEv" PURGE="-1" COMMENT="" />
    <EXPORT ORDINAL="2930" NAME="_ZN8QtCharts9QPieSlice12setLabelFontERK5QFont" PURGE="0" COMMENT="" />
    <EXPORT ORDINAL="2931" NAME="_ZN8QtCharts9QPieSlice12valueChangedEv" PURGE="-1" COMMENT="" />
    <EXPORT ORDINAL="2932" NAME="_ZN8QtCharts9QPieSlice13doubleClickedEv" PURGE="-1" COMMENT="" />
    <EXPORT ORDINAL="2933" NAME="_ZN8QtCharts9QPieSlice13labelPositionEv" PURGE="0" COMMENT="" />
    <EXPORT ORDINAL="2934" NAME="_ZN8QtCharts9QPieSlice13setLabelBrushERK6QBrush" PURGE="0" COMMENT="" />
    <EXPORT ORDINAL="2935" NAME="_ZN8QtCharts9QPieSlice13setLabelColorE6QColor" PURGE="0" COMMENT="" />
    <EXPORT ORDINAL="2936" NAME="_ZN8QtCharts9QPieSlice14setBorderColorE6QColor" PURGE="0" COMMENT="" />
    <EXPORT ORDINAL="2937" NAME="_ZN8QtCharts9QPieSlice14setBorderWidthEi" PURGE="0" COMMENT="" />
    <EXPORT ORDINAL="2938" NAME="_ZN8QtCharts9QPieSlice15setLabelVisibleEb" PURGE="0" COMMENT="" />
    <EXPORT ORDINAL="2939" NAME="_ZN8QtCharts9QPieSlice16angleSpanChangedEv" PURGE="-1" COMMENT="" />
    <EXPORT ORDINAL="2940" NAME="_ZN8QtCharts9QPieSlice16labelFontChangedEv" PURGE="-1" COMMENT="" />
    <EXPORT ORDINAL="2941" NAME="_ZN8QtCharts9QPieSlice16setLabelPositionENS0_13LabelPositionE" PURGE="0" COMMENT="" />
    <EXPORT ORDINAL="2942" NAME="_ZN8QtCharts9QPieSlice16staticMetaObjectE" PURGE="-1" COMMENT="" />
    <EXPORT ORDINAL="2943" NAME="_ZN8QtCharts9QPieSlice17labelBrushChangedEv" PURGE="-1" COMMENT="" />
    <EXPORT ORDINAL="2944" NAME="_ZN8QtCharts9QPieSlice17labelColorChangedEv" PURGE="-1" COMMENT="" />
    <EXPORT ORDINAL="2945" NAME="_ZN8QtCharts9QPieSlice17percentageChangedEv" PURGE="-1" COMMENT="" />
    <EXPORT ORDINAL="2946" NAME="_ZN8QtCharts9QPieSlice17startAngleChangedEv" PURGE="-1" COMMENT="" />
    <EXPORT ORDINAL="2947" NAME="_ZN8QtCharts9QPieSlice18borderColorChangedEv" PURGE="-1" COMMENT="" />
    <EXPORT ORDINAL="2948" NAME="_ZN8QtCharts9QPieSlice18borderWidthChangedEv" PURGE="-1" COMMENT="" />
    <EXPORT ORDINAL="2949" NAME="_ZN8QtCharts9QPieSlice18qt_static_metacallEP7QObjectN11QMetaObject4CallEiPPv" PURGE="0" COMMENT="" />
    <EXPORT ORDINAL="2950" NAME="_ZN8QtCharts9QPieSlice19labelVisibleChangedEv" PURGE="-1" COMMENT="" />
    <EXPORT ORDINAL="2951" NAME="_ZN8QtCharts9QPieSlice23setLabelArmLengthFactorEd" PURGE="0" COMMENT="" />
    <EXPORT ORDINAL="2952" NAME="_ZN8QtCharts9QPieSlice24setExplodeDistanceFactorEd" PURGE="0" COMMENT="" />
    <EXPORT ORDINAL="2953" NAME="_ZN8QtCharts9QPieSlice5colorEv" PURGE="0" COMMENT="" />
    <EXPORT ORDINAL="2954" NAME="_ZN8QtCharts9QPieSlice6setPenERK4QPen" PURGE="0" COMMENT="" />
    <EXPORT ORDINAL="2955" NAME="_ZN8QtCharts9QPieSlice7clickedEv" PURGE="-1" COMMENT="" />
    <EXPORT ORDINAL="2956" NAME="_ZN8QtCharts9QPieSlice7hoveredEb" PURGE="0" COMMENT="" />
    <EXPORT ORDINAL="2957" NAME="_ZN8QtCharts9QPieSlice7pressedEv" PURGE="-1" COMMENT="" />
    <EXPORT ORDINAL="2958" NAME="_ZN8QtCharts9QPieSlice8releasedEv" PURGE="-1" COMMENT="" />
    <EXPORT ORDINAL="2959" NAME="_ZN8QtCharts9QPieSlice8setBrushERK6QBrush" PURGE="0" COMMENT="" />
    <EXPORT ORDINAL="2960" NAME="_ZN8QtCharts9QPieSlice8setColorE6QColor" PURGE="0" COMMENT="" />
    <EXPORT ORDINAL="2961" NAME="_ZN8QtCharts9QPieSlice8setLabelE7QString" PURGE="0" COMMENT="" />
    <EXPORT ORDINAL="2962" NAME="_ZN8QtCharts9QPieSlice8setValueEd" PURGE="0" COMMENT="" />
    <EXPORT ORDINAL="2963" NAME="_ZN8QtCharts9QPieSliceC1E7QStringdP7QObject" PURGE="0" COMMENT="" />
    <EXPORT ORDINAL="2964" NAME="_ZN8QtCharts9QPieSliceC1EP7QObject" PURGE="0" COMMENT="" />
    <EXPORT ORDINAL="2965" NAME="_ZN8QtCharts9QPieSliceC2E7QStringdP7QObject" PURGE="0" COMMENT="" />
    <EXPORT ORDINAL="2966" NAME="_ZN8QtCharts9QPieSliceC2EP7QObject" PURGE="0" COMMENT="" />
    <EXPORT ORDINAL="2967" NAME="_ZN8QtCharts9QPieSliceD0Ev" PURGE="-1" COMMENT="" />
    <EXPORT ORDINAL="2968" NAME="_ZN8QtCharts9QPieSliceD1Ev" PURGE="-1" COMMENT="" />
    <EXPORT ORDINAL="2969" NAME="_ZN8QtCharts9QPieSliceD2Ev" PURGE="-1" COMMENT="" />
    <EXPORT ORDINAL="2970" NAME="_ZN8QtCharts9QXYSeries10penChangedERK4QPen" PURGE="0" COMMENT="" />
    <EXPORT ORDINAL="2971" NAME="_ZN8QtCharts9QXYSeries10pointAddedEi" PURGE="0" COMMENT="" />
    <EXPORT ORDINAL="2972" NAME="_ZN8QtCharts9QXYSeries11qt_metacallEN11QMetaObject4CallEiPPv" PURGE="0" COMMENT="" />
    <EXPORT ORDINAL="2973" NAME="_ZN8QtCharts9QXYSeries11qt_metacastEPKc" PURGE="0" COMMENT="" />
    <EXPORT ORDINAL="2974" NAME="_ZN8QtCharts9QXYSeries12colorChangedE6QColor" PURGE="0" COMMENT="" />
    <EXPORT ORDINAL="2975" NAME="_ZN8QtCharts9QXYSeries12pointRemovedEi" PURGE="0" COMMENT="" />
    <EXPORT ORDINAL="2976" NAME="_ZN8QtCharts9QXYSeries12removePointsEii" PURGE="0" COMMENT="" />
    <EXPORT ORDINAL="2977" NAME="_ZN8QtCharts9QXYSeries13doubleClickedERK7QPointF" PURGE="0" COMMENT="" />
    <EXPORT ORDINAL="2978" NAME="_ZN8QtCharts9QXYSeries13pointReplacedEi" PURGE="0" COMMENT="" />
    <EXPORT ORDINAL="2979" NAME="_ZN8QtCharts9QXYSeries13pointsRemovedEii" PURGE="0" COMMENT="" />
    <EXPORT ORDINAL="2980" NAME="_ZN8QtCharts9QXYSeries14pointsReplacedEv" PURGE="-1" COMMENT="" />
    <EXPORT ORDINAL="2981" NAME="_ZN8QtCharts9QXYSeries16setPointsVisibleEb" PURGE="0" COMMENT="" />
    <EXPORT ORDINAL="2982" NAME="_ZN8QtCharts9QXYSeries16staticMetaObjectE" PURGE="-1" COMMENT="" />
    <EXPORT ORDINAL="2983" NAME="_ZN8QtCharts9QXYSeries18qt_static_metacallEP7QObjectN11QMetaObject4CallEiPPv" PURGE="0" COMMENT="" />
    <EXPORT ORDINAL="2984" NAME="_ZN8QtCharts9QXYSeries18setPointLabelsFontERK5QFont" PURGE="0" COMMENT="" />
    <EXPORT ORDINAL="2985" NAME="_ZN8QtCharts9QXYSeries19setPointLabelsColorERK6QColor" PURGE="0" COMMENT="" />
    <EXPORT ORDINAL="2986" NAME="_ZN8QtCharts9QXYSeries20setPointLabelsFormatERK7QString" PURGE="0" COMMENT="" />
    <EXPORT ORDINAL="2987" NAME="_ZN8QtCharts9QXYSeries21setPointLabelsVisibleEb" PURGE="0" COMMENT="" />
    <EXPORT ORDINAL="2988" NAME="_ZN8QtCharts9QXYSeries22pointLabelsFontChangedERK5QFont" PURGE="0" COMMENT="" />
    <EXPORT ORDINAL="2989" NAME="_ZN8QtCharts9QXYSeries22setPointLabelsClippingEb" PURGE="0" COMMENT="" />
    <EXPORT ORDINAL="2990" NAME="_ZN8QtCharts9QXYSeries23pointLabelsColorChangedERK6QColor" PURGE="0" COMMENT="" />
    <EXPORT ORDINAL="2991" NAME="_ZN8QtCharts9QXYSeries24pointLabelsFormatChangedERK7QString" PURGE="0" COMMENT="" />
    <EXPORT ORDINAL="2992" NAME="_ZN8QtCharts9QXYSeries26pointLabelsClippingChangedEb" PURGE="0" COMMENT="" />
    <EXPORT ORDINAL="2993" NAME="_ZN8QtCharts9QXYSeries28pointLabelsVisibilityChangedEb" PURGE="0" COMMENT="" />
    <EXPORT ORDINAL="2994" NAME="_ZN8QtCharts9QXYSeries5clearEv" PURGE="0" COMMENT="" />
    <EXPORT ORDINAL="2995" NAME="_ZN8QtCharts9QXYSeries6appendERK5QListI7QPointFE" PURGE="0" COMMENT="" />
    <EXPORT ORDINAL="2996" NAME="_ZN8QtCharts9QXYSeries6appendERK7QPointF" PURGE="0" COMMENT="" />
    <EXPORT ORDINAL="2997" NAME="_ZN8QtCharts9QXYSeries6appendEdd" PURGE="0" COMMENT="" />
    <EXPORT ORDINAL="2998" NAME="_ZN8QtCharts9QXYSeries6insertEiRK7QPointF" PURGE="0" COMMENT="" />
    <EXPORT ORDINAL="2999" NAME="_ZN8QtCharts9QXYSeries6removeERK7QPointF" PURGE="0" COMMENT="" />
    <EXPORT ORDINAL="3000" NAME="_ZN8QtCharts9QXYSeries6removeEdd" PURGE="0" COMMENT="" />
    <EXPORT ORDINAL="3001" NAME="_ZN8QtCharts9QXYSeries6removeEi" PURGE="0" COMMENT="" />
    <EXPORT ORDINAL="3002" NAME="_ZN8QtCharts9QXYSeries6setPenERK4QPen" PURGE="0" COMMENT="" />
    <EXPORT ORDINAL="3003" NAME="_ZN8QtCharts9QXYSeries7clickedERK7QPointF" PURGE="0" COMMENT="" />
    <EXPORT ORDINAL="3004" NAME="_ZN8QtCharts9QXYSeries7hoveredERK7QPointFb" PURGE="0" COMMENT="" />
    <EXPORT ORDINAL="3005" NAME="_ZN8QtCharts9QXYSeries7pressedERK7QPointF" PURGE="0" COMMENT="" />
    <EXPORT ORDINAL="3006" NAME="_ZN8QtCharts9QXYSeries7replaceE5QListI7QPointFE" PURGE="0" COMMENT="" />
    <EXPORT ORDINAL="3007" NAME="_ZN8QtCharts9QXYSeries7replaceE7QVectorI7QPointFE" PURGE="-1" COMMENT="" />
    <EXPORT ORDINAL="3008" NAME="_ZN8QtCharts9QXYSeries7replaceERK7QPointFS3_" PURGE="0" COMMENT="" />
    <EXPORT ORDINAL="3009" NAME="_ZN8QtCharts9QXYSeries7replaceEdddd" PURGE="0" COMMENT="" />
    <EXPORT ORDINAL="3010" NAME="_ZN8QtCharts9QXYSeries7replaceEiRK7QPointF" PURGE="0" COMMENT="" />
    <EXPORT ORDINAL="3011" NAME="_ZN8QtCharts9QXYSeries7replaceEidd" PURGE="0" COMMENT="" />
    <EXPORT ORDINAL="3012" NAME="_ZN8QtCharts9QXYSeries8releasedERK7QPointF" PURGE="0" COMMENT="" />
    <EXPORT ORDINAL="3013" NAME="_ZN8QtCharts9QXYSeries8setBrushERK6QBrush" PURGE="0" COMMENT="" />
    <EXPORT ORDINAL="3014" NAME="_ZN8QtCharts9QXYSeries8setColorERK6QColor" PURGE="0" COMMENT="" />
    <EXPORT ORDINAL="3015" NAME="_ZN8QtCharts9QXYSeriesC1ERNS_16QXYSeriesPrivateEP7QObject" PURGE="0" COMMENT="" />
    <EXPORT ORDINAL="3016" NAME="_ZN8QtCharts9QXYSeriesC2ERNS_16QXYSeriesPrivateEP7QObject" PURGE="0" COMMENT="" />
    <EXPORT ORDINAL="3017" NAME="_ZN8QtCharts9QXYSeriesD0Ev" PURGE="-1" COMMENT="" />
    <EXPORT ORDINAL="3018" NAME="_ZN8QtCharts9QXYSeriesD1Ev" PURGE="0" COMMENT="" />
    <EXPORT ORDINAL="3019" NAME="_ZN8QtCharts9QXYSeriesD2Ev" PURGE="0" COMMENT="" />
    <EXPORT ORDINAL="3020" NAME="_ZN8QtCharts9QXYSerieslsERK5QListI7QPointFE" PURGE="0" COMMENT="" />
    <EXPORT ORDINAL="3021" NAME="_ZN8QtCharts9QXYSerieslsERK7QPointF" PURGE="0" COMMENT="" />
    <EXPORT ORDINAL="3022" NAME="_ZNK8QtCharts10ChartTitle4textEv" PURGE="0" COMMENT="" />
    <EXPORT ORDINAL="3023" NAME="_ZNK8QtCharts10ChartTitle8sizeHintEN2Qt8SizeHintERK6QSizeF" PURGE="0" COMMENT="" />
    <EXPORT ORDINAL="3024" NAME="_ZNK8QtCharts10QBarSeries10metaObjectEv" PURGE="0" COMMENT="" />
    <EXPORT ORDINAL="3025" NAME="_ZNK8QtCharts10QBarSeries4typeEv" PURGE="0" COMMENT="" />
    <EXPORT ORDINAL="3026" NAME="_ZNK8QtCharts10QChartView10metaObjectEv" PURGE="0" COMMENT="" />
    <EXPORT ORDINAL="3027" NAME="_ZNK8QtCharts10QChartView10rubberBandEv" PURGE="0" COMMENT="" />
    <EXPORT ORDINAL="3028" NAME="_ZNK8QtCharts10QChartView5chartEv" PURGE="0" COMMENT="" />
    <EXPORT ORDINAL="3029" NAME="_ZNK8QtCharts10QPieSeries10metaObjectEv" PURGE="0" COMMENT="" />
    <EXPORT ORDINAL="3030" NAME="_ZNK8QtCharts10QPieSeries11pieEndAngleEv" PURGE="0" COMMENT="" />
    <EXPORT ORDINAL="3031" NAME="_ZNK8QtCharts10QPieSeries13pieStartAngleEv" PURGE="0" COMMENT="" />
    <EXPORT ORDINAL="3032" NAME="_ZNK8QtCharts10QPieSeries16verticalPositionEv" PURGE="0" COMMENT="" />
    <EXPORT ORDINAL="3033" NAME="_ZNK8QtCharts10QPieSeries18horizontalPositionEv" PURGE="0" COMMENT="" />
    <EXPORT ORDINAL="3034" NAME="_ZNK8QtCharts10QPieSeries3sumEv" PURGE="0" COMMENT="" />
    <EXPORT ORDINAL="3035" NAME="_ZNK8QtCharts10QPieSeries4typeEv" PURGE="0" COMMENT="" />
    <EXPORT ORDINAL="3036" NAME="_ZNK8QtCharts10QPieSeries5countEv" PURGE="0" COMMENT="" />
    <EXPORT ORDINAL="3037" NAME="_ZNK8QtCharts10QPieSeries6slicesEv" PURGE="0" COMMENT="" />
    <EXPORT ORDINAL="3038" NAME="_ZNK8QtCharts10QPieSeries7isEmptyEv" PURGE="0" COMMENT="" />
    <EXPORT ORDINAL="3039" NAME="_ZNK8QtCharts10QPieSeries7pieSizeEv" PURGE="0" COMMENT="" />
    <EXPORT ORDINAL="3040" NAME="_ZNK8QtCharts10QPieSeries8holeSizeEv" PURGE="0" COMMENT="" />
    <EXPORT ORDINAL="3041" NAME="_ZNK8QtCharts10QValueAxis10metaObjectEv" PURGE="0" COMMENT="" />
    <EXPORT ORDINAL="3042" NAME="_ZNK8QtCharts10QValueAxis10tickAnchorEv" PURGE="0" COMMENT="" />
    <EXPORT ORDINAL="3043" NAME="_ZNK8QtCharts10QValueAxis11labelFormatEv" PURGE="0" COMMENT="" />
    <EXPORT ORDINAL="3044" NAME="_ZNK8QtCharts10QValueAxis12tickIntervalEv" PURGE="0" COMMENT="" />
    <EXPORT ORDINAL="3045" NAME="_ZNK8QtCharts10QValueAxis14minorTickCountEv" PURGE="0" COMMENT="" />
    <EXPORT ORDINAL="3046" NAME="_ZNK8QtCharts10QValueAxis3maxEv" PURGE="0" COMMENT="" />
    <EXPORT ORDINAL="3047" NAME="_ZNK8QtCharts10QValueAxis3minEv" PURGE="0" COMMENT="" />
    <EXPORT ORDINAL="3048" NAME="_ZNK8QtCharts10QValueAxis4typeEv" PURGE="0" COMMENT="" />
    <EXPORT ORDINAL="3049" NAME="_ZNK8QtCharts10QValueAxis8tickTypeEv" PURGE="0" COMMENT="" />
    <EXPORT ORDINAL="3050" NAME="_ZNK8QtCharts10QValueAxis9tickCountEv" PURGE="0" COMMENT="" />
    <EXPORT ORDINAL="3051" NAME="_ZNK8QtCharts11BoxWhiskers10metaObjectEv" PURGE="0" COMMENT="" />
    <EXPORT ORDINAL="3052" NAME="_ZNK8QtCharts11BoxWhiskers12boundingRectEv" PURGE="0" COMMENT="" />
    <EXPORT ORDINAL="3053" NAME="_ZNK8QtCharts11BoxWhiskers8sizeHintEN2Qt8SizeHintERK6QSizeF" PURGE="0" COMMENT="" />
    <EXPORT ORDINAL="3054" NAME="_ZNK8QtCharts11Candlestick10metaObjectEv" PURGE="0" COMMENT="" />
    <EXPORT ORDINAL="3055" NAME="_ZNK8QtCharts11Candlestick12boundingRectEv" PURGE="0" COMMENT="" />
    <EXPORT ORDINAL="3056" NAME="_ZNK8QtCharts11LogXYDomain10metaObjectEv" PURGE="0" COMMENT="" />
    <EXPORT ORDINAL="3057" NAME="_ZNK8QtCharts11LogXYDomain20calculateDomainPointERK7QPointF" PURGE="0" COMMENT="" />
    <EXPORT ORDINAL="3058" NAME="_ZNK8QtCharts11LogXYDomain22calculateGeometryPointERK7QPointFRb" PURGE="0" COMMENT="" />
    <EXPORT ORDINAL="3059" NAME="_ZNK8QtCharts11LogXYDomain23calculateGeometryPointsERK7QVectorI7QPointFE" PURGE="0" COMMENT="" />
    <EXPORT ORDINAL="3060" NAME="_ZNK8QtCharts11PolarDomain10metaObjectEv" PURGE="0" COMMENT="" />
    <EXPORT ORDINAL="3061" NAME="_ZNK8QtCharts11PolarDomain22calculateGeometryPointERK7QPointFRb" PURGE="0" COMMENT="" />
    <EXPORT ORDINAL="3062" NAME="_ZNK8QtCharts11PolarDomain22polarCoordinateToPointEdd" PURGE="0" COMMENT="" />
    <EXPORT ORDINAL="3063" NAME="_ZNK8QtCharts11PolarDomain23calculateGeometryPointsERK7QVectorI7QPointFE" PURGE="0" COMMENT="" />
    <EXPORT ORDINAL="3064" NAME="_ZNK8QtCharts11QAreaSeries10metaObjectEv" PURGE="0" COMMENT="" />
    <EXPORT ORDINAL="3065" NAME="_ZNK8QtCharts11QAreaSeries11borderColorEv" PURGE="0" COMMENT="" />
    <EXPORT ORDINAL="3066" NAME="_ZNK8QtCharts11QAreaSeries11lowerSeriesEv" PURGE="0" COMMENT="" />
    <EXPORT ORDINAL="3067" NAME="_ZNK8QtCharts11QAreaSeries11upperSeriesEv" PURGE="0" COMMENT="" />
    <EXPORT ORDINAL="3068" NAME="_ZNK8QtCharts11QAreaSeries13pointsVisibleEv" PURGE="0" COMMENT="" />
    <EXPORT ORDINAL="3069" NAME="_ZNK8QtCharts11QAreaSeries15pointLabelsFontEv" PURGE="0" COMMENT="" />
    <EXPORT ORDINAL="3070" NAME="_ZNK8QtCharts11QAreaSeries16pointLabelsColorEv" PURGE="0" COMMENT="" />
    <EXPORT ORDINAL="3071" NAME="_ZNK8QtCharts11QAreaSeries17pointLabelsFormatEv" PURGE="0" COMMENT="" />
    <EXPORT ORDINAL="3072" NAME="_ZNK8QtCharts11QAreaSeries18pointLabelsVisibleEv" PURGE="0" COMMENT="" />
    <EXPORT ORDINAL="3073" NAME="_ZNK8QtCharts11QAreaSeries19pointLabelsClippingEv" PURGE="0" COMMENT="" />
    <EXPORT ORDINAL="3074" NAME="_ZNK8QtCharts11QAreaSeries3penEv" PURGE="0" COMMENT="" />
    <EXPORT ORDINAL="3075" NAME="_ZNK8QtCharts11QAreaSeries4typeEv" PURGE="0" COMMENT="" />
    <EXPORT ORDINAL="3076" NAME="_ZNK8QtCharts11QAreaSeries5brushEv" PURGE="0" COMMENT="" />
    <EXPORT ORDINAL="3077" NAME="_ZNK8QtCharts11QAreaSeries5colorEv" PURGE="0" COMMENT="" />
    <EXPORT ORDINAL="3078" NAME="_ZNK8QtCharts11QLineSeries10metaObjectEv" PURGE="0" COMMENT="" />
    <EXPORT ORDINAL="3079" NAME="_ZNK8QtCharts11QLineSeries4typeEv" PURGE="0" COMMENT="" />
    <EXPORT ORDINAL="3080" NAME="_ZNK8QtCharts11QPolarChart10metaObjectEv" PURGE="0" COMMENT="" />
    <EXPORT ORDINAL="3081" NAME="_ZNK8QtCharts11QPolarChart4axesE6QFlagsINS0_16PolarOrientationEEPNS_15QAbstractSeriesE" PURGE="0" COMMENT="" />
    <EXPORT ORDINAL="3082" NAME="_ZNK8QtCharts11XLogYDomain10metaObjectEv" PURGE="0" COMMENT="" />
    <EXPORT ORDINAL="3083" NAME="_ZNK8QtCharts11XLogYDomain20calculateDomainPointERK7QPointF" PURGE="0" COMMENT="" />
    <EXPORT ORDINAL="3084" NAME="_ZNK8QtCharts11XLogYDomain22calculateGeometryPointERK7QPointFRb" PURGE="0" COMMENT="" />
    <EXPORT ORDINAL="3085" NAME="_ZNK8QtCharts11XLogYDomain23calculateGeometryPointsERK7QVectorI7QPointFE" PURGE="0" COMMENT="" />
    <EXPORT ORDINAL="3086" NAME="_ZNK8QtCharts11XYAnimation12interpolatedERK8QVariantS3_d" PURGE="0" COMMENT="" />
    <EXPORT ORDINAL="3087" NAME="_ZNK8QtCharts12BarAnimation10metaObjectEv" PURGE="0" COMMENT="" />
    <EXPORT ORDINAL="3088" NAME="_ZNK8QtCharts12BarAnimation12interpolatedERK8QVariantS3_d" PURGE="0" COMMENT="" />
    <EXPORT ORDINAL="3089" NAME="_ZNK8QtCharts12BarChartItem10metaObjectEv" PURGE="0" COMMENT="" />
    <EXPORT ORDINAL="3090" NAME="_ZNK8QtCharts12ChartDataSet10metaObjectEv" PURGE="0" COMMENT="" />
    <EXPORT ORDINAL="3091" NAME="_ZNK8QtCharts12ChartDataSet15domainForSeriesEPNS_15QAbstractSeriesE" PURGE="0" COMMENT="" />
    <EXPORT ORDINAL="3092" NAME="_ZNK8QtCharts12ChartDataSet4axesEv" PURGE="0" COMMENT="" />
    <EXPORT ORDINAL="3093" NAME="_ZNK8QtCharts12ChartDataSet6seriesEv" PURGE="0" COMMENT="" />
    <EXPORT ORDINAL="3094" NAME="_ZNK8QtCharts12ChartElement12themeManagerEv" PURGE="0" COMMENT="" />
    <EXPORT ORDINAL="3095" NAME="_ZNK8QtCharts12ChartElement7dataSetEv" PURGE="0" COMMENT="" />
    <EXPORT ORDINAL="3096" NAME="_ZNK8QtCharts12ChartElement9presenterEv" PURGE="0" COMMENT="" />
    <EXPORT ORDINAL="3097" NAME="_ZNK8QtCharts12LegendLayout6offsetEv" PURGE="0" COMMENT="" />
    <EXPORT ORDINAL="3098" NAME="_ZNK8QtCharts12LegendLayout8sizeHintEN2Qt8SizeHintERK6QSizeF" PURGE="0" COMMENT="" />
    <EXPORT ORDINAL="3099" NAME="_ZNK8QtCharts12PieAnimation10metaObjectEv" PURGE="0" COMMENT="" />
    <EXPORT ORDINAL="3100" NAME="_ZNK8QtCharts12PieChartItem10metaObjectEv" PURGE="0" COMMENT="" />
    <EXPORT ORDINAL="3101" NAME="_ZNK8QtCharts12PieChartItem9animationEv" PURGE="0" COMMENT="" />
    <EXPORT ORDINAL="3102" NAME="_ZNK8QtCharts12PieSliceItem10metaObjectEv" PURGE="0" COMMENT="" />
    <EXPORT ORDINAL="3103" NAME="_ZNK8QtCharts12PieSliceItem12boundingRectEv" PURGE="0" COMMENT="" />
    <EXPORT ORDINAL="3104" NAME="_ZNK8QtCharts12PieSliceItem5shapeEv" PURGE="0" COMMENT="" />
    <EXPORT ORDINAL="3105" NAME="_ZNK8QtCharts12ScrollTicker10metaObjectEv" PURGE="0" COMMENT="" />
    <EXPORT ORDINAL="3106" NAME="_ZNK8QtCharts12VerticalAxis8sizeHintEN2Qt8SizeHintERK6QSizeF" PURGE="0" COMMENT="" />
    <EXPORT ORDINAL="3107" NAME="_ZNK8QtCharts13AreaChartItem10metaObjectEv" PURGE="0" COMMENT="" />
    <EXPORT ORDINAL="3108" NAME="_ZNK8QtCharts13AreaChartItem12boundingRectEv" PURGE="0" COMMENT="" />
    <EXPORT ORDINAL="3109" NAME="_ZNK8QtCharts13AreaChartItem5shapeEv" PURGE="0" COMMENT="" />
    <EXPORT ORDINAL="3110" NAME="_ZNK8QtCharts13AxisAnimation12interpolatedERK8QVariantS3_d" PURGE="0" COMMENT="" />
    <EXPORT ORDINAL="3111" NAME="_ZNK8QtCharts13LineChartItem10metaObjectEv" PURGE="0" COMMENT="" />
    <EXPORT ORDINAL="3112" NAME="_ZNK8QtCharts13LineChartItem12boundingRectEv" PURGE="0" COMMENT="" />
    <EXPORT ORDINAL="3113" NAME="_ZNK8QtCharts13LineChartItem5shapeEv" PURGE="0" COMMENT="" />
    <EXPORT ORDINAL="3114" NAME="_ZNK8QtCharts13QAbstractAxis10labelsFontEv" PURGE="0" COMMENT="" />
    <EXPORT ORDINAL="3115" NAME="_ZNK8QtCharts13QAbstractAxis10metaObjectEv" PURGE="0" COMMENT="" />
    <EXPORT ORDINAL="3116" NAME="_ZNK8QtCharts13QAbstractAxis10titleBrushEv" PURGE="0" COMMENT="" />
    <EXPORT ORDINAL="3117" NAME="_ZNK8QtCharts13QAbstractAxis11gridLinePenEv" PURGE="0" COMMENT="" />
    <EXPORT ORDINAL="3118" NAME="_ZNK8QtCharts13QAbstractAxis11labelsAngleEv" PURGE="0" COMMENT="" />
    <EXPORT ORDINAL="3119" NAME="_ZNK8QtCharts13QAbstractAxis11labelsBrushEv" PURGE="0" COMMENT="" />
    <EXPORT ORDINAL="3120" NAME="_ZNK8QtCharts13QAbstractAxis11labelsColorEv" PURGE="0" COMMENT="" />
    <EXPORT ORDINAL="3121" NAME="_ZNK8QtCharts13QAbstractAxis11orientationEv" PURGE="0" COMMENT="" />
    <EXPORT ORDINAL="3122" NAME="_ZNK8QtCharts13QAbstractAxis11shadesBrushEv" PURGE="0" COMMENT="" />
    <EXPORT ORDINAL="3123" NAME="_ZNK8QtCharts13QAbstractAxis11shadesColorEv" PURGE="0" COMMENT="" />
    <EXPORT ORDINAL="3124" NAME="_ZNK8QtCharts13QAbstractAxis12linePenColorEv" PURGE="0" COMMENT="" />
    <EXPORT ORDINAL="3125" NAME="_ZNK8QtCharts13QAbstractAxis13isLineVisibleEv" PURGE="0" COMMENT="" />
    <EXPORT ORDINAL="3126" NAME="_ZNK8QtCharts13QAbstractAxis13labelsVisibleEv" PURGE="0" COMMENT="" />
    <EXPORT ORDINAL="3127" NAME="_ZNK8QtCharts13QAbstractAxis13shadesVisibleEv" PURGE="0" COMMENT="" />
    <EXPORT ORDINAL="3128" NAME="_ZNK8QtCharts13QAbstractAxis14isTitleVisibleEv" PURGE="0" COMMENT="" />
    <EXPORT ORDINAL="3129" NAME="_ZNK8QtCharts13QAbstractAxis16minorGridLinePenEv" PURGE="0" COMMENT="" />
    <EXPORT ORDINAL="3130" NAME="_ZNK8QtCharts13QAbstractAxis17isGridLineVisibleEv" PURGE="0" COMMENT="" />
    <EXPORT ORDINAL="3131" NAME="_ZNK8QtCharts13QAbstractAxis17shadesBorderColorEv" PURGE="0" COMMENT="" />
    <EXPORT ORDINAL="3132" NAME="_ZNK8QtCharts13QAbstractAxis22isMinorGridLineVisibleEv" PURGE="0" COMMENT="" />
    <EXPORT ORDINAL="3133" NAME="_ZNK8QtCharts13QAbstractAxis7linePenEv" PURGE="0" COMMENT="" />
    <EXPORT ORDINAL="3134" NAME="_ZNK8QtCharts13QAbstractAxis9alignmentEv" PURGE="0" COMMENT="" />
    <EXPORT ORDINAL="3135" NAME="_ZNK8QtCharts13QAbstractAxis9isReverseEv" PURGE="0" COMMENT="" />
    <EXPORT ORDINAL="3136" NAME="_ZNK8QtCharts13QAbstractAxis9isVisibleEv" PURGE="0" COMMENT="" />
    <EXPORT ORDINAL="3137" NAME="_ZNK8QtCharts13QAbstractAxis9shadesPenEv" PURGE="0" COMMENT="" />
    <EXPORT ORDINAL="3138" NAME="_ZNK8QtCharts13QAbstractAxis9titleFontEv" PURGE="0" COMMENT="" />
    <EXPORT ORDINAL="3139" NAME="_ZNK8QtCharts13QAbstractAxis9titleTextEv" PURGE="0" COMMENT="" />
    <EXPORT ORDINAL="3140" NAME="_ZNK8QtCharts13QCategoryAxis10metaObjectEv" PURGE="0" COMMENT="" />
    <EXPORT ORDINAL="3141" NAME="_ZNK8QtCharts13QCategoryAxis10startValueERK7QString" PURGE="0" COMMENT="" />
    <EXPORT ORDINAL="3142" NAME="_ZNK8QtCharts13QCategoryAxis14labelsPositionEv" PURGE="0" COMMENT="" />
    <EXPORT ORDINAL="3143" NAME="_ZNK8QtCharts13QCategoryAxis4typeEv" PURGE="0" COMMENT="" />
    <EXPORT ORDINAL="3144" NAME="_ZNK8QtCharts13QCategoryAxis5countEv" PURGE="0" COMMENT="" />
    <EXPORT ORDINAL="3145" NAME="_ZNK8QtCharts13QCategoryAxis8endValueERK7QString" PURGE="0" COMMENT="" />
    <EXPORT ORDINAL="3146" NAME="_ZNK8QtCharts13QDateTimeAxis10metaObjectEv" PURGE="0" COMMENT="" />
    <EXPORT ORDINAL="3147" NAME="_ZNK8QtCharts13QDateTimeAxis3maxEv" PURGE="0" COMMENT="" />
    <EXPORT ORDINAL="3148" NAME="_ZNK8QtCharts13QDateTimeAxis3minEv" PURGE="0" COMMENT="" />
    <EXPORT ORDINAL="3149" NAME="_ZNK8QtCharts13QDateTimeAxis4typeEv" PURGE="0" COMMENT="" />
    <EXPORT ORDINAL="3150" NAME="_ZNK8QtCharts13QDateTimeAxis6formatEv" PURGE="0" COMMENT="" />
    <EXPORT ORDINAL="3151" NAME="_ZNK8QtCharts13QDateTimeAxis9tickCountEv" PURGE="0" COMMENT="" />
    <EXPORT ORDINAL="3152" NAME="_ZNK8QtCharts13QLegendMarker10labelBrushEv" PURGE="0" COMMENT="" />
    <EXPORT ORDINAL="3153" NAME="_ZNK8QtCharts13QLegendMarker10metaObjectEv" PURGE="0" COMMENT="" />
    <EXPORT ORDINAL="3154" NAME="_ZNK8QtCharts13QLegendMarker3penEv" PURGE="0" COMMENT="" />
    <EXPORT ORDINAL="3155" NAME="_ZNK8QtCharts13QLegendMarker4fontEv" PURGE="0" COMMENT="" />
    <EXPORT ORDINAL="3156" NAME="_ZNK8QtCharts13QLegendMarker5brushEv" PURGE="0" COMMENT="" />
    <EXPORT ORDINAL="3157" NAME="_ZNK8QtCharts13QLegendMarker5labelEv" PURGE="0" COMMENT="" />
    <EXPORT ORDINAL="3158" NAME="_ZNK8QtCharts13QLegendMarker5shapeEv" PURGE="0" COMMENT="" />
    <EXPORT ORDINAL="3159" NAME="_ZNK8QtCharts13QLegendMarker9isVisibleEv" PURGE="-1" COMMENT="" />
    <EXPORT ORDINAL="3160" NAME="_ZNK8QtCharts13QLogValueAxis10metaObjectEv" PURGE="0" COMMENT="" />
    <EXPORT ORDINAL="3161" NAME="_ZNK8QtCharts13QLogValueAxis11labelFormatEv" PURGE="0" COMMENT="" />
    <EXPORT ORDINAL="3162" NAME="_ZNK8QtCharts13QLogValueAxis14minorTickCountEv" PURGE="0" COMMENT="" />
    <EXPORT ORDINAL="3163" NAME="_ZNK8QtCharts13QLogValueAxis3maxEv" PURGE="0" COMMENT="" />
    <EXPORT ORDINAL="3164" NAME="_ZNK8QtCharts13QLogValueAxis3minEv" PURGE="0" COMMENT="" />
    <EXPORT ORDINAL="3165" NAME="_ZNK8QtCharts13QLogValueAxis4baseEv" PURGE="0" COMMENT="" />
    <EXPORT ORDINAL="3166" NAME="_ZNK8QtCharts13QLogValueAxis4typeEv" PURGE="0" COMMENT="" />
    <EXPORT ORDINAL="3167" NAME="_ZNK8QtCharts13QLogValueAxis9tickCountEv" PURGE="0" COMMENT="" />
    <EXPORT ORDINAL="3168" NAME="_ZNK8QtCharts13QSplineSeries10metaObjectEv" PURGE="0" COMMENT="" />
    <EXPORT ORDINAL="3169" NAME="_ZNK8QtCharts13QSplineSeries4typeEv" PURGE="0" COMMENT="" />
    <EXPORT ORDINAL="3170" NAME="_ZNK8QtCharts13XYPolarDomain10metaObjectEv" PURGE="0" COMMENT="" />
    <EXPORT ORDINAL="3171" NAME="_ZNK8QtCharts13XYPolarDomain18toRadialCoordinateEdRb" PURGE="0" COMMENT="" />
    <EXPORT ORDINAL="3172" NAME="_ZNK8QtCharts13XYPolarDomain19toAngularCoordinateEdRb" PURGE="0" COMMENT="" />
    <EXPORT ORDINAL="3173" NAME="_ZNK8QtCharts13XYPolarDomain20calculateDomainPointERK7QPointF" PURGE="0" COMMENT="" />
    <EXPORT ORDINAL="3174" NAME="_ZNK8QtCharts14AbstractDomain10metaObjectEv" PURGE="0" COMMENT="" />
    <EXPORT ORDINAL="3175" NAME="_ZNK8QtCharts14AbstractDomain4sizeEv" PURGE="0" COMMENT="" />
    <EXPORT ORDINAL="3176" NAME="_ZNK8QtCharts14AbstractDomain5spanXEv" PURGE="0" COMMENT="" />
    <EXPORT ORDINAL="3177" NAME="_ZNK8QtCharts14AbstractDomain5spanYEv" PURGE="0" COMMENT="" />
    <EXPORT ORDINAL="3178" NAME="_ZNK8QtCharts14AbstractDomain7isEmptyEv" PURGE="0" COMMENT="" />
    <EXPORT ORDINAL="3179" NAME="_ZNK8QtCharts14ChartAnimation10metaObjectEv" PURGE="0" COMMENT="" />
    <EXPORT ORDINAL="3180" NAME="_ZNK8QtCharts14ChartPresenter10chartItemsEv" PURGE="0" COMMENT="" />
    <EXPORT ORDINAL="3181" NAME="_ZNK8QtCharts14ChartPresenter10metaObjectEv" PURGE="0" COMMENT="" />
    <EXPORT ORDINAL="3182" NAME="_ZNK8QtCharts14ChartPresenter10titleBrushEv" PURGE="0" COMMENT="" />
    <EXPORT ORDINAL="3183" NAME="_ZNK8QtCharts14ChartPresenter13backgroundPenEv" PURGE="0" COMMENT="" />
    <EXPORT ORDINAL="3184" NAME="_ZNK8QtCharts14ChartPresenter15backgroundBrushEv" PURGE="0" COMMENT="" />
    <EXPORT ORDINAL="3185" NAME="_ZNK8QtCharts14ChartPresenter16animationOptionsEv" PURGE="0" COMMENT="" />
    <EXPORT ORDINAL="3186" NAME="_ZNK8QtCharts14ChartPresenter19backgroundRoundnessEv" PURGE="0" COMMENT="" />
    <EXPORT ORDINAL="3187" NAME="_ZNK8QtCharts14ChartPresenter19isBackgroundVisibleEv" PURGE="0" COMMENT="" />
    <EXPORT ORDINAL="3188" NAME="_ZNK8QtCharts14ChartPresenter21plotAreaBackgroundPenEv" PURGE="0" COMMENT="" />
    <EXPORT ORDINAL="3189" NAME="_ZNK8QtCharts14ChartPresenter23plotAreaBackgroundBrushEv" PURGE="0" COMMENT="" />
    <EXPORT ORDINAL="3190" NAME="_ZNK8QtCharts14ChartPresenter27isPlotAreaBackgroundVisibleEv" PURGE="0" COMMENT="" />
    <EXPORT ORDINAL="3191" NAME="_ZNK8QtCharts14ChartPresenter29isBackgroundDropShadowEnabledEv" PURGE="0" COMMENT="" />
    <EXPORT ORDINAL="3192" NAME="_ZNK8QtCharts14ChartPresenter5titleEv" PURGE="0" COMMENT="" />
    <EXPORT ORDINAL="3193" NAME="_ZNK8QtCharts14ChartPresenter8geometryEv" PURGE="0" COMMENT="" />
    <EXPORT ORDINAL="3194" NAME="_ZNK8QtCharts14ChartPresenter9axisItemsEv" PURGE="0" COMMENT="" />
    <EXPORT ORDINAL="3195" NAME="_ZNK8QtCharts14ChartPresenter9titleFontEv" PURGE="0" COMMENT="" />
    <EXPORT ORDINAL="3196" NAME="_ZNK8QtCharts14HorizontalAxis8sizeHintEN2Qt8SizeHintERK6QSizeF" PURGE="0" COMMENT="" />
    <EXPORT ORDINAL="3197" NAME="_ZNK8QtCharts14LegendScroller10metaObjectEv" PURGE="0" COMMENT="" />
    <EXPORT ORDINAL="3198" NAME="_ZNK8QtCharts14LegendScroller6offsetEv" PURGE="0" COMMENT="" />
    <EXPORT ORDINAL="3199" NAME="_ZNK8QtCharts14LogXLogYDomain10metaObjectEv" PURGE="0" COMMENT="" />
    <EXPORT ORDINAL="3200" NAME="_ZNK8QtCharts14LogXLogYDomain20calculateDomainPointERK7QPointF" PURGE="0" COMMENT="" />
    <EXPORT ORDINAL="3201" NAME="_ZNK8QtCharts14LogXLogYDomain22calculateGeometryPointERK7QPointFRb" PURGE="0" COMMENT="" />
    <EXPORT ORDINAL="3202" NAME="_ZNK8QtCharts14LogXLogYDomain23calculateGeometryPointsERK7QVectorI7QPointFE" PURGE="0" COMMENT="" />
    <EXPORT ORDINAL="3203" NAME="_ZNK8QtCharts14PolarChartAxis10metaObjectEv" PURGE="0" COMMENT="" />
    <EXPORT ORDINAL="3204" NAME="_ZNK8QtCharts14PolarChartAxis12gridGeometryEv" PURGE="0" COMMENT="" />
    <EXPORT ORDINAL="3205" NAME="_ZNK8QtCharts14QBarSetPrivate10metaObjectEv" PURGE="0" COMMENT="" />
    <EXPORT ORDINAL="3206" NAME="_ZNK8QtCharts14QBoxPlotSeries10metaObjectEv" PURGE="0" COMMENT="" />
    <EXPORT ORDINAL="3207" NAME="_ZNK8QtCharts14QBoxPlotSeries3penEv" PURGE="0" COMMENT="" />
    <EXPORT ORDINAL="3208" NAME="_ZNK8QtCharts14QBoxPlotSeries4typeEv" PURGE="0" COMMENT="" />
    <EXPORT ORDINAL="3209" NAME="_ZNK8QtCharts14QBoxPlotSeries5brushEv" PURGE="0" COMMENT="" />
    <EXPORT ORDINAL="3210" NAME="_ZNK8QtCharts14QBoxPlotSeries5countEv" PURGE="0" COMMENT="" />
    <EXPORT ORDINAL="3211" NAME="_ZNK8QtCharts14QBoxPlotSeries7boxSetsEv" PURGE="0" COMMENT="" />
    <EXPORT ORDINAL="3212" NAME="_ZNK8QtCharts14QBoxSetPrivate10metaObjectEv" PURGE="0" COMMENT="" />
    <EXPORT ORDINAL="3213" NAME="_ZNK8QtCharts14QLegendPrivate10metaObjectEv" PURGE="0" COMMENT="" />
    <EXPORT ORDINAL="3214" NAME="_ZNK8QtCharts14QLegendPrivate14maxMarkerWidthEv" PURGE="0" COMMENT="" />
    <EXPORT ORDINAL="3215" NAME="_ZNK8QtCharts14QLegendPrivate6offsetEv" PURGE="0" COMMENT="" />
    <EXPORT ORDINAL="3216" NAME="_ZNK8QtCharts14QScatterSeries10markerSizeEv" PURGE="0" COMMENT="" />
    <EXPORT ORDINAL="3217" NAME="_ZNK8QtCharts14QScatterSeries10metaObjectEv" PURGE="0" COMMENT="" />
    <EXPORT ORDINAL="3218" NAME="_ZNK8QtCharts14QScatterSeries11borderColorEv" PURGE="0" COMMENT="" />
    <EXPORT ORDINAL="3219" NAME="_ZNK8QtCharts14QScatterSeries11markerShapeEv" PURGE="0" COMMENT="" />
    <EXPORT ORDINAL="3220" NAME="_ZNK8QtCharts14QScatterSeries4typeEv" PURGE="0" COMMENT="" />
    <EXPORT ORDINAL="3221" NAME="_ZNK8QtCharts14QScatterSeries5brushEv" PURGE="0" COMMENT="" />
    <EXPORT ORDINAL="3222" NAME="_ZNK8QtCharts14QScatterSeries5colorEv" PURGE="0" COMMENT="" />
    <EXPORT ORDINAL="3223" NAME="_ZNK8QtCharts14QXYModelMapper10metaObjectEv" PURGE="0" COMMENT="" />
    <EXPORT ORDINAL="3224" NAME="_ZNK8QtCharts14QXYModelMapper11orientationEv" PURGE="0" COMMENT="" />
    <EXPORT ORDINAL="3225" NAME="_ZNK8QtCharts14QXYModelMapper5countEv" PURGE="0" COMMENT="" />
    <EXPORT ORDINAL="3226" NAME="_ZNK8QtCharts14QXYModelMapper5firstEv" PURGE="0" COMMENT="" />
    <EXPORT ORDINAL="3227" NAME="_ZNK8QtCharts14QXYModelMapper5modelEv" PURGE="0" COMMENT="" />
    <EXPORT ORDINAL="3228" NAME="_ZNK8QtCharts14QXYModelMapper6seriesEv" PURGE="0" COMMENT="" />
    <EXPORT ORDINAL="3229" NAME="_ZNK8QtCharts14QXYModelMapper8xSectionEv" PURGE="0" COMMENT="" />
    <EXPORT ORDINAL="3230" NAME="_ZNK8QtCharts14QXYModelMapper8ySectionEv" PURGE="0" COMMENT="" />
    <EXPORT ORDINAL="3231" NAME="_ZNK8QtCharts15ChartBackground8diameterEv" PURGE="0" COMMENT="" />
    <EXPORT ORDINAL="3232" NAME="_ZNK8QtCharts15ChartValueAxisX10metaObjectEv" PURGE="0" COMMENT="" />
    <EXPORT ORDINAL="3233" NAME="_ZNK8QtCharts15ChartValueAxisX15calculateLayoutEv" PURGE="0" COMMENT="" />
    <EXPORT ORDINAL="3234" NAME="_ZNK8QtCharts15ChartValueAxisX8sizeHintEN2Qt8SizeHintERK6QSizeF" PURGE="0" COMMENT="" />
    <EXPORT ORDINAL="3235" NAME="_ZNK8QtCharts15ChartValueAxisY10metaObjectEv" PURGE="0" COMMENT="" />
    <EXPORT ORDINAL="3236" NAME="_ZNK8QtCharts15ChartValueAxisY15calculateLayoutEv" PURGE="0" COMMENT="" />
    <EXPORT ORDINAL="3237" NAME="_ZNK8QtCharts15ChartValueAxisY8sizeHintEN2Qt8SizeHintERK6QSizeF" PURGE="0" COMMENT="" />
    <EXPORT ORDINAL="3238" NAME="_ZNK8QtCharts15QAbstractSeries10metaObjectEv" PURGE="0" COMMENT="" />
    <EXPORT ORDINAL="3239" NAME="_ZNK8QtCharts15QAbstractSeries4nameEv" PURGE="0" COMMENT="" />
    <EXPORT ORDINAL="3240" NAME="_ZNK8QtCharts15QAbstractSeries5chartEv" PURGE="0" COMMENT="" />
    <EXPORT ORDINAL="3241" NAME="_ZNK8QtCharts15QAbstractSeries7opacityEv" PURGE="0" COMMENT="" />
    <EXPORT ORDINAL="3242" NAME="_ZNK8QtCharts15QAbstractSeries9isVisibleEv" PURGE="0" COMMENT="" />
    <EXPORT ORDINAL="3243" NAME="_ZNK8QtCharts15QAbstractSeries9useOpenGLEv" PURGE="0" COMMENT="" />
    <EXPORT ORDINAL="3244" NAME="_ZNK8QtCharts15QBarModelMapper10metaObjectEv" PURGE="0" COMMENT="" />
    <EXPORT ORDINAL="3245" NAME="_ZNK8QtCharts15QBarModelMapper11orientationEv" PURGE="0" COMMENT="" />
    <EXPORT ORDINAL="3246" NAME="_ZNK8QtCharts15QBarModelMapper17lastBarSetSectionEv" PURGE="0" COMMENT="" />
    <EXPORT ORDINAL="3247" NAME="_ZNK8QtCharts15QBarModelMapper18firstBarSetSectionEv" PURGE="0" COMMENT="" />
    <EXPORT ORDINAL="3248" NAME="_ZNK8QtCharts15QBarModelMapper5countEv" PURGE="0" COMMENT="" />
    <EXPORT ORDINAL="3249" NAME="_ZNK8QtCharts15QBarModelMapper5firstEv" PURGE="0" COMMENT="" />
    <EXPORT ORDINAL="3250" NAME="_ZNK8QtCharts15QBarModelMapper5modelEv" PURGE="0" COMMENT="" />
    <EXPORT ORDINAL="3251" NAME="_ZNK8QtCharts15QBarModelMapper6seriesEv" PURGE="0" COMMENT="" />
    <EXPORT ORDINAL="3252" NAME="_ZNK8QtCharts15QCandlestickSet10metaObjectEv" PURGE="0" COMMENT="" />
    <EXPORT ORDINAL="3253" NAME="_ZNK8QtCharts15QCandlestickSet3lowEv" PURGE="0" COMMENT="" />
    <EXPORT ORDINAL="3254" NAME="_ZNK8QtCharts15QCandlestickSet3penEv" PURGE="0" COMMENT="" />
    <EXPORT ORDINAL="3255" NAME="_ZNK8QtCharts15QCandlestickSet4highEv" PURGE="0" COMMENT="" />
    <EXPORT ORDINAL="3256" NAME="_ZNK8QtCharts15QCandlestickSet4openEv" PURGE="0" COMMENT="" />
    <EXPORT ORDINAL="3257" NAME="_ZNK8QtCharts15QCandlestickSet5brushEv" PURGE="0" COMMENT="" />
    <EXPORT ORDINAL="3258" NAME="_ZNK8QtCharts15QCandlestickSet5closeEv" PURGE="0" COMMENT="" />
    <EXPORT ORDINAL="3259" NAME="_ZNK8QtCharts15QCandlestickSet9timestampEv" PURGE="0" COMMENT="" />
    <EXPORT ORDINAL="3260" NAME="_ZNK8QtCharts15QHXYModelMapper10metaObjectEv" PURGE="0" COMMENT="" />
    <EXPORT ORDINAL="3261" NAME="_ZNK8QtCharts15QHXYModelMapper11columnCountEv" PURGE="0" COMMENT="" />
    <EXPORT ORDINAL="3262" NAME="_ZNK8QtCharts15QHXYModelMapper11firstColumnEv" PURGE="0" COMMENT="" />
    <EXPORT ORDINAL="3263" NAME="_ZNK8QtCharts15QHXYModelMapper4xRowEv" PURGE="0" COMMENT="" />
    <EXPORT ORDINAL="3264" NAME="_ZNK8QtCharts15QHXYModelMapper4yRowEv" PURGE="0" COMMENT="" />
    <EXPORT ORDINAL="3265" NAME="_ZNK8QtCharts15QHXYModelMapper5modelEv" PURGE="0" COMMENT="" />
    <EXPORT ORDINAL="3266" NAME="_ZNK8QtCharts15QHXYModelMapper6seriesEv" PURGE="0" COMMENT="" />
    <EXPORT ORDINAL="3267" NAME="_ZNK8QtCharts15QPieModelMapper10metaObjectEv" PURGE="0" COMMENT="" />
    <EXPORT ORDINAL="3268" NAME="_ZNK8QtCharts15QPieModelMapper11orientationEv" PURGE="0" COMMENT="" />
    <EXPORT ORDINAL="3269" NAME="_ZNK8QtCharts15QPieModelMapper13labelsSectionEv" PURGE="0" COMMENT="" />
    <EXPORT ORDINAL="3270" NAME="_ZNK8QtCharts15QPieModelMapper13valuesSectionEv" PURGE="0" COMMENT="" />
    <EXPORT ORDINAL="3271" NAME="_ZNK8QtCharts15QPieModelMapper5countEv" PURGE="0" COMMENT="" />
    <EXPORT ORDINAL="3272" NAME="_ZNK8QtCharts15QPieModelMapper5firstEv" PURGE="0" COMMENT="" />
    <EXPORT ORDINAL="3273" NAME="_ZNK8QtCharts15QPieModelMapper5modelEv" PURGE="0" COMMENT="" />
    <EXPORT ORDINAL="3274" NAME="_ZNK8QtCharts15QPieModelMapper6seriesEv" PURGE="0" COMMENT="" />
    <EXPORT ORDINAL="3275" NAME="_ZNK8QtCharts15QVXYModelMapper10metaObjectEv" PURGE="0" COMMENT="" />
    <EXPORT ORDINAL="3276" NAME="_ZNK8QtCharts15QVXYModelMapper5modelEv" PURGE="0" COMMENT="" />
    <EXPORT ORDINAL="3277" NAME="_ZNK8QtCharts15QVXYModelMapper6seriesEv" PURGE="0" COMMENT="" />
    <EXPORT ORDINAL="3278" NAME="_ZNK8QtCharts15QVXYModelMapper7xColumnEv" PURGE="0" COMMENT="" />
    <EXPORT ORDINAL="3279" NAME="_ZNK8QtCharts15QVXYModelMapper7yColumnEv" PURGE="0" COMMENT="" />
    <EXPORT ORDINAL="3280" NAME="_ZNK8QtCharts15QVXYModelMapper8firstRowEv" PURGE="0" COMMENT="" />
    <EXPORT ORDINAL="3281" NAME="_ZNK8QtCharts15QVXYModelMapper8rowCountEv" PURGE="0" COMMENT="" />
    <EXPORT ORDINAL="3282" NAME="_ZNK8QtCharts15QXYLegendMarker10metaObjectEv" PURGE="0" COMMENT="" />
    <EXPORT ORDINAL="3283" NAME="_ZNK8QtCharts15SplineAnimation12interpolatedERK8QVariantS3_d" PURGE="0" COMMENT="" />
    <EXPORT ORDINAL="3284" NAME="_ZNK8QtCharts15SplineChartItem10metaObjectEv" PURGE="0" COMMENT="" />
    <EXPORT ORDINAL="3285" NAME="_ZNK8QtCharts15SplineChartItem12boundingRectEv" PURGE="0" COMMENT="" />
    <EXPORT ORDINAL="3286" NAME="_ZNK8QtCharts15SplineChartItem21controlGeometryPointsEv" PURGE="0" COMMENT="" />
    <EXPORT ORDINAL="3287" NAME="_ZNK8QtCharts15SplineChartItem5shapeEv" PURGE="0" COMMENT="" />
    <EXPORT ORDINAL="3288" NAME="_ZNK8QtCharts15SplineChartItem9animationEv" PURGE="0" COMMENT="" />
    <EXPORT ORDINAL="3289" NAME="_ZNK8QtCharts16BoxPlotAnimation10metaObjectEv" PURGE="0" COMMENT="" />
    <EXPORT ORDINAL="3290" NAME="_ZNK8QtCharts16BoxPlotChartItem10metaObjectEv" PURGE="0" COMMENT="" />
    <EXPORT ORDINAL="3291" NAME="_ZNK8QtCharts16BoxPlotChartItem12boundingRectEv" PURGE="0" COMMENT="" />
    <EXPORT ORDINAL="3292" NAME="_ZNK8QtCharts16ChartAxisElement10metaObjectEv" PURGE="0" COMMENT="" />
    <EXPORT ORDINAL="3293" NAME="_ZNK8QtCharts16ChartAxisElement10tickAnchorEv" PURGE="0" COMMENT="" />
    <EXPORT ORDINAL="3294" NAME="_ZNK8QtCharts16ChartAxisElement11formatLabelERK7QStringRK10QByteArraydiS3_S3_" PURGE="0" COMMENT="" />
    <EXPORT ORDINAL="3295" NAME="_ZNK8QtCharts16ChartAxisElement12tickIntervalEv" PURGE="0" COMMENT="" />
    <EXPORT ORDINAL="3296" NAME="_ZNK8QtCharts16ChartAxisElement17createValueLabelsEddiddNS_10QValueAxis8TickTypeERK7QString" PURGE="0" COMMENT="" />
    <EXPORT ORDINAL="3297" NAME="_ZNK8QtCharts16ChartAxisElement20createDateTimeLabelsEddiRK7QString" PURGE="0" COMMENT="" />
    <EXPORT ORDINAL="3298" NAME="_ZNK8QtCharts16ChartAxisElement20createLogValueLabelsEdddiRK7QString" PURGE="0" COMMENT="" />
    <EXPORT ORDINAL="3299" NAME="_ZNK8QtCharts16ChartAxisElement3maxEv" PURGE="-1" COMMENT="" />
    <EXPORT ORDINAL="3300" NAME="_ZNK8QtCharts16ChartAxisElement3minEv" PURGE="-1" COMMENT="" />
    <EXPORT ORDINAL="3301" NAME="_ZNK8QtCharts16LegendMarkerItem10labelBrushEv" PURGE="0" COMMENT="" />
    <EXPORT ORDINAL="3302" NAME="_ZNK8QtCharts16LegendMarkerItem10markerRectEv" PURGE="0" COMMENT="" />
    <EXPORT ORDINAL="3303" NAME="_ZNK8QtCharts16LegendMarkerItem10metaObjectEv" PURGE="0" COMMENT="" />
    <EXPORT ORDINAL="3304" NAME="_ZNK8QtCharts16LegendMarkerItem11markerShapeEv" PURGE="0" COMMENT="" />
    <EXPORT ORDINAL="3305" NAME="_ZNK8QtCharts16LegendMarkerItem11useMaxWidthEv" PURGE="0" COMMENT="" />
    <EXPORT ORDINAL="3306" NAME="_ZNK8QtCharts16LegendMarkerItem12boundingRectEv" PURGE="0" COMMENT="" />
    <EXPORT ORDINAL="3307" NAME="_ZNK8QtCharts16LegendMarkerItem14displayedLabelEv" PURGE="0" COMMENT="" />
    <EXPORT ORDINAL="3308" NAME="_ZNK8QtCharts16LegendMarkerItem20effectiveMarkerShapeEv" PURGE="0" COMMENT="" />
    <EXPORT ORDINAL="3309" NAME="_ZNK8QtCharts16LegendMarkerItem20effectiveMarkerWidthEv" PURGE="0" COMMENT="" />
    <EXPORT ORDINAL="3310" NAME="_ZNK8QtCharts16LegendMarkerItem3penEv" PURGE="0" COMMENT="" />
    <EXPORT ORDINAL="3311" NAME="_ZNK8QtCharts16LegendMarkerItem4fontEv" PURGE="0" COMMENT="" />
    <EXPORT ORDINAL="3312" NAME="_ZNK8QtCharts16LegendMarkerItem5brushEv" PURGE="0" COMMENT="" />
    <EXPORT ORDINAL="3313" NAME="_ZNK8QtCharts16LegendMarkerItem5labelEv" PURGE="0" COMMENT="" />
    <EXPORT ORDINAL="3314" NAME="_ZNK8QtCharts16LegendMarkerItem8sizeHintEN2Qt8SizeHintERK6QSizeF" PURGE="0" COMMENT="" />
    <EXPORT ORDINAL="3315" NAME="_ZNK8QtCharts16LogXYPolarDomain10metaObjectEv" PURGE="0" COMMENT="" />
    <EXPORT ORDINAL="3316" NAME="_ZNK8QtCharts16LogXYPolarDomain18toRadialCoordinateEdRb" PURGE="0" COMMENT="" />
    <EXPORT ORDINAL="3317" NAME="_ZNK8QtCharts16LogXYPolarDomain19toAngularCoordinateEdRb" PURGE="0" COMMENT="" />
    <EXPORT ORDINAL="3318" NAME="_ZNK8QtCharts16LogXYPolarDomain20calculateDomainPointERK7QPointF" PURGE="0" COMMENT="" />
    <EXPORT ORDINAL="3319" NAME="_ZNK8QtCharts16PolarChartLayout20calculateAxisMinimumERK6QRectFRK5QListIPNS_16ChartAxisElementEE" PURGE="0" COMMENT="" />
    <EXPORT ORDINAL="3320" NAME="_ZNK8QtCharts16PolarChartLayout21calculateAxisGeometryERK6QRectFRK5QListIPNS_16ChartAxisElementEEb" PURGE="0" COMMENT="" />
    <EXPORT ORDINAL="3321" NAME="_ZNK8QtCharts16QBarCategoryAxis10metaObjectEv" PURGE="0" COMMENT="" />
    <EXPORT ORDINAL="3322" NAME="_ZNK8QtCharts16QBarCategoryAxis2atEi" PURGE="0" COMMENT="" />
    <EXPORT ORDINAL="3323" NAME="_ZNK8QtCharts16QBarCategoryAxis3maxEv" PURGE="0" COMMENT="" />
    <EXPORT ORDINAL="3324" NAME="_ZNK8QtCharts16QBarCategoryAxis3minEv" PURGE="0" COMMENT="" />
    <EXPORT ORDINAL="3325" NAME="_ZNK8QtCharts16QBarCategoryAxis4typeEv" PURGE="0" COMMENT="" />
    <EXPORT ORDINAL="3326" NAME="_ZNK8QtCharts16QBarCategoryAxis5countEv" PURGE="0" COMMENT="" />
    <EXPORT ORDINAL="3327" NAME="_ZNK8QtCharts16QBarLegendMarker10metaObjectEv" PURGE="0" COMMENT="" />
    <EXPORT ORDINAL="3328" NAME="_ZNK8QtCharts16QHBarModelMapper10metaObjectEv" PURGE="0" COMMENT="" />
    <EXPORT ORDINAL="3329" NAME="_ZNK8QtCharts16QHBarModelMapper11columnCountEv" PURGE="0" COMMENT="" />
    <EXPORT ORDINAL="3330" NAME="_ZNK8QtCharts16QHBarModelMapper11firstColumnEv" PURGE="0" COMMENT="" />
    <EXPORT ORDINAL="3331" NAME="_ZNK8QtCharts16QHBarModelMapper13lastBarSetRowEv" PURGE="0" COMMENT="" />
    <EXPORT ORDINAL="3332" NAME="_ZNK8QtCharts16QHBarModelMapper14firstBarSetRowEv" PURGE="0" COMMENT="" />
    <EXPORT ORDINAL="3333" NAME="_ZNK8QtCharts16QHBarModelMapper5modelEv" PURGE="0" COMMENT="" />
    <EXPORT ORDINAL="3334" NAME="_ZNK8QtCharts16QHBarModelMapper6seriesEv" PURGE="0" COMMENT="" />
    <EXPORT ORDINAL="3335" NAME="_ZNK8QtCharts16QHPieModelMapper10metaObjectEv" PURGE="0" COMMENT="" />
    <EXPORT ORDINAL="3336" NAME="_ZNK8QtCharts16QHPieModelMapper11columnCountEv" PURGE="0" COMMENT="" />
    <EXPORT ORDINAL="3337" NAME="_ZNK8QtCharts16QHPieModelMapper11firstColumnEv" PURGE="0" COMMENT="" />
    <EXPORT ORDINAL="3338" NAME="_ZNK8QtCharts16QHPieModelMapper5modelEv" PURGE="0" COMMENT="" />
    <EXPORT ORDINAL="3339" NAME="_ZNK8QtCharts16QHPieModelMapper6seriesEv" PURGE="0" COMMENT="" />
    <EXPORT ORDINAL="3340" NAME="_ZNK8QtCharts16QHPieModelMapper9labelsRowEv" PURGE="0" COMMENT="" />
    <EXPORT ORDINAL="3341" NAME="_ZNK8QtCharts16QHPieModelMapper9valuesRowEv" PURGE="0" COMMENT="" />
    <EXPORT ORDINAL="3342" NAME="_ZNK8QtCharts16QPieLegendMarker10metaObjectEv" PURGE="0" COMMENT="" />
    <EXPORT ORDINAL="3343" NAME="_ZNK8QtCharts16QPieSlicePrivate10metaObjectEv" PURGE="0" COMMENT="" />
    <EXPORT ORDINAL="3344" NAME="_ZNK8QtCharts16QVBarModelMapper10metaObjectEv" PURGE="0" COMMENT="" />
    <EXPORT ORDINAL="3345" NAME="_ZNK8QtCharts16QVBarModelMapper16lastBarSetColumnEv" PURGE="0" COMMENT="" />
    <EXPORT ORDINAL="3346" NAME="_ZNK8QtCharts16QVBarModelMapper17firstBarSetColumnEv" PURGE="0" COMMENT="" />
    <EXPORT ORDINAL="3347" NAME="_ZNK8QtCharts16QVBarModelMapper5modelEv" PURGE="0" COMMENT="" />
    <EXPORT ORDINAL="3348" NAME="_ZNK8QtCharts16QVBarModelMapper6seriesEv" PURGE="0" COMMENT="" />
    <EXPORT ORDINAL="3349" NAME="_ZNK8QtCharts16QVBarModelMapper8firstRowEv" PURGE="0" COMMENT="" />
    <EXPORT ORDINAL="3350" NAME="_ZNK8QtCharts16QVBarModelMapper8rowCountEv" PURGE="0" COMMENT="" />
    <EXPORT ORDINAL="3351" NAME="_ZNK8QtCharts16QVPieModelMapper10metaObjectEv" PURGE="0" COMMENT="" />
    <EXPORT ORDINAL="3352" NAME="_ZNK8QtCharts16QVPieModelMapper12labelsColumnEv" PURGE="0" COMMENT="" />
    <EXPORT ORDINAL="3353" NAME="_ZNK8QtCharts16QVPieModelMapper12valuesColumnEv" PURGE="0" COMMENT="" />
    <EXPORT ORDINAL="3354" NAME="_ZNK8QtCharts16QVPieModelMapper5modelEv" PURGE="0" COMMENT="" />
    <EXPORT ORDINAL="3355" NAME="_ZNK8QtCharts16QVPieModelMapper6seriesEv" PURGE="0" COMMENT="" />
    <EXPORT ORDINAL="3356" NAME="_ZNK8QtCharts16QVPieModelMapper8firstRowEv" PURGE="0" COMMENT="" />
    <EXPORT ORDINAL="3357" NAME="_ZNK8QtCharts16QVPieModelMapper8rowCountEv" PURGE="0" COMMENT="" />
    <EXPORT ORDINAL="3358" NAME="_ZNK8QtCharts16QXYSeriesPrivate10metaObjectEv" PURGE="0" COMMENT="" />
    <EXPORT ORDINAL="3359" NAME="_ZNK8QtCharts16QXYSeriesPrivate15defaultAxisTypeEN2Qt11OrientationE" PURGE="0" COMMENT="" />
    <EXPORT ORDINAL="3360" NAME="_ZNK8QtCharts16QXYSeriesPrivate17createDefaultAxisEN2Qt11OrientationE" PURGE="0" COMMENT="" />
    <EXPORT ORDINAL="3361" NAME="_ZNK8QtCharts16ScatterChartItem10metaObjectEv" PURGE="0" COMMENT="" />
    <EXPORT ORDINAL="3362" NAME="_ZNK8QtCharts16ScatterChartItem12boundingRectEv" PURGE="0" COMMENT="" />
    <EXPORT ORDINAL="3363" NAME="_ZNK8QtCharts16XLogYPolarDomain10metaObjectEv" PURGE="0" COMMENT="" />
    <EXPORT ORDINAL="3364" NAME="_ZNK8QtCharts16XLogYPolarDomain18toRadialCoordinateEdRb" PURGE="0" COMMENT="" />
    <EXPORT ORDINAL="3365" NAME="_ZNK8QtCharts16XLogYPolarDomain19toAngularCoordinateEdRb" PURGE="0" COMMENT="" />
    <EXPORT ORDINAL="3366" NAME="_ZNK8QtCharts16XLogYPolarDomain20calculateDomainPointERK7QPointF" PURGE="0" COMMENT="" />
    <EXPORT ORDINAL="3367" NAME="_ZNK8QtCharts17ChartThemeManager10metaObjectEv" PURGE="0" COMMENT="" />
    <EXPORT ORDINAL="3368" NAME="_ZNK8QtCharts17ChartThemeManager11seriesCountENS_15QAbstractSeries10SeriesTypeE" PURGE="0" COMMENT="" />
    <EXPORT ORDINAL="3369" NAME="_ZNK8QtCharts17ChartThemeManager13decorateChartEPNS_6QChartEPNS_10ChartThemeE" PURGE="0" COMMENT="" />
    <EXPORT ORDINAL="3370" NAME="_ZNK8QtCharts17ChartThemeManager14createIndexKeyE5QListIiE" PURGE="0" COMMENT="" />
    <EXPORT ORDINAL="3371" NAME="_ZNK8QtCharts17ChartThemeManager14decorateLegendEPNS_7QLegendEPNS_10ChartThemeE" PURGE="0" COMMENT="" />
    <EXPORT ORDINAL="3372" NAME="_ZNK8QtCharts17PieSliceAnimation12interpolatedERK8QVariantS3_d" PURGE="0" COMMENT="" />
    <EXPORT ORDINAL="3373" NAME="_ZNK8QtCharts17QAreaLegendMarker10metaObjectEv" PURGE="0" COMMENT="" />
    <EXPORT ORDINAL="3374" NAME="_ZNK8QtCharts17QPercentBarSeries10metaObjectEv" PURGE="0" COMMENT="" />
    <EXPORT ORDINAL="3375" NAME="_ZNK8QtCharts17QPercentBarSeries4typeEv" PURGE="0" COMMENT="" />
    <EXPORT ORDINAL="3376" NAME="_ZNK8QtCharts17QPieSeriesPrivate10metaObjectEv" PURGE="0" COMMENT="" />
    <EXPORT ORDINAL="3377" NAME="_ZNK8QtCharts17QPieSeriesPrivate15defaultAxisTypeEN2Qt11OrientationE" PURGE="0" COMMENT="" />
    <EXPORT ORDINAL="3378" NAME="_ZNK8QtCharts17QPieSeriesPrivate17createDefaultAxisEN2Qt11OrientationE" PURGE="0" COMMENT="" />
    <EXPORT ORDINAL="3379" NAME="_ZNK8QtCharts17QStackedBarSeries10metaObjectEv" PURGE="0" COMMENT="" />
    <EXPORT ORDINAL="3380" NAME="_ZNK8QtCharts17QStackedBarSeries4typeEv" PURGE="0" COMMENT="" />
    <EXPORT ORDINAL="3381" NAME="_ZNK8QtCharts17QValueAxisPrivate10metaObjectEv" PURGE="0" COMMENT="" />
    <EXPORT ORDINAL="3382" NAME="_ZNK8QtCharts18CartesianChartAxis10metaObjectEv" PURGE="0" COMMENT="" />
    <EXPORT ORDINAL="3383" NAME="_ZNK8QtCharts18CartesianChartAxis8sizeHintEN2Qt8SizeHintERK6QSizeF" PURGE="0" COMMENT="" />
    <EXPORT ORDINAL="3384" NAME="_ZNK8QtCharts18ChartCategoryAxisX10metaObjectEv" PURGE="0" COMMENT="" />
    <EXPORT ORDINAL="3385" NAME="_ZNK8QtCharts18ChartCategoryAxisX15calculateLayoutEv" PURGE="0" COMMENT="" />
    <EXPORT ORDINAL="3386" NAME="_ZNK8QtCharts18ChartCategoryAxisX8sizeHintEN2Qt8SizeHintERK6QSizeF" PURGE="0" COMMENT="" />
    <EXPORT ORDINAL="3387" NAME="_ZNK8QtCharts18ChartCategoryAxisY10metaObjectEv" PURGE="0" COMMENT="" />
    <EXPORT ORDINAL="3388" NAME="_ZNK8QtCharts18ChartCategoryAxisY15calculateLayoutEv" PURGE="0" COMMENT="" />
    <EXPORT ORDINAL="3389" NAME="_ZNK8QtCharts18ChartCategoryAxisY8sizeHintEN2Qt8SizeHintERK6QSizeF" PURGE="0" COMMENT="" />
    <EXPORT ORDINAL="3390" NAME="_ZNK8QtCharts18ChartDateTimeAxisX10metaObjectEv" PURGE="0" COMMENT="" />
    <EXPORT ORDINAL="3391" NAME="_ZNK8QtCharts18ChartDateTimeAxisX15calculateLayoutEv" PURGE="0" COMMENT="" />
    <EXPORT ORDINAL="3392" NAME="_ZNK8QtCharts18ChartDateTimeAxisX8sizeHintEN2Qt8SizeHintERK6QSizeF" PURGE="0" COMMENT="" />
    <EXPORT ORDINAL="3393" NAME="_ZNK8QtCharts18ChartDateTimeAxisY10metaObjectEv" PURGE="0" COMMENT="" />
    <EXPORT ORDINAL="3394" NAME="_ZNK8QtCharts18ChartDateTimeAxisY15calculateLayoutEv" PURGE="0" COMMENT="" />
    <EXPORT ORDINAL="3395" NAME="_ZNK8QtCharts18ChartDateTimeAxisY8sizeHintEN2Qt8SizeHintERK6QSizeF" PURGE="0" COMMENT="" />
    <EXPORT ORDINAL="3396" NAME="_ZNK8QtCharts18ChartLogValueAxisX10metaObjectEv" PURGE="0" COMMENT="" />
    <EXPORT ORDINAL="3397" NAME="_ZNK8QtCharts18ChartLogValueAxisX15calculateLayoutEv" PURGE="0" COMMENT="" />
    <EXPORT ORDINAL="3398" NAME="_ZNK8QtCharts18ChartLogValueAxisX8sizeHintEN2Qt8SizeHintERK6QSizeF" PURGE="0" COMMENT="" />
    <EXPORT ORDINAL="3399" NAME="_ZNK8QtCharts18ChartLogValueAxisY10metaObjectEv" PURGE="0" COMMENT="" />
    <EXPORT ORDINAL="3400" NAME="_ZNK8QtCharts18ChartLogValueAxisY15calculateLayoutEv" PURGE="0" COMMENT="" />
    <EXPORT ORDINAL="3401" NAME="_ZNK8QtCharts18ChartLogValueAxisY8sizeHintEN2Qt8SizeHintERK6QSizeF" PURGE="0" COMMENT="" />
    <EXPORT ORDINAL="3402" NAME="_ZNK8QtCharts18QAbstractBarSeries10metaObjectEv" PURGE="0" COMMENT="" />
    <EXPORT ORDINAL="3403" NAME="_ZNK8QtCharts18QAbstractBarSeries11labelsAngleEv" PURGE="0" COMMENT="" />
    <EXPORT ORDINAL="3404" NAME="_ZNK8QtCharts18QAbstractBarSeries12labelsFormatEv" PURGE="0" COMMENT="" />
    <EXPORT ORDINAL="3405" NAME="_ZNK8QtCharts18QAbstractBarSeries14labelsPositionEv" PURGE="0" COMMENT="" />
    <EXPORT ORDINAL="3406" NAME="_ZNK8QtCharts18QAbstractBarSeries15isLabelsVisibleEv" PURGE="0" COMMENT="" />
    <EXPORT ORDINAL="3407" NAME="_ZNK8QtCharts18QAbstractBarSeries15labelsPrecisionEv" PURGE="0" COMMENT="" />
    <EXPORT ORDINAL="3408" NAME="_ZNK8QtCharts18QAbstractBarSeries5countEv" PURGE="0" COMMENT="" />
    <EXPORT ORDINAL="3409" NAME="_ZNK8QtCharts18QAbstractBarSeries7barSetsEv" PURGE="0" COMMENT="" />
    <EXPORT ORDINAL="3410" NAME="_ZNK8QtCharts18QAbstractBarSeries8barWidthEv" PURGE="0" COMMENT="" />
    <EXPORT ORDINAL="3411" NAME="_ZNK8QtCharts18QAreaSeriesPrivate10metaObjectEv" PURGE="0" COMMENT="" />
    <EXPORT ORDINAL="3412" NAME="_ZNK8QtCharts18QAreaSeriesPrivate15defaultAxisTypeEN2Qt11OrientationE" PURGE="0" COMMENT="" />
    <EXPORT ORDINAL="3413" NAME="_ZNK8QtCharts18QAreaSeriesPrivate17createDefaultAxisEN2Qt11OrientationE" PURGE="0" COMMENT="" />
    <EXPORT ORDINAL="3414" NAME="_ZNK8QtCharts18QCandlestickSeries10metaObjectEv" PURGE="0" COMMENT="" />
    <EXPORT ORDINAL="3415" NAME="_ZNK8QtCharts18QCandlestickSeries11capsVisibleEv" PURGE="0" COMMENT="" />
    <EXPORT ORDINAL="3416" NAME="_ZNK8QtCharts18QCandlestickSeries15decreasingColorEv" PURGE="0" COMMENT="" />
    <EXPORT ORDINAL="3417" NAME="_ZNK8QtCharts18QCandlestickSeries15increasingColorEv" PURGE="0" COMMENT="" />
    <EXPORT ORDINAL="3418" NAME="_ZNK8QtCharts18QCandlestickSeries18bodyOutlineVisibleEv" PURGE="0" COMMENT="" />
    <EXPORT ORDINAL="3419" NAME="_ZNK8QtCharts18QCandlestickSeries18maximumColumnWidthEv" PURGE="0" COMMENT="" />
    <EXPORT ORDINAL="3420" NAME="_ZNK8QtCharts18QCandlestickSeries18minimumColumnWidthEv" PURGE="0" COMMENT="" />
    <EXPORT ORDINAL="3421" NAME="_ZNK8QtCharts18QCandlestickSeries3penEv" PURGE="0" COMMENT="" />
    <EXPORT ORDINAL="3422" NAME="_ZNK8QtCharts18QCandlestickSeries4setsEv" PURGE="0" COMMENT="" />
    <EXPORT ORDINAL="3423" NAME="_ZNK8QtCharts18QCandlestickSeries4typeEv" PURGE="0" COMMENT="" />
    <EXPORT ORDINAL="3424" NAME="_ZNK8QtCharts18QCandlestickSeries5brushEv" PURGE="0" COMMENT="" />
    <EXPORT ORDINAL="3425" NAME="_ZNK8QtCharts18QCandlestickSeries5countEv" PURGE="0" COMMENT="" />
    <EXPORT ORDINAL="3426" NAME="_ZNK8QtCharts18QCandlestickSeries9bodyWidthEv" PURGE="0" COMMENT="" />
    <EXPORT ORDINAL="3427" NAME="_ZNK8QtCharts18QCandlestickSeries9capsWidthEv" PURGE="0" COMMENT="" />
    <EXPORT ORDINAL="3428" NAME="_ZNK8QtCharts19AbstractChartLayout21calculateTitleMinimumERK6QRectFPNS_10ChartTitleE" PURGE="0" COMMENT="" />
    <EXPORT ORDINAL="3429" NAME="_ZNK8QtCharts19AbstractChartLayout22calculateLegendMinimumERK6QRectFPNS_7QLegendE" PURGE="0" COMMENT="" />
    <EXPORT ORDINAL="3430" NAME="_ZNK8QtCharts19AbstractChartLayout22calculateTitleGeometryERK6QRectFPNS_10ChartTitleEb" PURGE="0" COMMENT="" />
    <EXPORT ORDINAL="3431" NAME="_ZNK8QtCharts19AbstractChartLayout23calculateContentMinimumERK6QRectF" PURGE="0" COMMENT="" />
    <EXPORT ORDINAL="3432" NAME="_ZNK8QtCharts19AbstractChartLayout23calculateLegendGeometryERK6QRectFPNS_7QLegendEb" PURGE="0" COMMENT="" />
    <EXPORT ORDINAL="3433" NAME="_ZNK8QtCharts19AbstractChartLayout24calculateContentGeometryERK6QRectF" PURGE="0" COMMENT="" />
    <EXPORT ORDINAL="3434" NAME="_ZNK8QtCharts19AbstractChartLayout26calculateBackgroundMinimumERK6QRectF" PURGE="0" COMMENT="" />
    <EXPORT ORDINAL="3435" NAME="_ZNK8QtCharts19AbstractChartLayout27calculateBackgroundGeometryERK6QRectFPNS_15ChartBackgroundEb" PURGE="0" COMMENT="" />
    <EXPORT ORDINAL="3436" NAME="_ZNK8QtCharts19AbstractChartLayout7marginsEv" PURGE="0" COMMENT="" />
    <EXPORT ORDINAL="3437" NAME="_ZNK8QtCharts19AbstractChartLayout8sizeHintEN2Qt8SizeHintERK6QSizeF" PURGE="0" COMMENT="" />
    <EXPORT ORDINAL="3438" NAME="_ZNK8QtCharts19LogXLogYPolarDomain10metaObjectEv" PURGE="0" COMMENT="" />
    <EXPORT ORDINAL="3439" NAME="_ZNK8QtCharts19LogXLogYPolarDomain18toRadialCoordinateEdRb" PURGE="0" COMMENT="" />
    <EXPORT ORDINAL="3440" NAME="_ZNK8QtCharts19LogXLogYPolarDomain19toAngularCoordinateEdRb" PURGE="0" COMMENT="" />
    <EXPORT ORDINAL="3441" NAME="_ZNK8QtCharts19LogXLogYPolarDomain20calculateDomainPointERK7QPointF" PURGE="0" COMMENT="" />
    <EXPORT ORDINAL="3442" NAME="_ZNK8QtCharts19PercentBarChartItem10metaObjectEv" PURGE="0" COMMENT="" />
    <EXPORT ORDINAL="3443" NAME="_ZNK8QtCharts19QBoxPlotModelMapper10metaObjectEv" PURGE="0" COMMENT="" />
    <EXPORT ORDINAL="3444" NAME="_ZNK8QtCharts19QBoxPlotModelMapper11orientationEv" PURGE="0" COMMENT="" />
    <EXPORT ORDINAL="3445" NAME="_ZNK8QtCharts19QBoxPlotModelMapper17lastBoxSetSectionEv" PURGE="0" COMMENT="" />
    <EXPORT ORDINAL="3446" NAME="_ZNK8QtCharts19QBoxPlotModelMapper18firstBoxSetSectionEv" PURGE="0" COMMENT="" />
    <EXPORT ORDINAL="3447" NAME="_ZNK8QtCharts19QBoxPlotModelMapper5countEv" PURGE="0" COMMENT="" />
    <EXPORT ORDINAL="3448" NAME="_ZNK8QtCharts19QBoxPlotModelMapper5firstEv" PURGE="0" COMMENT="" />
    <EXPORT ORDINAL="3449" NAME="_ZNK8QtCharts19QBoxPlotModelMapper5modelEv" PURGE="0" COMMENT="" />
    <EXPORT ORDINAL="3450" NAME="_ZNK8QtCharts19QBoxPlotModelMapper6seriesEv" PURGE="0" COMMENT="" />
    <EXPORT ORDINAL="3451" NAME="_ZNK8QtCharts19StackedBarChartItem10metaObjectEv" PURGE="0" COMMENT="" />
    <EXPORT ORDINAL="3452" NAME="_ZNK8QtCharts20AbstractBarChartItem10metaObjectEv" PURGE="0" COMMENT="" />
    <EXPORT ORDINAL="3453" NAME="_ZNK8QtCharts20AbstractBarChartItem12boundingRectEv" PURGE="0" COMMENT="" />
    <EXPORT ORDINAL="3454" NAME="_ZNK8QtCharts20AbstractBarChartItem9animationEv" PURGE="0" COMMENT="" />
    <EXPORT ORDINAL="3455" NAME="_ZNK8QtCharts20BoxWhiskersAnimation10metaObjectEv" PURGE="0" COMMENT="" />
    <EXPORT ORDINAL="3456" NAME="_ZNK8QtCharts20BoxWhiskersAnimation12interpolatedERK8QVariantS3_d" PURGE="0" COMMENT="" />
    <EXPORT ORDINAL="3457" NAME="_ZNK8QtCharts20CandlestickAnimation10metaObjectEv" PURGE="0" COMMENT="" />
    <EXPORT ORDINAL="3458" NAME="_ZNK8QtCharts20CandlestickChartItem10metaObjectEv" PURGE="0" COMMENT="" />
    <EXPORT ORDINAL="3459" NAME="_ZNK8QtCharts20CandlestickChartItem12boundingRectEv" PURGE="0" COMMENT="" />
    <EXPORT ORDINAL="3460" NAME="_ZNK8QtCharts20CartesianChartLayout20calculateAxisMinimumERK6QRectFRK5QListIPNS_16ChartAxisElementEE" PURGE="0" COMMENT="" />
    <EXPORT ORDINAL="3461" NAME="_ZNK8QtCharts20CartesianChartLayout21calculateAxisGeometryERK6QRectFRK5QListIPNS_16ChartAxisElementEEb" PURGE="0" COMMENT="" />
    <EXPORT ORDINAL="3462" NAME="_ZNK8QtCharts20PolarChartAxisRadial10metaObjectEv" PURGE="0" COMMENT="" />
    <EXPORT ORDINAL="3463" NAME="_ZNK8QtCharts20PolarChartAxisRadial11orientationEv" PURGE="0" COMMENT="" />
    <EXPORT ORDINAL="3464" NAME="_ZNK8QtCharts20PolarChartAxisRadial8sizeHintEN2Qt8SizeHintERK6QSizeF" PURGE="0" COMMENT="" />
    <EXPORT ORDINAL="3465" NAME="_ZNK8QtCharts20QAbstractAxisPrivate10metaObjectEv" PURGE="0" COMMENT="" />
    <EXPORT ORDINAL="3466" NAME="_ZNK8QtCharts20QBoxPlotLegendMarker10metaObjectEv" PURGE="0" COMMENT="" />
    <EXPORT ORDINAL="3467" NAME="_ZNK8QtCharts20QCategoryAxisPrivate10metaObjectEv" PURGE="0" COMMENT="" />
    <EXPORT ORDINAL="3468" NAME="_ZNK8QtCharts20QCategoryAxisPrivate10ticksCountEv" PURGE="0" COMMENT="" />
    <EXPORT ORDINAL="3469" NAME="_ZNK8QtCharts20QDateTimeAxisPrivate10metaObjectEv" PURGE="0" COMMENT="" />
    <EXPORT ORDINAL="3470" NAME="_ZNK8QtCharts20QHBoxPlotModelMapper10metaObjectEv" PURGE="0" COMMENT="" />
    <EXPORT ORDINAL="3471" NAME="_ZNK8QtCharts20QHBoxPlotModelMapper11columnCountEv" PURGE="0" COMMENT="" />
    <EXPORT ORDINAL="3472" NAME="_ZNK8QtCharts20QHBoxPlotModelMapper11firstColumnEv" PURGE="0" COMMENT="" />
    <EXPORT ORDINAL="3473" NAME="_ZNK8QtCharts20QHBoxPlotModelMapper13lastBoxSetRowEv" PURGE="0" COMMENT="" />
    <EXPORT ORDINAL="3474" NAME="_ZNK8QtCharts20QHBoxPlotModelMapper14firstBoxSetRowEv" PURGE="0" COMMENT="" />
    <EXPORT ORDINAL="3475" NAME="_ZNK8QtCharts20QHBoxPlotModelMapper5modelEv" PURGE="0" COMMENT="" />
    <EXPORT ORDINAL="3476" NAME="_ZNK8QtCharts20QHBoxPlotModelMapper6seriesEv" PURGE="0" COMMENT="" />
    <EXPORT ORDINAL="3477" NAME="_ZNK8QtCharts20QHorizontalBarSeries10metaObjectEv" PURGE="0" COMMENT="" />
    <EXPORT ORDINAL="3478" NAME="_ZNK8QtCharts20QHorizontalBarSeries4typeEv" PURGE="0" COMMENT="" />
    <EXPORT ORDINAL="3479" NAME="_ZNK8QtCharts20QLegendMarkerPrivate10metaObjectEv" PURGE="0" COMMENT="" />
    <EXPORT ORDINAL="3480" NAME="_ZNK8QtCharts20QLogValueAxisPrivate10metaObjectEv" PURGE="0" COMMENT="" />
    <EXPORT ORDINAL="3481" NAME="_ZNK8QtCharts20QSplineSeriesPrivate10metaObjectEv" PURGE="0" COMMENT="" />
    <EXPORT ORDINAL="3482" NAME="_ZNK8QtCharts20QVBoxPlotModelMapper10metaObjectEv" PURGE="0" COMMENT="" />
    <EXPORT ORDINAL="3483" NAME="_ZNK8QtCharts20QVBoxPlotModelMapper16lastBoxSetColumnEv" PURGE="0" COMMENT="" />
    <EXPORT ORDINAL="3484" NAME="_ZNK8QtCharts20QVBoxPlotModelMapper17firstBoxSetColumnEv" PURGE="0" COMMENT="" />
    <EXPORT ORDINAL="3485" NAME="_ZNK8QtCharts20QVBoxPlotModelMapper5modelEv" PURGE="0" COMMENT="" />
    <EXPORT ORDINAL="3486" NAME="_ZNK8QtCharts20QVBoxPlotModelMapper6seriesEv" PURGE="0" COMMENT="" />
    <EXPORT ORDINAL="3487" NAME="_ZNK8QtCharts20QVBoxPlotModelMapper8firstRowEv" PURGE="0" COMMENT="" />
    <EXPORT ORDINAL="3488" NAME="_ZNK8QtCharts20QVBoxPlotModelMapper8rowCountEv" PURGE="0" COMMENT="" />
    <EXPORT ORDINAL="3489" NAME="_ZNK8QtCharts21ChartBarCategoryAxisX10metaObjectEv" PURGE="0" COMMENT="" />
    <EXPORT ORDINAL="3490" NAME="_ZNK8QtCharts21ChartBarCategoryAxisX15calculateLayoutEv" PURGE="0" COMMENT="" />
    <EXPORT ORDINAL="3491" NAME="_ZNK8QtCharts21ChartBarCategoryAxisX20createCategoryLabelsERK7QVectorIdE" PURGE="0" COMMENT="" />
    <EXPORT ORDINAL="3492" NAME="_ZNK8QtCharts21ChartBarCategoryAxisX8sizeHintEN2Qt8SizeHintERK6QSizeF" PURGE="0" COMMENT="" />
    <EXPORT ORDINAL="3493" NAME="_ZNK8QtCharts21ChartBarCategoryAxisY10metaObjectEv" PURGE="0" COMMENT="" />
    <EXPORT ORDINAL="3494" NAME="_ZNK8QtCharts21ChartBarCategoryAxisY15calculateLayoutEv" PURGE="0" COMMENT="" />
    <EXPORT ORDINAL="3495" NAME="_ZNK8QtCharts21ChartBarCategoryAxisY20createCategoryLabelsERK7QVectorIdE" PURGE="0" COMMENT="" />
    <EXPORT ORDINAL="3496" NAME="_ZNK8QtCharts21ChartBarCategoryAxisY8sizeHintEN2Qt8SizeHintERK6QSizeF" PURGE="0" COMMENT="" />
    <EXPORT ORDINAL="3497" NAME="_ZNK8QtCharts21GLXYSeriesDataManager10metaObjectEv" PURGE="0" COMMENT="" />
    <EXPORT ORDINAL="3498" NAME="_ZNK8QtCharts21PolarChartAxisAngular10metaObjectEv" PURGE="0" COMMENT="" />
    <EXPORT ORDINAL="3499" NAME="_ZNK8QtCharts21PolarChartAxisAngular11orientationEv" PURGE="0" COMMENT="" />
    <EXPORT ORDINAL="3500" NAME="_ZNK8QtCharts21PolarChartAxisAngular19moveLabelToPositionEd7QPointF6QRectF" PURGE="0" COMMENT="" />
    <EXPORT ORDINAL="3501" NAME="_ZNK8QtCharts21PolarChartAxisAngular8sizeHintEN2Qt8SizeHintERK6QSizeF" PURGE="0" COMMENT="" />
    <EXPORT ORDINAL="3502" NAME="_ZNK8QtCharts21QBoxPlotSeriesPrivate10metaObjectEv" PURGE="0" COMMENT="" />
    <EXPORT ORDINAL="3503" NAME="_ZNK8QtCharts21QBoxPlotSeriesPrivate15defaultAxisTypeEN2Qt11OrientationE" PURGE="0" COMMENT="" />
    <EXPORT ORDINAL="3504" NAME="_ZNK8QtCharts21QBoxPlotSeriesPrivate17createDefaultAxisEN2Qt11OrientationE" PURGE="0" COMMENT="" />
    <EXPORT ORDINAL="3505" NAME="_ZNK8QtCharts21QXYModelMapperPrivate10metaObjectEv" PURGE="0" COMMENT="" />
    <EXPORT ORDINAL="3506" NAME="_ZNK8QtCharts22HorizontalBarChartItem10metaObjectEv" PURGE="0" COMMENT="" />
    <EXPORT ORDINAL="3507" NAME="_ZNK8QtCharts22QAbstractSeriesPrivate10metaObjectEv" PURGE="0" COMMENT="" />
    <EXPORT ORDINAL="3508" NAME="_ZNK8QtCharts22QAbstractSeriesPrivate9presenterEv" PURGE="0" COMMENT="" />
    <EXPORT ORDINAL="3509" NAME="_ZNK8QtCharts22QBarModelMapperPrivate10metaObjectEv" PURGE="0" COMMENT="" />
    <EXPORT ORDINAL="3510" NAME="_ZNK8QtCharts22QCandlestickSetPrivate10metaObjectEv" PURGE="0" COMMENT="" />
    <EXPORT ORDINAL="3511" NAME="_ZNK8QtCharts22QPieModelMapperPrivate10metaObjectEv" PURGE="0" COMMENT="" />
    <EXPORT ORDINAL="3512" NAME="_ZNK8QtCharts22QPieModelMapperPrivate12isLabelIndexE11QModelIndex" PURGE="0" COMMENT="" />
    <EXPORT ORDINAL="3513" NAME="_ZNK8QtCharts22QPieModelMapperPrivate12isValueIndexE11QModelIndex" PURGE="0" COMMENT="" />
    <EXPORT ORDINAL="3514" NAME="_ZNK8QtCharts22QPieModelMapperPrivate8pieSliceE11QModelIndex" PURGE="0" COMMENT="" />
    <EXPORT ORDINAL="3515" NAME="_ZNK8QtCharts22QXYLegendMarkerPrivate10metaObjectEv" PURGE="0" COMMENT="" />
    <EXPORT ORDINAL="3516" NAME="_ZNK8QtCharts23QBarCategoryAxisPrivate10metaObjectEv" PURGE="0" COMMENT="" />
    <EXPORT ORDINAL="3517" NAME="_ZNK8QtCharts23QBarLegendMarkerPrivate10metaObjectEv" PURGE="0" COMMENT="" />
    <EXPORT ORDINAL="3518" NAME="_ZNK8QtCharts23QCandlestickModelMapper10metaObjectEv" PURGE="0" COMMENT="" />
    <EXPORT ORDINAL="3519" NAME="_ZNK8QtCharts23QCandlestickModelMapper14lastSetSectionEv" PURGE="0" COMMENT="" />
    <EXPORT ORDINAL="3520" NAME="_ZNK8QtCharts23QCandlestickModelMapper15firstSetSectionEv" PURGE="0" COMMENT="" />
    <EXPORT ORDINAL="3521" NAME="_ZNK8QtCharts23QCandlestickModelMapper3lowEv" PURGE="0" COMMENT="" />
    <EXPORT ORDINAL="3522" NAME="_ZNK8QtCharts23QCandlestickModelMapper4highEv" PURGE="0" COMMENT="" />
    <EXPORT ORDINAL="3523" NAME="_ZNK8QtCharts23QCandlestickModelMapper4openEv" PURGE="0" COMMENT="" />
    <EXPORT ORDINAL="3524" NAME="_ZNK8QtCharts23QCandlestickModelMapper5closeEv" PURGE="0" COMMENT="" />
    <EXPORT ORDINAL="3525" NAME="_ZNK8QtCharts23QCandlestickModelMapper5modelEv" PURGE="0" COMMENT="" />
    <EXPORT ORDINAL="3526" NAME="_ZNK8QtCharts23QCandlestickModelMapper6seriesEv" PURGE="0" COMMENT="" />
    <EXPORT ORDINAL="3527" NAME="_ZNK8QtCharts23QCandlestickModelMapper9timestampEv" PURGE="0" COMMENT="" />
    <EXPORT ORDINAL="3528" NAME="_ZNK8QtCharts23QPieLegendMarkerPrivate10metaObjectEv" PURGE="0" COMMENT="" />
    <EXPORT ORDINAL="3529" NAME="_ZNK8QtCharts24QAreaLegendMarkerPrivate10metaObjectEv" PURGE="0" COMMENT="" />
    <EXPORT ORDINAL="3530" NAME="_ZNK8QtCharts24QCandlestickLegendMarker10metaObjectEv" PURGE="0" COMMENT="" />
    <EXPORT ORDINAL="3531" NAME="_ZNK8QtCharts24QHCandlestickModelMapper10highColumnEv" PURGE="0" COMMENT="" />
    <EXPORT ORDINAL="3532" NAME="_ZNK8QtCharts24QHCandlestickModelMapper10lastSetRowEv" PURGE="0" COMMENT="" />
    <EXPORT ORDINAL="3533" NAME="_ZNK8QtCharts24QHCandlestickModelMapper10metaObjectEv" PURGE="0" COMMENT="" />
    <EXPORT ORDINAL="3534" NAME="_ZNK8QtCharts24QHCandlestickModelMapper10openColumnEv" PURGE="0" COMMENT="" />
    <EXPORT ORDINAL="3535" NAME="_ZNK8QtCharts24QHCandlestickModelMapper11closeColumnEv" PURGE="0" COMMENT="" />
    <EXPORT ORDINAL="3536" NAME="_ZNK8QtCharts24QHCandlestickModelMapper11firstSetRowEv" PURGE="0" COMMENT="" />
    <EXPORT ORDINAL="3537" NAME="_ZNK8QtCharts24QHCandlestickModelMapper11orientationEv" PURGE="0" COMMENT="" />
    <EXPORT ORDINAL="3538" NAME="_ZNK8QtCharts24QHCandlestickModelMapper15timestampColumnEv" PURGE="0" COMMENT="" />
    <EXPORT ORDINAL="3539" NAME="_ZNK8QtCharts24QHCandlestickModelMapper9lowColumnEv" PURGE="0" COMMENT="" />
    <EXPORT ORDINAL="3540" NAME="_ZNK8QtCharts24QVCandlestickModelMapper10metaObjectEv" PURGE="0" COMMENT="" />
    <EXPORT ORDINAL="3541" NAME="_ZNK8QtCharts24QVCandlestickModelMapper11orientationEv" PURGE="0" COMMENT="" />
    <EXPORT ORDINAL="3542" NAME="_ZNK8QtCharts24QVCandlestickModelMapper12timestampRowEv" PURGE="0" COMMENT="" />
    <EXPORT ORDINAL="3543" NAME="_ZNK8QtCharts24QVCandlestickModelMapper13lastSetColumnEv" PURGE="0" COMMENT="" />
    <EXPORT ORDINAL="3544" NAME="_ZNK8QtCharts24QVCandlestickModelMapper14firstSetColumnEv" PURGE="0" COMMENT="" />
    <EXPORT ORDINAL="3545" NAME="_ZNK8QtCharts24QVCandlestickModelMapper6lowRowEv" PURGE="0" COMMENT="" />
    <EXPORT ORDINAL="3546" NAME="_ZNK8QtCharts24QVCandlestickModelMapper7highRowEv" PURGE="0" COMMENT="" />
    <EXPORT ORDINAL="3547" NAME="_ZNK8QtCharts24QVCandlestickModelMapper7openRowEv" PURGE="0" COMMENT="" />
    <EXPORT ORDINAL="3548" NAME="_ZNK8QtCharts24QVCandlestickModelMapper8closeRowEv" PURGE="0" COMMENT="" />
    <EXPORT ORDINAL="3549" NAME="_ZNK8QtCharts25PolarChartValueAxisRadial10metaObjectEv" PURGE="0" COMMENT="" />
    <EXPORT ORDINAL="3550" NAME="_ZNK8QtCharts25PolarChartValueAxisRadial15calculateLayoutEv" PURGE="0" COMMENT="" />
    <EXPORT ORDINAL="3551" NAME="_ZNK8QtCharts25QAbstractBarSeriesPrivate10metaObjectEv" PURGE="0" COMMENT="" />
    <EXPORT ORDINAL="3552" NAME="_ZNK8QtCharts25QAbstractBarSeriesPrivate11labelsAngleEv" PURGE="0" COMMENT="" />
    <EXPORT ORDINAL="3553" NAME="_ZNK8QtCharts25QAbstractBarSeriesPrivate13categoryCountEv" PURGE="0" COMMENT="" />
    <EXPORT ORDINAL="3554" NAME="_ZNK8QtCharts25QAbstractBarSeriesPrivate15defaultAxisTypeEN2Qt11OrientationE" PURGE="0" COMMENT="" />
    <EXPORT ORDINAL="3555" NAME="_ZNK8QtCharts25QAbstractBarSeriesPrivate17createDefaultAxisEN2Qt11OrientationE" PURGE="0" COMMENT="" />
    <EXPORT ORDINAL="3556" NAME="_ZNK8QtCharts25QAbstractBarSeriesPrivate8barWidthEv" PURGE="0" COMMENT="" />
    <EXPORT ORDINAL="3557" NAME="_ZNK8QtCharts25QCandlestickSeriesPrivate10metaObjectEv" PURGE="0" COMMENT="" />
    <EXPORT ORDINAL="3558" NAME="_ZNK8QtCharts25QCandlestickSeriesPrivate15defaultAxisTypeEN2Qt11OrientationE" PURGE="0" COMMENT="" />
    <EXPORT ORDINAL="3559" NAME="_ZNK8QtCharts25QCandlestickSeriesPrivate17createDefaultAxisEN2Qt11OrientationE" PURGE="0" COMMENT="" />
    <EXPORT ORDINAL="3560" NAME="_ZNK8QtCharts26PolarChartValueAxisAngular10metaObjectEv" PURGE="0" COMMENT="" />
    <EXPORT ORDINAL="3561" NAME="_ZNK8QtCharts26PolarChartValueAxisAngular15calculateLayoutEv" PURGE="0" COMMENT="" />
    <EXPORT ORDINAL="3562" NAME="_ZNK8QtCharts27QBoxPlotLegendMarkerPrivate10metaObjectEv" PURGE="0" COMMENT="" />
    <EXPORT ORDINAL="3563" NAME="_ZNK8QtCharts27QHorizontalPercentBarSeries10metaObjectEv" PURGE="0" COMMENT="" />
    <EXPORT ORDINAL="3564" NAME="_ZNK8QtCharts27QHorizontalPercentBarSeries4typeEv" PURGE="0" COMMENT="" />
    <EXPORT ORDINAL="3565" NAME="_ZNK8QtCharts27QHorizontalStackedBarSeries10metaObjectEv" PURGE="0" COMMENT="" />
    <EXPORT ORDINAL="3566" NAME="_ZNK8QtCharts27QHorizontalStackedBarSeries4typeEv" PURGE="0" COMMENT="" />
    <EXPORT ORDINAL="3567" NAME="_ZNK8QtCharts28PolarChartCategoryAxisRadial10metaObjectEv" PURGE="0" COMMENT="" />
    <EXPORT ORDINAL="3568" NAME="_ZNK8QtCharts28PolarChartCategoryAxisRadial15calculateLayoutEv" PURGE="0" COMMENT="" />
    <EXPORT ORDINAL="3569" NAME="_ZNK8QtCharts28PolarChartDateTimeAxisRadial10metaObjectEv" PURGE="0" COMMENT="" />
    <EXPORT ORDINAL="3570" NAME="_ZNK8QtCharts28PolarChartDateTimeAxisRadial15calculateLayoutEv" PURGE="0" COMMENT="" />
    <EXPORT ORDINAL="3571" NAME="_ZNK8QtCharts28PolarChartLogValueAxisRadial10metaObjectEv" PURGE="0" COMMENT="" />
    <EXPORT ORDINAL="3572" NAME="_ZNK8QtCharts28PolarChartLogValueAxisRadial15calculateLayoutEv" PURGE="0" COMMENT="" />
    <EXPORT ORDINAL="3573" NAME="_ZNK8QtCharts29CandlestickBodyWicksAnimation10metaObjectEv" PURGE="0" COMMENT="" />
    <EXPORT ORDINAL="3574" NAME="_ZNK8QtCharts29CandlestickBodyWicksAnimation12interpolatedERK8QVariantS3_d" PURGE="0" COMMENT="" />
    <EXPORT ORDINAL="3575" NAME="_ZNK8QtCharts29HorizontalPercentBarChartItem10metaObjectEv" PURGE="0" COMMENT="" />
    <EXPORT ORDINAL="3576" NAME="_ZNK8QtCharts29HorizontalStackedBarChartItem10metaObjectEv" PURGE="0" COMMENT="" />
    <EXPORT ORDINAL="3577" NAME="_ZNK8QtCharts29PolarChartCategoryAxisAngular10metaObjectEv" PURGE="0" COMMENT="" />
    <EXPORT ORDINAL="3578" NAME="_ZNK8QtCharts29PolarChartCategoryAxisAngular15calculateLayoutEv" PURGE="0" COMMENT="" />
    <EXPORT ORDINAL="3579" NAME="_ZNK8QtCharts29PolarChartDateTimeAxisAngular10metaObjectEv" PURGE="0" COMMENT="" />
    <EXPORT ORDINAL="3580" NAME="_ZNK8QtCharts29PolarChartDateTimeAxisAngular15calculateLayoutEv" PURGE="0" COMMENT="" />
    <EXPORT ORDINAL="3581" NAME="_ZNK8QtCharts29PolarChartLogValueAxisAngular10metaObjectEv" PURGE="0" COMMENT="" />
    <EXPORT ORDINAL="3582" NAME="_ZNK8QtCharts29PolarChartLogValueAxisAngular15calculateLayoutEv" PURGE="0" COMMENT="" />
    <EXPORT ORDINAL="3583" NAME="_ZNK8QtCharts30QCandlestickModelMapperPrivate10metaObjectEv" PURGE="0" COMMENT="" />
    <EXPORT ORDINAL="3584" NAME="_ZNK8QtCharts31QCandlestickLegendMarkerPrivate10metaObjectEv" PURGE="0" COMMENT="" />
    <EXPORT ORDINAL="3585" NAME="_ZNK8QtCharts3Bar10metaObjectEv" PURGE="0" COMMENT="" />
    <EXPORT ORDINAL="3586" NAME="_ZNK8QtCharts6QChart10metaObjectEv" PURGE="0" COMMENT="" />
    <EXPORT ORDINAL="3587" NAME="_ZNK8QtCharts6QChart10titleBrushEv" PURGE="0" COMMENT="" />
    <EXPORT ORDINAL="3588" NAME="_ZNK8QtCharts6QChart13backgroundPenEv" PURGE="0" COMMENT="" />
    <EXPORT ORDINAL="3589" NAME="_ZNK8QtCharts6QChart15backgroundBrushEv" PURGE="0" COMMENT="" />
    <EXPORT ORDINAL="3590" NAME="_ZNK8QtCharts6QChart15localizeNumbersEv" PURGE="0" COMMENT="" />
    <EXPORT ORDINAL="3591" NAME="_ZNK8QtCharts6QChart16animationOptionsEv" PURGE="0" COMMENT="" />
    <EXPORT ORDINAL="3592" NAME="_ZNK8QtCharts6QChart17animationDurationEv" PURGE="0" COMMENT="" />
    <EXPORT ORDINAL="3593" NAME="_ZNK8QtCharts6QChart19backgroundRoundnessEv" PURGE="0" COMMENT="" />
    <EXPORT ORDINAL="3594" NAME="_ZNK8QtCharts6QChart19isBackgroundVisibleEv" PURGE="0" COMMENT="" />
    <EXPORT ORDINAL="3595" NAME="_ZNK8QtCharts6QChart19isDropShadowEnabledEv" PURGE="0" COMMENT="" />
    <EXPORT ORDINAL="3596" NAME="_ZNK8QtCharts6QChart20animationEasingCurveEv" PURGE="0" COMMENT="" />
    <EXPORT ORDINAL="3597" NAME="_ZNK8QtCharts6QChart21plotAreaBackgroundPenEv" PURGE="0" COMMENT="" />
    <EXPORT ORDINAL="3598" NAME="_ZNK8QtCharts6QChart23plotAreaBackgroundBrushEv" PURGE="0" COMMENT="" />
    <EXPORT ORDINAL="3599" NAME="_ZNK8QtCharts6QChart27isPlotAreaBackgroundVisibleEv" PURGE="0" COMMENT="" />
    <EXPORT ORDINAL="3600" NAME="_ZNK8QtCharts6QChart4axesE6QFlagsIN2Qt11OrientationEEPNS_15QAbstractSeriesE" PURGE="0" COMMENT="" />
    <EXPORT ORDINAL="3601" NAME="_ZNK8QtCharts6QChart5axisXEPNS_15QAbstractSeriesE" PURGE="0" COMMENT="" />
    <EXPORT ORDINAL="3602" NAME="_ZNK8QtCharts6QChart5axisYEPNS_15QAbstractSeriesE" PURGE="0" COMMENT="" />
    <EXPORT ORDINAL="3603" NAME="_ZNK8QtCharts6QChart5themeEv" PURGE="0" COMMENT="" />
    <EXPORT ORDINAL="3604" NAME="_ZNK8QtCharts6QChart5titleEv" PURGE="0" COMMENT="" />
    <EXPORT ORDINAL="3605" NAME="_ZNK8QtCharts6QChart6legendEv" PURGE="0" COMMENT="" />
    <EXPORT ORDINAL="3606" NAME="_ZNK8QtCharts6QChart6localeEv" PURGE="0" COMMENT="" />
    <EXPORT ORDINAL="3607" NAME="_ZNK8QtCharts6QChart6seriesEv" PURGE="0" COMMENT="" />
    <EXPORT ORDINAL="3608" NAME="_ZNK8QtCharts6QChart7marginsEv" PURGE="0" COMMENT="" />
    <EXPORT ORDINAL="3609" NAME="_ZNK8QtCharts6QChart8plotAreaEv" PURGE="0" COMMENT="" />
    <EXPORT ORDINAL="3610" NAME="_ZNK8QtCharts6QChart9chartTypeEv" PURGE="0" COMMENT="" />
    <EXPORT ORDINAL="3611" NAME="_ZNK8QtCharts6QChart9titleFontEv" PURGE="0" COMMENT="" />
    <EXPORT ORDINAL="3612" NAME="_ZNK8QtCharts7QBarSet10labelBrushEv" PURGE="0" COMMENT="" />
    <EXPORT ORDINAL="3613" NAME="_ZNK8QtCharts7QBarSet10metaObjectEv" PURGE="0" COMMENT="" />
    <EXPORT ORDINAL="3614" NAME="_ZNK8QtCharts7QBarSet2atEi" PURGE="0" COMMENT="" />
    <EXPORT ORDINAL="3615" NAME="_ZNK8QtCharts7QBarSet3penEv" PURGE="0" COMMENT="" />
    <EXPORT ORDINAL="3616" NAME="_ZNK8QtCharts7QBarSet3sumEv" PURGE="0" COMMENT="" />
    <EXPORT ORDINAL="3617" NAME="_ZNK8QtCharts7QBarSet5brushEv" PURGE="0" COMMENT="" />
    <EXPORT ORDINAL="3618" NAME="_ZNK8QtCharts7QBarSet5countEv" PURGE="0" COMMENT="" />
    <EXPORT ORDINAL="3619" NAME="_ZNK8QtCharts7QBarSet5labelEv" PURGE="0" COMMENT="" />
    <EXPORT ORDINAL="3620" NAME="_ZNK8QtCharts7QBarSet9labelFontEv" PURGE="0" COMMENT="" />
    <EXPORT ORDINAL="3621" NAME="_ZNK8QtCharts7QBarSetixEi" PURGE="0" COMMENT="" />
    <EXPORT ORDINAL="3622" NAME="_ZNK8QtCharts7QBoxSet10metaObjectEv" PURGE="0" COMMENT="" />
    <EXPORT ORDINAL="3623" NAME="_ZNK8QtCharts7QBoxSet2atEi" PURGE="0" COMMENT="" />
    <EXPORT ORDINAL="3624" NAME="_ZNK8QtCharts7QBoxSet3penEv" PURGE="0" COMMENT="" />
    <EXPORT ORDINAL="3625" NAME="_ZNK8QtCharts7QBoxSet5brushEv" PURGE="0" COMMENT="" />
    <EXPORT ORDINAL="3626" NAME="_ZNK8QtCharts7QBoxSet5countEv" PURGE="0" COMMENT="" />
    <EXPORT ORDINAL="3627" NAME="_ZNK8QtCharts7QBoxSet5labelEv" PURGE="0" COMMENT="" />
    <EXPORT ORDINAL="3628" NAME="_ZNK8QtCharts7QBoxSetixEi" PURGE="0" COMMENT="" />
    <EXPORT ORDINAL="3629" NAME="_ZNK8QtCharts7QLegend10labelBrushEv" PURGE="0" COMMENT="" />
    <EXPORT ORDINAL="3630" NAME="_ZNK8QtCharts7QLegend10labelColorEv" PURGE="0" COMMENT="" />
    <EXPORT ORDINAL="3631" NAME="_ZNK8QtCharts7QLegend10metaObjectEv" PURGE="0" COMMENT="" />
    <EXPORT ORDINAL="3632" NAME="_ZNK8QtCharts7QLegend11markerShapeEv" PURGE="0" COMMENT="" />
    <EXPORT ORDINAL="3633" NAME="_ZNK8QtCharts7QLegend12showToolTipsEv" PURGE="0" COMMENT="" />
    <EXPORT ORDINAL="3634" NAME="_ZNK8QtCharts7QLegend19isBackgroundVisibleEv" PURGE="0" COMMENT="" />
    <EXPORT ORDINAL="3635" NAME="_ZNK8QtCharts7QLegend3penEv" PURGE="0" COMMENT="" />
    <EXPORT ORDINAL="3636" NAME="_ZNK8QtCharts7QLegend4fontEv" PURGE="0" COMMENT="" />
    <EXPORT ORDINAL="3637" NAME="_ZNK8QtCharts7QLegend5brushEv" PURGE="0" COMMENT="" />
    <EXPORT ORDINAL="3638" NAME="_ZNK8QtCharts7QLegend7markersEPNS_15QAbstractSeriesE" PURGE="0" COMMENT="" />
    <EXPORT ORDINAL="3639" NAME="_ZNK8QtCharts7QLegend9alignmentEv" PURGE="0" COMMENT="" />
    <EXPORT ORDINAL="3640" NAME="_ZNK8QtCharts7XYChart10metaObjectEv" PURGE="0" COMMENT="" />
    <EXPORT ORDINAL="3641" NAME="_ZNK8QtCharts8XYDomain10metaObjectEv" PURGE="0" COMMENT="" />
    <EXPORT ORDINAL="3642" NAME="_ZNK8QtCharts8XYDomain20calculateDomainPointERK7QPointF" PURGE="0" COMMENT="" />
    <EXPORT ORDINAL="3643" NAME="_ZNK8QtCharts8XYDomain22calculateGeometryPointERK7QPointFRb" PURGE="0" COMMENT="" />
    <EXPORT ORDINAL="3644" NAME="_ZNK8QtCharts8XYDomain23calculateGeometryPointsERK7QVectorI7QPointFE" PURGE="0" COMMENT="" />
    <EXPORT ORDINAL="3645" NAME="_ZNK8QtCharts9ChartItem10metaObjectEv" PURGE="0" COMMENT="" />
    <EXPORT ORDINAL="3646" NAME="_ZNK8QtCharts9ChartItem6domainEv" PURGE="0" COMMENT="" />
    <EXPORT ORDINAL="3647" NAME="_ZNK8QtCharts9QPieSlice10isExplodedEv" PURGE="0" COMMENT="" />
    <EXPORT ORDINAL="3648" NAME="_ZNK8QtCharts9QPieSlice10labelBrushEv" PURGE="0" COMMENT="" />
    <EXPORT ORDINAL="3649" NAME="_ZNK8QtCharts9QPieSlice10metaObjectEv" PURGE="0" COMMENT="" />
    <EXPORT ORDINAL="3650" NAME="_ZNK8QtCharts9QPieSlice10percentageEv" PURGE="0" COMMENT="" />
    <EXPORT ORDINAL="3651" NAME="_ZNK8QtCharts9QPieSlice10startAngleEv" PURGE="0" COMMENT="" />
    <EXPORT ORDINAL="3652" NAME="_ZNK8QtCharts9QPieSlice14isLabelVisibleEv" PURGE="0" COMMENT="" />
    <EXPORT ORDINAL="3653" NAME="_ZNK8QtCharts9QPieSlice20labelArmLengthFactorEv" PURGE="0" COMMENT="" />
    <EXPORT ORDINAL="3654" NAME="_ZNK8QtCharts9QPieSlice21explodeDistanceFactorEv" PURGE="0" COMMENT="" />
    <EXPORT ORDINAL="3655" NAME="_ZNK8QtCharts9QPieSlice3penEv" PURGE="0" COMMENT="" />
    <EXPORT ORDINAL="3656" NAME="_ZNK8QtCharts9QPieSlice5brushEv" PURGE="0" COMMENT="" />
    <EXPORT ORDINAL="3657" NAME="_ZNK8QtCharts9QPieSlice5labelEv" PURGE="0" COMMENT="" />
    <EXPORT ORDINAL="3658" NAME="_ZNK8QtCharts9QPieSlice5valueEv" PURGE="0" COMMENT="" />
    <EXPORT ORDINAL="3659" NAME="_ZNK8QtCharts9QPieSlice6seriesEv" PURGE="0" COMMENT="" />
    <EXPORT ORDINAL="3660" NAME="_ZNK8QtCharts9QPieSlice9angleSpanEv" PURGE="0" COMMENT="" />
    <EXPORT ORDINAL="3661" NAME="_ZNK8QtCharts9QPieSlice9labelFontEv" PURGE="0" COMMENT="" />
    <EXPORT ORDINAL="3662" NAME="_ZNK8QtCharts9QXYSeries10metaObjectEv" PURGE="0" COMMENT="" />
    <EXPORT ORDINAL="3663" NAME="_ZNK8QtCharts9QXYSeries12pointsVectorEv" PURGE="0" COMMENT="" />
    <EXPORT ORDINAL="3664" NAME="_ZNK8QtCharts9QXYSeries13pointsVisibleEv" PURGE="0" COMMENT="" />
    <EXPORT ORDINAL="3665" NAME="_ZNK8QtCharts9QXYSeries15pointLabelsFontEv" PURGE="0" COMMENT="" />
    <EXPORT ORDINAL="3666" NAME="_ZNK8QtCharts9QXYSeries16pointLabelsColorEv" PURGE="0" COMMENT="" />
    <EXPORT ORDINAL="3667" NAME="_ZNK8QtCharts9QXYSeries17pointLabelsFormatEv" PURGE="0" COMMENT="" />
    <EXPORT ORDINAL="3668" NAME="_ZNK8QtCharts9QXYSeries18pointLabelsVisibleEv" PURGE="0" COMMENT="" />
    <EXPORT ORDINAL="3669" NAME="_ZNK8QtCharts9QXYSeries19pointLabelsClippingEv" PURGE="0" COMMENT="" />
    <EXPORT ORDINAL="3670" NAME="_ZNK8QtCharts9QXYSeries2atEi" PURGE="0" COMMENT="" />
    <EXPORT ORDINAL="3671" NAME="_ZNK8QtCharts9QXYSeries3penEv" PURGE="0" COMMENT="" />
    <EXPORT ORDINAL="3672" NAME="_ZNK8QtCharts9QXYSeries5brushEv" PURGE="0" COMMENT="" />
    <EXPORT ORDINAL="3673" NAME="_ZNK8QtCharts9QXYSeries5colorEv" PURGE="0" COMMENT="" />
    <EXPORT ORDINAL="3674" NAME="_ZNK8QtCharts9QXYSeries5countEv" PURGE="0" COMMENT="" />
    <EXPORT ORDINAL="3675" NAME="_ZNK8QtCharts9QXYSeries6pointsEv" PURGE="0" COMMENT="" />
    <EXPORT ORDINAL="3676" NAME="_ZTIN8QtCharts10ChartTitleE" PURGE="-1" COMMENT="" />
    <EXPORT ORDINAL="3677" NAME="_ZTIN8QtCharts10QBarSeriesE" PURGE="-1" COMMENT="" />
    <EXPORT ORDINAL="3678" NAME="_ZTIN8QtCharts10QChartViewE" PURGE="-1" COMMENT="" />
    <EXPORT ORDINAL="3679" NAME="_ZTIN8QtCharts10QPieSeriesE" PURGE="-1" COMMENT="" />
    <EXPORT ORDINAL="3680" NAME="_ZTIN8QtCharts10QValueAxisE" PURGE="-1" COMMENT="" />
    <EXPORT ORDINAL="3681" NAME="_ZTIN8QtCharts11BoxWhiskersE" PURGE="-1" COMMENT="" />
    <EXPORT ORDINAL="3682" NAME="_ZTIN8QtCharts11CandlestickE" PURGE="-1" COMMENT="" />
    <EXPORT ORDINAL="3683" NAME="_ZTIN8QtCharts11LogXYDomainE" PURGE="-1" COMMENT="" />
    <EXPORT ORDINAL="3684" NAME="_ZTIN8QtCharts11PolarDomainE" PURGE="-1" COMMENT="" />
    <EXPORT ORDINAL="3685" NAME="_ZTIN8QtCharts11QAreaSeriesE" PURGE="-1" COMMENT="" />
    <EXPORT ORDINAL="3686" NAME="_ZTIN8QtCharts11QLineSeriesE" PURGE="-1" COMMENT="" />
    <EXPORT ORDINAL="3687" NAME="_ZTIN8QtCharts11QPolarChartE" PURGE="-1" COMMENT="" />
    <EXPORT ORDINAL="3688" NAME="_ZTIN8QtCharts11XLogYDomainE" PURGE="-1" COMMENT="" />
    <EXPORT ORDINAL="3689" NAME="_ZTIN8QtCharts11XYAnimationE" PURGE="-1" COMMENT="" />
    <EXPORT ORDINAL="3690" NAME="_ZTIN8QtCharts12BarAnimationE" PURGE="-1" COMMENT="" />
    <EXPORT ORDINAL="3691" NAME="_ZTIN8QtCharts12BarChartItemE" PURGE="-1" COMMENT="" />
    <EXPORT ORDINAL="3692" NAME="_ZTIN8QtCharts12ChartDataSetE" PURGE="-1" COMMENT="" />
    <EXPORT ORDINAL="3693" NAME="_ZTIN8QtCharts12ChartElementE" PURGE="-1" COMMENT="" />
    <EXPORT ORDINAL="3694" NAME="_ZTIN8QtCharts12CircleMarkerE" PURGE="-1" COMMENT="" />
    <EXPORT ORDINAL="3695" NAME="_ZTIN8QtCharts12LegendLayoutE" PURGE="-1" COMMENT="" />
    <EXPORT ORDINAL="3696" NAME="_ZTIN8QtCharts12PieAnimationE" PURGE="-1" COMMENT="" />
    <EXPORT ORDINAL="3697" NAME="_ZTIN8QtCharts12PieChartItemE" PURGE="-1" COMMENT="" />
    <EXPORT ORDINAL="3698" NAME="_ZTIN8QtCharts12PieSliceItemE" PURGE="-1" COMMENT="" />
    <EXPORT ORDINAL="3699" NAME="_ZTIN8QtCharts12ScrollTickerE" PURGE="-1" COMMENT="" />
    <EXPORT ORDINAL="3700" NAME="_ZTIN8QtCharts12VerticalAxisE" PURGE="-1" COMMENT="" />
    <EXPORT ORDINAL="3701" NAME="_ZTIN8QtCharts13AreaBoundItemE" PURGE="-1" COMMENT="" />
    <EXPORT ORDINAL="3702" NAME="_ZTIN8QtCharts13AreaChartItemE" PURGE="-1" COMMENT="" />
    <EXPORT ORDINAL="3703" NAME="_ZTIN8QtCharts13AxisAnimationE" PURGE="-1" COMMENT="" />
    <EXPORT ORDINAL="3704" NAME="_ZTIN8QtCharts13LineArrowItemE" PURGE="-1" COMMENT="" />
    <EXPORT ORDINAL="3705" NAME="_ZTIN8QtCharts13LineChartItemE" PURGE="-1" COMMENT="" />
    <EXPORT ORDINAL="3706" NAME="_ZTIN8QtCharts13QAbstractAxisE" PURGE="-1" COMMENT="" />
    <EXPORT ORDINAL="3707" NAME="_ZTIN8QtCharts13QCategoryAxisE" PURGE="-1" COMMENT="" />
    <EXPORT ORDINAL="3708" NAME="_ZTIN8QtCharts13QDateTimeAxisE" PURGE="-1" COMMENT="" />
    <EXPORT ORDINAL="3709" NAME="_ZTIN8QtCharts13QLegendMarkerE" PURGE="-1" COMMENT="" />
    <EXPORT ORDINAL="3710" NAME="_ZTIN8QtCharts13QLogValueAxisE" PURGE="-1" COMMENT="" />
    <EXPORT ORDINAL="3711" NAME="_ZTIN8QtCharts13QSplineSeriesE" PURGE="-1" COMMENT="" />
    <EXPORT ORDINAL="3712" NAME="_ZTIN8QtCharts13XYPolarDomainE" PURGE="-1" COMMENT="" />
    <EXPORT ORDINAL="3713" NAME="_ZTIN8QtCharts14AbstractDomainE" PURGE="-1" COMMENT="" />
    <EXPORT ORDINAL="3714" NAME="_ZTIN8QtCharts14ChartAnimationE" PURGE="-1" COMMENT="" />
    <EXPORT ORDINAL="3715" NAME="_ZTIN8QtCharts14ChartPresenterE" PURGE="-1" COMMENT="" />
    <EXPORT ORDINAL="3716" NAME="_ZTIN8QtCharts14HorizontalAxisE" PURGE="-1" COMMENT="" />
    <EXPORT ORDINAL="3717" NAME="_ZTIN8QtCharts14LegendScrollerE" PURGE="-1" COMMENT="" />
    <EXPORT ORDINAL="3718" NAME="_ZTIN8QtCharts14LogXLogYDomainE" PURGE="-1" COMMENT="" />
    <EXPORT ORDINAL="3719" NAME="_ZTIN8QtCharts14PolarChartAxisE" PURGE="-1" COMMENT="" />
    <EXPORT ORDINAL="3720" NAME="_ZTIN8QtCharts14QBarSetPrivateE" PURGE="-1" COMMENT="" />
    <EXPORT ORDINAL="3721" NAME="_ZTIN8QtCharts14QBoxPlotSeriesE" PURGE="-1" COMMENT="" />
    <EXPORT ORDINAL="3722" NAME="_ZTIN8QtCharts14QBoxSetPrivateE" PURGE="-1" COMMENT="" />
    <EXPORT ORDINAL="3723" NAME="_ZTIN8QtCharts14QLegendPrivateE" PURGE="-1" COMMENT="" />
    <EXPORT ORDINAL="3724" NAME="_ZTIN8QtCharts14QScatterSeriesE" PURGE="-1" COMMENT="" />
    <EXPORT ORDINAL="3725" NAME="_ZTIN8QtCharts14QXYModelMapperE" PURGE="-1" COMMENT="" />
    <EXPORT ORDINAL="3726" NAME="_ZTIN8QtCharts15ChartBackgroundE" PURGE="-1" COMMENT="" />
    <EXPORT ORDINAL="3727" NAME="_ZTIN8QtCharts15ChartValueAxisXE" PURGE="-1" COMMENT="" />
    <EXPORT ORDINAL="3728" NAME="_ZTIN8QtCharts15ChartValueAxisYE" PURGE="-1" COMMENT="" />
    <EXPORT ORDINAL="3729" NAME="_ZTIN8QtCharts15QAbstractSeriesE" PURGE="-1" COMMENT="" />
    <EXPORT ORDINAL="3730" NAME="_ZTIN8QtCharts15QBarModelMapperE" PURGE="-1" COMMENT="" />
    <EXPORT ORDINAL="3731" NAME="_ZTIN8QtCharts15QCandlestickSetE" PURGE="-1" COMMENT="" />
    <EXPORT ORDINAL="3732" NAME="_ZTIN8QtCharts15QHXYModelMapperE" PURGE="-1" COMMENT="" />
    <EXPORT ORDINAL="3733" NAME="_ZTIN8QtCharts15QPieModelMapperE" PURGE="-1" COMMENT="" />
    <EXPORT ORDINAL="3734" NAME="_ZTIN8QtCharts15QVXYModelMapperE" PURGE="-1" COMMENT="" />
    <EXPORT ORDINAL="3735" NAME="_ZTIN8QtCharts15QXYLegendMarkerE" PURGE="-1" COMMENT="" />
    <EXPORT ORDINAL="3736" NAME="_ZTIN8QtCharts15RectangleMarkerE" PURGE="-1" COMMENT="" />
    <EXPORT ORDINAL="3737" NAME="_ZTIN8QtCharts15SplineAnimationE" PURGE="-1" COMMENT="" />
    <EXPORT ORDINAL="3738" NAME="_ZTIN8QtCharts15SplineChartItemE" PURGE="-1" COMMENT="" />
    <EXPORT ORDINAL="3739" NAME="_ZTIN8QtCharts16BoxPlotAnimationE" PURGE="-1" COMMENT="" />
    <EXPORT ORDINAL="3740" NAME="_ZTIN8QtCharts16BoxPlotChartItemE" PURGE="-1" COMMENT="" />
    <EXPORT ORDINAL="3741" NAME="_ZTIN8QtCharts16ChartAxisElementE" PURGE="-1" COMMENT="" />
    <EXPORT ORDINAL="3742" NAME="_ZTIN8QtCharts16LegendMarkerItemE" PURGE="-1" COMMENT="" />
    <EXPORT ORDINAL="3743" NAME="_ZTIN8QtCharts16LogXYPolarDomainE" PURGE="-1" COMMENT="" />
    <EXPORT ORDINAL="3744" NAME="_ZTIN8QtCharts16PolarChartLayoutE" PURGE="-1" COMMENT="" />
    <EXPORT ORDINAL="3745" NAME="_ZTIN8QtCharts16QBarCategoryAxisE" PURGE="-1" COMMENT="" />
    <EXPORT ORDINAL="3746" NAME="_ZTIN8QtCharts16QBarLegendMarkerE" PURGE="-1" COMMENT="" />
    <EXPORT ORDINAL="3747" NAME="_ZTIN8QtCharts16QHBarModelMapperE" PURGE="-1" COMMENT="" />
    <EXPORT ORDINAL="3748" NAME="_ZTIN8QtCharts16QHPieModelMapperE" PURGE="-1" COMMENT="" />
    <EXPORT ORDINAL="3749" NAME="_ZTIN8QtCharts16QPieLegendMarkerE" PURGE="-1" COMMENT="" />
    <EXPORT ORDINAL="3750" NAME="_ZTIN8QtCharts16QPieSlicePrivateE" PURGE="-1" COMMENT="" />
    <EXPORT ORDINAL="3751" NAME="_ZTIN8QtCharts16QVBarModelMapperE" PURGE="-1" COMMENT="" />
    <EXPORT ORDINAL="3752" NAME="_ZTIN8QtCharts16QVPieModelMapperE" PURGE="-1" COMMENT="" />
    <EXPORT ORDINAL="3753" NAME="_ZTIN8QtCharts16QXYSeriesPrivateE" PURGE="-1" COMMENT="" />
    <EXPORT ORDINAL="3754" NAME="_ZTIN8QtCharts16ScatterAnimationE" PURGE="-1" COMMENT="" />
    <EXPORT ORDINAL="3755" NAME="_ZTIN8QtCharts16ScatterChartItemE" PURGE="-1" COMMENT="" />
    <EXPORT ORDINAL="3756" NAME="_ZTIN8QtCharts16XLogYPolarDomainE" PURGE="-1" COMMENT="" />
    <EXPORT ORDINAL="3757" NAME="_ZTIN8QtCharts17ChartThemeManagerE" PURGE="-1" COMMENT="" />
    <EXPORT ORDINAL="3758" NAME="_ZTIN8QtCharts17PieSliceAnimationE" PURGE="-1" COMMENT="" />
    <EXPORT ORDINAL="3759" NAME="_ZTIN8QtCharts17QAreaLegendMarkerE" PURGE="-1" COMMENT="" />
    <EXPORT ORDINAL="3760" NAME="_ZTIN8QtCharts17QBarSeriesPrivateE" PURGE="-1" COMMENT="" />
    <EXPORT ORDINAL="3761" NAME="_ZTIN8QtCharts17QPercentBarSeriesE" PURGE="-1" COMMENT="" />
    <EXPORT ORDINAL="3762" NAME="_ZTIN8QtCharts17QPieSeriesPrivateE" PURGE="-1" COMMENT="" />
    <EXPORT ORDINAL="3763" NAME="_ZTIN8QtCharts17QStackedBarSeriesE" PURGE="-1" COMMENT="" />
    <EXPORT ORDINAL="3764" NAME="_ZTIN8QtCharts17QValueAxisPrivateE" PURGE="-1" COMMENT="" />
    <EXPORT ORDINAL="3765" NAME="_ZTIN8QtCharts18CartesianChartAxisE" PURGE="-1" COMMENT="" />
    <EXPORT ORDINAL="3766" NAME="_ZTIN8QtCharts18ChartCategoryAxisXE" PURGE="-1" COMMENT="" />
    <EXPORT ORDINAL="3767" NAME="_ZTIN8QtCharts18ChartCategoryAxisYE" PURGE="-1" COMMENT="" />
    <EXPORT ORDINAL="3768" NAME="_ZTIN8QtCharts18ChartDateTimeAxisXE" PURGE="-1" COMMENT="" />
    <EXPORT ORDINAL="3769" NAME="_ZTIN8QtCharts18ChartDateTimeAxisYE" PURGE="-1" COMMENT="" />
    <EXPORT ORDINAL="3770" NAME="_ZTIN8QtCharts18ChartLogValueAxisXE" PURGE="-1" COMMENT="" />
    <EXPORT ORDINAL="3771" NAME="_ZTIN8QtCharts18ChartLogValueAxisYE" PURGE="-1" COMMENT="" />
    <EXPORT ORDINAL="3772" NAME="_ZTIN8QtCharts18QAbstractBarSeriesE" PURGE="-1" COMMENT="" />
    <EXPORT ORDINAL="3773" NAME="_ZTIN8QtCharts18QAreaSeriesPrivateE" PURGE="-1" COMMENT="" />
    <EXPORT ORDINAL="3774" NAME="_ZTIN8QtCharts18QCandlestickSeriesE" PURGE="-1" COMMENT="" />
    <EXPORT ORDINAL="3775" NAME="_ZTIN8QtCharts18QLineSeriesPrivateE" PURGE="-1" COMMENT="" />
    <EXPORT ORDINAL="3776" NAME="_ZTIN8QtCharts19AbstractChartLayoutE" PURGE="-1" COMMENT="" />
    <EXPORT ORDINAL="3777" NAME="_ZTIN8QtCharts19LogXLogYPolarDomainE" PURGE="-1" COMMENT="" />
    <EXPORT ORDINAL="3778" NAME="_ZTIN8QtCharts19PercentBarChartItemE" PURGE="-1" COMMENT="" />
    <EXPORT ORDINAL="3779" NAME="_ZTIN8QtCharts19QBoxPlotModelMapperE" PURGE="-1" COMMENT="" />
    <EXPORT ORDINAL="3780" NAME="_ZTIN8QtCharts19StackedBarChartItemE" PURGE="-1" COMMENT="" />
    <EXPORT ORDINAL="3781" NAME="_ZTIN8QtCharts20AbstractBarChartItemE" PURGE="-1" COMMENT="" />
    <EXPORT ORDINAL="3782" NAME="_ZTIN8QtCharts20BoxWhiskersAnimationE" PURGE="-1" COMMENT="" />
    <EXPORT ORDINAL="3783" NAME="_ZTIN8QtCharts20CandlestickAnimationE" PURGE="-1" COMMENT="" />
    <EXPORT ORDINAL="3784" NAME="_ZTIN8QtCharts20CandlestickChartItemE" PURGE="-1" COMMENT="" />
    <EXPORT ORDINAL="3785" NAME="_ZTIN8QtCharts20CartesianChartLayoutE" PURGE="-1" COMMENT="" />
    <EXPORT ORDINAL="3786" NAME="_ZTIN8QtCharts20PolarChartAxisRadialE" PURGE="-1" COMMENT="" />
    <EXPORT ORDINAL="3787" NAME="_ZTIN8QtCharts20QAbstractAxisPrivateE" PURGE="-1" COMMENT="" />
    <EXPORT ORDINAL="3788" NAME="_ZTIN8QtCharts20QBoxPlotLegendMarkerE" PURGE="-1" COMMENT="" />
    <EXPORT ORDINAL="3789" NAME="_ZTIN8QtCharts20QCategoryAxisPrivateE" PURGE="-1" COMMENT="" />
    <EXPORT ORDINAL="3790" NAME="_ZTIN8QtCharts20QDateTimeAxisPrivateE" PURGE="-1" COMMENT="" />
    <EXPORT ORDINAL="3791" NAME="_ZTIN8QtCharts20QHBoxPlotModelMapperE" PURGE="-1" COMMENT="" />
    <EXPORT ORDINAL="3792" NAME="_ZTIN8QtCharts20QHorizontalBarSeriesE" PURGE="-1" COMMENT="" />
    <EXPORT ORDINAL="3793" NAME="_ZTIN8QtCharts20QLegendMarkerPrivateE" PURGE="-1" COMMENT="" />
    <EXPORT ORDINAL="3794" NAME="_ZTIN8QtCharts20QLogValueAxisPrivateE" PURGE="-1" COMMENT="" />
    <EXPORT ORDINAL="3795" NAME="_ZTIN8QtCharts20QSplineSeriesPrivateE" PURGE="-1" COMMENT="" />
    <EXPORT ORDINAL="3796" NAME="_ZTIN8QtCharts20QVBoxPlotModelMapperE" PURGE="-1" COMMENT="" />
    <EXPORT ORDINAL="3797" NAME="_ZTIN8QtCharts21ChartBarCategoryAxisXE" PURGE="-1" COMMENT="" />
    <EXPORT ORDINAL="3798" NAME="_ZTIN8QtCharts21ChartBarCategoryAxisYE" PURGE="-1" COMMENT="" />
    <EXPORT ORDINAL="3799" NAME="_ZTIN8QtCharts21GLXYSeriesDataManagerE" PURGE="-1" COMMENT="" />
    <EXPORT ORDINAL="3800" NAME="_ZTIN8QtCharts21PolarChartAxisAngularE" PURGE="-1" COMMENT="" />
    <EXPORT ORDINAL="3801" NAME="_ZTIN8QtCharts21QBoxPlotSeriesPrivateE" PURGE="-1" COMMENT="" />
    <EXPORT ORDINAL="3802" NAME="_ZTIN8QtCharts21QScatterSeriesPrivateE" PURGE="-1" COMMENT="" />
    <EXPORT ORDINAL="3803" NAME="_ZTIN8QtCharts21QXYModelMapperPrivateE" PURGE="-1" COMMENT="" />
    <EXPORT ORDINAL="3804" NAME="_ZTIN8QtCharts22HorizontalBarChartItemE" PURGE="-1" COMMENT="" />
    <EXPORT ORDINAL="3805" NAME="_ZTIN8QtCharts22QAbstractSeriesPrivateE" PURGE="-1" COMMENT="" />
    <EXPORT ORDINAL="3806" NAME="_ZTIN8QtCharts22QBarModelMapperPrivateE" PURGE="-1" COMMENT="" />
    <EXPORT ORDINAL="3807" NAME="_ZTIN8QtCharts22QCandlestickSetPrivateE" PURGE="-1" COMMENT="" />
    <EXPORT ORDINAL="3808" NAME="_ZTIN8QtCharts22QPieModelMapperPrivateE" PURGE="-1" COMMENT="" />
    <EXPORT ORDINAL="3809" NAME="_ZTIN8QtCharts22QXYLegendMarkerPrivateE" PURGE="-1" COMMENT="" />
    <EXPORT ORDINAL="3810" NAME="_ZTIN8QtCharts23QBarCategoryAxisPrivateE" PURGE="-1" COMMENT="" />
    <EXPORT ORDINAL="3811" NAME="_ZTIN8QtCharts23QBarLegendMarkerPrivateE" PURGE="-1" COMMENT="" />
    <EXPORT ORDINAL="3812" NAME="_ZTIN8QtCharts23QCandlestickModelMapperE" PURGE="-1" COMMENT="" />
    <EXPORT ORDINAL="3813" NAME="_ZTIN8QtCharts23QPieLegendMarkerPrivateE" PURGE="-1" COMMENT="" />
    <EXPORT ORDINAL="3814" NAME="_ZTIN8QtCharts24QAreaLegendMarkerPrivateE" PURGE="-1" COMMENT="" />
    <EXPORT ORDINAL="3815" NAME="_ZTIN8QtCharts24QCandlestickLegendMarkerE" PURGE="-1" COMMENT="" />
    <EXPORT ORDINAL="3816" NAME="_ZTIN8QtCharts24QHCandlestickModelMapperE" PURGE="-1" COMMENT="" />
    <EXPORT ORDINAL="3817" NAME="_ZTIN8QtCharts24QPercentBarSeriesPrivateE" PURGE="-1" COMMENT="" />
    <EXPORT ORDINAL="3818" NAME="_ZTIN8QtCharts24QStackedBarSeriesPrivateE" PURGE="-1" COMMENT="" />
    <EXPORT ORDINAL="3819" NAME="_ZTIN8QtCharts24QVCandlestickModelMapperE" PURGE="-1" COMMENT="" />
    <EXPORT ORDINAL="3820" NAME="_ZTIN8QtCharts25PolarChartValueAxisRadialE" PURGE="-1" COMMENT="" />
    <EXPORT ORDINAL="3821" NAME="_ZTIN8QtCharts25QAbstractBarSeriesPrivateE" PURGE="-1" COMMENT="" />
    <EXPORT ORDINAL="3822" NAME="_ZTIN8QtCharts25QCandlestickSeriesPrivateE" PURGE="-1" COMMENT="" />
    <EXPORT ORDINAL="3823" NAME="_ZTIN8QtCharts26PolarChartValueAxisAngularE" PURGE="-1" COMMENT="" />
    <EXPORT ORDINAL="3824" NAME="_ZTIN8QtCharts27QBoxPlotLegendMarkerPrivateE" PURGE="-1" COMMENT="" />
    <EXPORT ORDINAL="3825" NAME="_ZTIN8QtCharts27QHorizontalBarSeriesPrivateE" PURGE="-1" COMMENT="" />
    <EXPORT ORDINAL="3826" NAME="_ZTIN8QtCharts27QHorizontalPercentBarSeriesE" PURGE="-1" COMMENT="" />
    <EXPORT ORDINAL="3827" NAME="_ZTIN8QtCharts27QHorizontalStackedBarSeriesE" PURGE="-1" COMMENT="" />
    <EXPORT ORDINAL="3828" NAME="_ZTIN8QtCharts28PolarChartCategoryAxisRadialE" PURGE="-1" COMMENT="" />
    <EXPORT ORDINAL="3829" NAME="_ZTIN8QtCharts28PolarChartDateTimeAxisRadialE" PURGE="-1" COMMENT="" />
    <EXPORT ORDINAL="3830" NAME="_ZTIN8QtCharts28PolarChartLogValueAxisRadialE" PURGE="-1" COMMENT="" />
    <EXPORT ORDINAL="3831" NAME="_ZTIN8QtCharts29CandlestickBodyWicksAnimationE" PURGE="-1" COMMENT="" />
    <EXPORT ORDINAL="3832" NAME="_ZTIN8QtCharts29HorizontalPercentBarChartItemE" PURGE="-1" COMMENT="" />
    <EXPORT ORDINAL="3833" NAME="_ZTIN8QtCharts29HorizontalStackedBarChartItemE" PURGE="-1" COMMENT="" />
    <EXPORT ORDINAL="3834" NAME="_ZTIN8QtCharts29PolarChartCategoryAxisAngularE" PURGE="-1" COMMENT="" />
    <EXPORT ORDINAL="3835" NAME="_ZTIN8QtCharts29PolarChartDateTimeAxisAngularE" PURGE="-1" COMMENT="" />
    <EXPORT ORDINAL="3836" NAME="_ZTIN8QtCharts29PolarChartLogValueAxisAngularE" PURGE="-1" COMMENT="" />
    <EXPORT ORDINAL="3837" NAME="_ZTIN8QtCharts30QCandlestickModelMapperPrivateE" PURGE="-1" COMMENT="" />
    <EXPORT ORDINAL="3838" NAME="_ZTIN8QtCharts31QCandlestickLegendMarkerPrivateE" PURGE="-1" COMMENT="" />
    <EXPORT ORDINAL="3839" NAME="_ZTIN8QtCharts34QHorizontalPercentBarSeriesPrivateE" PURGE="-1" COMMENT="" />
    <EXPORT ORDINAL="3840" NAME="_ZTIN8QtCharts34QHorizontalStackedBarSeriesPrivateE" PURGE="-1" COMMENT="" />
    <EXPORT ORDINAL="3841" NAME="_ZTIN8QtCharts3BarE" PURGE="-1" COMMENT="" />
    <EXPORT ORDINAL="3842" NAME="_ZTIN8QtCharts6QChartE" PURGE="-1" COMMENT="" />
    <EXPORT ORDINAL="3843" NAME="_ZTIN8QtCharts7QBarSetE" PURGE="-1" COMMENT="" />
    <EXPORT ORDINAL="3844" NAME="_ZTIN8QtCharts7QBoxSetE" PURGE="-1" COMMENT="" />
    <EXPORT ORDINAL="3845" NAME="_ZTIN8QtCharts7QLegendE" PURGE="-1" COMMENT="" />
    <EXPORT ORDINAL="3846" NAME="_ZTIN8QtCharts7XYChartE" PURGE="-1" COMMENT="" />
    <EXPORT ORDINAL="3847" NAME="_ZTIN8QtCharts8ScrollerE" PURGE="-1" COMMENT="" />
    <EXPORT ORDINAL="3848" NAME="_ZTIN8QtCharts8XYDomainE" PURGE="-1" COMMENT="" />
    <EXPORT ORDINAL="3849" NAME="_ZTIN8QtCharts9ChartItemE" PURGE="-1" COMMENT="" />
    <EXPORT ORDINAL="3850" NAME="_ZTIN8QtCharts9QPieSliceE" PURGE="-1" COMMENT="" />
    <EXPORT ORDINAL="3851" NAME="_ZTIN8QtCharts9QXYSeriesE" PURGE="-1" COMMENT="" />
    <EXPORT ORDINAL="3852" NAME="_ZTVN8QtCharts10ChartTitleE" PURGE="-1" COMMENT="" />
    <EXPORT ORDINAL="3853" NAME="_ZTVN8QtCharts10QBarSeriesE" PURGE="-1" COMMENT="" />
    <EXPORT ORDINAL="3854" NAME="_ZTVN8QtCharts10QChartViewE" PURGE="-1" COMMENT="" />
    <EXPORT ORDINAL="3855" NAME="_ZTVN8QtCharts10QPieSeriesE" PURGE="-1" COMMENT="" />
    <EXPORT ORDINAL="3856" NAME="_ZTVN8QtCharts10QValueAxisE" PURGE="-1" COMMENT="" />
    <EXPORT ORDINAL="3857" NAME="_ZTVN8QtCharts11BoxWhiskersE" PURGE="-1" COMMENT="" />
    <EXPORT ORDINAL="3858" NAME="_ZTVN8QtCharts11CandlestickE" PURGE="-1" COMMENT="" />
    <EXPORT ORDINAL="3859" NAME="_ZTVN8QtCharts11LogXYDomainE" PURGE="-1" COMMENT="" />
    <EXPORT ORDINAL="3860" NAME="_ZTVN8QtCharts11PolarDomainE" PURGE="-1" COMMENT="" />
    <EXPORT ORDINAL="3861" NAME="_ZTVN8QtCharts11QAreaSeriesE" PURGE="-1" COMMENT="" />
    <EXPORT ORDINAL="3862" NAME="_ZTVN8QtCharts11QLineSeriesE" PURGE="-1" COMMENT="" />
    <EXPORT ORDINAL="3863" NAME="_ZTVN8QtCharts11QPolarChartE" PURGE="-1" COMMENT="" />
    <EXPORT ORDINAL="3864" NAME="_ZTVN8QtCharts11XLogYDomainE" PURGE="-1" COMMENT="" />
    <EXPORT ORDINAL="3865" NAME="_ZTVN8QtCharts11XYAnimationE" PURGE="-1" COMMENT="" />
    <EXPORT ORDINAL="3866" NAME="_ZTVN8QtCharts12BarAnimationE" PURGE="-1" COMMENT="" />
    <EXPORT ORDINAL="3867" NAME="_ZTVN8QtCharts12BarChartItemE" PURGE="-1" COMMENT="" />
    <EXPORT ORDINAL="3868" NAME="_ZTVN8QtCharts12ChartDataSetE" PURGE="-1" COMMENT="" />
    <EXPORT ORDINAL="3869" NAME="_ZTVN8QtCharts12ChartElementE" PURGE="-1" COMMENT="" />
    <EXPORT ORDINAL="3870" NAME="_ZTVN8QtCharts12CircleMarkerE" PURGE="-1" COMMENT="" />
    <EXPORT ORDINAL="3871" NAME="_ZTVN8QtCharts12LegendLayoutE" PURGE="-1" COMMENT="" />
    <EXPORT ORDINAL="3872" NAME="_ZTVN8QtCharts12PieAnimationE" PURGE="-1" COMMENT="" />
    <EXPORT ORDINAL="3873" NAME="_ZTVN8QtCharts12PieChartItemE" PURGE="-1" COMMENT="" />
    <EXPORT ORDINAL="3874" NAME="_ZTVN8QtCharts12PieSliceItemE" PURGE="-1" COMMENT="" />
    <EXPORT ORDINAL="3875" NAME="_ZTVN8QtCharts12ScrollTickerE" PURGE="-1" COMMENT="" />
    <EXPORT ORDINAL="3876" NAME="_ZTVN8QtCharts12VerticalAxisE" PURGE="-1" COMMENT="" />
    <EXPORT ORDINAL="3877" NAME="_ZTVN8QtCharts13AreaBoundItemE" PURGE="-1" COMMENT="" />
    <EXPORT ORDINAL="3878" NAME="_ZTVN8QtCharts13AreaChartItemE" PURGE="-1" COMMENT="" />
    <EXPORT ORDINAL="3879" NAME="_ZTVN8QtCharts13AxisAnimationE" PURGE="-1" COMMENT="" />
    <EXPORT ORDINAL="3880" NAME="_ZTVN8QtCharts13LineArrowItemE" PURGE="-1" COMMENT="" />
    <EXPORT ORDINAL="3881" NAME="_ZTVN8QtCharts13LineChartItemE" PURGE="-1" COMMENT="" />
    <EXPORT ORDINAL="3882" NAME="_ZTVN8QtCharts13QAbstractAxisE" PURGE="-1" COMMENT="" />
    <EXPORT ORDINAL="3883" NAME="_ZTVN8QtCharts13QCategoryAxisE" PURGE="-1" COMMENT="" />
    <EXPORT ORDINAL="3884" NAME="_ZTVN8QtCharts13QDateTimeAxisE" PURGE="-1" COMMENT="" />
    <EXPORT ORDINAL="3885" NAME="_ZTVN8QtCharts13QLegendMarkerE" PURGE="-1" COMMENT="" />
    <EXPORT ORDINAL="3886" NAME="_ZTVN8QtCharts13QLogValueAxisE" PURGE="-1" COMMENT="" />
    <EXPORT ORDINAL="3887" NAME="_ZTVN8QtCharts13QSplineSeriesE" PURGE="-1" COMMENT="" />
    <EXPORT ORDINAL="3888" NAME="_ZTVN8QtCharts13XYPolarDomainE" PURGE="-1" COMMENT="" />
    <EXPORT ORDINAL="3889" NAME="_ZTVN8QtCharts14AbstractDomainE" PURGE="-1" COMMENT="" />
    <EXPORT ORDINAL="3890" NAME="_ZTVN8QtCharts14ChartAnimationE" PURGE="-1" COMMENT="" />
    <EXPORT ORDINAL="3891" NAME="_ZTVN8QtCharts14ChartPresenterE" PURGE="-1" COMMENT="" />
    <EXPORT ORDINAL="3892" NAME="_ZTVN8QtCharts14HorizontalAxisE" PURGE="-1" COMMENT="" />
    <EXPORT ORDINAL="3893" NAME="_ZTVN8QtCharts14LegendScrollerE" PURGE="-1" COMMENT="" />
    <EXPORT ORDINAL="3894" NAME="_ZTVN8QtCharts14LogXLogYDomainE" PURGE="-1" COMMENT="" />
    <EXPORT ORDINAL="3895" NAME="_ZTVN8QtCharts14PolarChartAxisE" PURGE="-1" COMMENT="" />
    <EXPORT ORDINAL="3896" NAME="_ZTVN8QtCharts14QBarSetPrivateE" PURGE="-1" COMMENT="" />
    <EXPORT ORDINAL="3897" NAME="_ZTVN8QtCharts14QBoxPlotSeriesE" PURGE="-1" COMMENT="" />
    <EXPORT ORDINAL="3898" NAME="_ZTVN8QtCharts14QBoxSetPrivateE" PURGE="-1" COMMENT="" />
    <EXPORT ORDINAL="3899" NAME="_ZTVN8QtCharts14QLegendPrivateE" PURGE="-1" COMMENT="" />
    <EXPORT ORDINAL="3900" NAME="_ZTVN8QtCharts14QScatterSeriesE" PURGE="-1" COMMENT="" />
    <EXPORT ORDINAL="3901" NAME="_ZTVN8QtCharts14QXYModelMapperE" PURGE="-1" COMMENT="" />
    <EXPORT ORDINAL="3902" NAME="_ZTVN8QtCharts15ChartBackgroundE" PURGE="-1" COMMENT="" />
    <EXPORT ORDINAL="3903" NAME="_ZTVN8QtCharts15ChartValueAxisXE" PURGE="-1" COMMENT="" />
    <EXPORT ORDINAL="3904" NAME="_ZTVN8QtCharts15ChartValueAxisYE" PURGE="-1" COMMENT="" />
    <EXPORT ORDINAL="3905" NAME="_ZTVN8QtCharts15QAbstractSeriesE" PURGE="-1" COMMENT="" />
    <EXPORT ORDINAL="3906" NAME="_ZTVN8QtCharts15QBarModelMapperE" PURGE="-1" COMMENT="" />
    <EXPORT ORDINAL="3907" NAME="_ZTVN8QtCharts15QCandlestickSetE" PURGE="-1" COMMENT="" />
    <EXPORT ORDINAL="3908" NAME="_ZTVN8QtCharts15QHXYModelMapperE" PURGE="-1" COMMENT="" />
    <EXPORT ORDINAL="3909" NAME="_ZTVN8QtCharts15QPieModelMapperE" PURGE="-1" COMMENT="" />
    <EXPORT ORDINAL="3910" NAME="_ZTVN8QtCharts15QVXYModelMapperE" PURGE="-1" COMMENT="" />
    <EXPORT ORDINAL="3911" NAME="_ZTVN8QtCharts15QXYLegendMarkerE" PURGE="-1" COMMENT="" />
    <EXPORT ORDINAL="3912" NAME="_ZTVN8QtCharts15RectangleMarkerE" PURGE="-1" COMMENT="" />
    <EXPORT ORDINAL="3913" NAME="_ZTVN8QtCharts15SplineAnimationE" PURGE="-1" COMMENT="" />
    <EXPORT ORDINAL="3914" NAME="_ZTVN8QtCharts15SplineChartItemE" PURGE="-1" COMMENT="" />
    <EXPORT ORDINAL="3915" NAME="_ZTVN8QtCharts16BoxPlotAnimationE" PURGE="-1" COMMENT="" />
    <EXPORT ORDINAL="3916" NAME="_ZTVN8QtCharts16BoxPlotChartItemE" PURGE="-1" COMMENT="" />
    <EXPORT ORDINAL="3917" NAME="_ZTVN8QtCharts16ChartAxisElementE" PURGE="-1" COMMENT="" />
    <EXPORT ORDINAL="3918" NAME="_ZTVN8QtCharts16LegendMarkerItemE" PURGE="-1" COMMENT="" />
    <EXPORT ORDINAL="3919" NAME="_ZTVN8QtCharts16LogXYPolarDomainE" PURGE="-1" COMMENT="" />
    <EXPORT ORDINAL="3920" NAME="_ZTVN8QtCharts16PolarChartLayoutE" PURGE="-1" COMMENT="" />
    <EXPORT ORDINAL="3921" NAME="_ZTVN8QtCharts16QBarCategoryAxisE" PURGE="-1" COMMENT="" />
    <EXPORT ORDINAL="3922" NAME="_ZTVN8QtCharts16QBarLegendMarkerE" PURGE="-1" COMMENT="" />
    <EXPORT ORDINAL="3923" NAME="_ZTVN8QtCharts16QHBarModelMapperE" PURGE="-1" COMMENT="" />
    <EXPORT ORDINAL="3924" NAME="_ZTVN8QtCharts16QHPieModelMapperE" PURGE="-1" COMMENT="" />
    <EXPORT ORDINAL="3925" NAME="_ZTVN8QtCharts16QPieLegendMarkerE" PURGE="-1" COMMENT="" />
    <EXPORT ORDINAL="3926" NAME="_ZTVN8QtCharts16QPieSlicePrivateE" PURGE="-1" COMMENT="" />
    <EXPORT ORDINAL="3927" NAME="_ZTVN8QtCharts16QVBarModelMapperE" PURGE="-1" COMMENT="" />
    <EXPORT ORDINAL="3928" NAME="_ZTVN8QtCharts16QVPieModelMapperE" PURGE="-1" COMMENT="" />
    <EXPORT ORDINAL="3929" NAME="_ZTVN8QtCharts16QXYSeriesPrivateE" PURGE="-1" COMMENT="" />
    <EXPORT ORDINAL="3930" NAME="_ZTVN8QtCharts16ScatterAnimationE" PURGE="-1" COMMENT="" />
    <EXPORT ORDINAL="3931" NAME="_ZTVN8QtCharts16ScatterChartItemE" PURGE="-1" COMMENT="" />
    <EXPORT ORDINAL="3932" NAME="_ZTVN8QtCharts16XLogYPolarDomainE" PURGE="-1" COMMENT="" />
    <EXPORT ORDINAL="3933" NAME="_ZTVN8QtCharts17ChartThemeManagerE" PURGE="-1" COMMENT="" />
    <EXPORT ORDINAL="3934" NAME="_ZTVN8QtCharts17PieSliceAnimationE" PURGE="-1" COMMENT="" />
    <EXPORT ORDINAL="3935" NAME="_ZTVN8QtCharts17QAreaLegendMarkerE" PURGE="-1" COMMENT="" />
    <EXPORT ORDINAL="3936" NAME="_ZTVN8QtCharts17QBarSeriesPrivateE" PURGE="-1" COMMENT="" />
    <EXPORT ORDINAL="3937" NAME="_ZTVN8QtCharts17QPercentBarSeriesE" PURGE="-1" COMMENT="" />
    <EXPORT ORDINAL="3938" NAME="_ZTVN8QtCharts17QPieSeriesPrivateE" PURGE="-1" COMMENT="" />
    <EXPORT ORDINAL="3939" NAME="_ZTVN8QtCharts17QStackedBarSeriesE" PURGE="-1" COMMENT="" />
    <EXPORT ORDINAL="3940" NAME="_ZTVN8QtCharts17QValueAxisPrivateE" PURGE="-1" COMMENT="" />
    <EXPORT ORDINAL="3941" NAME="_ZTVN8QtCharts18CartesianChartAxisE" PURGE="-1" COMMENT="" />
    <EXPORT ORDINAL="3942" NAME="_ZTVN8QtCharts18ChartCategoryAxisXE" PURGE="-1" COMMENT="" />
    <EXPORT ORDINAL="3943" NAME="_ZTVN8QtCharts18ChartCategoryAxisYE" PURGE="-1" COMMENT="" />
    <EXPORT ORDINAL="3944" NAME="_ZTVN8QtCharts18ChartDateTimeAxisXE" PURGE="-1" COMMENT="" />
    <EXPORT ORDINAL="3945" NAME="_ZTVN8QtCharts18ChartDateTimeAxisYE" PURGE="-1" COMMENT="" />
    <EXPORT ORDINAL="3946" NAME="_ZTVN8QtCharts18ChartLogValueAxisXE" PURGE="-1" COMMENT="" />
    <EXPORT ORDINAL="3947" NAME="_ZTVN8QtCharts18ChartLogValueAxisYE" PURGE="-1" COMMENT="" />
    <EXPORT ORDINAL="3948" NAME="_ZTVN8QtCharts18QAbstractBarSeriesE" PURGE="-1" COMMENT="" />
    <EXPORT ORDINAL="3949" NAME="_ZTVN8QtCharts18QAreaSeriesPrivateE" PURGE="-1" COMMENT="" />
    <EXPORT ORDINAL="3950" NAME="_ZTVN8QtCharts18QCandlestickSeriesE" PURGE="-1" COMMENT="" />
    <EXPORT ORDINAL="3951" NAME="_ZTVN8QtCharts18QLineSeriesPrivateE" PURGE="-1" COMMENT="" />
    <EXPORT ORDINAL="3952" NAME="_ZTVN8QtCharts19AbstractChartLayoutE" PURGE="-1" COMMENT="" />
    <EXPORT ORDINAL="3953" NAME="_ZTVN8QtCharts19LogXLogYPolarDomainE" PURGE="-1" COMMENT="" />
    <EXPORT ORDINAL="3954" NAME="_ZTVN8QtCharts19PercentBarChartItemE" PURGE="-1" COMMENT="" />
    <EXPORT ORDINAL="3955" NAME="_ZTVN8QtCharts19QBoxPlotModelMapperE" PURGE="-1" COMMENT="" />
    <EXPORT ORDINAL="3956" NAME="_ZTVN8QtCharts19StackedBarChartItemE" PURGE="-1" COMMENT="" />
    <EXPORT ORDINAL="3957" NAME="_ZTVN8QtCharts20AbstractBarChartItemE" PURGE="-1" COMMENT="" />
    <EXPORT ORDINAL="3958" NAME="_ZTVN8QtCharts20BoxWhiskersAnimationE" PURGE="-1" COMMENT="" />
    <EXPORT ORDINAL="3959" NAME="_ZTVN8QtCharts20CandlestickAnimationE" PURGE="-1" COMMENT="" />
    <EXPORT ORDINAL="3960" NAME="_ZTVN8QtCharts20CandlestickChartItemE" PURGE="-1" COMMENT="" />
    <EXPORT ORDINAL="3961" NAME="_ZTVN8QtCharts20CartesianChartLayoutE" PURGE="-1" COMMENT="" />
    <EXPORT ORDINAL="3962" NAME="_ZTVN8QtCharts20PolarChartAxisRadialE" PURGE="-1" COMMENT="" />
    <EXPORT ORDINAL="3963" NAME="_ZTVN8QtCharts20QAbstractAxisPrivateE" PURGE="-1" COMMENT="" />
    <EXPORT ORDINAL="3964" NAME="_ZTVN8QtCharts20QBoxPlotLegendMarkerE" PURGE="-1" COMMENT="" />
    <EXPORT ORDINAL="3965" NAME="_ZTVN8QtCharts20QCategoryAxisPrivateE" PURGE="-1" COMMENT="" />
    <EXPORT ORDINAL="3966" NAME="_ZTVN8QtCharts20QDateTimeAxisPrivateE" PURGE="-1" COMMENT="" />
    <EXPORT ORDINAL="3967" NAME="_ZTVN8QtCharts20QHBoxPlotModelMapperE" PURGE="-1" COMMENT="" />
    <EXPORT ORDINAL="3968" NAME="_ZTVN8QtCharts20QHorizontalBarSeriesE" PURGE="-1" COMMENT="" />
    <EXPORT ORDINAL="3969" NAME="_ZTVN8QtCharts20QLegendMarkerPrivateE" PURGE="-1" COMMENT="" />
    <EXPORT ORDINAL="3970" NAME="_ZTVN8QtCharts20QLogValueAxisPrivateE" PURGE="-1" COMMENT="" />
    <EXPORT ORDINAL="3971" NAME="_ZTVN8QtCharts20QSplineSeriesPrivateE" PURGE="-1" COMMENT="" />
    <EXPORT ORDINAL="3972" NAME="_ZTVN8QtCharts20QVBoxPlotModelMapperE" PURGE="-1" COMMENT="" />
    <EXPORT ORDINAL="3973" NAME="_ZTVN8QtCharts21ChartBarCategoryAxisXE" PURGE="-1" COMMENT="" />
    <EXPORT ORDINAL="3974" NAME="_ZTVN8QtCharts21ChartBarCategoryAxisYE" PURGE="-1" COMMENT="" />
    <EXPORT ORDINAL="3975" NAME="_ZTVN8QtCharts21GLXYSeriesDataManagerE" PURGE="-1" COMMENT="" />
    <EXPORT ORDINAL="3976" NAME="_ZTVN8QtCharts21PolarChartAxisAngularE" PURGE="-1" COMMENT="" />
    <EXPORT ORDINAL="3977" NAME="_ZTVN8QtCharts21QBoxPlotSeriesPrivateE" PURGE="-1" COMMENT="" />
    <EXPORT ORDINAL="3978" NAME="_ZTVN8QtCharts21QScatterSeriesPrivateE" PURGE="-1" COMMENT="" />
    <EXPORT ORDINAL="3979" NAME="_ZTVN8QtCharts21QXYModelMapperPrivateE" PURGE="-1" COMMENT="" />
    <EXPORT ORDINAL="3980" NAME="_ZTVN8QtCharts22HorizontalBarChartItemE" PURGE="-1" COMMENT="" />
    <EXPORT ORDINAL="3981" NAME="_ZTVN8QtCharts22QAbstractSeriesPrivateE" PURGE="-1" COMMENT="" />
    <EXPORT ORDINAL="3982" NAME="_ZTVN8QtCharts22QBarModelMapperPrivateE" PURGE="-1" COMMENT="" />
    <EXPORT ORDINAL="3983" NAME="_ZTVN8QtCharts22QCandlestickSetPrivateE" PURGE="-1" COMMENT="" />
    <EXPORT ORDINAL="3984" NAME="_ZTVN8QtCharts22QPieModelMapperPrivateE" PURGE="-1" COMMENT="" />
    <EXPORT ORDINAL="3985" NAME="_ZTVN8QtCharts22QXYLegendMarkerPrivateE" PURGE="-1" COMMENT="" />
    <EXPORT ORDINAL="3986" NAME="_ZTVN8QtCharts23QBarCategoryAxisPrivateE" PURGE="-1" COMMENT="" />
    <EXPORT ORDINAL="3987" NAME="_ZTVN8QtCharts23QBarLegendMarkerPrivateE" PURGE="-1" COMMENT="" />
    <EXPORT ORDINAL="3988" NAME="_ZTVN8QtCharts23QCandlestickModelMapperE" PURGE="-1" COMMENT="" />
    <EXPORT ORDINAL="3989" NAME="_ZTVN8QtCharts23QPieLegendMarkerPrivateE" PURGE="-1" COMMENT="" />
    <EXPORT ORDINAL="3990" NAME="_ZTVN8QtCharts24QAreaLegendMarkerPrivateE" PURGE="-1" COMMENT="" />
    <EXPORT ORDINAL="3991" NAME="_ZTVN8QtCharts24QCandlestickLegendMarkerE" PURGE="-1" COMMENT="" />
    <EXPORT ORDINAL="3992" NAME="_ZTVN8QtCharts24QHCandlestickModelMapperE" PURGE="-1" COMMENT="" />
    <EXPORT ORDINAL="3993" NAME="_ZTVN8QtCharts24QPercentBarSeriesPrivateE" PURGE="-1" COMMENT="" />
    <EXPORT ORDINAL="3994" NAME="_ZTVN8QtCharts24QStackedBarSeriesPrivateE" PURGE="-1" COMMENT="" />
    <EXPORT ORDINAL="3995" NAME="_ZTVN8QtCharts24QVCandlestickModelMapperE" PURGE="-1" COMMENT="" />
    <EXPORT ORDINAL="3996" NAME="_ZTVN8QtCharts25PolarChartValueAxisRadialE" PURGE="-1" COMMENT="" />
    <EXPORT ORDINAL="3997" NAME="_ZTVN8QtCharts25QAbstractBarSeriesPrivateE" PURGE="-1" COMMENT="" />
    <EXPORT ORDINAL="3998" NAME="_ZTVN8QtCharts25QCandlestickSeriesPrivateE" PURGE="-1" COMMENT="" />
    <EXPORT ORDINAL="3999" NAME="_ZTVN8QtCharts26PolarChartValueAxisAngularE" PURGE="-1" COMMENT="" />
    <EXPORT ORDINAL="4000" NAME="_ZTVN8QtCharts27QBoxPlotLegendMarkerPrivateE" PURGE="-1" COMMENT="" />
    <EXPORT ORDINAL="4001" NAME="_ZTVN8QtCharts27QHorizontalBarSeriesPrivateE" PURGE="-1" COMMENT="" />
    <EXPORT ORDINAL="4002" NAME="_ZTVN8QtCharts27QHorizontalPercentBarSeriesE" PURGE="-1" COMMENT="" />
    <EXPORT ORDINAL="4003" NAME="_ZTVN8QtCharts27QHorizontalStackedBarSeriesE" PURGE="-1" COMMENT="" />
    <EXPORT ORDINAL="4004" NAME="_ZTVN8QtCharts28PolarChartCategoryAxisRadialE" PURGE="-1" COMMENT="" />
    <EXPORT ORDINAL="4005" NAME="_ZTVN8QtCharts28PolarChartDateTimeAxisRadialE" PURGE="-1" COMMENT="" />
    <EXPORT ORDINAL="4006" NAME="_ZTVN8QtCharts28PolarChartLogValueAxisRadialE" PURGE="-1" COMMENT="" />
    <EXPORT ORDINAL="4007" NAME="_ZTVN8QtCharts29CandlestickBodyWicksAnimationE" PURGE="-1" COMMENT="" />
    <EXPORT ORDINAL="4008" NAME="_ZTVN8QtCharts29HorizontalPercentBarChartItemE" PURGE="-1" COMMENT="" />
    <EXPORT ORDINAL="4009" NAME="_ZTVN8QtCharts29HorizontalStackedBarChartItemE" PURGE="-1" COMMENT="" />
    <EXPORT ORDINAL="4010" NAME="_ZTVN8QtCharts29PolarChartCategoryAxisAngularE" PURGE="-1" COMMENT="" />
    <EXPORT ORDINAL="4011" NAME="_ZTVN8QtCharts29PolarChartDateTimeAxisAngularE" PURGE="-1" COMMENT="" />
    <EXPORT ORDINAL="4012" NAME="_ZTVN8QtCharts29PolarChartLogValueAxisAngularE" PURGE="-1" COMMENT="" />
    <EXPORT ORDINAL="4013" NAME="_ZTVN8QtCharts30QCandlestickModelMapperPrivateE" PURGE="-1" COMMENT="" />
    <EXPORT ORDINAL="4014" NAME="_ZTVN8QtCharts31QCandlestickLegendMarkerPrivateE" PURGE="-1" COMMENT="" />
    <EXPORT ORDINAL="4015" NAME="_ZTVN8QtCharts34QHorizontalPercentBarSeriesPrivateE" PURGE="-1" COMMENT="" />
    <EXPORT ORDINAL="4016" NAME="_ZTVN8QtCharts34QHorizontalStackedBarSeriesPrivateE" PURGE="-1" COMMENT="" />
    <EXPORT ORDINAL="4017" NAME="_ZTVN8QtCharts3BarE" PURGE="-1" COMMENT="" />
    <EXPORT ORDINAL="4018" NAME="_ZTVN8QtCharts6QChartE" PURGE="-1" COMMENT="" />
    <EXPORT ORDINAL="4019" NAME="_ZTVN8QtCharts7QBarSetE" PURGE="-1" COMMENT="" />
    <EXPORT ORDINAL="4020" NAME="_ZTVN8QtCharts7QBoxSetE" PURGE="-1" COMMENT="" />
    <EXPORT ORDINAL="4021" NAME="_ZTVN8QtCharts7QLegendE" PURGE="-1" COMMENT="" />
    <EXPORT ORDINAL="4022" NAME="_ZTVN8QtCharts7XYChartE" PURGE="-1" COMMENT="" />
    <EXPORT ORDINAL="4023" NAME="_ZTVN8QtCharts8ScrollerE" PURGE="-1" COMMENT="" />
    <EXPORT ORDINAL="4024" NAME="_ZTVN8QtCharts8XYDomainE" PURGE="-1" COMMENT="" />
    <EXPORT ORDINAL="4025" NAME="_ZTVN8QtCharts9ChartItemE" PURGE="-1" COMMENT="" />
    <EXPORT ORDINAL="4026" NAME="_ZTVN8QtCharts9QPieSliceE" PURGE="-1" COMMENT="" />
    <EXPORT ORDINAL="4027" NAME="_ZTVN8QtCharts9QXYSeriesE" PURGE="-1" COMMENT="" />
    <EXPORT ORDINAL="4028" NAME="_ZThn16_N8QtCharts10ChartTitleD0Ev" PURGE="-1" COMMENT="" />
    <EXPORT ORDINAL="4029" NAME="_ZThn16_N8QtCharts10ChartTitleD1Ev" PURGE="-1" COMMENT="" />
    <EXPORT ORDINAL="4030" NAME="_ZThn16_N8QtCharts10QChartViewD0Ev" PURGE="-1" COMMENT="" />
    <EXPORT ORDINAL="4031" NAME="_ZThn16_N8QtCharts10QChartViewD1Ev" PURGE="-1" COMMENT="" />
    <EXPORT ORDINAL="4032" NAME="_ZThn16_N8QtCharts11BoxWhiskers15hoverEnterEventEP24QGraphicsSceneHoverEvent" PURGE="0" COMMENT="" />
    <EXPORT ORDINAL="4033" NAME="_ZThn16_N8QtCharts11BoxWhiskers15hoverLeaveEventEP24QGraphicsSceneHoverEvent" PURGE="0" COMMENT="" />
    <EXPORT ORDINAL="4034" NAME="_ZThn16_N8QtCharts11BoxWhiskers15mousePressEventEP24QGraphicsSceneMouseEvent" PURGE="0" COMMENT="" />
    <EXPORT ORDINAL="4035" NAME="_ZThn16_N8QtCharts11BoxWhiskers17mouseReleaseEventEP24QGraphicsSceneMouseEvent" PURGE="0" COMMENT="" />
    <EXPORT ORDINAL="4036" NAME="_ZThn16_N8QtCharts11BoxWhiskers21mouseDoubleClickEventEP24QGraphicsSceneMouseEvent" PURGE="0" COMMENT="" />
    <EXPORT ORDINAL="4037" NAME="_ZThn16_N8QtCharts11BoxWhiskers5paintEP8QPainterPK24QStyleOptionGraphicsItemP7QWidget" PURGE="0" COMMENT="" />
    <EXPORT ORDINAL="4038" NAME="_ZThn16_N8QtCharts11BoxWhiskersD0Ev" PURGE="-1" COMMENT="" />
    <EXPORT ORDINAL="4039" NAME="_ZThn16_N8QtCharts11BoxWhiskersD1Ev" PURGE="-1" COMMENT="" />
    <EXPORT ORDINAL="4040" NAME="_ZThn16_N8QtCharts11Candlestick15hoverEnterEventEP24QGraphicsSceneHoverEvent" PURGE="0" COMMENT="" />
    <EXPORT ORDINAL="4041" NAME="_ZThn16_N8QtCharts11Candlestick15hoverLeaveEventEP24QGraphicsSceneHoverEvent" PURGE="0" COMMENT="" />
    <EXPORT ORDINAL="4042" NAME="_ZThn16_N8QtCharts11Candlestick15mousePressEventEP24QGraphicsSceneMouseEvent" PURGE="0" COMMENT="" />
    <EXPORT ORDINAL="4043" NAME="_ZThn16_N8QtCharts11Candlestick17mouseReleaseEventEP24QGraphicsSceneMouseEvent" PURGE="0" COMMENT="" />
    <EXPORT ORDINAL="4044" NAME="_ZThn16_N8QtCharts11Candlestick21mouseDoubleClickEventEP24QGraphicsSceneMouseEvent" PURGE="0" COMMENT="" />
    <EXPORT ORDINAL="4045" NAME="_ZThn16_N8QtCharts11Candlestick5paintEP8QPainterPK24QStyleOptionGraphicsItemP7QWidget" PURGE="0" COMMENT="" />
    <EXPORT ORDINAL="4046" NAME="_ZThn16_N8QtCharts11CandlestickD0Ev" PURGE="-1" COMMENT="" />
    <EXPORT ORDINAL="4047" NAME="_ZThn16_N8QtCharts11CandlestickD1Ev" PURGE="0" COMMENT="" />
    <EXPORT ORDINAL="4048" NAME="_ZThn16_N8QtCharts11QPolarChartD0Ev" PURGE="-1" COMMENT="" />
    <EXPORT ORDINAL="4049" NAME="_ZThn16_N8QtCharts11QPolarChartD1Ev" PURGE="-1" COMMENT="" />
    <EXPORT ORDINAL="4050" NAME="_ZThn16_N8QtCharts12BarChartItemD0Ev" PURGE="-1" COMMENT="" />
    <EXPORT ORDINAL="4051" NAME="_ZThn16_N8QtCharts12BarChartItemD1Ev" PURGE="-1" COMMENT="" />
    <EXPORT ORDINAL="4052" NAME="_ZThn16_N8QtCharts12PieChartItem15hoverEnterEventEP24QGraphicsSceneHoverEvent" PURGE="0" COMMENT="" />
    <EXPORT ORDINAL="4053" NAME="_ZThn16_N8QtCharts12PieChartItem15hoverLeaveEventEP24QGraphicsSceneHoverEvent" PURGE="0" COMMENT="" />
    <EXPORT ORDINAL="4054" NAME="_ZThn16_N8QtCharts12PieChartItem15mousePressEventEP24QGraphicsSceneMouseEvent" PURGE="0" COMMENT="" />
    <EXPORT ORDINAL="4055" NAME="_ZThn16_N8QtCharts12PieChartItem17mouseReleaseEventEP24QGraphicsSceneMouseEvent" PURGE="0" COMMENT="" />
    <EXPORT ORDINAL="4056" NAME="_ZThn16_N8QtCharts12PieChartItem21mouseDoubleClickEventEP24QGraphicsSceneMouseEvent" PURGE="0" COMMENT="" />
    <EXPORT ORDINAL="4057" NAME="_ZThn16_N8QtCharts12PieChartItem5paintEP8QPainterPK24QStyleOptionGraphicsItemP7QWidget" PURGE="0" COMMENT="" />
    <EXPORT ORDINAL="4058" NAME="_ZThn16_N8QtCharts12PieChartItemD0Ev" PURGE="-1" COMMENT="" />
    <EXPORT ORDINAL="4059" NAME="_ZThn16_N8QtCharts12PieChartItemD1Ev" PURGE="-1" COMMENT="" />
    <EXPORT ORDINAL="4060" NAME="_ZThn16_N8QtCharts12PieSliceItem15hoverEnterEventEP24QGraphicsSceneHoverEvent" PURGE="0" COMMENT="" />
    <EXPORT ORDINAL="4061" NAME="_ZThn16_N8QtCharts12PieSliceItem15hoverLeaveEventEP24QGraphicsSceneHoverEvent" PURGE="0" COMMENT="" />
    <EXPORT ORDINAL="4062" NAME="_ZThn16_N8QtCharts12PieSliceItem15mousePressEventEP24QGraphicsSceneMouseEvent" PURGE="0" COMMENT="" />
    <EXPORT ORDINAL="4063" NAME="_ZThn16_N8QtCharts12PieSliceItem17mouseReleaseEventEP24QGraphicsSceneMouseEvent" PURGE="0" COMMENT="" />
    <EXPORT ORDINAL="4064" NAME="_ZThn16_N8QtCharts12PieSliceItem21mouseDoubleClickEventEP24QGraphicsSceneMouseEvent" PURGE="0" COMMENT="" />
    <EXPORT ORDINAL="4065" NAME="_ZThn16_N8QtCharts12PieSliceItem5paintEP8QPainterPK24QStyleOptionGraphicsItemP7QWidget" PURGE="0" COMMENT="" />
    <EXPORT ORDINAL="4066" NAME="_ZThn16_N8QtCharts12PieSliceItemD0Ev" PURGE="-1" COMMENT="" />
    <EXPORT ORDINAL="4067" NAME="_ZThn16_N8QtCharts12PieSliceItemD1Ev" PURGE="0" COMMENT="" />
    <EXPORT ORDINAL="4068" NAME="_ZThn16_N8QtCharts12VerticalAxisD0Ev" PURGE="-1" COMMENT="" />
    <EXPORT ORDINAL="4069" NAME="_ZThn16_N8QtCharts12VerticalAxisD1Ev" PURGE="-1" COMMENT="" />
    <EXPORT ORDINAL="4070" NAME="_ZThn16_N8QtCharts13AreaBoundItemD0Ev" PURGE="-1" COMMENT="" />
    <EXPORT ORDINAL="4071" NAME="_ZThn16_N8QtCharts13AreaBoundItemD1Ev" PURGE="-1" COMMENT="" />
    <EXPORT ORDINAL="4072" NAME="_ZThn16_N8QtCharts13AreaChartItem15hoverEnterEventEP24QGraphicsSceneHoverEvent" PURGE="0" COMMENT="" />
    <EXPORT ORDINAL="4073" NAME="_ZThn16_N8QtCharts13AreaChartItem15hoverLeaveEventEP24QGraphicsSceneHoverEvent" PURGE="0" COMMENT="" />
    <EXPORT ORDINAL="4074" NAME="_ZThn16_N8QtCharts13AreaChartItem15mousePressEventEP24QGraphicsSceneMouseEvent" PURGE="0" COMMENT="" />
    <EXPORT ORDINAL="4075" NAME="_ZThn16_N8QtCharts13AreaChartItem17mouseReleaseEventEP24QGraphicsSceneMouseEvent" PURGE="0" COMMENT="" />
    <EXPORT ORDINAL="4076" NAME="_ZThn16_N8QtCharts13AreaChartItem21mouseDoubleClickEventEP24QGraphicsSceneMouseEvent" PURGE="0" COMMENT="" />
    <EXPORT ORDINAL="4077" NAME="_ZThn16_N8QtCharts13AreaChartItem5paintEP8QPainterPK24QStyleOptionGraphicsItemP7QWidget" PURGE="0" COMMENT="" />
    <EXPORT ORDINAL="4078" NAME="_ZThn16_N8QtCharts13AreaChartItemD0Ev" PURGE="-1" COMMENT="" />
    <EXPORT ORDINAL="4079" NAME="_ZThn16_N8QtCharts13AreaChartItemD1Ev" PURGE="-1" COMMENT="" />
    <EXPORT ORDINAL="4080" NAME="_ZThn16_N8QtCharts13LineChartItem15hoverEnterEventEP24QGraphicsSceneHoverEvent" PURGE="0" COMMENT="" />
    <EXPORT ORDINAL="4081" NAME="_ZThn16_N8QtCharts13LineChartItem15hoverLeaveEventEP24QGraphicsSceneHoverEvent" PURGE="0" COMMENT="" />
    <EXPORT ORDINAL="4082" NAME="_ZThn16_N8QtCharts13LineChartItem15mousePressEventEP24QGraphicsSceneMouseEvent" PURGE="0" COMMENT="" />
    <EXPORT ORDINAL="4083" NAME="_ZThn16_N8QtCharts13LineChartItem17mouseReleaseEventEP24QGraphicsSceneMouseEvent" PURGE="0" COMMENT="" />
    <EXPORT ORDINAL="4084" NAME="_ZThn16_N8QtCharts13LineChartItem21mouseDoubleClickEventEP24QGraphicsSceneMouseEvent" PURGE="0" COMMENT="" />
    <EXPORT ORDINAL="4085" NAME="_ZThn16_N8QtCharts13LineChartItem5paintEP8QPainterPK24QStyleOptionGraphicsItemP7QWidget" PURGE="0" COMMENT="" />
    <EXPORT ORDINAL="4086" NAME="_ZThn16_N8QtCharts13LineChartItemD0Ev" PURGE="-1" COMMENT="" />
    <EXPORT ORDINAL="4087" NAME="_ZThn16_N8QtCharts13LineChartItemD1Ev" PURGE="-1" COMMENT="" />
    <EXPORT ORDINAL="4088" NAME="_ZThn16_N8QtCharts14HorizontalAxisD0Ev" PURGE="-1" COMMENT="" />
    <EXPORT ORDINAL="4089" NAME="_ZThn16_N8QtCharts14HorizontalAxisD1Ev" PURGE="-1" COMMENT="" />
    <EXPORT ORDINAL="4090" NAME="_ZThn16_N8QtCharts14LegendScroller14mouseMoveEventEP24QGraphicsSceneMouseEvent" PURGE="0" COMMENT="" />
    <EXPORT ORDINAL="4091" NAME="_ZThn16_N8QtCharts14LegendScroller15mousePressEventEP24QGraphicsSceneMouseEvent" PURGE="0" COMMENT="" />
    <EXPORT ORDINAL="4092" NAME="_ZThn16_N8QtCharts14LegendScroller17mouseReleaseEventEP24QGraphicsSceneMouseEvent" PURGE="0" COMMENT="" />
    <EXPORT ORDINAL="4093" NAME="_ZThn16_N8QtCharts14LegendScrollerD0Ev" PURGE="-1" COMMENT="" />
    <EXPORT ORDINAL="4094" NAME="_ZThn16_N8QtCharts14LegendScrollerD1Ev" PURGE="-1" COMMENT="" />
    <EXPORT ORDINAL="4095" NAME="_ZThn16_N8QtCharts14PolarChartAxisD0Ev" PURGE="-1" COMMENT="" />
    <EXPORT ORDINAL="4096" NAME="_ZThn16_N8QtCharts14PolarChartAxisD1Ev" PURGE="-1" COMMENT="" />
    <EXPORT ORDINAL="4097" NAME="_ZThn16_N8QtCharts15ChartValueAxisXD0Ev" PURGE="-1" COMMENT="" />
    <EXPORT ORDINAL="4098" NAME="_ZThn16_N8QtCharts15ChartValueAxisXD1Ev" PURGE="-1" COMMENT="" />
    <EXPORT ORDINAL="4099" NAME="_ZThn16_N8QtCharts15ChartValueAxisYD0Ev" PURGE="-1" COMMENT="" />
    <EXPORT ORDINAL="4100" NAME="_ZThn16_N8QtCharts15ChartValueAxisYD1Ev" PURGE="-1" COMMENT="" />
    <EXPORT ORDINAL="4101" NAME="_ZThn16_N8QtCharts15SplineChartItem15hoverEnterEventEP24QGraphicsSceneHoverEvent" PURGE="0" COMMENT="" />
    <EXPORT ORDINAL="4102" NAME="_ZThn16_N8QtCharts15SplineChartItem15hoverLeaveEventEP24QGraphicsSceneHoverEvent" PURGE="0" COMMENT="" />
    <EXPORT ORDINAL="4103" NAME="_ZThn16_N8QtCharts15SplineChartItem15mousePressEventEP24QGraphicsSceneMouseEvent" PURGE="0" COMMENT="" />
    <EXPORT ORDINAL="4104" NAME="_ZThn16_N8QtCharts15SplineChartItem17mouseReleaseEventEP24QGraphicsSceneMouseEvent" PURGE="0" COMMENT="" />
    <EXPORT ORDINAL="4105" NAME="_ZThn16_N8QtCharts15SplineChartItem21mouseDoubleClickEventEP24QGraphicsSceneMouseEvent" PURGE="0" COMMENT="" />
    <EXPORT ORDINAL="4106" NAME="_ZThn16_N8QtCharts15SplineChartItem5paintEP8QPainterPK24QStyleOptionGraphicsItemP7QWidget" PURGE="0" COMMENT="" />
    <EXPORT ORDINAL="4107" NAME="_ZThn16_N8QtCharts15SplineChartItemD0Ev" PURGE="-1" COMMENT="" />
    <EXPORT ORDINAL="4108" NAME="_ZThn16_N8QtCharts15SplineChartItemD1Ev" PURGE="-1" COMMENT="" />
    <EXPORT ORDINAL="4109" NAME="_ZThn16_N8QtCharts16BoxPlotChartItem5paintEP8QPainterPK24QStyleOptionGraphicsItemP7QWidget" PURGE="0" COMMENT="" />
    <EXPORT ORDINAL="4110" NAME="_ZThn16_N8QtCharts16BoxPlotChartItemD0Ev" PURGE="-1" COMMENT="" />
    <EXPORT ORDINAL="4111" NAME="_ZThn16_N8QtCharts16BoxPlotChartItemD1Ev" PURGE="-1" COMMENT="" />
    <EXPORT ORDINAL="4112" NAME="_ZThn16_N8QtCharts16ChartAxisElement5paintEP8QPainterPK24QStyleOptionGraphicsItemP7QWidget" PURGE="0" COMMENT="" />
    <EXPORT ORDINAL="4113" NAME="_ZThn16_N8QtCharts16ChartAxisElementD0Ev" PURGE="-1" COMMENT="" />
    <EXPORT ORDINAL="4114" NAME="_ZThn16_N8QtCharts16ChartAxisElementD1Ev" PURGE="-1" COMMENT="" />
    <EXPORT ORDINAL="4115" NAME="_ZThn16_N8QtCharts16LegendMarkerItem15hoverEnterEventEP24QGraphicsSceneHoverEvent" PURGE="0" COMMENT="" />
    <EXPORT ORDINAL="4116" NAME="_ZThn16_N8QtCharts16LegendMarkerItem15hoverLeaveEventEP24QGraphicsSceneHoverEvent" PURGE="0" COMMENT="" />
    <EXPORT ORDINAL="4117" NAME="_ZThn16_N8QtCharts16LegendMarkerItem5paintEP8QPainterPK24QStyleOptionGraphicsItemP7QWidget" PURGE="0" COMMENT="" />
    <EXPORT ORDINAL="4118" NAME="_ZThn16_N8QtCharts16LegendMarkerItemD0Ev" PURGE="-1" COMMENT="" />
    <EXPORT ORDINAL="4119" NAME="_ZThn16_N8QtCharts16LegendMarkerItemD1Ev" PURGE="-1" COMMENT="" />
    <EXPORT ORDINAL="4120" NAME="_ZThn16_N8QtCharts16ScatterChartItem5paintEP8QPainterPK24QStyleOptionGraphicsItemP7QWidget" PURGE="0" COMMENT="" />
    <EXPORT ORDINAL="4121" NAME="_ZThn16_N8QtCharts16ScatterChartItemD0Ev" PURGE="-1" COMMENT="" />
    <EXPORT ORDINAL="4122" NAME="_ZThn16_N8QtCharts16ScatterChartItemD1Ev" PURGE="-1" COMMENT="" />
    <EXPORT ORDINAL="4123" NAME="_ZThn16_N8QtCharts18CartesianChartAxisD0Ev" PURGE="-1" COMMENT="" />
    <EXPORT ORDINAL="4124" NAME="_ZThn16_N8QtCharts18CartesianChartAxisD1Ev" PURGE="-1" COMMENT="" />
    <EXPORT ORDINAL="4125" NAME="_ZThn16_N8QtCharts18ChartCategoryAxisXD0Ev" PURGE="-1" COMMENT="" />
    <EXPORT ORDINAL="4126" NAME="_ZThn16_N8QtCharts18ChartCategoryAxisXD1Ev" PURGE="-1" COMMENT="" />
    <EXPORT ORDINAL="4127" NAME="_ZThn16_N8QtCharts18ChartCategoryAxisYD0Ev" PURGE="-1" COMMENT="" />
    <EXPORT ORDINAL="4128" NAME="_ZThn16_N8QtCharts18ChartCategoryAxisYD1Ev" PURGE="-1" COMMENT="" />
    <EXPORT ORDINAL="4129" NAME="_ZThn16_N8QtCharts18ChartDateTimeAxisXD0Ev" PURGE="-1" COMMENT="" />
    <EXPORT ORDINAL="4130" NAME="_ZThn16_N8QtCharts18ChartDateTimeAxisXD1Ev" PURGE="-1" COMMENT="" />
    <EXPORT ORDINAL="4131" NAME="_ZThn16_N8QtCharts18ChartDateTimeAxisYD0Ev" PURGE="-1" COMMENT="" />
    <EXPORT ORDINAL="4132" NAME="_ZThn16_N8QtCharts18ChartDateTimeAxisYD1Ev" PURGE="-1" COMMENT="" />
    <EXPORT ORDINAL="4133" NAME="_ZThn16_N8QtCharts18ChartLogValueAxisXD0Ev" PURGE="-1" COMMENT="" />
    <EXPORT ORDINAL="4134" NAME="_ZThn16_N8QtCharts18ChartLogValueAxisXD1Ev" PURGE="-1" COMMENT="" />
    <EXPORT ORDINAL="4135" NAME="_ZThn16_N8QtCharts18ChartLogValueAxisYD0Ev" PURGE="-1" COMMENT="" />
    <EXPORT ORDINAL="4136" NAME="_ZThn16_N8QtCharts18ChartLogValueAxisYD1Ev" PURGE="-1" COMMENT="" />
    <EXPORT ORDINAL="4137" NAME="_ZThn16_N8QtCharts19PercentBarChartItemD0Ev" PURGE="-1" COMMENT="" />
    <EXPORT ORDINAL="4138" NAME="_ZThn16_N8QtCharts19PercentBarChartItemD1Ev" PURGE="-1" COMMENT="" />
    <EXPORT ORDINAL="4139" NAME="_ZThn16_N8QtCharts19StackedBarChartItemD0Ev" PURGE="-1" COMMENT="" />
    <EXPORT ORDINAL="4140" NAME="_ZThn16_N8QtCharts19StackedBarChartItemD1Ev" PURGE="-1" COMMENT="" />
    <EXPORT ORDINAL="4141" NAME="_ZThn16_N8QtCharts20AbstractBarChartItem5paintEP8QPainterPK24QStyleOptionGraphicsItemP7QWidget" PURGE="0" COMMENT="" />
    <EXPORT ORDINAL="4142" NAME="_ZThn16_N8QtCharts20AbstractBarChartItemD0Ev" PURGE="-1" COMMENT="" />
    <EXPORT ORDINAL="4143" NAME="_ZThn16_N8QtCharts20AbstractBarChartItemD1Ev" PURGE="-1" COMMENT="" />
    <EXPORT ORDINAL="4144" NAME="_ZThn16_N8QtCharts20CandlestickChartItem5paintEP8QPainterPK24QStyleOptionGraphicsItemP7QWidget" PURGE="0" COMMENT="" />
    <EXPORT ORDINAL="4145" NAME="_ZThn16_N8QtCharts20CandlestickChartItemD0Ev" PURGE="-1" COMMENT="" />
    <EXPORT ORDINAL="4146" NAME="_ZThn16_N8QtCharts20CandlestickChartItemD1Ev" PURGE="-1" COMMENT="" />
    <EXPORT ORDINAL="4147" NAME="_ZThn16_N8QtCharts20PolarChartAxisRadialD0Ev" PURGE="-1" COMMENT="" />
    <EXPORT ORDINAL="4148" NAME="_ZThn16_N8QtCharts20PolarChartAxisRadialD1Ev" PURGE="-1" COMMENT="" />
    <EXPORT ORDINAL="4149" NAME="_ZThn16_N8QtCharts21ChartBarCategoryAxisXD0Ev" PURGE="-1" COMMENT="" />
    <EXPORT ORDINAL="4150" NAME="_ZThn16_N8QtCharts21ChartBarCategoryAxisXD1Ev" PURGE="-1" COMMENT="" />
    <EXPORT ORDINAL="4151" NAME="_ZThn16_N8QtCharts21ChartBarCategoryAxisYD0Ev" PURGE="-1" COMMENT="" />
    <EXPORT ORDINAL="4152" NAME="_ZThn16_N8QtCharts21ChartBarCategoryAxisYD1Ev" PURGE="-1" COMMENT="" />
    <EXPORT ORDINAL="4153" NAME="_ZThn16_N8QtCharts21PolarChartAxisAngularD0Ev" PURGE="-1" COMMENT="" />
    <EXPORT ORDINAL="4154" NAME="_ZThn16_N8QtCharts21PolarChartAxisAngularD1Ev" PURGE="-1" COMMENT="" />
    <EXPORT ORDINAL="4155" NAME="_ZThn16_N8QtCharts22HorizontalBarChartItemD0Ev" PURGE="-1" COMMENT="" />
    <EXPORT ORDINAL="4156" NAME="_ZThn16_N8QtCharts22HorizontalBarChartItemD1Ev" PURGE="-1" COMMENT="" />
    <EXPORT ORDINAL="4157" NAME="_ZThn16_N8QtCharts25PolarChartValueAxisRadialD0Ev" PURGE="-1" COMMENT="" />
    <EXPORT ORDINAL="4158" NAME="_ZThn16_N8QtCharts25PolarChartValueAxisRadialD1Ev" PURGE="-1" COMMENT="" />
    <EXPORT ORDINAL="4159" NAME="_ZThn16_N8QtCharts26PolarChartValueAxisAngularD0Ev" PURGE="-1" COMMENT="" />
    <EXPORT ORDINAL="4160" NAME="_ZThn16_N8QtCharts26PolarChartValueAxisAngularD1Ev" PURGE="-1" COMMENT="" />
    <EXPORT ORDINAL="4161" NAME="_ZThn16_N8QtCharts28PolarChartCategoryAxisRadialD0Ev" PURGE="-1" COMMENT="" />
    <EXPORT ORDINAL="4162" NAME="_ZThn16_N8QtCharts28PolarChartCategoryAxisRadialD1Ev" PURGE="-1" COMMENT="" />
    <EXPORT ORDINAL="4163" NAME="_ZThn16_N8QtCharts28PolarChartDateTimeAxisRadialD0Ev" PURGE="-1" COMMENT="" />
    <EXPORT ORDINAL="4164" NAME="_ZThn16_N8QtCharts28PolarChartDateTimeAxisRadialD1Ev" PURGE="-1" COMMENT="" />
    <EXPORT ORDINAL="4165" NAME="_ZThn16_N8QtCharts28PolarChartLogValueAxisRadialD0Ev" PURGE="-1" COMMENT="" />
    <EXPORT ORDINAL="4166" NAME="_ZThn16_N8QtCharts28PolarChartLogValueAxisRadialD1Ev" PURGE="-1" COMMENT="" />
    <EXPORT ORDINAL="4167" NAME="_ZThn16_N8QtCharts29HorizontalPercentBarChartItemD0Ev" PURGE="-1" COMMENT="" />
    <EXPORT ORDINAL="4168" NAME="_ZThn16_N8QtCharts29HorizontalPercentBarChartItemD1Ev" PURGE="-1" COMMENT="" />
    <EXPORT ORDINAL="4169" NAME="_ZThn16_N8QtCharts29HorizontalStackedBarChartItemD0Ev" PURGE="-1" COMMENT="" />
    <EXPORT ORDINAL="4170" NAME="_ZThn16_N8QtCharts29HorizontalStackedBarChartItemD1Ev" PURGE="-1" COMMENT="" />
    <EXPORT ORDINAL="4171" NAME="_ZThn16_N8QtCharts29PolarChartCategoryAxisAngularD0Ev" PURGE="-1" COMMENT="" />
    <EXPORT ORDINAL="4172" NAME="_ZThn16_N8QtCharts29PolarChartCategoryAxisAngularD1Ev" PURGE="-1" COMMENT="" />
    <EXPORT ORDINAL="4173" NAME="_ZThn16_N8QtCharts29PolarChartDateTimeAxisAngularD0Ev" PURGE="-1" COMMENT="" />
    <EXPORT ORDINAL="4174" NAME="_ZThn16_N8QtCharts29PolarChartDateTimeAxisAngularD1Ev" PURGE="-1" COMMENT="" />
    <EXPORT ORDINAL="4175" NAME="_ZThn16_N8QtCharts29PolarChartLogValueAxisAngularD0Ev" PURGE="-1" COMMENT="" />
    <EXPORT ORDINAL="4176" NAME="_ZThn16_N8QtCharts29PolarChartLogValueAxisAngularD1Ev" PURGE="-1" COMMENT="" />
    <EXPORT ORDINAL="4177" NAME="_ZThn16_N8QtCharts3Bar15hoverEnterEventEP24QGraphicsSceneHoverEvent" PURGE="0" COMMENT="" />
    <EXPORT ORDINAL="4178" NAME="_ZThn16_N8QtCharts3Bar15hoverLeaveEventEP24QGraphicsSceneHoverEvent" PURGE="0" COMMENT="" />
    <EXPORT ORDINAL="4179" NAME="_ZThn16_N8QtCharts3Bar15mousePressEventEP24QGraphicsSceneMouseEvent" PURGE="0" COMMENT="" />
    <EXPORT ORDINAL="4180" NAME="_ZThn16_N8QtCharts3Bar17mouseReleaseEventEP24QGraphicsSceneMouseEvent" PURGE="0" COMMENT="" />
    <EXPORT ORDINAL="4181" NAME="_ZThn16_N8QtCharts3Bar21mouseDoubleClickEventEP24QGraphicsSceneMouseEvent" PURGE="0" COMMENT="" />
    <EXPORT ORDINAL="4182" NAME="_ZThn16_N8QtCharts3Bar5paintEP8QPainterPK24QStyleOptionGraphicsItemP7QWidget" PURGE="0" COMMENT="" />
    <EXPORT ORDINAL="4183" NAME="_ZThn16_N8QtCharts3BarD0Ev" PURGE="-1" COMMENT="" />
    <EXPORT ORDINAL="4184" NAME="_ZThn16_N8QtCharts3BarD1Ev" PURGE="0" COMMENT="" />
    <EXPORT ORDINAL="4185" NAME="_ZThn16_N8QtCharts6QChartD0Ev" PURGE="-1" COMMENT="" />
    <EXPORT ORDINAL="4186" NAME="_ZThn16_N8QtCharts6QChartD1Ev" PURGE="-1" COMMENT="" />
    <EXPORT ORDINAL="4187" NAME="_ZThn16_N8QtCharts7QLegend5paintEP8QPainterPK24QStyleOptionGraphicsItemP7QWidget" PURGE="0" COMMENT="" />
    <EXPORT ORDINAL="4188" NAME="_ZThn16_N8QtCharts7QLegendD0Ev" PURGE="-1" COMMENT="" />
    <EXPORT ORDINAL="4189" NAME="_ZThn16_N8QtCharts7QLegendD1Ev" PURGE="-1" COMMENT="" />
    <EXPORT ORDINAL="4190" NAME="_ZThn16_NK8QtCharts11BoxWhiskers12boundingRectEv" PURGE="0" COMMENT="" />
    <EXPORT ORDINAL="4191" NAME="_ZThn16_NK8QtCharts11Candlestick12boundingRectEv" PURGE="0" COMMENT="" />
    <EXPORT ORDINAL="4192" NAME="_ZThn16_NK8QtCharts12PieChartItem12boundingRectEv" PURGE="0" COMMENT="" />
    <EXPORT ORDINAL="4193" NAME="_ZThn16_NK8QtCharts12PieSliceItem12boundingRectEv" PURGE="0" COMMENT="" />
    <EXPORT ORDINAL="4194" NAME="_ZThn16_NK8QtCharts12PieSliceItem5shapeEv" PURGE="0" COMMENT="" />
    <EXPORT ORDINAL="4195" NAME="_ZThn16_NK8QtCharts13AreaChartItem12boundingRectEv" PURGE="0" COMMENT="" />
    <EXPORT ORDINAL="4196" NAME="_ZThn16_NK8QtCharts13AreaChartItem5shapeEv" PURGE="0" COMMENT="" />
    <EXPORT ORDINAL="4197" NAME="_ZThn16_NK8QtCharts13LineChartItem12boundingRectEv" PURGE="0" COMMENT="" />
    <EXPORT ORDINAL="4198" NAME="_ZThn16_NK8QtCharts13LineChartItem5shapeEv" PURGE="0" COMMENT="" />
    <EXPORT ORDINAL="4199" NAME="_ZThn16_NK8QtCharts15SplineChartItem12boundingRectEv" PURGE="0" COMMENT="" />
    <EXPORT ORDINAL="4200" NAME="_ZThn16_NK8QtCharts15SplineChartItem5shapeEv" PURGE="0" COMMENT="" />
    <EXPORT ORDINAL="4201" NAME="_ZThn16_NK8QtCharts16BoxPlotChartItem12boundingRectEv" PURGE="0" COMMENT="" />
    <EXPORT ORDINAL="4202" NAME="_ZThn16_NK8QtCharts16ChartAxisElement12boundingRectEv" PURGE="0" COMMENT="" />
    <EXPORT ORDINAL="4203" NAME="_ZThn16_NK8QtCharts16LegendMarkerItem12boundingRectEv" PURGE="0" COMMENT="" />
    <EXPORT ORDINAL="4204" NAME="_ZThn16_NK8QtCharts16ScatterChartItem12boundingRectEv" PURGE="0" COMMENT="" />
    <EXPORT ORDINAL="4205" NAME="_ZThn16_NK8QtCharts20AbstractBarChartItem12boundingRectEv" PURGE="0" COMMENT="" />
    <EXPORT ORDINAL="4206" NAME="_ZThn16_NK8QtCharts20CandlestickChartItem12boundingRectEv" PURGE="0" COMMENT="" />
    <EXPORT ORDINAL="4207" NAME="_ZThn32_N8QtCharts11QPolarChartD0Ev" PURGE="-1" COMMENT="" />
    <EXPORT ORDINAL="4208" NAME="_ZThn32_N8QtCharts11QPolarChartD1Ev" PURGE="-1" COMMENT="" />
    <EXPORT ORDINAL="4209" NAME="_ZThn32_N8QtCharts14LegendScrollerD0Ev" PURGE="-1" COMMENT="" />
    <EXPORT ORDINAL="4210" NAME="_ZThn32_N8QtCharts14LegendScrollerD1Ev" PURGE="-1" COMMENT="" />
    <EXPORT ORDINAL="4211" NAME="_ZThn32_N8QtCharts16LegendMarkerItem11setGeometryERK6QRectF" PURGE="0" COMMENT="" />
    <EXPORT ORDINAL="4212" NAME="_ZThn32_N8QtCharts16LegendMarkerItemD0Ev" PURGE="-1" COMMENT="" />
    <EXPORT ORDINAL="4213" NAME="_ZThn32_N8QtCharts16LegendMarkerItemD1Ev" PURGE="-1" COMMENT="" />
    <EXPORT ORDINAL="4214" NAME="_ZThn32_N8QtCharts6QChartD0Ev" PURGE="-1" COMMENT="" />
    <EXPORT ORDINAL="4215" NAME="_ZThn32_N8QtCharts6QChartD1Ev" PURGE="-1" COMMENT="" />
    <EXPORT ORDINAL="4216" NAME="_ZThn32_N8QtCharts7QLegendD0Ev" PURGE="-1" COMMENT="" />
    <EXPORT ORDINAL="4217" NAME="_ZThn32_N8QtCharts7QLegendD1Ev" PURGE="-1" COMMENT="" />
    <EXPORT ORDINAL="4218" NAME="_ZThn32_NK8QtCharts16LegendMarkerItem8sizeHintEN2Qt8SizeHintERK6QSizeF" PURGE="0" COMMENT="" />
    <EXPORT ORDINAL="4219" NAME="_ZThn56_N8QtCharts12VerticalAxis14updateGeometryEv" PURGE="0" COMMENT="" />
    <EXPORT ORDINAL="4220" NAME="_ZThn56_N8QtCharts12VerticalAxisD0Ev" PURGE="-1" COMMENT="" />
    <EXPORT ORDINAL="4221" NAME="_ZThn56_N8QtCharts12VerticalAxisD1Ev" PURGE="-1" COMMENT="" />
    <EXPORT ORDINAL="4222" NAME="_ZThn56_N8QtCharts14HorizontalAxis14updateGeometryEv" PURGE="0" COMMENT="" />
    <EXPORT ORDINAL="4223" NAME="_ZThn56_N8QtCharts14HorizontalAxisD0Ev" PURGE="-1" COMMENT="" />
    <EXPORT ORDINAL="4224" NAME="_ZThn56_N8QtCharts14HorizontalAxisD1Ev" PURGE="-1" COMMENT="" />
    <EXPORT ORDINAL="4225" NAME="_ZThn56_N8QtCharts14LegendScroller9setOffsetERK7QPointF" PURGE="0" COMMENT="" />
    <EXPORT ORDINAL="4226" NAME="_ZThn56_N8QtCharts14LegendScrollerD0Ev" PURGE="-1" COMMENT="" />
    <EXPORT ORDINAL="4227" NAME="_ZThn56_N8QtCharts14LegendScrollerD1Ev" PURGE="-1" COMMENT="" />
    <EXPORT ORDINAL="4228" NAME="_ZThn56_N8QtCharts14PolarChartAxisD0Ev" PURGE="-1" COMMENT="" />
    <EXPORT ORDINAL="4229" NAME="_ZThn56_N8QtCharts14PolarChartAxisD1Ev" PURGE="-1" COMMENT="" />
    <EXPORT ORDINAL="4230" NAME="_ZThn56_N8QtCharts15ChartValueAxisX14updateGeometryEv" PURGE="0" COMMENT="" />
    <EXPORT ORDINAL="4231" NAME="_ZThn56_N8QtCharts15ChartValueAxisXD0Ev" PURGE="-1" COMMENT="" />
    <EXPORT ORDINAL="4232" NAME="_ZThn56_N8QtCharts15ChartValueAxisXD1Ev" PURGE="-1" COMMENT="" />
    <EXPORT ORDINAL="4233" NAME="_ZThn56_N8QtCharts15ChartValueAxisY14updateGeometryEv" PURGE="0" COMMENT="" />
    <EXPORT ORDINAL="4234" NAME="_ZThn56_N8QtCharts15ChartValueAxisYD0Ev" PURGE="-1" COMMENT="" />
    <EXPORT ORDINAL="4235" NAME="_ZThn56_N8QtCharts15ChartValueAxisYD1Ev" PURGE="-1" COMMENT="" />
    <EXPORT ORDINAL="4236" NAME="_ZThn56_N8QtCharts16ChartAxisElementD0Ev" PURGE="-1" COMMENT="" />
    <EXPORT ORDINAL="4237" NAME="_ZThn56_N8QtCharts16ChartAxisElementD1Ev" PURGE="-1" COMMENT="" />
    <EXPORT ORDINAL="4238" NAME="_ZThn56_N8QtCharts18CartesianChartAxis11setGeometryERK6QRectF" PURGE="0" COMMENT="" />
    <EXPORT ORDINAL="4239" NAME="_ZThn56_N8QtCharts18CartesianChartAxisD0Ev" PURGE="-1" COMMENT="" />
    <EXPORT ORDINAL="4240" NAME="_ZThn56_N8QtCharts18CartesianChartAxisD1Ev" PURGE="-1" COMMENT="" />
    <EXPORT ORDINAL="4241" NAME="_ZThn56_N8QtCharts18ChartCategoryAxisX14updateGeometryEv" PURGE="0" COMMENT="" />
    <EXPORT ORDINAL="4242" NAME="_ZThn56_N8QtCharts18ChartCategoryAxisXD0Ev" PURGE="-1" COMMENT="" />
    <EXPORT ORDINAL="4243" NAME="_ZThn56_N8QtCharts18ChartCategoryAxisXD1Ev" PURGE="-1" COMMENT="" />
    <EXPORT ORDINAL="4244" NAME="_ZThn56_N8QtCharts18ChartCategoryAxisY14updateGeometryEv" PURGE="0" COMMENT="" />
    <EXPORT ORDINAL="4245" NAME="_ZThn56_N8QtCharts18ChartCategoryAxisYD0Ev" PURGE="-1" COMMENT="" />
    <EXPORT ORDINAL="4246" NAME="_ZThn56_N8QtCharts18ChartCategoryAxisYD1Ev" PURGE="-1" COMMENT="" />
    <EXPORT ORDINAL="4247" NAME="_ZThn56_N8QtCharts18ChartDateTimeAxisX14updateGeometryEv" PURGE="0" COMMENT="" />
    <EXPORT ORDINAL="4248" NAME="_ZThn56_N8QtCharts18ChartDateTimeAxisXD0Ev" PURGE="-1" COMMENT="" />
    <EXPORT ORDINAL="4249" NAME="_ZThn56_N8QtCharts18ChartDateTimeAxisXD1Ev" PURGE="-1" COMMENT="" />
    <EXPORT ORDINAL="4250" NAME="_ZThn56_N8QtCharts18ChartDateTimeAxisY14updateGeometryEv" PURGE="0" COMMENT="" />
    <EXPORT ORDINAL="4251" NAME="_ZThn56_N8QtCharts18ChartDateTimeAxisYD0Ev" PURGE="-1" COMMENT="" />
    <EXPORT ORDINAL="4252" NAME="_ZThn56_N8QtCharts18ChartDateTimeAxisYD1Ev" PURGE="-1" COMMENT="" />
    <EXPORT ORDINAL="4253" NAME="_ZThn56_N8QtCharts18ChartLogValueAxisX14updateGeometryEv" PURGE="0" COMMENT="" />
    <EXPORT ORDINAL="4254" NAME="_ZThn56_N8QtCharts18ChartLogValueAxisXD0Ev" PURGE="-1" COMMENT="" />
    <EXPORT ORDINAL="4255" NAME="_ZThn56_N8QtCharts18ChartLogValueAxisXD1Ev" PURGE="-1" COMMENT="" />
    <EXPORT ORDINAL="4256" NAME="_ZThn56_N8QtCharts18ChartLogValueAxisY14updateGeometryEv" PURGE="0" COMMENT="" />
    <EXPORT ORDINAL="4257" NAME="_ZThn56_N8QtCharts18ChartLogValueAxisYD0Ev" PURGE="-1" COMMENT="" />
    <EXPORT ORDINAL="4258" NAME="_ZThn56_N8QtCharts18ChartLogValueAxisYD1Ev" PURGE="-1" COMMENT="" />
    <EXPORT ORDINAL="4259" NAME="_ZThn56_N8QtCharts20PolarChartAxisRadial14updateGeometryEv" PURGE="0" COMMENT="" />
    <EXPORT ORDINAL="4260" NAME="_ZThn56_N8QtCharts20PolarChartAxisRadialD0Ev" PURGE="-1" COMMENT="" />
    <EXPORT ORDINAL="4261" NAME="_ZThn56_N8QtCharts20PolarChartAxisRadialD1Ev" PURGE="-1" COMMENT="" />
    <EXPORT ORDINAL="4262" NAME="_ZThn56_N8QtCharts21ChartBarCategoryAxisX14updateGeometryEv" PURGE="0" COMMENT="" />
    <EXPORT ORDINAL="4263" NAME="_ZThn56_N8QtCharts21ChartBarCategoryAxisXD0Ev" PURGE="-1" COMMENT="" />
    <EXPORT ORDINAL="4264" NAME="_ZThn56_N8QtCharts21ChartBarCategoryAxisXD1Ev" PURGE="-1" COMMENT="" />
    <EXPORT ORDINAL="4265" NAME="_ZThn56_N8QtCharts21ChartBarCategoryAxisY14updateGeometryEv" PURGE="0" COMMENT="" />
    <EXPORT ORDINAL="4266" NAME="_ZThn56_N8QtCharts21ChartBarCategoryAxisYD0Ev" PURGE="-1" COMMENT="" />
    <EXPORT ORDINAL="4267" NAME="_ZThn56_N8QtCharts21ChartBarCategoryAxisYD1Ev" PURGE="-1" COMMENT="" />
    <EXPORT ORDINAL="4268" NAME="_ZThn56_N8QtCharts21PolarChartAxisAngular14updateGeometryEv" PURGE="0" COMMENT="" />
    <EXPORT ORDINAL="4269" NAME="_ZThn56_N8QtCharts21PolarChartAxisAngularD0Ev" PURGE="-1" COMMENT="" />
    <EXPORT ORDINAL="4270" NAME="_ZThn56_N8QtCharts21PolarChartAxisAngularD1Ev" PURGE="-1" COMMENT="" />
    <EXPORT ORDINAL="4271" NAME="_ZThn56_N8QtCharts25PolarChartValueAxisRadialD0Ev" PURGE="-1" COMMENT="" />
    <EXPORT ORDINAL="4272" NAME="_ZThn56_N8QtCharts25PolarChartValueAxisRadialD1Ev" PURGE="-1" COMMENT="" />
    <EXPORT ORDINAL="4273" NAME="_ZThn56_N8QtCharts26PolarChartValueAxisAngularD0Ev" PURGE="-1" COMMENT="" />
    <EXPORT ORDINAL="4274" NAME="_ZThn56_N8QtCharts26PolarChartValueAxisAngularD1Ev" PURGE="-1" COMMENT="" />
    <EXPORT ORDINAL="4275" NAME="_ZThn56_N8QtCharts28PolarChartCategoryAxisRadialD0Ev" PURGE="-1" COMMENT="" />
    <EXPORT ORDINAL="4276" NAME="_ZThn56_N8QtCharts28PolarChartCategoryAxisRadialD1Ev" PURGE="-1" COMMENT="" />
    <EXPORT ORDINAL="4277" NAME="_ZThn56_N8QtCharts28PolarChartDateTimeAxisRadialD0Ev" PURGE="-1" COMMENT="" />
    <EXPORT ORDINAL="4278" NAME="_ZThn56_N8QtCharts28PolarChartDateTimeAxisRadialD1Ev" PURGE="-1" COMMENT="" />
    <EXPORT ORDINAL="4279" NAME="_ZThn56_N8QtCharts28PolarChartLogValueAxisRadialD0Ev" PURGE="-1" COMMENT="" />
    <EXPORT ORDINAL="4280" NAME="_ZThn56_N8QtCharts28PolarChartLogValueAxisRadialD1Ev" PURGE="-1" COMMENT="" />
    <EXPORT ORDINAL="4281" NAME="_ZThn56_N8QtCharts29PolarChartCategoryAxisAngularD0Ev" PURGE="-1" COMMENT="" />
    <EXPORT ORDINAL="4282" NAME="_ZThn56_N8QtCharts29PolarChartCategoryAxisAngularD1Ev" PURGE="-1" COMMENT="" />
    <EXPORT ORDINAL="4283" NAME="_ZThn56_N8QtCharts29PolarChartDateTimeAxisAngularD0Ev" PURGE="-1" COMMENT="" />
    <EXPORT ORDINAL="4284" NAME="_ZThn56_N8QtCharts29PolarChartDateTimeAxisAngularD1Ev" PURGE="-1" COMMENT="" />
    <EXPORT ORDINAL="4285" NAME="_ZThn56_N8QtCharts29PolarChartLogValueAxisAngularD0Ev" PURGE="-1" COMMENT="" />
    <EXPORT ORDINAL="4286" NAME="_ZThn56_N8QtCharts29PolarChartLogValueAxisAngularD1Ev" PURGE="-1" COMMENT="" />
    <EXPORT ORDINAL="4287" NAME="_ZThn56_NK8QtCharts12VerticalAxis8sizeHintEN2Qt8SizeHintERK6QSizeF" PURGE="0" COMMENT="" />
    <EXPORT ORDINAL="4288" NAME="_ZThn56_NK8QtCharts14HorizontalAxis8sizeHintEN2Qt8SizeHintERK6QSizeF" PURGE="0" COMMENT="" />
    <EXPORT ORDINAL="4289" NAME="_ZThn56_NK8QtCharts14LegendScroller6offsetEv" PURGE="0" COMMENT="" />
    <EXPORT ORDINAL="4290" NAME="_ZThn56_NK8QtCharts15ChartValueAxisX8sizeHintEN2Qt8SizeHintERK6QSizeF" PURGE="0" COMMENT="" />
    <EXPORT ORDINAL="4291" NAME="_ZThn56_NK8QtCharts15ChartValueAxisY8sizeHintEN2Qt8SizeHintERK6QSizeF" PURGE="0" COMMENT="" />
    <EXPORT ORDINAL="4292" NAME="_ZThn56_NK8QtCharts18CartesianChartAxis8sizeHintEN2Qt8SizeHintERK6QSizeF" PURGE="0" COMMENT="" />
    <EXPORT ORDINAL="4293" NAME="_ZThn56_NK8QtCharts18ChartCategoryAxisX8sizeHintEN2Qt8SizeHintERK6QSizeF" PURGE="0" COMMENT="" />
    <EXPORT ORDINAL="4294" NAME="_ZThn56_NK8QtCharts18ChartCategoryAxisY8sizeHintEN2Qt8SizeHintERK6QSizeF" PURGE="0" COMMENT="" />
    <EXPORT ORDINAL="4295" NAME="_ZThn56_NK8QtCharts18ChartDateTimeAxisX8sizeHintEN2Qt8SizeHintERK6QSizeF" PURGE="0" COMMENT="" />
    <EXPORT ORDINAL="4296" NAME="_ZThn56_NK8QtCharts18ChartDateTimeAxisY8sizeHintEN2Qt8SizeHintERK6QSizeF" PURGE="0" COMMENT="" />
    <EXPORT ORDINAL="4297" NAME="_ZThn56_NK8QtCharts18ChartLogValueAxisX8sizeHintEN2Qt8SizeHintERK6QSizeF" PURGE="0" COMMENT="" />
    <EXPORT ORDINAL="4298" NAME="_ZThn56_NK8QtCharts18ChartLogValueAxisY8sizeHintEN2Qt8SizeHintERK6QSizeF" PURGE="0" COMMENT="" />
    <EXPORT ORDINAL="4299" NAME="_ZThn56_NK8QtCharts20PolarChartAxisRadial8sizeHintEN2Qt8SizeHintERK6QSizeF" PURGE="0" COMMENT="" />
    <EXPORT ORDINAL="4300" NAME="_ZThn56_NK8QtCharts21ChartBarCategoryAxisX8sizeHintEN2Qt8SizeHintERK6QSizeF" PURGE="0" COMMENT="" />
    <EXPORT ORDINAL="4301" NAME="_ZThn56_NK8QtCharts21ChartBarCategoryAxisY8sizeHintEN2Qt8SizeHintERK6QSizeF" PURGE="0" COMMENT="" />
    <EXPORT ORDINAL="4302" NAME="_ZThn56_NK8QtCharts21PolarChartAxisAngular8sizeHintEN2Qt8SizeHintERK6QSizeF" PURGE="0" COMMENT="" />
</LIBRARY>

