<?xml version="1.0" encoding="UTF-8"?>
<LIBRARY NAME="qt5network.dll" PATH="/DLLArchive/etc/Qt5Network.dll" DATE="Fri Nov 06 06:29:58 CET 2020" VERSION="5.15.2.0">
    <EXPORT ORDINAL="1" NAME="??0GeneratorParameters@QDtlsClientVerifier@@QEAA@$$QEAU01@@Z" PURGE="0" COMMENT="" />
    <EXPORT ORDINAL="2" NAME="??0GeneratorParameters@QDtlsClientVerifier@@QEAA@AEBU01@@Z" PURGE="0" COMMENT="" />
    <EXPORT ORDINAL="3" NAME="??0GeneratorParameters@QDtlsClientVerifier@@QEAA@W4Algorithm@QCryptographicHash@@AEBVQByteArray@@@Z" PURGE="0" COMMENT="" />
    <EXPORT ORDINAL="4" NAME="??0GeneratorParameters@QDtlsClientVerifier@@QEAA@XZ" PURGE="0" COMMENT="" />
    <EXPORT ORDINAL="5" NAME="??0QAbstractNetworkCache@@IEAA@AEAVQAbstractNetworkCachePrivate@@PEAVQObject@@@Z" PURGE="0" COMMENT="" />
    <EXPORT ORDINAL="6" NAME="??0QAbstractNetworkCache@@IEAA@PEAVQObject@@@Z" PURGE="0" COMMENT="" />
    <EXPORT ORDINAL="7" NAME="??0QAbstractSocket@@IEAA@W4SocketType@0@AEAVQAbstractSocketPrivate@@PEAVQObject@@@Z" PURGE="0" COMMENT="" />
    <EXPORT ORDINAL="8" NAME="??0QAbstractSocket@@QEAA@W4SocketType@0@PEAVQObject@@@Z" PURGE="0" COMMENT="" />
    <EXPORT ORDINAL="9" NAME="??0QAuthenticator@@QEAA@AEBV0@@Z" PURGE="0" COMMENT="" />
    <EXPORT ORDINAL="10" NAME="??0QAuthenticator@@QEAA@XZ" PURGE="0" COMMENT="" />
    <EXPORT ORDINAL="11" NAME="??0QBearerEngine@@QEAA@PEAVQObject@@@Z" PURGE="0" COMMENT="" />
    <EXPORT ORDINAL="12" NAME="??0QBearerEnginePlugin@@QEAA@PEAVQObject@@@Z" PURGE="0" COMMENT="" />
    <EXPORT ORDINAL="13" NAME="??0QDnsDomainNameRecord@@QEAA@AEBV0@@Z" PURGE="0" COMMENT="" />
    <EXPORT ORDINAL="14" NAME="??0QDnsDomainNameRecord@@QEAA@XZ" PURGE="0" COMMENT="" />
    <EXPORT ORDINAL="15" NAME="??0QDnsHostAddressRecord@@QEAA@AEBV0@@Z" PURGE="0" COMMENT="" />
    <EXPORT ORDINAL="16" NAME="??0QDnsHostAddressRecord@@QEAA@XZ" PURGE="0" COMMENT="" />
    <EXPORT ORDINAL="17" NAME="??0QDnsLookup@@QEAA@PEAVQObject@@@Z" PURGE="0" COMMENT="" />
    <EXPORT ORDINAL="18" NAME="??0QDnsLookup@@QEAA@W4Type@0@AEBVQString@@AEBVQHostAddress@@PEAVQObject@@@Z" PURGE="0" COMMENT="" />
    <EXPORT ORDINAL="19" NAME="??0QDnsLookup@@QEAA@W4Type@0@AEBVQString@@PEAVQObject@@@Z" PURGE="0" COMMENT="" />
    <EXPORT ORDINAL="20" NAME="??0QDnsMailExchangeRecord@@QEAA@AEBV0@@Z" PURGE="0" COMMENT="" />
    <EXPORT ORDINAL="21" NAME="??0QDnsMailExchangeRecord@@QEAA@XZ" PURGE="0" COMMENT="" />
    <EXPORT ORDINAL="22" NAME="??0QDnsServiceRecord@@QEAA@AEBV0@@Z" PURGE="0" COMMENT="" />
    <EXPORT ORDINAL="23" NAME="??0QDnsServiceRecord@@QEAA@XZ" PURGE="0" COMMENT="" />
    <EXPORT ORDINAL="24" NAME="??0QDnsTextRecord@@QEAA@AEBV0@@Z" PURGE="0" COMMENT="" />
    <EXPORT ORDINAL="25" NAME="??0QDnsTextRecord@@QEAA@XZ" PURGE="0" COMMENT="" />
    <EXPORT ORDINAL="26" NAME="??0QDtls@@QEAA@W4SslMode@QSslSocket@@PEAVQObject@@@Z" PURGE="0" COMMENT="" />
    <EXPORT ORDINAL="27" NAME="??0QDtlsClientVerifier@@QEAA@PEAVQObject@@@Z" PURGE="0" COMMENT="" />
    <EXPORT ORDINAL="28" NAME="??0QHostAddress@@QEAA@AEBV0@@Z" PURGE="0" COMMENT="" />
    <EXPORT ORDINAL="29" NAME="??0QHostAddress@@QEAA@AEBVQIPv6Address@@@Z" PURGE="0" COMMENT="" />
    <EXPORT ORDINAL="30" NAME="??0QHostAddress@@QEAA@AEBVQString@@@Z" PURGE="0" COMMENT="" />
    <EXPORT ORDINAL="31" NAME="??0QHostAddress@@QEAA@I@Z" PURGE="0" COMMENT="" />
    <EXPORT ORDINAL="32" NAME="??0QHostAddress@@QEAA@PEAE@Z" PURGE="0" COMMENT="" />
    <EXPORT ORDINAL="33" NAME="??0QHostAddress@@QEAA@PEBE@Z" PURGE="0" COMMENT="" />
    <EXPORT ORDINAL="34" NAME="??0QHostAddress@@QEAA@PEBUsockaddr@@@Z" PURGE="0" COMMENT="" />
    <EXPORT ORDINAL="35" NAME="??0QHostAddress@@QEAA@W4SpecialAddress@0@@Z" PURGE="0" COMMENT="" />
    <EXPORT ORDINAL="36" NAME="??0QHostAddress@@QEAA@XZ" PURGE="0" COMMENT="" />
    <EXPORT ORDINAL="37" NAME="??0QHostInfo@@QEAA@$$QEAV0@@Z" PURGE="0" COMMENT="" />
    <EXPORT ORDINAL="38" NAME="??0QHostInfo@@QEAA@AEBV0@@Z" PURGE="0" COMMENT="" />
    <EXPORT ORDINAL="39" NAME="??0QHostInfo@@QEAA@H@Z" PURGE="0" COMMENT="" />
    <EXPORT ORDINAL="40" NAME="??0QHstsPolicy@@QEAA@AEBV0@@Z" PURGE="0" COMMENT="" />
    <EXPORT ORDINAL="41" NAME="??0QHstsPolicy@@QEAA@AEBVQDateTime@@V?$QFlags@W4PolicyFlag@QHstsPolicy@@@@AEBVQString@@W4ParsingMode@QUrl@@@Z" PURGE="0" COMMENT="" />
    <EXPORT ORDINAL="42" NAME="??0QHstsPolicy@@QEAA@XZ" PURGE="0" COMMENT="" />
    <EXPORT ORDINAL="43" NAME="??0QHttp2Configuration@@QEAA@$$QEAV0@@Z" PURGE="0" COMMENT="" />
    <EXPORT ORDINAL="44" NAME="??0QHttp2Configuration@@QEAA@AEBV0@@Z" PURGE="0" COMMENT="" />
    <EXPORT ORDINAL="45" NAME="??0QHttp2Configuration@@QEAA@XZ" PURGE="0" COMMENT="" />
    <EXPORT ORDINAL="46" NAME="??0QHttpMultiPart@@QEAA@PEAVQObject@@@Z" PURGE="0" COMMENT="" />
    <EXPORT ORDINAL="47" NAME="??0QHttpMultiPart@@QEAA@W4ContentType@0@PEAVQObject@@@Z" PURGE="0" COMMENT="" />
    <EXPORT ORDINAL="48" NAME="??0QHttpPart@@QEAA@AEBV0@@Z" PURGE="0" COMMENT="" />
    <EXPORT ORDINAL="49" NAME="??0QHttpPart@@QEAA@XZ" PURGE="0" COMMENT="" />
    <EXPORT ORDINAL="50" NAME="??0QLocalServer@@QEAA@PEAVQObject@@@Z" PURGE="0" COMMENT="" />
    <EXPORT ORDINAL="51" NAME="??0QLocalSocket@@QEAA@PEAVQObject@@@Z" PURGE="0" COMMENT="" />
    <EXPORT ORDINAL="52" NAME="??0QNetworkAccessManager@@QEAA@PEAVQObject@@@Z" PURGE="0" COMMENT="" />
    <EXPORT ORDINAL="53" NAME="??0QNetworkAddressEntry@@QEAA@AEBV0@@Z" PURGE="0" COMMENT="" />
    <EXPORT ORDINAL="54" NAME="??0QNetworkAddressEntry@@QEAA@XZ" PURGE="0" COMMENT="" />
    <EXPORT ORDINAL="55" NAME="??0QNetworkCacheMetaData@@QEAA@AEBV0@@Z" PURGE="0" COMMENT="" />
    <EXPORT ORDINAL="56" NAME="??0QNetworkCacheMetaData@@QEAA@XZ" PURGE="0" COMMENT="" />
    <EXPORT ORDINAL="57" NAME="??0QNetworkConfiguration@@QEAA@AEBV0@@Z" PURGE="0" COMMENT="" />
    <EXPORT ORDINAL="58" NAME="??0QNetworkConfiguration@@QEAA@XZ" PURGE="0" COMMENT="" />
    <EXPORT ORDINAL="59" NAME="??0QNetworkConfigurationManager@@QEAA@PEAVQObject@@@Z" PURGE="0" COMMENT="" />
    <EXPORT ORDINAL="60" NAME="??0QNetworkConfigurationManagerPrivate@@QEAA@XZ" PURGE="0" COMMENT="" />
    <EXPORT ORDINAL="61" NAME="??0QNetworkCookie@@QEAA@AEBV0@@Z" PURGE="0" COMMENT="" />
    <EXPORT ORDINAL="62" NAME="??0QNetworkCookie@@QEAA@AEBVQByteArray@@0@Z" PURGE="0" COMMENT="" />
    <EXPORT ORDINAL="63" NAME="??0QNetworkCookieJar@@QEAA@PEAVQObject@@@Z" PURGE="0" COMMENT="" />
    <EXPORT ORDINAL="64" NAME="??0QNetworkDatagram@@AEAA@AEAVQNetworkDatagramPrivate@@@Z" PURGE="0" COMMENT="" />
    <EXPORT ORDINAL="65" NAME="??0QNetworkDatagram@@QEAA@$$QEAV0@@Z" PURGE="0" COMMENT="" />
    <EXPORT ORDINAL="66" NAME="??0QNetworkDatagram@@QEAA@AEBV0@@Z" PURGE="0" COMMENT="" />
    <EXPORT ORDINAL="67" NAME="??0QNetworkDatagram@@QEAA@AEBVQByteArray@@AEBVQHostAddress@@G@Z" PURGE="0" COMMENT="" />
    <EXPORT ORDINAL="68" NAME="??0QNetworkDatagram@@QEAA@XZ" PURGE="0" COMMENT="" />
    <EXPORT ORDINAL="69" NAME="??0QNetworkDiskCache@@QEAA@PEAVQObject@@@Z" PURGE="0" COMMENT="" />
    <EXPORT ORDINAL="70" NAME="??0QNetworkInterface@@QEAA@AEBV0@@Z" PURGE="0" COMMENT="" />
    <EXPORT ORDINAL="71" NAME="??0QNetworkInterface@@QEAA@XZ" PURGE="0" COMMENT="" />
    <EXPORT ORDINAL="72" NAME="??0QNetworkProxy@@QEAA@AEBV0@@Z" PURGE="0" COMMENT="" />
    <EXPORT ORDINAL="73" NAME="??0QNetworkProxy@@QEAA@W4ProxyType@0@AEBVQString@@G11@Z" PURGE="0" COMMENT="" />
    <EXPORT ORDINAL="74" NAME="??0QNetworkProxy@@QEAA@XZ" PURGE="0" COMMENT="" />
    <EXPORT ORDINAL="75" NAME="??0QNetworkProxyFactory@@QEAA@AEBV0@@Z" PURGE="0" COMMENT="" />
    <EXPORT ORDINAL="76" NAME="??0QNetworkProxyFactory@@QEAA@XZ" PURGE="0" COMMENT="" />
    <EXPORT ORDINAL="77" NAME="??0QNetworkProxyQuery@@QEAA@AEBV0@@Z" PURGE="0" COMMENT="" />
    <EXPORT ORDINAL="78" NAME="??0QNetworkProxyQuery@@QEAA@AEBVQNetworkConfiguration@@AEBVQString@@H1W4QueryType@0@@Z" PURGE="0" COMMENT="" />
    <EXPORT ORDINAL="79" NAME="??0QNetworkProxyQuery@@QEAA@AEBVQNetworkConfiguration@@AEBVQUrl@@W4QueryType@0@@Z" PURGE="0" COMMENT="" />
    <EXPORT ORDINAL="80" NAME="??0QNetworkProxyQuery@@QEAA@AEBVQNetworkConfiguration@@GAEBVQString@@W4QueryType@0@@Z" PURGE="0" COMMENT="" />
    <EXPORT ORDINAL="81" NAME="??0QNetworkProxyQuery@@QEAA@AEBVQString@@H0W4QueryType@0@@Z" PURGE="0" COMMENT="" />
    <EXPORT ORDINAL="82" NAME="??0QNetworkProxyQuery@@QEAA@AEBVQUrl@@W4QueryType@0@@Z" PURGE="0" COMMENT="" />
    <EXPORT ORDINAL="83" NAME="??0QNetworkProxyQuery@@QEAA@GAEBVQString@@W4QueryType@0@@Z" PURGE="0" COMMENT="" />
    <EXPORT ORDINAL="84" NAME="??0QNetworkProxyQuery@@QEAA@XZ" PURGE="0" COMMENT="" />
    <EXPORT ORDINAL="85" NAME="??0QNetworkReply@@IEAA@AEAVQNetworkReplyPrivate@@PEAVQObject@@@Z" PURGE="0" COMMENT="" />
    <EXPORT ORDINAL="86" NAME="??0QNetworkReply@@IEAA@PEAVQObject@@@Z" PURGE="0" COMMENT="" />
    <EXPORT ORDINAL="87" NAME="??0QNetworkRequest@@QEAA@AEBV0@@Z" PURGE="0" COMMENT="" />
    <EXPORT ORDINAL="88" NAME="??0QNetworkRequest@@QEAA@AEBVQUrl@@@Z" PURGE="0" COMMENT="" />
    <EXPORT ORDINAL="89" NAME="??0QNetworkRequest@@QEAA@XZ" PURGE="0" COMMENT="" />
    <EXPORT ORDINAL="90" NAME="??0QNetworkSession@@QEAA@AEBVQNetworkConfiguration@@PEAVQObject@@@Z" PURGE="0" COMMENT="" />
    <EXPORT ORDINAL="91" NAME="??0QNetworkSessionPrivate@@QEAA@XZ" PURGE="0" COMMENT="" />
    <EXPORT ORDINAL="92" NAME="??0QOcspResponse@@QEAA@$$QEAV0@@Z" PURGE="0" COMMENT="" />
    <EXPORT ORDINAL="93" NAME="??0QOcspResponse@@QEAA@AEBV0@@Z" PURGE="0" COMMENT="" />
    <EXPORT ORDINAL="94" NAME="??0QOcspResponse@@QEAA@XZ" PURGE="0" COMMENT="" />
    <EXPORT ORDINAL="95" NAME="??0QSslCertificate@@QEAA@AEBV0@@Z" PURGE="0" COMMENT="" />
    <EXPORT ORDINAL="96" NAME="??0QSslCertificate@@QEAA@AEBVQByteArray@@W4EncodingFormat@QSsl@@@Z" PURGE="0" COMMENT="" />
    <EXPORT ORDINAL="97" NAME="??0QSslCertificate@@QEAA@PEAVQIODevice@@W4EncodingFormat@QSsl@@@Z" PURGE="0" COMMENT="" />
    <EXPORT ORDINAL="98" NAME="??0QSslCertificateExtension@@QEAA@AEBV0@@Z" PURGE="0" COMMENT="" />
    <EXPORT ORDINAL="99" NAME="??0QSslCertificateExtension@@QEAA@XZ" PURGE="0" COMMENT="" />
    <EXPORT ORDINAL="100" NAME="??0QSslCipher@@QEAA@AEBV0@@Z" PURGE="0" COMMENT="" />
    <EXPORT ORDINAL="101" NAME="??0QSslCipher@@QEAA@AEBVQString@@@Z" PURGE="0" COMMENT="" />
    <EXPORT ORDINAL="102" NAME="??0QSslCipher@@QEAA@AEBVQString@@W4SslProtocol@QSsl@@@Z" PURGE="0" COMMENT="" />
    <EXPORT ORDINAL="103" NAME="??0QSslCipher@@QEAA@XZ" PURGE="0" COMMENT="" />
    <EXPORT ORDINAL="104" NAME="??0QSslConfiguration@@AEAA@PEAVQSslConfigurationPrivate@@@Z" PURGE="0" COMMENT="" />
    <EXPORT ORDINAL="105" NAME="??0QSslConfiguration@@QEAA@AEBV0@@Z" PURGE="0" COMMENT="" />
    <EXPORT ORDINAL="106" NAME="??0QSslConfiguration@@QEAA@XZ" PURGE="0" COMMENT="" />
    <EXPORT ORDINAL="107" NAME="??0QSslDiffieHellmanParameters@@QEAA@AEBV0@@Z" PURGE="0" COMMENT="" />
    <EXPORT ORDINAL="108" NAME="??0QSslDiffieHellmanParameters@@QEAA@XZ" PURGE="0" COMMENT="" />
    <EXPORT ORDINAL="109" NAME="??0QSslError@@QEAA@AEBV0@@Z" PURGE="0" COMMENT="" />
    <EXPORT ORDINAL="110" NAME="??0QSslError@@QEAA@W4SslError@0@@Z" PURGE="0" COMMENT="" />
    <EXPORT ORDINAL="111" NAME="??0QSslError@@QEAA@W4SslError@0@AEBVQSslCertificate@@@Z" PURGE="0" COMMENT="" />
    <EXPORT ORDINAL="112" NAME="??0QSslError@@QEAA@XZ" PURGE="0" COMMENT="" />
    <EXPORT ORDINAL="113" NAME="??0QSslKey@@QEAA@$$QEAV0@@Z" PURGE="0" COMMENT="" />
    <EXPORT ORDINAL="114" NAME="??0QSslKey@@QEAA@AEBV0@@Z" PURGE="0" COMMENT="" />
    <EXPORT ORDINAL="115" NAME="??0QSslKey@@QEAA@AEBVQByteArray@@W4KeyAlgorithm@QSsl@@W4EncodingFormat@3@W4KeyType@3@0@Z" PURGE="0" COMMENT="" />
    <EXPORT ORDINAL="116" NAME="??0QSslKey@@QEAA@PEAVQIODevice@@W4KeyAlgorithm@QSsl@@W4EncodingFormat@3@W4KeyType@3@AEBVQByteArray@@@Z" PURGE="0" COMMENT="" />
    <EXPORT ORDINAL="117" NAME="??0QSslKey@@QEAA@PEAXW4KeyType@QSsl@@@Z" PURGE="0" COMMENT="" />
    <EXPORT ORDINAL="118" NAME="??0QSslKey@@QEAA@XZ" PURGE="0" COMMENT="" />
    <EXPORT ORDINAL="119" NAME="??0QSslPreSharedKeyAuthenticator@@QEAA@AEBV0@@Z" PURGE="0" COMMENT="" />
    <EXPORT ORDINAL="120" NAME="??0QSslPreSharedKeyAuthenticator@@QEAA@XZ" PURGE="0" COMMENT="" />
    <EXPORT ORDINAL="121" NAME="??0QSslSocket@@QEAA@PEAVQObject@@@Z" PURGE="0" COMMENT="" />
    <EXPORT ORDINAL="122" NAME="??0QTcpServer@@IEAA@W4SocketType@QAbstractSocket@@AEAVQTcpServerPrivate@@PEAVQObject@@@Z" PURGE="0" COMMENT="" />
    <EXPORT ORDINAL="123" NAME="??0QTcpServer@@QEAA@PEAVQObject@@@Z" PURGE="0" COMMENT="" />
    <EXPORT ORDINAL="124" NAME="??0QTcpServerPrivate@@QEAA@XZ" PURGE="0" COMMENT="" />
    <EXPORT ORDINAL="125" NAME="??0QTcpSocket@@IEAA@AEAVQTcpSocketPrivate@@PEAVQObject@@@Z" PURGE="0" COMMENT="" />
    <EXPORT ORDINAL="126" NAME="??0QTcpSocket@@IEAA@W4SocketType@QAbstractSocket@@AEAVQTcpSocketPrivate@@PEAVQObject@@@Z" PURGE="0" COMMENT="" />
    <EXPORT ORDINAL="127" NAME="??0QTcpSocket@@QEAA@PEAVQObject@@@Z" PURGE="0" COMMENT="" />
    <EXPORT ORDINAL="128" NAME="??0QUdpSocket@@QEAA@PEAVQObject@@@Z" PURGE="0" COMMENT="" />
    <EXPORT ORDINAL="129" NAME="??0QUrlInfo@@QEAA@AEBV0@@Z" PURGE="0" COMMENT="" />
    <EXPORT ORDINAL="130" NAME="??0QUrlInfo@@QEAA@AEBVQString@@H00_JAEBVQDateTime@@2_N33333@Z" PURGE="0" COMMENT="" />
    <EXPORT ORDINAL="131" NAME="??0QUrlInfo@@QEAA@AEBVQUrl@@HAEBVQString@@1_JAEBVQDateTime@@3_N44444@Z" PURGE="0" COMMENT="" />
    <EXPORT ORDINAL="132" NAME="??0QUrlInfo@@QEAA@XZ" PURGE="0" COMMENT="" />
    <EXPORT ORDINAL="133" NAME="??1GeneratorParameters@QDtlsClientVerifier@@QEAA@XZ" PURGE="-1" COMMENT="" />
    <EXPORT ORDINAL="134" NAME="??1QAbstractNetworkCache@@UEAA@XZ" PURGE="-1" COMMENT="" />
    <EXPORT ORDINAL="135" NAME="??1QAbstractSocket@@UEAA@XZ" PURGE="-1" COMMENT="" />
    <EXPORT ORDINAL="136" NAME="??1QAuthenticator@@QEAA@XZ" PURGE="0" COMMENT="" />
    <EXPORT ORDINAL="137" NAME="??1QBearerEngine@@UEAA@XZ" PURGE="-1" COMMENT="" />
    <EXPORT ORDINAL="138" NAME="??1QBearerEnginePlugin@@UEAA@XZ" PURGE="-1" COMMENT="" />
    <EXPORT ORDINAL="139" NAME="??1QDnsDomainNameRecord@@QEAA@XZ" PURGE="0" COMMENT="" />
    <EXPORT ORDINAL="140" NAME="??1QDnsHostAddressRecord@@QEAA@XZ" PURGE="0" COMMENT="" />
    <EXPORT ORDINAL="141" NAME="??1QDnsLookup@@UEAA@XZ" PURGE="-1" COMMENT="" />
    <EXPORT ORDINAL="142" NAME="??1QDnsMailExchangeRecord@@QEAA@XZ" PURGE="0" COMMENT="" />
    <EXPORT ORDINAL="143" NAME="??1QDnsServiceRecord@@QEAA@XZ" PURGE="0" COMMENT="" />
    <EXPORT ORDINAL="144" NAME="??1QDnsTextRecord@@QEAA@XZ" PURGE="0" COMMENT="" />
    <EXPORT ORDINAL="145" NAME="??1QDtls@@UEAA@XZ" PURGE="-1" COMMENT="" />
    <EXPORT ORDINAL="146" NAME="??1QDtlsClientVerifier@@UEAA@XZ" PURGE="-1" COMMENT="" />
    <EXPORT ORDINAL="147" NAME="??1QHostAddress@@QEAA@XZ" PURGE="0" COMMENT="" />
    <EXPORT ORDINAL="148" NAME="??1QHostInfo@@QEAA@XZ" PURGE="0" COMMENT="" />
    <EXPORT ORDINAL="149" NAME="??1QHstsPolicy@@QEAA@XZ" PURGE="0" COMMENT="" />
    <EXPORT ORDINAL="150" NAME="??1QHttp2Configuration@@QEAA@XZ" PURGE="0" COMMENT="" />
    <EXPORT ORDINAL="151" NAME="??1QHttpMultiPart@@UEAA@XZ" PURGE="-1" COMMENT="" />
    <EXPORT ORDINAL="152" NAME="??1QHttpPart@@QEAA@XZ" PURGE="0" COMMENT="" />
    <EXPORT ORDINAL="153" NAME="??1QLocalServer@@UEAA@XZ" PURGE="-1" COMMENT="" />
    <EXPORT ORDINAL="154" NAME="??1QLocalSocket@@UEAA@XZ" PURGE="-1" COMMENT="" />
    <EXPORT ORDINAL="155" NAME="??1QNetworkAccessManager@@UEAA@XZ" PURGE="-1" COMMENT="" />
    <EXPORT ORDINAL="156" NAME="??1QNetworkAddressEntry@@QEAA@XZ" PURGE="0" COMMENT="" />
    <EXPORT ORDINAL="157" NAME="??1QNetworkCacheMetaData@@QEAA@XZ" PURGE="0" COMMENT="" />
    <EXPORT ORDINAL="158" NAME="??1QNetworkConfiguration@@QEAA@XZ" PURGE="0" COMMENT="" />
    <EXPORT ORDINAL="159" NAME="??1QNetworkConfigurationManager@@UEAA@XZ" PURGE="-1" COMMENT="" />
    <EXPORT ORDINAL="160" NAME="??1QNetworkConfigurationManagerPrivate@@UEAA@XZ" PURGE="-1" COMMENT="" />
    <EXPORT ORDINAL="161" NAME="??1QNetworkCookie@@QEAA@XZ" PURGE="0" COMMENT="" />
    <EXPORT ORDINAL="162" NAME="??1QNetworkCookieJar@@UEAA@XZ" PURGE="-1" COMMENT="" />
    <EXPORT ORDINAL="163" NAME="??1QNetworkDatagram@@QEAA@XZ" PURGE="0" COMMENT="" />
    <EXPORT ORDINAL="164" NAME="??1QNetworkDiskCache@@UEAA@XZ" PURGE="-1" COMMENT="" />
    <EXPORT ORDINAL="165" NAME="??1QNetworkInterface@@QEAA@XZ" PURGE="0" COMMENT="" />
    <EXPORT ORDINAL="166" NAME="??1QNetworkProxy@@QEAA@XZ" PURGE="0" COMMENT="" />
    <EXPORT ORDINAL="167" NAME="??1QNetworkProxyFactory@@UEAA@XZ" PURGE="0" COMMENT="" />
    <EXPORT ORDINAL="168" NAME="??1QNetworkProxyQuery@@QEAA@XZ" PURGE="0" COMMENT="" />
    <EXPORT ORDINAL="169" NAME="??1QNetworkReply@@UEAA@XZ" PURGE="-1" COMMENT="" />
    <EXPORT ORDINAL="170" NAME="??1QNetworkRequest@@QEAA@XZ" PURGE="0" COMMENT="" />
    <EXPORT ORDINAL="171" NAME="??1QNetworkSession@@UEAA@XZ" PURGE="-1" COMMENT="" />
    <EXPORT ORDINAL="172" NAME="??1QNetworkSessionPrivate@@UEAA@XZ" PURGE="-1" COMMENT="" />
    <EXPORT ORDINAL="173" NAME="??1QOcspResponse@@QEAA@XZ" PURGE="0" COMMENT="" />
    <EXPORT ORDINAL="174" NAME="??1QSslCertificate@@QEAA@XZ" PURGE="0" COMMENT="" />
    <EXPORT ORDINAL="175" NAME="??1QSslCertificateExtension@@QEAA@XZ" PURGE="0" COMMENT="" />
    <EXPORT ORDINAL="176" NAME="??1QSslCipher@@QEAA@XZ" PURGE="0" COMMENT="" />
    <EXPORT ORDINAL="177" NAME="??1QSslConfiguration@@QEAA@XZ" PURGE="0" COMMENT="" />
    <EXPORT ORDINAL="178" NAME="??1QSslDiffieHellmanParameters@@QEAA@XZ" PURGE="0" COMMENT="" />
    <EXPORT ORDINAL="179" NAME="??1QSslError@@QEAA@XZ" PURGE="0" COMMENT="" />
    <EXPORT ORDINAL="180" NAME="??1QSslKey@@QEAA@XZ" PURGE="0" COMMENT="" />
    <EXPORT ORDINAL="181" NAME="??1QSslPreSharedKeyAuthenticator@@QEAA@XZ" PURGE="0" COMMENT="" />
    <EXPORT ORDINAL="182" NAME="??1QSslSocket@@UEAA@XZ" PURGE="-1" COMMENT="" />
    <EXPORT ORDINAL="183" NAME="??1QTcpServer@@UEAA@XZ" PURGE="-1" COMMENT="" />
    <EXPORT ORDINAL="184" NAME="??1QTcpServerPrivate@@UEAA@XZ" PURGE="-1" COMMENT="" />
    <EXPORT ORDINAL="185" NAME="??1QTcpSocket@@UEAA@XZ" PURGE="-1" COMMENT="" />
    <EXPORT ORDINAL="186" NAME="??1QUdpSocket@@UEAA@XZ" PURGE="-1" COMMENT="" />
    <EXPORT ORDINAL="187" NAME="??1QUrlInfo@@UEAA@XZ" PURGE="0" COMMENT="" />
    <EXPORT ORDINAL="188" NAME="??4GeneratorParameters@QDtlsClientVerifier@@QEAAAEAU01@$$QEAU01@@Z" PURGE="0" COMMENT="" />
    <EXPORT ORDINAL="189" NAME="??4GeneratorParameters@QDtlsClientVerifier@@QEAAAEAU01@AEBU01@@Z" PURGE="0" COMMENT="" />
    <EXPORT ORDINAL="190" NAME="??4QAuthenticator@@QEAAAEAV0@AEBV0@@Z" PURGE="0" COMMENT="" />
    <EXPORT ORDINAL="191" NAME="??4QDnsDomainNameRecord@@QEAAAEAV0@$$QEAV0@@Z" PURGE="0" COMMENT="" />
    <EXPORT ORDINAL="192" NAME="??4QDnsDomainNameRecord@@QEAAAEAV0@AEBV0@@Z" PURGE="0" COMMENT="" />
    <EXPORT ORDINAL="193" NAME="??4QDnsHostAddressRecord@@QEAAAEAV0@$$QEAV0@@Z" PURGE="0" COMMENT="" />
    <EXPORT ORDINAL="194" NAME="??4QDnsHostAddressRecord@@QEAAAEAV0@AEBV0@@Z" PURGE="0" COMMENT="" />
    <EXPORT ORDINAL="195" NAME="??4QDnsMailExchangeRecord@@QEAAAEAV0@$$QEAV0@@Z" PURGE="0" COMMENT="" />
    <EXPORT ORDINAL="196" NAME="??4QDnsMailExchangeRecord@@QEAAAEAV0@AEBV0@@Z" PURGE="0" COMMENT="" />
    <EXPORT ORDINAL="197" NAME="??4QDnsServiceRecord@@QEAAAEAV0@$$QEAV0@@Z" PURGE="0" COMMENT="" />
    <EXPORT ORDINAL="198" NAME="??4QDnsServiceRecord@@QEAAAEAV0@AEBV0@@Z" PURGE="0" COMMENT="" />
    <EXPORT ORDINAL="199" NAME="??4QDnsTextRecord@@QEAAAEAV0@$$QEAV0@@Z" PURGE="0" COMMENT="" />
    <EXPORT ORDINAL="200" NAME="??4QDnsTextRecord@@QEAAAEAV0@AEBV0@@Z" PURGE="0" COMMENT="" />
    <EXPORT ORDINAL="201" NAME="??4QHostAddress@@QEAAAEAV0@$$QEAV0@@Z" PURGE="0" COMMENT="" />
    <EXPORT ORDINAL="202" NAME="??4QHostAddress@@QEAAAEAV0@AEBV0@@Z" PURGE="0" COMMENT="" />
    <EXPORT ORDINAL="203" NAME="??4QHostAddress@@QEAAAEAV0@AEBVQString@@@Z" PURGE="0" COMMENT="" />
    <EXPORT ORDINAL="204" NAME="??4QHostAddress@@QEAAAEAV0@W4SpecialAddress@0@@Z" PURGE="0" COMMENT="" />
    <EXPORT ORDINAL="205" NAME="??4QHostInfo@@QEAAAEAV0@$$QEAV0@@Z" PURGE="0" COMMENT="" />
    <EXPORT ORDINAL="206" NAME="??4QHostInfo@@QEAAAEAV0@AEBV0@@Z" PURGE="0" COMMENT="" />
    <EXPORT ORDINAL="207" NAME="??4QHstsPolicy@@QEAAAEAV0@$$QEAV0@@Z" PURGE="0" COMMENT="" />
    <EXPORT ORDINAL="208" NAME="??4QHstsPolicy@@QEAAAEAV0@AEBV0@@Z" PURGE="0" COMMENT="" />
    <EXPORT ORDINAL="209" NAME="??4QHttp2Configuration@@QEAAAEAV0@$$QEAV0@@Z" PURGE="0" COMMENT="" />
    <EXPORT ORDINAL="210" NAME="??4QHttp2Configuration@@QEAAAEAV0@AEBV0@@Z" PURGE="0" COMMENT="" />
    <EXPORT ORDINAL="211" NAME="??4QHttpPart@@QEAAAEAV0@$$QEAV0@@Z" PURGE="0" COMMENT="" />
    <EXPORT ORDINAL="212" NAME="??4QHttpPart@@QEAAAEAV0@AEBV0@@Z" PURGE="0" COMMENT="" />
    <EXPORT ORDINAL="213" NAME="??4QIPv6Address@@QEAAAEAV0@$$QEAV0@@Z" PURGE="0" COMMENT="" />
    <EXPORT ORDINAL="214" NAME="??4QIPv6Address@@QEAAAEAV0@AEBV0@@Z" PURGE="0" COMMENT="" />
    <EXPORT ORDINAL="215" NAME="??4QNetworkAddressEntry@@QEAAAEAV0@$$QEAV0@@Z" PURGE="0" COMMENT="" />
    <EXPORT ORDINAL="216" NAME="??4QNetworkAddressEntry@@QEAAAEAV0@AEBV0@@Z" PURGE="0" COMMENT="" />
    <EXPORT ORDINAL="217" NAME="??4QNetworkCacheMetaData@@QEAAAEAV0@$$QEAV0@@Z" PURGE="0" COMMENT="" />
    <EXPORT ORDINAL="218" NAME="??4QNetworkCacheMetaData@@QEAAAEAV0@AEBV0@@Z" PURGE="0" COMMENT="" />
    <EXPORT ORDINAL="219" NAME="??4QNetworkConfiguration@@QEAAAEAV0@$$QEAV0@@Z" PURGE="0" COMMENT="" />
    <EXPORT ORDINAL="220" NAME="??4QNetworkConfiguration@@QEAAAEAV0@AEBV0@@Z" PURGE="0" COMMENT="" />
    <EXPORT ORDINAL="221" NAME="??4QNetworkCookie@@QEAAAEAV0@$$QEAV0@@Z" PURGE="0" COMMENT="" />
    <EXPORT ORDINAL="222" NAME="??4QNetworkCookie@@QEAAAEAV0@AEBV0@@Z" PURGE="0" COMMENT="" />
    <EXPORT ORDINAL="223" NAME="??4QNetworkDatagram@@QEAAAEAV0@$$QEAV0@@Z" PURGE="0" COMMENT="" />
    <EXPORT ORDINAL="224" NAME="??4QNetworkDatagram@@QEAAAEAV0@AEBV0@@Z" PURGE="0" COMMENT="" />
    <EXPORT ORDINAL="225" NAME="??4QNetworkInterface@@QEAAAEAV0@$$QEAV0@@Z" PURGE="0" COMMENT="" />
    <EXPORT ORDINAL="226" NAME="??4QNetworkInterface@@QEAAAEAV0@AEBV0@@Z" PURGE="0" COMMENT="" />
    <EXPORT ORDINAL="227" NAME="??4QNetworkProxy@@QEAAAEAV0@$$QEAV0@@Z" PURGE="0" COMMENT="" />
    <EXPORT ORDINAL="228" NAME="??4QNetworkProxy@@QEAAAEAV0@AEBV0@@Z" PURGE="0" COMMENT="" />
    <EXPORT ORDINAL="229" NAME="??4QNetworkProxyFactory@@QEAAAEAV0@AEBV0@@Z" PURGE="0" COMMENT="" />
    <EXPORT ORDINAL="230" NAME="??4QNetworkProxyQuery@@QEAAAEAV0@$$QEAV0@@Z" PURGE="0" COMMENT="" />
    <EXPORT ORDINAL="231" NAME="??4QNetworkProxyQuery@@QEAAAEAV0@AEBV0@@Z" PURGE="0" COMMENT="" />
    <EXPORT ORDINAL="232" NAME="??4QNetworkRequest@@QEAAAEAV0@$$QEAV0@@Z" PURGE="0" COMMENT="" />
    <EXPORT ORDINAL="233" NAME="??4QNetworkRequest@@QEAAAEAV0@AEBV0@@Z" PURGE="0" COMMENT="" />
    <EXPORT ORDINAL="234" NAME="??4QOcspResponse@@QEAAAEAV0@$$QEAV0@@Z" PURGE="0" COMMENT="" />
    <EXPORT ORDINAL="235" NAME="??4QOcspResponse@@QEAAAEAV0@AEBV0@@Z" PURGE="0" COMMENT="" />
    <EXPORT ORDINAL="236" NAME="??4QSslCertificate@@QEAAAEAV0@$$QEAV0@@Z" PURGE="0" COMMENT="" />
    <EXPORT ORDINAL="237" NAME="??4QSslCertificate@@QEAAAEAV0@AEBV0@@Z" PURGE="0" COMMENT="" />
    <EXPORT ORDINAL="238" NAME="??4QSslCertificateExtension@@QEAAAEAV0@$$QEAV0@@Z" PURGE="0" COMMENT="" />
    <EXPORT ORDINAL="239" NAME="??4QSslCertificateExtension@@QEAAAEAV0@AEBV0@@Z" PURGE="0" COMMENT="" />
    <EXPORT ORDINAL="240" NAME="??4QSslCipher@@QEAAAEAV0@$$QEAV0@@Z" PURGE="0" COMMENT="" />
    <EXPORT ORDINAL="241" NAME="??4QSslCipher@@QEAAAEAV0@AEBV0@@Z" PURGE="0" COMMENT="" />
    <EXPORT ORDINAL="242" NAME="??4QSslConfiguration@@QEAAAEAV0@$$QEAV0@@Z" PURGE="0" COMMENT="" />
    <EXPORT ORDINAL="243" NAME="??4QSslConfiguration@@QEAAAEAV0@AEBV0@@Z" PURGE="0" COMMENT="" />
    <EXPORT ORDINAL="244" NAME="??4QSslDiffieHellmanParameters@@QEAAAEAV0@AEBV0@@Z" PURGE="0" COMMENT="" />
    <EXPORT ORDINAL="245" NAME="??4QSslError@@QEAAAEAV0@$$QEAV0@@Z" PURGE="0" COMMENT="" />
    <EXPORT ORDINAL="246" NAME="??4QSslError@@QEAAAEAV0@AEBV0@@Z" PURGE="0" COMMENT="" />
    <EXPORT ORDINAL="247" NAME="??4QSslKey@@QEAAAEAV0@$$QEAV0@@Z" PURGE="0" COMMENT="" />
    <EXPORT ORDINAL="248" NAME="??4QSslKey@@QEAAAEAV0@AEBV0@@Z" PURGE="0" COMMENT="" />
    <EXPORT ORDINAL="249" NAME="??4QSslPreSharedKeyAuthenticator@@QEAAAEAV0@AEBV0@@Z" PURGE="0" COMMENT="" />
    <EXPORT ORDINAL="250" NAME="??4QUrlInfo@@QEAAAEAV0@AEBV0@@Z" PURGE="0" COMMENT="" />
    <EXPORT ORDINAL="251" NAME="??5@YAAEAVQDataStream@@AEAV0@AEAVQHostAddress@@@Z" PURGE="0" COMMENT="" />
    <EXPORT ORDINAL="252" NAME="??5@YAAEAVQDataStream@@AEAV0@AEAVQNetworkCacheMetaData@@@Z" PURGE="0" COMMENT="" />
    <EXPORT ORDINAL="253" NAME="??6@YA?AVQDebug@@V0@AEBVQHostAddress@@@Z" PURGE="0" COMMENT="" />
    <EXPORT ORDINAL="254" NAME="??6@YA?AVQDebug@@V0@AEBVQNetworkCookie@@@Z" PURGE="0" COMMENT="" />
    <EXPORT ORDINAL="255" NAME="??6@YA?AVQDebug@@V0@AEBVQNetworkInterface@@@Z" PURGE="0" COMMENT="" />
    <EXPORT ORDINAL="256" NAME="??6@YA?AVQDebug@@V0@AEBVQNetworkProxy@@@Z" PURGE="0" COMMENT="" />
    <EXPORT ORDINAL="257" NAME="??6@YA?AVQDebug@@V0@AEBVQNetworkProxyQuery@@@Z" PURGE="0" COMMENT="" />
    <EXPORT ORDINAL="258" NAME="??6@YA?AVQDebug@@V0@AEBVQSslCertificate@@@Z" PURGE="0" COMMENT="" />
    <EXPORT ORDINAL="259" NAME="??6@YA?AVQDebug@@V0@AEBVQSslCipher@@@Z" PURGE="0" COMMENT="" />
    <EXPORT ORDINAL="260" NAME="??6@YA?AVQDebug@@V0@AEBVQSslDiffieHellmanParameters@@@Z" PURGE="0" COMMENT="" />
    <EXPORT ORDINAL="261" NAME="??6@YA?AVQDebug@@V0@AEBVQSslError@@@Z" PURGE="0" COMMENT="" />
    <EXPORT ORDINAL="262" NAME="??6@YA?AVQDebug@@V0@AEBVQSslKey@@@Z" PURGE="0" COMMENT="" />
    <EXPORT ORDINAL="263" NAME="??6@YA?AVQDebug@@V0@AEBW4SslError@QSslError@@@Z" PURGE="0" COMMENT="" />
    <EXPORT ORDINAL="264" NAME="??6@YA?AVQDebug@@V0@VQSslEllipticCurve@@@Z" PURGE="0" COMMENT="" />
    <EXPORT ORDINAL="265" NAME="??6@YA?AVQDebug@@V0@W4LocalSocketError@QLocalSocket@@@Z" PURGE="0" COMMENT="" />
    <EXPORT ORDINAL="266" NAME="??6@YA?AVQDebug@@V0@W4LocalSocketState@QLocalSocket@@@Z" PURGE="0" COMMENT="" />
    <EXPORT ORDINAL="267" NAME="??6@YA?AVQDebug@@V0@W4SocketError@QAbstractSocket@@@Z" PURGE="0" COMMENT="" />
    <EXPORT ORDINAL="268" NAME="??6@YA?AVQDebug@@V0@W4SocketState@QAbstractSocket@@@Z" PURGE="0" COMMENT="" />
    <EXPORT ORDINAL="269" NAME="??6@YA?AVQDebug@@V0@W4SubjectInfo@QSslCertificate@@@Z" PURGE="0" COMMENT="" />
    <EXPORT ORDINAL="270" NAME="??6@YAAEAVQDataStream@@AEAV0@AEBVQHostAddress@@@Z" PURGE="0" COMMENT="" />
    <EXPORT ORDINAL="271" NAME="??6@YAAEAVQDataStream@@AEAV0@AEBVQNetworkCacheMetaData@@@Z" PURGE="0" COMMENT="" />
    <EXPORT ORDINAL="272" NAME="??8@YA_NAEBVQHstsPolicy@@0@Z" PURGE="0" COMMENT="" />
    <EXPORT ORDINAL="273" NAME="??8@YA_NAEBVQHttp2Configuration@@0@Z" PURGE="0" COMMENT="" />
    <EXPORT ORDINAL="274" NAME="??8@YA_NAEBVQOcspResponse@@0@Z" PURGE="0" COMMENT="" />
    <EXPORT ORDINAL="275" NAME="??8@YA_NAEBVQSslDiffieHellmanParameters@@0@Z" PURGE="0" COMMENT="" />
    <EXPORT ORDINAL="276" NAME="??8@YA_NAEBVQSslPreSharedKeyAuthenticator@@0@Z" PURGE="0" COMMENT="" />
    <EXPORT ORDINAL="277" NAME="??8QAuthenticator@@QEBA_NAEBV0@@Z" PURGE="0" COMMENT="" />
    <EXPORT ORDINAL="278" NAME="??8QHostAddress@@QEBA_NAEBV0@@Z" PURGE="0" COMMENT="" />
    <EXPORT ORDINAL="279" NAME="??8QHostAddress@@QEBA_NW4SpecialAddress@0@@Z" PURGE="0" COMMENT="" />
    <EXPORT ORDINAL="280" NAME="??8QHttpPart@@QEBA_NAEBV0@@Z" PURGE="0" COMMENT="" />
    <EXPORT ORDINAL="281" NAME="??8QNetworkAddressEntry@@QEBA_NAEBV0@@Z" PURGE="0" COMMENT="" />
    <EXPORT ORDINAL="282" NAME="??8QNetworkCacheMetaData@@QEBA_NAEBV0@@Z" PURGE="0" COMMENT="" />
    <EXPORT ORDINAL="283" NAME="??8QNetworkConfiguration@@QEBA_NAEBV0@@Z" PURGE="0" COMMENT="" />
    <EXPORT ORDINAL="284" NAME="??8QNetworkCookie@@QEBA_NAEBV0@@Z" PURGE="0" COMMENT="" />
    <EXPORT ORDINAL="285" NAME="??8QNetworkProxy@@QEBA_NAEBV0@@Z" PURGE="0" COMMENT="" />
    <EXPORT ORDINAL="286" NAME="??8QNetworkProxyQuery@@QEBA_NAEBV0@@Z" PURGE="0" COMMENT="" />
    <EXPORT ORDINAL="287" NAME="??8QNetworkRequest@@QEBA_NAEBV0@@Z" PURGE="0" COMMENT="" />
    <EXPORT ORDINAL="288" NAME="??8QSslCertificate@@QEBA_NAEBV0@@Z" PURGE="0" COMMENT="" />
    <EXPORT ORDINAL="289" NAME="??8QSslCipher@@QEBA_NAEBV0@@Z" PURGE="0" COMMENT="" />
    <EXPORT ORDINAL="290" NAME="??8QSslConfiguration@@QEBA_NAEBV0@@Z" PURGE="0" COMMENT="" />
    <EXPORT ORDINAL="291" NAME="??8QSslError@@QEBA_NAEBV0@@Z" PURGE="0" COMMENT="" />
    <EXPORT ORDINAL="292" NAME="??8QSslKey@@QEBA_NAEBV0@@Z" PURGE="0" COMMENT="" />
    <EXPORT ORDINAL="293" NAME="??8QUrlInfo@@QEBA_NAEBV0@@Z" PURGE="0" COMMENT="" />
    <EXPORT ORDINAL="294" NAME="??9QAuthenticator@@QEBA_NAEBV0@@Z" PURGE="0" COMMENT="" />
    <EXPORT ORDINAL="295" NAME="??9QHostAddress@@QEBA_NAEBV0@@Z" PURGE="0" COMMENT="" />
    <EXPORT ORDINAL="296" NAME="??9QHostAddress@@QEBA_NW4SpecialAddress@0@@Z" PURGE="0" COMMENT="" />
    <EXPORT ORDINAL="297" NAME="??9QHttpPart@@QEBA_NAEBV0@@Z" PURGE="0" COMMENT="" />
    <EXPORT ORDINAL="298" NAME="??9QNetworkAddressEntry@@QEBA_NAEBV0@@Z" PURGE="0" COMMENT="" />
    <EXPORT ORDINAL="299" NAME="??9QNetworkCacheMetaData@@QEBA_NAEBV0@@Z" PURGE="0" COMMENT="" />
    <EXPORT ORDINAL="300" NAME="??9QNetworkConfiguration@@QEBA_NAEBV0@@Z" PURGE="0" COMMENT="" />
    <EXPORT ORDINAL="301" NAME="??9QNetworkCookie@@QEBA_NAEBV0@@Z" PURGE="0" COMMENT="" />
    <EXPORT ORDINAL="302" NAME="??9QNetworkProxy@@QEBA_NAEBV0@@Z" PURGE="0" COMMENT="" />
    <EXPORT ORDINAL="303" NAME="??9QNetworkProxyQuery@@QEBA_NAEBV0@@Z" PURGE="0" COMMENT="" />
    <EXPORT ORDINAL="304" NAME="??9QNetworkRequest@@QEBA_NAEBV0@@Z" PURGE="0" COMMENT="" />
    <EXPORT ORDINAL="305" NAME="??9QSslCertificate@@QEBA_NAEBV0@@Z" PURGE="0" COMMENT="" />
    <EXPORT ORDINAL="306" NAME="??9QSslCipher@@QEBA_NAEBV0@@Z" PURGE="0" COMMENT="" />
    <EXPORT ORDINAL="307" NAME="??9QSslConfiguration@@QEBA_NAEBV0@@Z" PURGE="0" COMMENT="" />
    <EXPORT ORDINAL="308" NAME="??9QSslError@@QEBA_NAEBV0@@Z" PURGE="0" COMMENT="" />
    <EXPORT ORDINAL="309" NAME="??9QSslKey@@QEBA_NAEBV0@@Z" PURGE="0" COMMENT="" />
    <EXPORT ORDINAL="310" NAME="??9QUrlInfo@@QEBA_NAEBV0@@Z" PURGE="0" COMMENT="" />
    <EXPORT ORDINAL="311" NAME="??AQIPv6Address@@QEAAAEAEH@Z" PURGE="0" COMMENT="" />
    <EXPORT ORDINAL="312" NAME="??AQIPv6Address@@QEBAEH@Z" PURGE="0" COMMENT="" />
    <EXPORT ORDINAL="313" NAME="??_7QAbstractNetworkCache@@6B@" PURGE="-1" COMMENT="" />
    <EXPORT ORDINAL="314" NAME="??_7QAbstractSocket@@6B@" PURGE="-1" COMMENT="" />
    <EXPORT ORDINAL="315" NAME="??_7QBearerEngine@@6B@" PURGE="-1" COMMENT="" />
    <EXPORT ORDINAL="316" NAME="??_7QBearerEnginePlugin@@6B@" PURGE="-1" COMMENT="" />
    <EXPORT ORDINAL="317" NAME="??_7QDnsLookup@@6B@" PURGE="-1" COMMENT="" />
    <EXPORT ORDINAL="318" NAME="??_7QDtls@@6B@" PURGE="-1" COMMENT="" />
    <EXPORT ORDINAL="319" NAME="??_7QDtlsClientVerifier@@6B@" PURGE="-1" COMMENT="" />
    <EXPORT ORDINAL="320" NAME="??_7QHttpMultiPart@@6B@" PURGE="-1" COMMENT="" />
    <EXPORT ORDINAL="321" NAME="??_7QLocalServer@@6B@" PURGE="-1" COMMENT="" />
    <EXPORT ORDINAL="322" NAME="??_7QLocalSocket@@6B@" PURGE="-1" COMMENT="" />
    <EXPORT ORDINAL="323" NAME="??_7QNetworkAccessManager@@6B@" PURGE="-1" COMMENT="" />
    <EXPORT ORDINAL="324" NAME="??_7QNetworkConfigurationManager@@6B@" PURGE="-1" COMMENT="" />
    <EXPORT ORDINAL="325" NAME="??_7QNetworkConfigurationManagerPrivate@@6B@" PURGE="-1" COMMENT="" />
    <EXPORT ORDINAL="326" NAME="??_7QNetworkCookieJar@@6B@" PURGE="-1" COMMENT="" />
    <EXPORT ORDINAL="327" NAME="??_7QNetworkDiskCache@@6B@" PURGE="-1" COMMENT="" />
    <EXPORT ORDINAL="328" NAME="??_7QNetworkProxyFactory@@6B@" PURGE="-1" COMMENT="" />
    <EXPORT ORDINAL="329" NAME="??_7QNetworkReply@@6B@" PURGE="-1" COMMENT="" />
    <EXPORT ORDINAL="330" NAME="??_7QNetworkSession@@6B@" PURGE="-1" COMMENT="" />
    <EXPORT ORDINAL="331" NAME="??_7QNetworkSessionPrivate@@6B@" PURGE="-1" COMMENT="" />
    <EXPORT ORDINAL="332" NAME="??_7QSslSocket@@6B@" PURGE="-1" COMMENT="" />
    <EXPORT ORDINAL="333" NAME="??_7QTcpServer@@6B@" PURGE="-1" COMMENT="" />
    <EXPORT ORDINAL="334" NAME="??_7QTcpServerPrivate@@6BQAbstractSocketEngineReceiver@@@" PURGE="-1" COMMENT="" />
    <EXPORT ORDINAL="335" NAME="??_7QTcpServerPrivate@@6BQObjectPrivate@@@" PURGE="-1" COMMENT="" />
    <EXPORT ORDINAL="336" NAME="??_7QTcpSocket@@6B@" PURGE="-1" COMMENT="" />
    <EXPORT ORDINAL="337" NAME="??_7QUdpSocket@@6B@" PURGE="-1" COMMENT="" />
    <EXPORT ORDINAL="338" NAME="??_7QUrlInfo@@6B@" PURGE="-1" COMMENT="" />
    <EXPORT ORDINAL="339" NAME="??_FQAbstractNetworkCache@@QEAAXXZ" PURGE="0" COMMENT="" />
    <EXPORT ORDINAL="340" NAME="??_FQBearerEngine@@QEAAXXZ" PURGE="0" COMMENT="" />
    <EXPORT ORDINAL="341" NAME="??_FQBearerEnginePlugin@@QEAAXXZ" PURGE="0" COMMENT="" />
    <EXPORT ORDINAL="342" NAME="??_FQDnsLookup@@QEAAXXZ" PURGE="0" COMMENT="" />
    <EXPORT ORDINAL="343" NAME="??_FQDtlsClientVerifier@@QEAAXXZ" PURGE="0" COMMENT="" />
    <EXPORT ORDINAL="344" NAME="??_FQHostInfo@@QEAAXXZ" PURGE="0" COMMENT="" />
    <EXPORT ORDINAL="345" NAME="??_FQHttpMultiPart@@QEAAXXZ" PURGE="0" COMMENT="" />
    <EXPORT ORDINAL="346" NAME="??_FQLocalServer@@QEAAXXZ" PURGE="0" COMMENT="" />
    <EXPORT ORDINAL="347" NAME="??_FQLocalSocket@@QEAAXXZ" PURGE="0" COMMENT="" />
    <EXPORT ORDINAL="348" NAME="??_FQNetworkAccessManager@@QEAAXXZ" PURGE="0" COMMENT="" />
    <EXPORT ORDINAL="349" NAME="??_FQNetworkConfigurationManager@@QEAAXXZ" PURGE="0" COMMENT="" />
    <EXPORT ORDINAL="350" NAME="??_FQNetworkCookie@@QEAAXXZ" PURGE="0" COMMENT="" />
    <EXPORT ORDINAL="351" NAME="??_FQNetworkCookieJar@@QEAAXXZ" PURGE="0" COMMENT="" />
    <EXPORT ORDINAL="352" NAME="??_FQNetworkDiskCache@@QEAAXXZ" PURGE="0" COMMENT="" />
    <EXPORT ORDINAL="353" NAME="??_FQNetworkReply@@QEAAXXZ" PURGE="0" COMMENT="" />
    <EXPORT ORDINAL="354" NAME="??_FQSslCertificate@@QEAAXXZ" PURGE="0" COMMENT="" />
    <EXPORT ORDINAL="355" NAME="??_FQSslSocket@@QEAAXXZ" PURGE="0" COMMENT="" />
    <EXPORT ORDINAL="356" NAME="??_FQTcpServer@@QEAAXXZ" PURGE="0" COMMENT="" />
    <EXPORT ORDINAL="357" NAME="??_FQTcpSocket@@QEAAXXZ" PURGE="0" COMMENT="" />
    <EXPORT ORDINAL="358" NAME="??_FQUdpSocket@@QEAAXXZ" PURGE="0" COMMENT="" />
    <EXPORT ORDINAL="359" NAME="?ALPNProtocolHTTP2@QSslConfiguration@@2QBDB" PURGE="-1" COMMENT="" />
    <EXPORT ORDINAL="360" NAME="?NextProtocolHttp1_1@QSslConfiguration@@2QBDB" PURGE="-1" COMMENT="" />
    <EXPORT ORDINAL="361" NAME="?NextProtocolSpdy3_0@QSslConfiguration@@2QBDB" PURGE="-1" COMMENT="" />
    <EXPORT ORDINAL="362" NAME="?abort@QAbstractSocket@@QEAAXXZ" PURGE="0" COMMENT="" />
    <EXPORT ORDINAL="363" NAME="?abort@QDnsLookup@@QEAAXXZ" PURGE="0" COMMENT="" />
    <EXPORT ORDINAL="364" NAME="?abort@QLocalSocket@@QEAAXXZ" PURGE="-1" COMMENT="" />
    <EXPORT ORDINAL="365" NAME="?abort@QSslSocket@@QEAAXXZ" PURGE="-1" COMMENT="" />
    <EXPORT ORDINAL="366" NAME="?abortHandshake@QDtls@@QEAA_NPEAVQUdpSocket@@@Z" PURGE="0" COMMENT="" />
    <EXPORT ORDINAL="367" NAME="?abortHostLookup@QHostInfo@@SAXH@Z" PURGE="0" COMMENT="" />
    <EXPORT ORDINAL="368" NAME="?accept@QNetworkSession@@QEAAXXZ" PURGE="0" COMMENT="" />
    <EXPORT ORDINAL="369" NAME="?acceptError@QTcpServer@@QEAAXW4SocketError@QAbstractSocket@@@Z" PURGE="0" COMMENT="" />
    <EXPORT ORDINAL="370" NAME="?activeConfiguration@QNetworkAccessManager@@QEBA?AVQNetworkConfiguration@@XZ" PURGE="0" COMMENT="" />
    <EXPORT ORDINAL="371" NAME="?activeTime@QNetworkSession@@QEBA_KXZ" PURGE="0" COMMENT="" />
    <EXPORT ORDINAL="372" NAME="?addCaCertificate@QSslConfiguration@@QEAAXAEBVQSslCertificate@@@Z" PURGE="0" COMMENT="" />
    <EXPORT ORDINAL="373" NAME="?addCaCertificate@QSslSocket@@QEAAXAEBVQSslCertificate@@@Z" PURGE="0" COMMENT="" />
    <EXPORT ORDINAL="374" NAME="?addCaCertificates@QSslConfiguration@@QEAAXAEBV?$QList@VQSslCertificate@@@@@Z" PURGE="0" COMMENT="" />
    <EXPORT ORDINAL="375" NAME="?addCaCertificates@QSslConfiguration@@QEAA_NAEBVQString@@W4EncodingFormat@QSsl@@W4PatternSyntax@QSslCertificate@@@Z" PURGE="0" COMMENT="" />
    <EXPORT ORDINAL="376" NAME="?addCaCertificates@QSslSocket@@QEAAXAEBV?$QList@VQSslCertificate@@@@@Z" PURGE="0" COMMENT="" />
    <EXPORT ORDINAL="377" NAME="?addCaCertificates@QSslSocket@@QEAA_NAEBVQString@@W4EncodingFormat@QSsl@@W4PatternSyntax@QRegExp@@@Z" PURGE="0" COMMENT="" />
    <EXPORT ORDINAL="378" NAME="?addDefaultCaCertificate@QSslSocket@@SAXAEBVQSslCertificate@@@Z" PURGE="0" COMMENT="" />
    <EXPORT ORDINAL="379" NAME="?addDefaultCaCertificates@QSslSocket@@SAXAEBV?$QList@VQSslCertificate@@@@@Z" PURGE="0" COMMENT="" />
    <EXPORT ORDINAL="380" NAME="?addDefaultCaCertificates@QSslSocket@@SA_NAEBVQString@@W4EncodingFormat@QSsl@@W4PatternSyntax@QRegExp@@@Z" PURGE="0" COMMENT="" />
    <EXPORT ORDINAL="381" NAME="?addPendingConnection@QTcpServer@@IEAAXPEAVQTcpSocket@@@Z" PURGE="0" COMMENT="" />
    <EXPORT ORDINAL="382" NAME="?addPreAndPostRoutine@QNetworkConfigurationManagerPrivate@@SAXXZ" PURGE="-1" COMMENT="" />
    <EXPORT ORDINAL="383" NAME="?addStrictTransportSecurityHosts@QNetworkAccessManager@@QEAAXAEBV?$QVector@VQHstsPolicy@@@@@Z" PURGE="0" COMMENT="" />
    <EXPORT ORDINAL="384" NAME="?addressEntries@QNetworkInterface@@QEBA?AV?$QList@VQNetworkAddressEntry@@@@XZ" PURGE="0" COMMENT="" />
    <EXPORT ORDINAL="385" NAME="?addresses@QHostInfo@@QEBA?AV?$QList@VQHostAddress@@@@XZ" PURGE="0" COMMENT="" />
    <EXPORT ORDINAL="386" NAME="?algorithm@QSslKey@@QEBA?AW4KeyAlgorithm@QSsl@@XZ" PURGE="0" COMMENT="" />
    <EXPORT ORDINAL="387" NAME="?allAddresses@QNetworkInterface@@SA?AV?$QList@VQHostAddress@@@@XZ" PURGE="0" COMMENT="" />
    <EXPORT ORDINAL="388" NAME="?allConfigurations@QNetworkConfigurationManager@@QEBA?AV?$QList@VQNetworkConfiguration@@@@V?$QFlags@W4StateFlag@QNetworkConfiguration@@@@@Z" PURGE="0" COMMENT="" />
    <EXPORT ORDINAL="389" NAME="?allConfigurations@QNetworkConfigurationManagerPrivate@@QEBA?AV?$QList@VQNetworkConfiguration@@@@V?$QFlags@W4StateFlag@QNetworkConfiguration@@@@@Z" PURGE="0" COMMENT="" />
    <EXPORT ORDINAL="390" NAME="?allCookies@QNetworkCookieJar@@IEBA?AV?$QList@VQNetworkCookie@@@@XZ" PURGE="0" COMMENT="" />
    <EXPORT ORDINAL="391" NAME="?allInterfaces@QNetworkInterface@@SA?AV?$QList@VQNetworkInterface@@@@XZ" PURGE="0" COMMENT="" />
    <EXPORT ORDINAL="392" NAME="?allowedNextProtocols@QSslConfiguration@@QEBA?AV?$QList@VQByteArray@@@@XZ" PURGE="0" COMMENT="" />
    <EXPORT ORDINAL="393" NAME="?alternateSubjectNames@QSslCertificate@@QEBA?AV?$QMultiMap@W4AlternativeNameEntryType@QSsl@@VQString@@@@XZ" PURGE="0" COMMENT="" />
    <EXPORT ORDINAL="394" NAME="?append@QHttpMultiPart@@QEAAXAEBVQHttpPart@@@Z" PURGE="0" COMMENT="" />
    <EXPORT ORDINAL="395" NAME="?applicationProxy@QNetworkProxy@@SA?AV1@XZ" PURGE="0" COMMENT="" />
    <EXPORT ORDINAL="396" NAME="?atEnd@QAbstractSocket@@UEBA_NXZ" PURGE="-1" COMMENT="" />
    <EXPORT ORDINAL="397" NAME="?atEnd@QSslSocket@@UEBA_NXZ" PURGE="0" COMMENT="" />
    <EXPORT ORDINAL="398" NAME="?attribute@QNetworkReply@@QEBA?AVQVariant@@W4Attribute@QNetworkRequest@@@Z" PURGE="0" COMMENT="" />
    <EXPORT ORDINAL="399" NAME="?attribute@QNetworkRequest@@QEBA?AVQVariant@@W4Attribute@1@AEBV2@@Z" PURGE="0" COMMENT="" />
    <EXPORT ORDINAL="400" NAME="?attributes@QNetworkCacheMetaData@@QEBA?AV?$QHash@W4Attribute@QNetworkRequest@@VQVariant@@@@XZ" PURGE="0" COMMENT="" />
    <EXPORT ORDINAL="401" NAME="?authenticationMethod@QSslCipher@@QEBA?AVQString@@XZ" PURGE="0" COMMENT="" />
    <EXPORT ORDINAL="402" NAME="?authenticationRequired@QNetworkAccessManager@@QEAAXPEAVQNetworkReply@@PEAVQAuthenticator@@@Z" PURGE="0" COMMENT="" />
    <EXPORT ORDINAL="403" NAME="?autoDeleteReplies@QNetworkAccessManager@@QEBA_NXZ" PURGE="0" COMMENT="" />
    <EXPORT ORDINAL="404" NAME="?backendConfiguration@QSslConfiguration@@QEBA?AV?$QMap@VQByteArray@@VQVariant@@@@XZ" PURGE="0" COMMENT="" />
    <EXPORT ORDINAL="405" NAME="?bearerType@QNetworkConfiguration@@QEBA?AW4BearerType@1@XZ" PURGE="0" COMMENT="" />
    <EXPORT ORDINAL="406" NAME="?bearerTypeFamily@QNetworkConfiguration@@QEBA?AW4BearerType@1@XZ" PURGE="0" COMMENT="" />
    <EXPORT ORDINAL="407" NAME="?bearerTypeName@QNetworkConfiguration@@QEBA?AVQString@@XZ" PURGE="0" COMMENT="" />
    <EXPORT ORDINAL="408" NAME="?bind@QAbstractSocket@@QEAA_NAEBVQHostAddress@@GV?$QFlags@W4BindFlag@QAbstractSocket@@@@@Z" PURGE="-1" COMMENT="" />
    <EXPORT ORDINAL="409" NAME="?bind@QAbstractSocket@@QEAA_NGV?$QFlags@W4BindFlag@QAbstractSocket@@@@@Z" PURGE="0" COMMENT="" />
    <EXPORT ORDINAL="410" NAME="?boundary@QHttpMultiPart@@QEBA?AVQByteArray@@XZ" PURGE="0" COMMENT="" />
    <EXPORT ORDINAL="411" NAME="?broadcast@QNetworkAddressEntry@@QEBA?AVQHostAddress@@XZ" PURGE="0" COMMENT="" />
    <EXPORT ORDINAL="412" NAME="?bytesAvailable@QAbstractSocket@@UEBA_JXZ" PURGE="0" COMMENT="" />
    <EXPORT ORDINAL="413" NAME="?bytesAvailable@QLocalSocket@@UEBA_JXZ" PURGE="0" COMMENT="" />
    <EXPORT ORDINAL="414" NAME="?bytesAvailable@QSslSocket@@UEBA_JXZ" PURGE="0" COMMENT="" />
    <EXPORT ORDINAL="415" NAME="?bytesReceived@QNetworkSession@@QEBA_KXZ" PURGE="0" COMMENT="" />
    <EXPORT ORDINAL="416" NAME="?bytesToWrite@QAbstractSocket@@UEBA_JXZ" PURGE="-1" COMMENT="" />
    <EXPORT ORDINAL="417" NAME="?bytesToWrite@QLocalSocket@@UEBA_JXZ" PURGE="0" COMMENT="" />
    <EXPORT ORDINAL="418" NAME="?bytesToWrite@QSslSocket@@UEBA_JXZ" PURGE="0" COMMENT="" />
    <EXPORT ORDINAL="419" NAME="?bytesWritten@QNetworkSession@@QEBA_KXZ" PURGE="0" COMMENT="" />
    <EXPORT ORDINAL="420" NAME="?caCertificates@QSslConfiguration@@QEBA?AV?$QList@VQSslCertificate@@@@XZ" PURGE="0" COMMENT="" />
    <EXPORT ORDINAL="421" NAME="?caCertificates@QSslSocket@@QEBA?AV?$QList@VQSslCertificate@@@@XZ" PURGE="0" COMMENT="" />
    <EXPORT ORDINAL="422" NAME="?cache@QNetworkAccessManager@@QEBAPEAVQAbstractNetworkCache@@XZ" PURGE="0" COMMENT="" />
    <EXPORT ORDINAL="423" NAME="?cacheDirectory@QNetworkDiskCache@@QEBA?AVQString@@XZ" PURGE="0" COMMENT="" />
    <EXPORT ORDINAL="424" NAME="?cacheSize@QNetworkDiskCache@@UEBA_JXZ" PURGE="0" COMMENT="" />
    <EXPORT ORDINAL="425" NAME="?canReadLine@QAbstractSocket@@UEBA_NXZ" PURGE="-1" COMMENT="" />
    <EXPORT ORDINAL="426" NAME="?canReadLine@QLocalSocket@@UEBA_NXZ" PURGE="0" COMMENT="" />
    <EXPORT ORDINAL="427" NAME="?canReadLine@QSslSocket@@UEBA_NXZ" PURGE="0" COMMENT="" />
    <EXPORT ORDINAL="428" NAME="?canonicalNameRecords@QDnsLookup@@QEBA?AV?$QList@VQDnsDomainNameRecord@@@@XZ" PURGE="0" COMMENT="" />
    <EXPORT ORDINAL="429" NAME="?capabilities@QNetworkConfigurationManager@@QEBA?AV?$QFlags@W4Capability@QNetworkConfigurationManager@@@@XZ" PURGE="0" COMMENT="" />
    <EXPORT ORDINAL="430" NAME="?capabilities@QNetworkConfigurationManagerPrivate@@QEBA?AV?$QFlags@W4Capability@QNetworkConfigurationManager@@@@XZ" PURGE="0" COMMENT="" />
    <EXPORT ORDINAL="431" NAME="?capabilities@QNetworkProxy@@QEBA?AV?$QFlags@W4Capability@QNetworkProxy@@@@XZ" PURGE="0" COMMENT="" />
    <EXPORT ORDINAL="432" NAME="?certificate@QSslError@@QEBA?AVQSslCertificate@@XZ" PURGE="0" COMMENT="" />
    <EXPORT ORDINAL="433" NAME="?certificateStatus@QOcspResponse@@QEBA?AW4QOcspCertificateStatus@@XZ" PURGE="0" COMMENT="" />
    <EXPORT ORDINAL="434" NAME="?children@QNetworkConfiguration@@QEBA?AV?$QList@VQNetworkConfiguration@@@@XZ" PURGE="0" COMMENT="" />
    <EXPORT ORDINAL="435" NAME="?ciphers@QSslConfiguration@@QEBA?AV?$QList@VQSslCipher@@@@XZ" PURGE="0" COMMENT="" />
    <EXPORT ORDINAL="436" NAME="?ciphers@QSslSocket@@QEBA?AV?$QList@VQSslCipher@@@@XZ" PURGE="0" COMMENT="" />
    <EXPORT ORDINAL="437" NAME="?cleanup@QNetworkConfigurationManagerPrivate@@QEAAXXZ" PURGE="0" COMMENT="" />
    <EXPORT ORDINAL="438" NAME="?clear@QHostAddress@@QEAAXXZ" PURGE="0" COMMENT="" />
    <EXPORT ORDINAL="439" NAME="?clear@QNetworkDatagram@@QEAAXXZ" PURGE="0" COMMENT="" />
    <EXPORT ORDINAL="440" NAME="?clear@QNetworkDiskCache@@UEAAXXZ" PURGE="0" COMMENT="" />
    <EXPORT ORDINAL="441" NAME="?clear@QSslCertificate@@QEAAXXZ" PURGE="0" COMMENT="" />
    <EXPORT ORDINAL="442" NAME="?clear@QSslKey@@QEAAXXZ" PURGE="0" COMMENT="" />
    <EXPORT ORDINAL="443" NAME="?clearAccessCache@QNetworkAccessManager@@QEAAXXZ" PURGE="0" COMMENT="" />
    <EXPORT ORDINAL="444" NAME="?clearAddressLifetime@QNetworkAddressEntry@@QEAAXXZ" PURGE="0" COMMENT="" />
    <EXPORT ORDINAL="445" NAME="?clearConnectionCache@QNetworkAccessManager@@QEAAXXZ" PURGE="0" COMMENT="" />
    <EXPORT ORDINAL="446" NAME="?close@QAbstractSocket@@UEAAXXZ" PURGE="0" COMMENT="" />
    <EXPORT ORDINAL="447" NAME="?close@QLocalServer@@QEAAXXZ" PURGE="0" COMMENT="" />
    <EXPORT ORDINAL="448" NAME="?close@QLocalSocket@@UEAAXXZ" PURGE="0" COMMENT="" />
    <EXPORT ORDINAL="449" NAME="?close@QNetworkReply@@UEAAXXZ" PURGE="-1" COMMENT="" />
    <EXPORT ORDINAL="450" NAME="?close@QNetworkSession@@QEAAXXZ" PURGE="0" COMMENT="" />
    <EXPORT ORDINAL="451" NAME="?close@QSslSocket@@UEAAXXZ" PURGE="0" COMMENT="" />
    <EXPORT ORDINAL="452" NAME="?close@QTcpServer@@QEAAXXZ" PURGE="0" COMMENT="" />
    <EXPORT ORDINAL="453" NAME="?closeNotification@QTcpServerPrivate@@UEAAXXZ" PURGE="-1" COMMENT="" />
    <EXPORT ORDINAL="454" NAME="?closed@QNetworkSession@@QEAAXXZ" PURGE="-1" COMMENT="" />
    <EXPORT ORDINAL="455" NAME="?closed@QNetworkSessionPrivate@@QEAAXXZ" PURGE="-1" COMMENT="" />
    <EXPORT ORDINAL="456" NAME="?configuration@QNetworkAccessManager@@QEBA?AVQNetworkConfiguration@@XZ" PURGE="0" COMMENT="" />
    <EXPORT ORDINAL="457" NAME="?configuration@QNetworkSession@@QEBA?AVQNetworkConfiguration@@XZ" PURGE="0" COMMENT="" />
    <EXPORT ORDINAL="458" NAME="?configurationAdded@QBearerEngine@@QEAAXV?$QExplicitlySharedDataPointer@VQNetworkConfigurationPrivate@@@@@Z" PURGE="0" COMMENT="" />
    <EXPORT ORDINAL="459" NAME="?configurationAdded@QNetworkConfigurationManager@@QEAAXAEBVQNetworkConfiguration@@@Z" PURGE="0" COMMENT="" />
    <EXPORT ORDINAL="460" NAME="?configurationAdded@QNetworkConfigurationManagerPrivate@@AEAAXV?$QExplicitlySharedDataPointer@VQNetworkConfigurationPrivate@@@@@Z" PURGE="0" COMMENT="" />
    <EXPORT ORDINAL="461" NAME="?configurationAdded@QNetworkConfigurationManagerPrivate@@QEAAXAEBVQNetworkConfiguration@@@Z" PURGE="0" COMMENT="" />
    <EXPORT ORDINAL="462" NAME="?configurationChanged@QBearerEngine@@QEAAXV?$QExplicitlySharedDataPointer@VQNetworkConfigurationPrivate@@@@@Z" PURGE="0" COMMENT="" />
    <EXPORT ORDINAL="463" NAME="?configurationChanged@QNetworkConfigurationManager@@QEAAXAEBVQNetworkConfiguration@@@Z" PURGE="0" COMMENT="" />
    <EXPORT ORDINAL="464" NAME="?configurationChanged@QNetworkConfigurationManagerPrivate@@AEAAXV?$QExplicitlySharedDataPointer@VQNetworkConfigurationPrivate@@@@@Z" PURGE="0" COMMENT="" />
    <EXPORT ORDINAL="465" NAME="?configurationChanged@QNetworkConfigurationManagerPrivate@@QEAAXAEBVQNetworkConfiguration@@@Z" PURGE="0" COMMENT="" />
    <EXPORT ORDINAL="466" NAME="?configurationFromIdentifier@QNetworkConfigurationManager@@QEBA?AVQNetworkConfiguration@@AEBVQString@@@Z" PURGE="0" COMMENT="" />
    <EXPORT ORDINAL="467" NAME="?configurationFromIdentifier@QNetworkConfigurationManagerPrivate@@QEBA?AVQNetworkConfiguration@@AEBVQString@@@Z" PURGE="0" COMMENT="" />
    <EXPORT ORDINAL="468" NAME="?configurationRemoved@QBearerEngine@@QEAAXV?$QExplicitlySharedDataPointer@VQNetworkConfigurationPrivate@@@@@Z" PURGE="0" COMMENT="" />
    <EXPORT ORDINAL="469" NAME="?configurationRemoved@QNetworkConfigurationManager@@QEAAXAEBVQNetworkConfiguration@@@Z" PURGE="0" COMMENT="" />
    <EXPORT ORDINAL="470" NAME="?configurationRemoved@QNetworkConfigurationManagerPrivate@@AEAAXV?$QExplicitlySharedDataPointer@VQNetworkConfigurationPrivate@@@@@Z" PURGE="0" COMMENT="" />
    <EXPORT ORDINAL="471" NAME="?configurationRemoved@QNetworkConfigurationManagerPrivate@@QEAAXAEBVQNetworkConfiguration@@@Z" PURGE="0" COMMENT="" />
    <EXPORT ORDINAL="472" NAME="?configurationUpdateComplete@QNetworkConfigurationManagerPrivate@@QEAAXXZ" PURGE="-1" COMMENT="" />
    <EXPORT ORDINAL="473" NAME="?configurationsInUse@QBearerEngine@@QEBA_NXZ" PURGE="0" COMMENT="" />
    <EXPORT ORDINAL="474" NAME="?configureCreatedSocket@QTcpServerPrivate@@UEAAXXZ" PURGE="0" COMMENT="" />
    <EXPORT ORDINAL="475" NAME="?connectNotify@QNetworkSession@@MEAAXAEBVQMetaMethod@@@Z" PURGE="0" COMMENT="" />
    <EXPORT ORDINAL="476" NAME="?connectTimeout@QNetworkConfiguration@@QEBAHXZ" PURGE="0" COMMENT="" />
    <EXPORT ORDINAL="477" NAME="?connectToHost@QAbstractSocket@@UEAAXAEBVQHostAddress@@GV?$QFlags@W4OpenModeFlag@QIODevice@@@@@Z" PURGE="0" COMMENT="" />
    <EXPORT ORDINAL="478" NAME="?connectToHost@QAbstractSocket@@UEAAXAEBVQString@@GV?$QFlags@W4OpenModeFlag@QIODevice@@@@W4NetworkLayerProtocol@1@@Z" PURGE="0" COMMENT="" />
    <EXPORT ORDINAL="479" NAME="?connectToHost@QNetworkAccessManager@@QEAAXAEBVQString@@G@Z" PURGE="0" COMMENT="" />
    <EXPORT ORDINAL="480" NAME="?connectToHost@QSslSocket@@UEAAXAEBVQString@@GV?$QFlags@W4OpenModeFlag@QIODevice@@@@W4NetworkLayerProtocol@QAbstractSocket@@@Z" PURGE="0" COMMENT="" />
    <EXPORT ORDINAL="481" NAME="?connectToHostEncrypted@QNetworkAccessManager@@QEAAXAEBVQString@@GAEBVQSslConfiguration@@0@Z" PURGE="0" COMMENT="" />
    <EXPORT ORDINAL="482" NAME="?connectToHostEncrypted@QNetworkAccessManager@@QEAAXAEBVQString@@GAEBVQSslConfiguration@@@Z" PURGE="0" COMMENT="" />
    <EXPORT ORDINAL="483" NAME="?connectToHostEncrypted@QSslSocket@@QEAAXAEBVQString@@G0V?$QFlags@W4OpenModeFlag@QIODevice@@@@W4NetworkLayerProtocol@QAbstractSocket@@@Z" PURGE="0" COMMENT="" />
    <EXPORT ORDINAL="484" NAME="?connectToHostEncrypted@QSslSocket@@QEAAXAEBVQString@@GV?$QFlags@W4OpenModeFlag@QIODevice@@@@W4NetworkLayerProtocol@QAbstractSocket@@@Z" PURGE="0" COMMENT="" />
    <EXPORT ORDINAL="485" NAME="?connectToServer@QLocalSocket@@QEAAXAEBVQString@@V?$QFlags@W4OpenModeFlag@QIODevice@@@@@Z" PURGE="0" COMMENT="" />
    <EXPORT ORDINAL="486" NAME="?connectToServer@QLocalSocket@@QEAAXV?$QFlags@W4OpenModeFlag@QIODevice@@@@@Z" PURGE="0" COMMENT="" />
    <EXPORT ORDINAL="487" NAME="?connected@QAbstractSocket@@QEAAXXZ" PURGE="-1" COMMENT="" />
    <EXPORT ORDINAL="488" NAME="?connected@QLocalSocket@@QEAAXXZ" PURGE="-1" COMMENT="" />
    <EXPORT ORDINAL="489" NAME="?connectionNotification@QTcpServerPrivate@@UEAAXXZ" PURGE="0" COMMENT="" />
    <EXPORT ORDINAL="490" NAME="?continueHandshake@QDtls@@AEAA_NPEAVQUdpSocket@@AEBVQByteArray@@@Z" PURGE="0" COMMENT="" />
    <EXPORT ORDINAL="491" NAME="?cookieGeneratorParameters@QDtls@@QEBA?AUGeneratorParameters@QDtlsClientVerifier@@XZ" PURGE="0" COMMENT="" />
    <EXPORT ORDINAL="492" NAME="?cookieGeneratorParameters@QDtlsClientVerifier@@QEBA?AUGeneratorParameters@1@XZ" PURGE="0" COMMENT="" />
    <EXPORT ORDINAL="493" NAME="?cookieJar@QNetworkAccessManager@@QEBAPEAVQNetworkCookieJar@@XZ" PURGE="0" COMMENT="" />
    <EXPORT ORDINAL="494" NAME="?cookiesForUrl@QNetworkCookieJar@@UEBA?AV?$QList@VQNetworkCookie@@@@AEBVQUrl@@@Z" PURGE="0" COMMENT="" />
    <EXPORT ORDINAL="495" NAME="?createRequest@QNetworkAccessManager@@MEAAPEAVQNetworkReply@@W4Operation@1@AEBVQNetworkRequest@@PEAVQIODevice@@@Z" PURGE="0" COMMENT="" />
    <EXPORT ORDINAL="496" NAME="?d_func@QAbstractNetworkCache@@AEAAPEAVQAbstractNetworkCachePrivate@@XZ" PURGE="0" COMMENT="" />
    <EXPORT ORDINAL="497" NAME="?d_func@QAbstractNetworkCache@@AEBAPEBVQAbstractNetworkCachePrivate@@XZ" PURGE="0" COMMENT="" />
    <EXPORT ORDINAL="498" NAME="?d_func@QAbstractSocket@@AEAAPEAVQAbstractSocketPrivate@@XZ" PURGE="0" COMMENT="" />
    <EXPORT ORDINAL="499" NAME="?d_func@QAbstractSocket@@AEBAPEBVQAbstractSocketPrivate@@XZ" PURGE="0" COMMENT="" />
    <EXPORT ORDINAL="500" NAME="?d_func@QDnsLookup@@AEAAPEAVQDnsLookupPrivate@@XZ" PURGE="0" COMMENT="" />
    <EXPORT ORDINAL="501" NAME="?d_func@QDnsLookup@@AEBAPEBVQDnsLookupPrivate@@XZ" PURGE="0" COMMENT="" />
    <EXPORT ORDINAL="502" NAME="?d_func@QDtls@@AEAAPEAVQDtlsPrivate@@XZ" PURGE="0" COMMENT="" />
    <EXPORT ORDINAL="503" NAME="?d_func@QDtls@@AEBAPEBVQDtlsPrivate@@XZ" PURGE="0" COMMENT="" />
    <EXPORT ORDINAL="504" NAME="?d_func@QDtlsClientVerifier@@AEAAPEAVQDtlsClientVerifierPrivate@@XZ" PURGE="0" COMMENT="" />
    <EXPORT ORDINAL="505" NAME="?d_func@QDtlsClientVerifier@@AEBAPEBVQDtlsClientVerifierPrivate@@XZ" PURGE="0" COMMENT="" />
    <EXPORT ORDINAL="506" NAME="?d_func@QHostInfo@@AEAAPEAVQHostInfoPrivate@@XZ" PURGE="0" COMMENT="" />
    <EXPORT ORDINAL="507" NAME="?d_func@QHostInfo@@AEBAPEBVQHostInfoPrivate@@XZ" PURGE="0" COMMENT="" />
    <EXPORT ORDINAL="508" NAME="?d_func@QHttpMultiPart@@AEAAPEAVQHttpMultiPartPrivate@@XZ" PURGE="0" COMMENT="" />
    <EXPORT ORDINAL="509" NAME="?d_func@QHttpMultiPart@@AEBAPEBVQHttpMultiPartPrivate@@XZ" PURGE="0" COMMENT="" />
    <EXPORT ORDINAL="510" NAME="?d_func@QLocalServer@@AEAAPEAVQLocalServerPrivate@@XZ" PURGE="0" COMMENT="" />
    <EXPORT ORDINAL="511" NAME="?d_func@QLocalServer@@AEBAPEBVQLocalServerPrivate@@XZ" PURGE="0" COMMENT="" />
    <EXPORT ORDINAL="512" NAME="?d_func@QLocalSocket@@AEAAPEAVQLocalSocketPrivate@@XZ" PURGE="0" COMMENT="" />
    <EXPORT ORDINAL="513" NAME="?d_func@QLocalSocket@@AEBAPEBVQLocalSocketPrivate@@XZ" PURGE="0" COMMENT="" />
    <EXPORT ORDINAL="514" NAME="?d_func@QNetworkAccessManager@@AEAAPEAVQNetworkAccessManagerPrivate@@XZ" PURGE="0" COMMENT="" />
    <EXPORT ORDINAL="515" NAME="?d_func@QNetworkAccessManager@@AEBAPEBVQNetworkAccessManagerPrivate@@XZ" PURGE="0" COMMENT="" />
    <EXPORT ORDINAL="516" NAME="?d_func@QNetworkCookieJar@@AEAAPEAVQNetworkCookieJarPrivate@@XZ" PURGE="0" COMMENT="" />
    <EXPORT ORDINAL="517" NAME="?d_func@QNetworkCookieJar@@AEBAPEBVQNetworkCookieJarPrivate@@XZ" PURGE="0" COMMENT="" />
    <EXPORT ORDINAL="518" NAME="?d_func@QNetworkDiskCache@@AEAAPEAVQNetworkDiskCachePrivate@@XZ" PURGE="0" COMMENT="" />
    <EXPORT ORDINAL="519" NAME="?d_func@QNetworkDiskCache@@AEBAPEBVQNetworkDiskCachePrivate@@XZ" PURGE="0" COMMENT="" />
    <EXPORT ORDINAL="520" NAME="?d_func@QNetworkReply@@AEAAPEAVQNetworkReplyPrivate@@XZ" PURGE="0" COMMENT="" />
    <EXPORT ORDINAL="521" NAME="?d_func@QNetworkReply@@AEBAPEBVQNetworkReplyPrivate@@XZ" PURGE="0" COMMENT="" />
    <EXPORT ORDINAL="522" NAME="?d_func@QSslSocket@@AEAAPEAVQSslSocketPrivate@@XZ" PURGE="0" COMMENT="" />
    <EXPORT ORDINAL="523" NAME="?d_func@QSslSocket@@AEBAPEBVQSslSocketPrivate@@XZ" PURGE="0" COMMENT="" />
    <EXPORT ORDINAL="524" NAME="?d_func@QTcpServer@@AEAAPEAVQTcpServerPrivate@@XZ" PURGE="0" COMMENT="" />
    <EXPORT ORDINAL="525" NAME="?d_func@QTcpServer@@AEBAPEBVQTcpServerPrivate@@XZ" PURGE="0" COMMENT="" />
    <EXPORT ORDINAL="526" NAME="?d_func@QTcpSocket@@AEAAPEAVQTcpSocketPrivate@@XZ" PURGE="0" COMMENT="" />
    <EXPORT ORDINAL="527" NAME="?d_func@QTcpSocket@@AEBAPEBVQTcpSocketPrivate@@XZ" PURGE="0" COMMENT="" />
    <EXPORT ORDINAL="528" NAME="?d_func@QUdpSocket@@AEAAPEAVQUdpSocketPrivate@@XZ" PURGE="0" COMMENT="" />
    <EXPORT ORDINAL="529" NAME="?d_func@QUdpSocket@@AEBAPEBVQUdpSocketPrivate@@XZ" PURGE="0" COMMENT="" />
    <EXPORT ORDINAL="530" NAME="?data@QNetworkDatagram@@QEBA?AVQByteArray@@XZ" PURGE="0" COMMENT="" />
    <EXPORT ORDINAL="531" NAME="?data@QNetworkDiskCache@@UEAAPEAVQIODevice@@AEBVQUrl@@@Z" PURGE="0" COMMENT="" />
    <EXPORT ORDINAL="532" NAME="?decryptDatagram@QDtls@@QEAA?AVQByteArray@@PEAVQUdpSocket@@AEBV2@@Z" PURGE="0" COMMENT="" />
    <EXPORT ORDINAL="533" NAME="?defaultCaCertificates@QSslSocket@@SA?AV?$QList@VQSslCertificate@@@@XZ" PURGE="0" COMMENT="" />
    <EXPORT ORDINAL="534" NAME="?defaultCiphers@QSslSocket@@SA?AV?$QList@VQSslCipher@@@@XZ" PURGE="0" COMMENT="" />
    <EXPORT ORDINAL="535" NAME="?defaultConfiguration@QNetworkConfigurationManager@@QEBA?AVQNetworkConfiguration@@XZ" PURGE="0" COMMENT="" />
    <EXPORT ORDINAL="536" NAME="?defaultConfiguration@QNetworkConfigurationManagerPrivate@@QEBA?AVQNetworkConfiguration@@XZ" PURGE="0" COMMENT="" />
    <EXPORT ORDINAL="537" NAME="?defaultConfiguration@QSslConfiguration@@SA?AV1@XZ" PURGE="0" COMMENT="" />
    <EXPORT ORDINAL="538" NAME="?defaultDtlsConfiguration@QSslConfiguration@@SA?AV1@XZ" PURGE="0" COMMENT="" />
    <EXPORT ORDINAL="539" NAME="?defaultParameters@QSslDiffieHellmanParameters@@SA?AV1@XZ" PURGE="0" COMMENT="" />
    <EXPORT ORDINAL="540" NAME="?deleteCookie@QNetworkCookieJar@@UEAA_NAEBVQNetworkCookie@@@Z" PURGE="0" COMMENT="" />
    <EXPORT ORDINAL="541" NAME="?deleteResource@QNetworkAccessManager@@QEAAPEAVQNetworkReply@@AEBVQNetworkRequest@@@Z" PURGE="0" COMMENT="" />
    <EXPORT ORDINAL="542" NAME="?deriveKeyPbkdf1@QPasswordDigestor@@YA?AVQByteArray@@W4Algorithm@QCryptographicHash@@AEBV2@1H_K@Z" PURGE="0" COMMENT="" />
    <EXPORT ORDINAL="543" NAME="?deriveKeyPbkdf2@QPasswordDigestor@@YA?AVQByteArray@@W4Algorithm@QCryptographicHash@@AEBV2@1H_K@Z" PURGE="0" COMMENT="" />
    <EXPORT ORDINAL="544" NAME="?destinationAddress@QNetworkDatagram@@QEBA?AVQHostAddress@@XZ" PURGE="0" COMMENT="" />
    <EXPORT ORDINAL="545" NAME="?destinationPort@QNetworkDatagram@@QEBAHXZ" PURGE="0" COMMENT="" />
    <EXPORT ORDINAL="546" NAME="?destroy@QNetworkDatagram@@CAXPEAVQNetworkDatagramPrivate@@@Z" PURGE="0" COMMENT="" />
    <EXPORT ORDINAL="547" NAME="?detach@QAuthenticator@@QEAAXXZ" PURGE="0" COMMENT="" />
    <EXPORT ORDINAL="548" NAME="?diffieHellmanParameters@QSslConfiguration@@QEBA?AVQSslDiffieHellmanParameters@@XZ" PURGE="0" COMMENT="" />
    <EXPORT ORDINAL="549" NAME="?digest@QSslCertificate@@QEBA?AVQByteArray@@W4Algorithm@QCryptographicHash@@@Z" PURGE="0" COMMENT="" />
    <EXPORT ORDINAL="550" NAME="?disablePolling@QNetworkConfigurationManagerPrivate@@QEAAXXZ" PURGE="-1" COMMENT="" />
    <EXPORT ORDINAL="551" NAME="?disconnectFromHost@QAbstractSocket@@UEAAXXZ" PURGE="0" COMMENT="" />
    <EXPORT ORDINAL="552" NAME="?disconnectFromHost@QSslSocket@@UEAAXXZ" PURGE="0" COMMENT="" />
    <EXPORT ORDINAL="553" NAME="?disconnectFromServer@QLocalSocket@@QEAAXXZ" PURGE="0" COMMENT="" />
    <EXPORT ORDINAL="554" NAME="?disconnectNotify@QNetworkSession@@MEAAXAEBVQMetaMethod@@@Z" PURGE="0" COMMENT="" />
    <EXPORT ORDINAL="555" NAME="?disconnected@QAbstractSocket@@QEAAXXZ" PURGE="-1" COMMENT="" />
    <EXPORT ORDINAL="556" NAME="?disconnected@QLocalSocket@@QEAAXXZ" PURGE="-1" COMMENT="" />
    <EXPORT ORDINAL="557" NAME="?dnsEligibility@QNetworkAddressEntry@@QEBA?AW4DnsEligibilityStatus@1@XZ" PURGE="0" COMMENT="" />
    <EXPORT ORDINAL="558" NAME="?doHandshake@QDtls@@QEAA_NPEAVQUdpSocket@@AEBVQByteArray@@@Z" PURGE="0" COMMENT="" />
    <EXPORT ORDINAL="559" NAME="?domain@QNetworkCookie@@QEBA?AVQString@@XZ" PURGE="0" COMMENT="" />
    <EXPORT ORDINAL="560" NAME="?downloadProgress@QNetworkReply@@QEAAX_J0@Z" PURGE="0" COMMENT="" />
    <EXPORT ORDINAL="561" NAME="?dtlsConfiguration@QDtls@@QEBA?AVQSslConfiguration@@XZ" PURGE="0" COMMENT="" />
    <EXPORT ORDINAL="562" NAME="?dtlsCookieVerificationEnabled@QSslConfiguration@@QEBA_NXZ" PURGE="0" COMMENT="" />
    <EXPORT ORDINAL="563" NAME="?dtlsError@QDtls@@QEBA?AW4QDtlsError@@XZ" PURGE="0" COMMENT="" />
    <EXPORT ORDINAL="564" NAME="?dtlsError@QDtlsClientVerifier@@QEBA?AW4QDtlsError@@XZ" PURGE="0" COMMENT="" />
    <EXPORT ORDINAL="565" NAME="?dtlsErrorString@QDtls@@QEBA?AVQString@@XZ" PURGE="0" COMMENT="" />
    <EXPORT ORDINAL="566" NAME="?dtlsErrorString@QDtlsClientVerifier@@QEBA?AVQString@@XZ" PURGE="0" COMMENT="" />
    <EXPORT ORDINAL="567" NAME="?effectiveDate@QSslCertificate@@QEBA?AVQDateTime@@XZ" PURGE="0" COMMENT="" />
    <EXPORT ORDINAL="568" NAME="?ellipticCurves@QSslConfiguration@@QEBA?AV?$QVector@VQSslEllipticCurve@@@@XZ" PURGE="0" COMMENT="" />
    <EXPORT ORDINAL="569" NAME="?enablePolling@QNetworkConfigurationManagerPrivate@@QEAAXXZ" PURGE="-1" COMMENT="" />
    <EXPORT ORDINAL="570" NAME="?enableStrictTransportSecurityStore@QNetworkAccessManager@@QEAAX_NAEBVQString@@@Z" PURGE="0" COMMENT="" />
    <EXPORT ORDINAL="571" NAME="?encrypted@QNetworkAccessManager@@QEAAXPEAVQNetworkReply@@@Z" PURGE="0" COMMENT="" />
    <EXPORT ORDINAL="572" NAME="?encrypted@QNetworkReply@@QEAAXXZ" PURGE="-1" COMMENT="" />
    <EXPORT ORDINAL="573" NAME="?encrypted@QSslSocket@@QEAAXXZ" PURGE="-1" COMMENT="" />
    <EXPORT ORDINAL="574" NAME="?encryptedBytesAvailable@QSslSocket@@QEBA_JXZ" PURGE="0" COMMENT="" />
    <EXPORT ORDINAL="575" NAME="?encryptedBytesToWrite@QSslSocket@@QEBA_JXZ" PURGE="0" COMMENT="" />
    <EXPORT ORDINAL="576" NAME="?encryptedBytesWritten@QSslSocket@@QEAAX_J@Z" PURGE="0" COMMENT="" />
    <EXPORT ORDINAL="577" NAME="?encryptionMethod@QSslCipher@@QEBA?AVQString@@XZ" PURGE="0" COMMENT="" />
    <EXPORT ORDINAL="578" NAME="?engines@QNetworkConfigurationManagerPrivate@@QEBA?AV?$QList@PEAVQBearerEngine@@@@XZ" PURGE="0" COMMENT="" />
    <EXPORT ORDINAL="579" NAME="?ephemeralServerKey@QSslConfiguration@@QEBA?AVQSslKey@@XZ" PURGE="0" COMMENT="" />
    <EXPORT ORDINAL="580" NAME="?equal@QUrlInfo@@SA_NAEBV1@0H@Z" PURGE="0" COMMENT="" />
    <EXPORT ORDINAL="581" NAME="?error@QAbstractSocket@@QEAAXW4SocketError@1@@Z" PURGE="0" COMMENT="" />
    <EXPORT ORDINAL="582" NAME="?error@QAbstractSocket@@QEBA?AW4SocketError@1@XZ" PURGE="0" COMMENT="" />
    <EXPORT ORDINAL="583" NAME="?error@QDnsLookup@@QEBA?AW4Error@1@XZ" PURGE="0" COMMENT="" />
    <EXPORT ORDINAL="584" NAME="?error@QHostInfo@@QEBA?AW4HostInfoError@1@XZ" PURGE="0" COMMENT="" />
    <EXPORT ORDINAL="585" NAME="?error@QLocalSocket@@QEAAXW4LocalSocketError@1@@Z" PURGE="0" COMMENT="" />
    <EXPORT ORDINAL="586" NAME="?error@QLocalSocket@@QEBA?AW4LocalSocketError@1@XZ" PURGE="0" COMMENT="" />
    <EXPORT ORDINAL="587" NAME="?error@QNetworkReply@@QEAAXW4NetworkError@1@@Z" PURGE="0" COMMENT="" />
    <EXPORT ORDINAL="588" NAME="?error@QNetworkReply@@QEBA?AW4NetworkError@1@XZ" PURGE="0" COMMENT="" />
    <EXPORT ORDINAL="589" NAME="?error@QNetworkSession@@QEAAXW4SessionError@1@@Z" PURGE="0" COMMENT="" />
    <EXPORT ORDINAL="590" NAME="?error@QNetworkSession@@QEBA?AW4SessionError@1@XZ" PURGE="0" COMMENT="" />
    <EXPORT ORDINAL="591" NAME="?error@QNetworkSessionPrivate@@QEAAXW4SessionError@QNetworkSession@@@Z" PURGE="0" COMMENT="" />
    <EXPORT ORDINAL="592" NAME="?error@QSslDiffieHellmanParameters@@QEBA?AW4Error@1@XZ" PURGE="0" COMMENT="" />
    <EXPORT ORDINAL="593" NAME="?error@QSslError@@QEBA?AW4SslError@1@XZ" PURGE="0" COMMENT="" />
    <EXPORT ORDINAL="594" NAME="?errorOccurred@QAbstractSocket@@QEAAXW4SocketError@1@@Z" PURGE="0" COMMENT="" />
    <EXPORT ORDINAL="595" NAME="?errorOccurred@QLocalSocket@@QEAAXW4LocalSocketError@1@@Z" PURGE="0" COMMENT="" />
    <EXPORT ORDINAL="596" NAME="?errorOccurred@QNetworkReply@@QEAAXW4NetworkError@1@@Z" PURGE="0" COMMENT="" />
    <EXPORT ORDINAL="597" NAME="?errorString@QDnsLookup@@QEBA?AVQString@@XZ" PURGE="0" COMMENT="" />
    <EXPORT ORDINAL="598" NAME="?errorString@QHostInfo@@QEBA?AVQString@@XZ" PURGE="0" COMMENT="" />
    <EXPORT ORDINAL="599" NAME="?errorString@QLocalServer@@QEBA?AVQString@@XZ" PURGE="0" COMMENT="" />
    <EXPORT ORDINAL="600" NAME="?errorString@QNetworkSession@@QEBA?AVQString@@XZ" PURGE="0" COMMENT="" />
    <EXPORT ORDINAL="601" NAME="?errorString@QSslDiffieHellmanParameters@@QEBA?AVQString@@XZ" PURGE="0" COMMENT="" />
    <EXPORT ORDINAL="602" NAME="?errorString@QSslError@@QEBA?AVQString@@XZ" PURGE="0" COMMENT="" />
    <EXPORT ORDINAL="603" NAME="?errorString@QTcpServer@@QEBA?AVQString@@XZ" PURGE="0" COMMENT="" />
    <EXPORT ORDINAL="604" NAME="?exceptionNotification@QTcpServerPrivate@@UEAAXXZ" PURGE="0" COMMENT="" />
    <EXPORT ORDINAL="605" NAME="?exchange@QDnsMailExchangeRecord@@QEBA?AVQString@@XZ" PURGE="0" COMMENT="" />
    <EXPORT ORDINAL="606" NAME="?expirationDate@QNetworkCacheMetaData@@QEBA?AVQDateTime@@XZ" PURGE="0" COMMENT="" />
    <EXPORT ORDINAL="607" NAME="?expirationDate@QNetworkCookie@@QEBA?AVQDateTime@@XZ" PURGE="0" COMMENT="" />
    <EXPORT ORDINAL="608" NAME="?expire@QNetworkDiskCache@@MEAA_JXZ" PURGE="0" COMMENT="" />
    <EXPORT ORDINAL="609" NAME="?expiry@QHstsPolicy@@QEBA?AVQDateTime@@XZ" PURGE="0" COMMENT="" />
    <EXPORT ORDINAL="610" NAME="?expiryDate@QSslCertificate@@QEBA?AVQDateTime@@XZ" PURGE="0" COMMENT="" />
    <EXPORT ORDINAL="611" NAME="?extensions@QSslCertificate@@QEBA?AV?$QList@VQSslCertificateExtension@@@@XZ" PURGE="0" COMMENT="" />
    <EXPORT ORDINAL="612" NAME="?fileMetaData@QNetworkDiskCache@@QEBA?AVQNetworkCacheMetaData@@AEBVQString@@@Z" PURGE="0" COMMENT="" />
    <EXPORT ORDINAL="613" NAME="?finished@QDnsLookup@@QEAAXXZ" PURGE="-1" COMMENT="" />
    <EXPORT ORDINAL="614" NAME="?finished@QNetworkAccessManager@@QEAAXPEAVQNetworkReply@@@Z" PURGE="0" COMMENT="" />
    <EXPORT ORDINAL="615" NAME="?finished@QNetworkReply@@QEAAXXZ" PURGE="-1" COMMENT="" />
    <EXPORT ORDINAL="616" NAME="?flags@QNetworkInterface@@QEBA?AV?$QFlags@W4InterfaceFlag@QNetworkInterface@@@@XZ" PURGE="0" COMMENT="" />
    <EXPORT ORDINAL="617" NAME="?flush@QAbstractSocket@@QEAA_NXZ" PURGE="-1" COMMENT="" />
    <EXPORT ORDINAL="618" NAME="?flush@QLocalSocket@@QEAA_NXZ" PURGE="0" COMMENT="" />
    <EXPORT ORDINAL="619" NAME="?flush@QSslSocket@@QEAA_NXZ" PURGE="-1" COMMENT="" />
    <EXPORT ORDINAL="620" NAME="?fromData@QSslCertificate@@SA?AV?$QList@VQSslCertificate@@@@AEBVQByteArray@@W4EncodingFormat@QSsl@@@Z" PURGE="0" COMMENT="" />
    <EXPORT ORDINAL="621" NAME="?fromDevice@QSslCertificate@@SA?AV?$QList@VQSslCertificate@@@@PEAVQIODevice@@W4EncodingFormat@QSsl@@@Z" PURGE="0" COMMENT="" />
    <EXPORT ORDINAL="622" NAME="?fromEncoded@QSslDiffieHellmanParameters@@SA?AV1@AEBVQByteArray@@W4EncodingFormat@QSsl@@@Z" PURGE="0" COMMENT="" />
    <EXPORT ORDINAL="623" NAME="?fromEncoded@QSslDiffieHellmanParameters@@SA?AV1@PEAVQIODevice@@W4EncodingFormat@QSsl@@@Z" PURGE="0" COMMENT="" />
    <EXPORT ORDINAL="624" NAME="?fromLongName@QSslEllipticCurve@@SA?AV1@AEBVQString@@@Z" PURGE="0" COMMENT="" />
    <EXPORT ORDINAL="625" NAME="?fromName@QHostInfo@@SA?AV1@AEBVQString@@@Z" PURGE="0" COMMENT="" />
    <EXPORT ORDINAL="626" NAME="?fromPath@QSslCertificate@@SA?AV?$QList@VQSslCertificate@@@@AEBVQString@@W4EncodingFormat@QSsl@@W4PatternSyntax@1@@Z" PURGE="0" COMMENT="" />
    <EXPORT ORDINAL="627" NAME="?fromPath@QSslCertificate@@SA?AV?$QList@VQSslCertificate@@@@AEBVQString@@W4EncodingFormat@QSsl@@W4PatternSyntax@QRegExp@@@Z" PURGE="0" COMMENT="" />
    <EXPORT ORDINAL="628" NAME="?fromShortName@QSslEllipticCurve@@SA?AV1@AEBVQString@@@Z" PURGE="0" COMMENT="" />
    <EXPORT ORDINAL="629" NAME="?fullServerName@QLocalServer@@QEBA?AVQString@@XZ" PURGE="0" COMMENT="" />
    <EXPORT ORDINAL="630" NAME="?fullServerName@QLocalSocket@@QEBA?AVQString@@XZ" PURGE="0" COMMENT="" />
    <EXPORT ORDINAL="631" NAME="?get@QNetworkAccessManager@@QEAAPEAVQNetworkReply@@AEBVQNetworkRequest@@@Z" PURGE="0" COMMENT="" />
    <EXPORT ORDINAL="632" NAME="?greaterThan@QUrlInfo@@SA_NAEBV1@0H@Z" PURGE="0" COMMENT="" />
    <EXPORT ORDINAL="633" NAME="?group@QUrlInfo@@QEBA?AVQString@@XZ" PURGE="0" COMMENT="" />
    <EXPORT ORDINAL="634" NAME="?handle@QSslCertificate@@QEBAPEAXXZ" PURGE="0" COMMENT="" />
    <EXPORT ORDINAL="635" NAME="?handle@QSslKey@@QEBAPEAXXZ" PURGE="0" COMMENT="" />
    <EXPORT ORDINAL="636" NAME="?handleTimeout@QDtls@@QEAA_NPEAVQUdpSocket@@@Z" PURGE="0" COMMENT="" />
    <EXPORT ORDINAL="637" NAME="?handshakeState@QDtls@@QEBA?AW4HandshakeState@1@XZ" PURGE="0" COMMENT="" />
    <EXPORT ORDINAL="638" NAME="?handshakeTimeout@QDtls@@QEAAXXZ" PURGE="-1" COMMENT="" />
    <EXPORT ORDINAL="639" NAME="?hardwareAddress@QNetworkInterface@@QEBA?AVQString@@XZ" PURGE="0" COMMENT="" />
    <EXPORT ORDINAL="640" NAME="?hasPendingConnections@QLocalServer@@UEBA_NXZ" PURGE="0" COMMENT="" />
    <EXPORT ORDINAL="641" NAME="?hasPendingConnections@QTcpServer@@UEBA_NXZ" PURGE="0" COMMENT="" />
    <EXPORT ORDINAL="642" NAME="?hasPendingDatagrams@QUdpSocket@@QEBA_NXZ" PURGE="0" COMMENT="" />
    <EXPORT ORDINAL="643" NAME="?hasRawHeader@QNetworkProxy@@QEBA_NAEBVQByteArray@@@Z" PURGE="0" COMMENT="" />
    <EXPORT ORDINAL="644" NAME="?hasRawHeader@QNetworkReply@@QEBA_NAEBVQByteArray@@@Z" PURGE="0" COMMENT="" />
    <EXPORT ORDINAL="645" NAME="?hasRawHeader@QNetworkRequest@@QEBA_NAEBVQByteArray@@@Z" PURGE="0" COMMENT="" />
    <EXPORT ORDINAL="646" NAME="?hasSameIdentifier@QNetworkCookie@@QEBA_NAEBV1@@Z" PURGE="0" COMMENT="" />
    <EXPORT ORDINAL="647" NAME="?head@QNetworkAccessManager@@QEAAPEAVQNetworkReply@@AEBVQNetworkRequest@@@Z" PURGE="0" COMMENT="" />
    <EXPORT ORDINAL="648" NAME="?header@QNetworkProxy@@QEBA?AVQVariant@@W4KnownHeaders@QNetworkRequest@@@Z" PURGE="0" COMMENT="" />
    <EXPORT ORDINAL="649" NAME="?header@QNetworkReply@@QEBA?AVQVariant@@W4KnownHeaders@QNetworkRequest@@@Z" PURGE="0" COMMENT="" />
    <EXPORT ORDINAL="650" NAME="?header@QNetworkRequest@@QEBA?AVQVariant@@W4KnownHeaders@1@@Z" PURGE="0" COMMENT="" />
    <EXPORT ORDINAL="651" NAME="?hopLimit@QNetworkDatagram@@QEBAHXZ" PURGE="0" COMMENT="" />
    <EXPORT ORDINAL="652" NAME="?host@QHstsPolicy@@QEBA?AVQString@@V?$QFlags@W4ComponentFormattingOption@QUrl@@@@@Z" PURGE="0" COMMENT="" />
    <EXPORT ORDINAL="653" NAME="?hostAddressRecords@QDnsLookup@@QEBA?AV?$QList@VQDnsHostAddressRecord@@@@XZ" PURGE="0" COMMENT="" />
    <EXPORT ORDINAL="654" NAME="?hostFound@QAbstractSocket@@QEAAXXZ" PURGE="-1" COMMENT="" />
    <EXPORT ORDINAL="655" NAME="?hostName@QHostInfo@@QEBA?AVQString@@XZ" PURGE="0" COMMENT="" />
    <EXPORT ORDINAL="656" NAME="?hostName@QNetworkProxy@@QEBA?AVQString@@XZ" PURGE="0" COMMENT="" />
    <EXPORT ORDINAL="657" NAME="?http2Configuration@QNetworkRequest@@QEBA?AVQHttp2Configuration@@XZ" PURGE="0" COMMENT="" />
    <EXPORT ORDINAL="658" NAME="?huffmanCompressionEnabled@QHttp2Configuration@@QEBA_NXZ" PURGE="0" COMMENT="" />
    <EXPORT ORDINAL="659" NAME="?humanReadableName@QNetworkInterface@@QEBA?AVQString@@XZ" PURGE="0" COMMENT="" />
    <EXPORT ORDINAL="660" NAME="?identifier@QNetworkConfiguration@@QEBA?AVQString@@XZ" PURGE="0" COMMENT="" />
    <EXPORT ORDINAL="661" NAME="?identity@QSslPreSharedKeyAuthenticator@@QEBA?AVQByteArray@@XZ" PURGE="0" COMMENT="" />
    <EXPORT ORDINAL="662" NAME="?identityHint@QSslPreSharedKeyAuthenticator@@QEBA?AVQByteArray@@XZ" PURGE="0" COMMENT="" />
    <EXPORT ORDINAL="663" NAME="?ignore@QNetworkSession@@QEAAXXZ" PURGE="0" COMMENT="" />
    <EXPORT ORDINAL="664" NAME="?ignoreSslErrors@QNetworkReply@@QEAAXAEBV?$QList@VQSslError@@@@@Z" PURGE="-1" COMMENT="" />
    <EXPORT ORDINAL="665" NAME="?ignoreSslErrors@QNetworkReply@@UEAAXXZ" PURGE="0" COMMENT="" />
    <EXPORT ORDINAL="666" NAME="?ignoreSslErrors@QSslSocket@@QEAAXAEBV?$QList@VQSslError@@@@@Z" PURGE="0" COMMENT="" />
    <EXPORT ORDINAL="667" NAME="?ignoreSslErrors@QSslSocket@@QEAAXXZ" PURGE="0" COMMENT="" />
    <EXPORT ORDINAL="668" NAME="?ignoreSslErrorsImplementation@QNetworkReply@@MEAAXAEBV?$QList@VQSslError@@@@@Z" PURGE="0" COMMENT="" />
    <EXPORT ORDINAL="669" NAME="?ignoreVerificationErrors@QDtls@@QEAAXAEBV?$QVector@VQSslError@@@@@Z" PURGE="0" COMMENT="" />
    <EXPORT ORDINAL="670" NAME="?importPkcs12@QSslCertificate@@SA_NPEAVQIODevice@@PEAVQSslKey@@PEAV1@PEAV?$QList@VQSslCertificate@@@@AEBVQByteArray@@@Z" PURGE="0" COMMENT="" />
    <EXPORT ORDINAL="671" NAME="?includesSubDomains@QHstsPolicy@@QEBA_NXZ" PURGE="0" COMMENT="" />
    <EXPORT ORDINAL="672" NAME="?incomingConnection@QLocalServer@@MEAAX_K@Z" PURGE="-1" COMMENT="" />
    <EXPORT ORDINAL="673" NAME="?incomingConnection@QTcpServer@@MEAAX_J@Z" PURGE="0" COMMENT="" />
    <EXPORT ORDINAL="674" NAME="?index@QNetworkInterface@@QEBAHXZ" PURGE="0" COMMENT="" />
    <EXPORT ORDINAL="675" NAME="?initialize@QNetworkConfigurationManagerPrivate@@QEAAXXZ" PURGE="0" COMMENT="" />
    <EXPORT ORDINAL="676" NAME="?insert@QNetworkDiskCache@@UEAAXPEAVQIODevice@@@Z" PURGE="0" COMMENT="" />
    <EXPORT ORDINAL="677" NAME="?insertCookie@QNetworkCookieJar@@UEAA_NAEBVQNetworkCookie@@@Z" PURGE="0" COMMENT="" />
    <EXPORT ORDINAL="678" NAME="?interface@QNetworkSession@@QEBA?AVQNetworkInterface@@XZ" PURGE="0" COMMENT="" />
    <EXPORT ORDINAL="679" NAME="?interfaceFromIndex@QNetworkInterface@@SA?AV1@H@Z" PURGE="0" COMMENT="" />
    <EXPORT ORDINAL="680" NAME="?interfaceFromName@QNetworkInterface@@SA?AV1@AEBVQString@@@Z" PURGE="0" COMMENT="" />
    <EXPORT ORDINAL="681" NAME="?interfaceIndex@QNetworkDatagram@@QEBAIXZ" PURGE="0" COMMENT="" />
    <EXPORT ORDINAL="682" NAME="?interfaceIndexFromName@QNetworkInterface@@SAHAEBVQString@@@Z" PURGE="0" COMMENT="" />
    <EXPORT ORDINAL="683" NAME="?interfaceNameFromIndex@QNetworkInterface@@SA?AVQString@@H@Z" PURGE="0" COMMENT="" />
    <EXPORT ORDINAL="684" NAME="?ip@QNetworkAddressEntry@@QEBA?AVQHostAddress@@XZ" PURGE="0" COMMENT="" />
    <EXPORT ORDINAL="685" NAME="?isBlacklisted@QSslCertificate@@QEBA_NXZ" PURGE="0" COMMENT="" />
    <EXPORT ORDINAL="686" NAME="?isBroadcast@QHostAddress@@QEBA_NXZ" PURGE="0" COMMENT="" />
    <EXPORT ORDINAL="687" NAME="?isCachingProxy@QNetworkProxy@@QEBA_NXZ" PURGE="0" COMMENT="" />
    <EXPORT ORDINAL="688" NAME="?isConnectionEncrypted@QDtls@@QEBA_NXZ" PURGE="0" COMMENT="" />
    <EXPORT ORDINAL="689" NAME="?isCritical@QSslCertificateExtension@@QEBA_NXZ" PURGE="0" COMMENT="" />
    <EXPORT ORDINAL="690" NAME="?isDir@QUrlInfo@@QEBA_NXZ" PURGE="0" COMMENT="" />
    <EXPORT ORDINAL="691" NAME="?isEmpty@QSslDiffieHellmanParameters@@QEBA_NXZ" PURGE="0" COMMENT="" />
    <EXPORT ORDINAL="692" NAME="?isEncrypted@QSslSocket@@QEBA_NXZ" PURGE="0" COMMENT="" />
    <EXPORT ORDINAL="693" NAME="?isEqual@QHostAddress@@QEBA_NAEBV1@V?$QFlags@W4ConversionModeFlag@QHostAddress@@@@@Z" PURGE="0" COMMENT="" />
    <EXPORT ORDINAL="694" NAME="?isExecutable@QUrlInfo@@QEBA_NXZ" PURGE="0" COMMENT="" />
    <EXPORT ORDINAL="695" NAME="?isExpired@QHstsPolicy@@QEBA_NXZ" PURGE="0" COMMENT="" />
    <EXPORT ORDINAL="696" NAME="?isFile@QUrlInfo@@QEBA_NXZ" PURGE="0" COMMENT="" />
    <EXPORT ORDINAL="697" NAME="?isFinished@QDnsLookup@@QEBA_NXZ" PURGE="0" COMMENT="" />
    <EXPORT ORDINAL="698" NAME="?isFinished@QNetworkReply@@QEBA_NXZ" PURGE="0" COMMENT="" />
    <EXPORT ORDINAL="699" NAME="?isGlobal@QHostAddress@@QEBA_NXZ" PURGE="0" COMMENT="" />
    <EXPORT ORDINAL="700" NAME="?isHttpOnly@QNetworkCookie@@QEBA_NXZ" PURGE="0" COMMENT="" />
    <EXPORT ORDINAL="701" NAME="?isInSubnet@QHostAddress@@QEBA_NAEBU?$QPair@VQHostAddress@@H@@@Z" PURGE="0" COMMENT="" />
    <EXPORT ORDINAL="702" NAME="?isInSubnet@QHostAddress@@QEBA_NAEBV1@H@Z" PURGE="0" COMMENT="" />
    <EXPORT ORDINAL="703" NAME="?isLifetimeKnown@QNetworkAddressEntry@@QEBA_NXZ" PURGE="0" COMMENT="" />
    <EXPORT ORDINAL="704" NAME="?isLinkLocal@QHostAddress@@QEBA_NXZ" PURGE="0" COMMENT="" />
    <EXPORT ORDINAL="705" NAME="?isListening@QLocalServer@@QEBA_NXZ" PURGE="0" COMMENT="" />
    <EXPORT ORDINAL="706" NAME="?isListening@QTcpServer@@QEBA_NXZ" PURGE="0" COMMENT="" />
    <EXPORT ORDINAL="707" NAME="?isLoopback@QHostAddress@@QEBA_NXZ" PURGE="0" COMMENT="" />
    <EXPORT ORDINAL="708" NAME="?isMulticast@QHostAddress@@QEBA_NXZ" PURGE="0" COMMENT="" />
    <EXPORT ORDINAL="709" NAME="?isNull@QAuthenticator@@QEBA_NXZ" PURGE="0" COMMENT="" />
    <EXPORT ORDINAL="710" NAME="?isNull@QHostAddress@@QEBA_NXZ" PURGE="0" COMMENT="" />
    <EXPORT ORDINAL="711" NAME="?isNull@QNetworkDatagram@@QEBA_NXZ" PURGE="0" COMMENT="" />
    <EXPORT ORDINAL="712" NAME="?isNull@QSslCertificate@@QEBA_NXZ" PURGE="0" COMMENT="" />
    <EXPORT ORDINAL="713" NAME="?isNull@QSslCipher@@QEBA_NXZ" PURGE="0" COMMENT="" />
    <EXPORT ORDINAL="714" NAME="?isNull@QSslConfiguration@@QEBA_NXZ" PURGE="0" COMMENT="" />
    <EXPORT ORDINAL="715" NAME="?isNull@QSslKey@@QEBA_NXZ" PURGE="0" COMMENT="" />
    <EXPORT ORDINAL="716" NAME="?isOnline@QNetworkConfigurationManager@@QEBA_NXZ" PURGE="0" COMMENT="" />
    <EXPORT ORDINAL="717" NAME="?isOnline@QNetworkConfigurationManagerPrivate@@QEBA_NXZ" PURGE="0" COMMENT="" />
    <EXPORT ORDINAL="718" NAME="?isOpen@QNetworkSession@@QEBA_NXZ" PURGE="0" COMMENT="" />
    <EXPORT ORDINAL="719" NAME="?isPermanent@QNetworkAddressEntry@@QEBA_NXZ" PURGE="-1" COMMENT="" />
    <EXPORT ORDINAL="720" NAME="?isReadable@QUrlInfo@@QEBA_NXZ" PURGE="0" COMMENT="" />
    <EXPORT ORDINAL="721" NAME="?isRoamingAvailable@QNetworkConfiguration@@QEBA_NXZ" PURGE="0" COMMENT="" />
    <EXPORT ORDINAL="722" NAME="?isRunning@QNetworkReply@@QEBA_NXZ" PURGE="0" COMMENT="" />
    <EXPORT ORDINAL="723" NAME="?isSecure@QNetworkCookie@@QEBA_NXZ" PURGE="0" COMMENT="" />
    <EXPORT ORDINAL="724" NAME="?isSelfSigned@QSslCertificate@@QEBA_NXZ" PURGE="0" COMMENT="" />
    <EXPORT ORDINAL="725" NAME="?isSequential@QAbstractSocket@@UEBA_NXZ" PURGE="0" COMMENT="" />
    <EXPORT ORDINAL="726" NAME="?isSequential@QLocalSocket@@UEBA_NXZ" PURGE="0" COMMENT="" />
    <EXPORT ORDINAL="727" NAME="?isSequential@QNetworkReply@@UEBA_NXZ" PURGE="0" COMMENT="" />
    <EXPORT ORDINAL="728" NAME="?isSessionCookie@QNetworkCookie@@QEBA_NXZ" PURGE="0" COMMENT="" />
    <EXPORT ORDINAL="729" NAME="?isSiteLocal@QHostAddress@@QEBA_NXZ" PURGE="0" COMMENT="" />
    <EXPORT ORDINAL="730" NAME="?isStrictTransportSecurityEnabled@QNetworkAccessManager@@QEBA_NXZ" PURGE="0" COMMENT="" />
    <EXPORT ORDINAL="731" NAME="?isStrictTransportSecurityStoreEnabled@QNetworkAccessManager@@QEBA_NXZ" PURGE="0" COMMENT="" />
    <EXPORT ORDINAL="732" NAME="?isSupported@QSslCertificateExtension@@QEBA_NXZ" PURGE="0" COMMENT="" />
    <EXPORT ORDINAL="733" NAME="?isSymLink@QUrlInfo@@QEBA_NXZ" PURGE="0" COMMENT="" />
    <EXPORT ORDINAL="734" NAME="?isTemporary@QNetworkAddressEntry@@QEBA_NXZ" PURGE="0" COMMENT="" />
    <EXPORT ORDINAL="735" NAME="?isTlsNamedCurve@QSslEllipticCurve@@QEBA_NXZ" PURGE="0" COMMENT="" />
    <EXPORT ORDINAL="736" NAME="?isTransparentProxy@QNetworkProxy@@QEBA_NXZ" PURGE="0" COMMENT="" />
    <EXPORT ORDINAL="737" NAME="?isUniqueLocalUnicast@QHostAddress@@QEBA_NXZ" PURGE="0" COMMENT="" />
    <EXPORT ORDINAL="738" NAME="?isValid@QAbstractSocket@@QEBA_NXZ" PURGE="-1" COMMENT="" />
    <EXPORT ORDINAL="739" NAME="?isValid@QLocalSocket@@QEBA_NXZ" PURGE="0" COMMENT="" />
    <EXPORT ORDINAL="740" NAME="?isValid@QNetworkCacheMetaData@@QEBA_NXZ" PURGE="0" COMMENT="" />
    <EXPORT ORDINAL="741" NAME="?isValid@QNetworkConfiguration@@QEBA_NXZ" PURGE="0" COMMENT="" />
    <EXPORT ORDINAL="742" NAME="?isValid@QNetworkDatagram@@QEBA_NXZ" PURGE="0" COMMENT="" />
    <EXPORT ORDINAL="743" NAME="?isValid@QNetworkInterface@@QEBA_NXZ" PURGE="0" COMMENT="" />
    <EXPORT ORDINAL="744" NAME="?isValid@QSslCertificate@@QEBA_NXZ" PURGE="0" COMMENT="" />
    <EXPORT ORDINAL="745" NAME="?isValid@QSslDiffieHellmanParameters@@QEBA_NXZ" PURGE="0" COMMENT="" />
    <EXPORT ORDINAL="746" NAME="?isValid@QUrlInfo@@QEBA_NXZ" PURGE="0" COMMENT="" />
    <EXPORT ORDINAL="747" NAME="?isWritable@QUrlInfo@@QEBA_NXZ" PURGE="0" COMMENT="" />
    <EXPORT ORDINAL="748" NAME="?issuerDisplayName@QSslCertificate@@QEBA?AVQString@@XZ" PURGE="0" COMMENT="" />
    <EXPORT ORDINAL="749" NAME="?issuerInfo@QSslCertificate@@QEBA?AVQStringList@@AEBVQByteArray@@@Z" PURGE="0" COMMENT="" />
    <EXPORT ORDINAL="750" NAME="?issuerInfo@QSslCertificate@@QEBA?AVQStringList@@W4SubjectInfo@1@@Z" PURGE="0" COMMENT="" />
    <EXPORT ORDINAL="751" NAME="?issuerInfoAttributes@QSslCertificate@@QEBA?AV?$QList@VQByteArray@@@@XZ" PURGE="0" COMMENT="" />
    <EXPORT ORDINAL="752" NAME="?joinMulticastGroup@QUdpSocket@@QEAA_NAEBVQHostAddress@@@Z" PURGE="0" COMMENT="" />
    <EXPORT ORDINAL="753" NAME="?joinMulticastGroup@QUdpSocket@@QEAA_NAEBVQHostAddress@@AEBVQNetworkInterface@@@Z" PURGE="0" COMMENT="" />
    <EXPORT ORDINAL="754" NAME="?keyExchangeMethod@QSslCipher@@QEBA?AVQString@@XZ" PURGE="0" COMMENT="" />
    <EXPORT ORDINAL="755" NAME="?lastModified@QNetworkCacheMetaData@@QEBA?AVQDateTime@@XZ" PURGE="0" COMMENT="" />
    <EXPORT ORDINAL="756" NAME="?lastModified@QUrlInfo@@QEBA?AVQDateTime@@XZ" PURGE="0" COMMENT="" />
    <EXPORT ORDINAL="757" NAME="?lastRead@QUrlInfo@@QEBA?AVQDateTime@@XZ" PURGE="0" COMMENT="" />
    <EXPORT ORDINAL="758" NAME="?leaveMulticastGroup@QUdpSocket@@QEAA_NAEBVQHostAddress@@@Z" PURGE="0" COMMENT="" />
    <EXPORT ORDINAL="759" NAME="?leaveMulticastGroup@QUdpSocket@@QEAA_NAEBVQHostAddress@@AEBVQNetworkInterface@@@Z" PURGE="0" COMMENT="" />
    <EXPORT ORDINAL="760" NAME="?length@QSslKey@@QEBAHXZ" PURGE="0" COMMENT="" />
    <EXPORT ORDINAL="761" NAME="?lessThan@QUrlInfo@@SA_NAEBV1@0H@Z" PURGE="0" COMMENT="" />
    <EXPORT ORDINAL="762" NAME="?listen@QLocalServer@@QEAA_NAEBVQString@@@Z" PURGE="0" COMMENT="" />
    <EXPORT ORDINAL="763" NAME="?listen@QLocalServer@@QEAA_N_J@Z" PURGE="0" COMMENT="" />
    <EXPORT ORDINAL="764" NAME="?listen@QTcpServer@@QEAA_NAEBVQHostAddress@@G@Z" PURGE="0" COMMENT="" />
    <EXPORT ORDINAL="765" NAME="?localAddress@QAbstractSocket@@QEBA?AVQHostAddress@@XZ" PURGE="0" COMMENT="" />
    <EXPORT ORDINAL="766" NAME="?localCertificate@QSslConfiguration@@QEBA?AVQSslCertificate@@XZ" PURGE="0" COMMENT="" />
    <EXPORT ORDINAL="767" NAME="?localCertificate@QSslSocket@@QEBA?AVQSslCertificate@@XZ" PURGE="0" COMMENT="" />
    <EXPORT ORDINAL="768" NAME="?localCertificateChain@QSslConfiguration@@QEBA?AV?$QList@VQSslCertificate@@@@XZ" PURGE="0" COMMENT="" />
    <EXPORT ORDINAL="769" NAME="?localCertificateChain@QSslSocket@@QEBA?AV?$QList@VQSslCertificate@@@@XZ" PURGE="0" COMMENT="" />
    <EXPORT ORDINAL="770" NAME="?localDomainName@QHostInfo@@SA?AVQString@@XZ" PURGE="0" COMMENT="" />
    <EXPORT ORDINAL="771" NAME="?localHostName@QHostInfo@@SA?AVQString@@XZ" PURGE="0" COMMENT="" />
    <EXPORT ORDINAL="772" NAME="?localPort@QAbstractSocket@@QEBAGXZ" PURGE="0" COMMENT="" />
    <EXPORT ORDINAL="773" NAME="?localPort@QNetworkProxyQuery@@QEBAHXZ" PURGE="0" COMMENT="" />
    <EXPORT ORDINAL="774" NAME="?longName@QSslEllipticCurve@@QEBA?AVQString@@XZ" PURGE="0" COMMENT="" />
    <EXPORT ORDINAL="775" NAME="?lookup@QDnsLookup@@QEAAXXZ" PURGE="0" COMMENT="" />
    <EXPORT ORDINAL="776" NAME="?lookupHost@QHostInfo@@SAHAEBVQString@@PEAVQObject@@PEBD@Z" PURGE="0" COMMENT="" />
    <EXPORT ORDINAL="777" NAME="?lookupHostImpl@QHostInfo@@CAHAEBVQString@@PEBVQObject@@PEAVQSlotObjectBase@QtPrivate@@@Z" PURGE="0" COMMENT="" />
    <EXPORT ORDINAL="778" NAME="?lookupId@QHostInfo@@QEBAHXZ" PURGE="0" COMMENT="" />
    <EXPORT ORDINAL="779" NAME="?mailExchangeRecords@QDnsLookup@@QEBA?AV?$QList@VQDnsMailExchangeRecord@@@@XZ" PURGE="0" COMMENT="" />
    <EXPORT ORDINAL="780" NAME="?makeReply@QNetworkDatagram@@QEGBA?AV1@AEBVQByteArray@@@Z" PURGE="0" COMMENT="" />
    <EXPORT ORDINAL="781" NAME="?makeReply@QNetworkDatagram@@QEHAA?AV1@AEBVQByteArray@@@Z" PURGE="0" COMMENT="" />
    <EXPORT ORDINAL="782" NAME="?makeReply_helper@QNetworkDatagram@@AEBA?AV1@AEBVQByteArray@@@Z" PURGE="0" COMMENT="" />
    <EXPORT ORDINAL="783" NAME="?makeReply_helper_inplace@QNetworkDatagram@@AEAAXAEBVQByteArray@@@Z" PURGE="0" COMMENT="" />
    <EXPORT ORDINAL="784" NAME="?manager@QNetworkReply@@QEBAPEAVQNetworkAccessManager@@XZ" PURGE="0" COMMENT="" />
    <EXPORT ORDINAL="785" NAME="?maxFrameSize@QHttp2Configuration@@QEBAIXZ" PURGE="0" COMMENT="" />
    <EXPORT ORDINAL="786" NAME="?maxPendingConnections@QLocalServer@@QEBAHXZ" PURGE="0" COMMENT="" />
    <EXPORT ORDINAL="787" NAME="?maxPendingConnections@QTcpServer@@QEBAHXZ" PURGE="0" COMMENT="" />
    <EXPORT ORDINAL="788" NAME="?maximumCacheSize@QNetworkDiskCache@@QEBA_JXZ" PURGE="0" COMMENT="" />
    <EXPORT ORDINAL="789" NAME="?maximumIdentityLength@QSslPreSharedKeyAuthenticator@@QEBAHXZ" PURGE="0" COMMENT="" />
    <EXPORT ORDINAL="790" NAME="?maximumPreSharedKeyLength@QSslPreSharedKeyAuthenticator@@QEBAHXZ" PURGE="0" COMMENT="" />
    <EXPORT ORDINAL="791" NAME="?maximumRedirectsAllowed@QNetworkRequest@@QEBAHXZ" PURGE="0" COMMENT="" />
    <EXPORT ORDINAL="792" NAME="?maximumTransmissionUnit@QNetworkInterface@@QEBAHXZ" PURGE="0" COMMENT="" />
    <EXPORT ORDINAL="793" NAME="?metaData@QNetworkDiskCache@@UEAA?AVQNetworkCacheMetaData@@AEBVQUrl@@@Z" PURGE="0" COMMENT="" />
    <EXPORT ORDINAL="794" NAME="?metaDataChanged@QNetworkReply@@QEAAXXZ" PURGE="-1" COMMENT="" />
    <EXPORT ORDINAL="795" NAME="?metaObject@QAbstractNetworkCache@@UEBAPEBUQMetaObject@@XZ" PURGE="0" COMMENT="" />
    <EXPORT ORDINAL="796" NAME="?metaObject@QAbstractSocket@@UEBAPEBUQMetaObject@@XZ" PURGE="0" COMMENT="" />
    <EXPORT ORDINAL="797" NAME="?metaObject@QBearerEngine@@UEBAPEBUQMetaObject@@XZ" PURGE="0" COMMENT="" />
    <EXPORT ORDINAL="798" NAME="?metaObject@QBearerEnginePlugin@@UEBAPEBUQMetaObject@@XZ" PURGE="0" COMMENT="" />
    <EXPORT ORDINAL="799" NAME="?metaObject@QDnsLookup@@UEBAPEBUQMetaObject@@XZ" PURGE="0" COMMENT="" />
    <EXPORT ORDINAL="800" NAME="?metaObject@QDtls@@UEBAPEBUQMetaObject@@XZ" PURGE="0" COMMENT="" />
    <EXPORT ORDINAL="801" NAME="?metaObject@QDtlsClientVerifier@@UEBAPEBUQMetaObject@@XZ" PURGE="0" COMMENT="" />
    <EXPORT ORDINAL="802" NAME="?metaObject@QHttpMultiPart@@UEBAPEBUQMetaObject@@XZ" PURGE="0" COMMENT="" />
    <EXPORT ORDINAL="803" NAME="?metaObject@QLocalServer@@UEBAPEBUQMetaObject@@XZ" PURGE="0" COMMENT="" />
    <EXPORT ORDINAL="804" NAME="?metaObject@QLocalSocket@@UEBAPEBUQMetaObject@@XZ" PURGE="0" COMMENT="" />
    <EXPORT ORDINAL="805" NAME="?metaObject@QNetworkAccessManager@@UEBAPEBUQMetaObject@@XZ" PURGE="0" COMMENT="" />
    <EXPORT ORDINAL="806" NAME="?metaObject@QNetworkConfigurationManager@@UEBAPEBUQMetaObject@@XZ" PURGE="0" COMMENT="" />
    <EXPORT ORDINAL="807" NAME="?metaObject@QNetworkConfigurationManagerPrivate@@UEBAPEBUQMetaObject@@XZ" PURGE="0" COMMENT="" />
    <EXPORT ORDINAL="808" NAME="?metaObject@QNetworkCookieJar@@UEBAPEBUQMetaObject@@XZ" PURGE="0" COMMENT="" />
    <EXPORT ORDINAL="809" NAME="?metaObject@QNetworkDiskCache@@UEBAPEBUQMetaObject@@XZ" PURGE="0" COMMENT="" />
    <EXPORT ORDINAL="810" NAME="?metaObject@QNetworkReply@@UEBAPEBUQMetaObject@@XZ" PURGE="0" COMMENT="" />
    <EXPORT ORDINAL="811" NAME="?metaObject@QNetworkSession@@UEBAPEBUQMetaObject@@XZ" PURGE="0" COMMENT="" />
    <EXPORT ORDINAL="812" NAME="?metaObject@QNetworkSessionPrivate@@UEBAPEBUQMetaObject@@XZ" PURGE="0" COMMENT="" />
    <EXPORT ORDINAL="813" NAME="?metaObject@QSslSocket@@UEBAPEBUQMetaObject@@XZ" PURGE="0" COMMENT="" />
    <EXPORT ORDINAL="814" NAME="?metaObject@QTcpServer@@UEBAPEBUQMetaObject@@XZ" PURGE="0" COMMENT="" />
    <EXPORT ORDINAL="815" NAME="?metaObject@QTcpSocket@@UEBAPEBUQMetaObject@@XZ" PURGE="0" COMMENT="" />
    <EXPORT ORDINAL="816" NAME="?metaObject@QUdpSocket@@UEBAPEBUQMetaObject@@XZ" PURGE="0" COMMENT="" />
    <EXPORT ORDINAL="817" NAME="?migrate@QNetworkSession@@QEAAXXZ" PURGE="0" COMMENT="" />
    <EXPORT ORDINAL="818" NAME="?mode@QSslSocket@@QEBA?AW4SslMode@1@XZ" PURGE="0" COMMENT="" />
    <EXPORT ORDINAL="819" NAME="?modeChanged@QSslSocket@@QEAAXW4SslMode@1@@Z" PURGE="0" COMMENT="" />
    <EXPORT ORDINAL="820" NAME="?mtuHint@QDtls@@QEBAGXZ" PURGE="0" COMMENT="" />
    <EXPORT ORDINAL="821" NAME="?multicastInterface@QUdpSocket@@QEBA?AVQNetworkInterface@@XZ" PURGE="0" COMMENT="" />
    <EXPORT ORDINAL="822" NAME="?name@QDnsDomainNameRecord@@QEBA?AVQString@@XZ" PURGE="0" COMMENT="" />
    <EXPORT ORDINAL="823" NAME="?name@QDnsHostAddressRecord@@QEBA?AVQString@@XZ" PURGE="0" COMMENT="" />
    <EXPORT ORDINAL="824" NAME="?name@QDnsLookup@@QEBA?AVQString@@XZ" PURGE="0" COMMENT="" />
    <EXPORT ORDINAL="825" NAME="?name@QDnsMailExchangeRecord@@QEBA?AVQString@@XZ" PURGE="0" COMMENT="" />
    <EXPORT ORDINAL="826" NAME="?name@QDnsServiceRecord@@QEBA?AVQString@@XZ" PURGE="0" COMMENT="" />
    <EXPORT ORDINAL="827" NAME="?name@QDnsTextRecord@@QEBA?AVQString@@XZ" PURGE="0" COMMENT="" />
    <EXPORT ORDINAL="828" NAME="?name@QNetworkConfiguration@@QEBA?AVQString@@XZ" PURGE="0" COMMENT="" />
    <EXPORT ORDINAL="829" NAME="?name@QNetworkCookie@@QEBA?AVQByteArray@@XZ" PURGE="0" COMMENT="" />
    <EXPORT ORDINAL="830" NAME="?name@QNetworkInterface@@QEBA?AVQString@@XZ" PURGE="0" COMMENT="" />
    <EXPORT ORDINAL="831" NAME="?name@QSslCertificateExtension@@QEBA?AVQString@@XZ" PURGE="0" COMMENT="" />
    <EXPORT ORDINAL="832" NAME="?name@QSslCipher@@QEBA?AVQString@@XZ" PURGE="0" COMMENT="" />
    <EXPORT ORDINAL="833" NAME="?name@QUrlInfo@@QEBA?AVQString@@XZ" PURGE="0" COMMENT="" />
    <EXPORT ORDINAL="834" NAME="?nameChanged@QDnsLookup@@QEAAXAEBVQString@@@Z" PURGE="0" COMMENT="" />
    <EXPORT ORDINAL="835" NAME="?nameServerRecords@QDnsLookup@@QEBA?AV?$QList@VQDnsDomainNameRecord@@@@XZ" PURGE="0" COMMENT="" />
    <EXPORT ORDINAL="836" NAME="?nameserver@QDnsLookup@@QEBA?AVQHostAddress@@XZ" PURGE="0" COMMENT="" />
    <EXPORT ORDINAL="837" NAME="?nameserverChanged@QDnsLookup@@QEAAXAEBVQHostAddress@@@Z" PURGE="0" COMMENT="" />
    <EXPORT ORDINAL="838" NAME="?netmask@QNetworkAddressEntry@@QEBA?AVQHostAddress@@XZ" PURGE="0" COMMENT="" />
    <EXPORT ORDINAL="839" NAME="?networkAccessible@QNetworkAccessManager@@QEBA?AW4NetworkAccessibility@1@XZ" PURGE="0" COMMENT="" />
    <EXPORT ORDINAL="840" NAME="?networkAccessibleChanged@QNetworkAccessManager@@QEAAXW4NetworkAccessibility@1@@Z" PURGE="0" COMMENT="" />
    <EXPORT ORDINAL="841" NAME="?networkConfiguration@QNetworkProxyQuery@@QEBA?AVQNetworkConfiguration@@XZ" PURGE="0" COMMENT="" />
    <EXPORT ORDINAL="842" NAME="?networkSessionConnected@QNetworkAccessManager@@QEAAXXZ" PURGE="-1" COMMENT="" />
    <EXPORT ORDINAL="843" NAME="?newConfigurationActivated@QNetworkSession@@QEAAXXZ" PURGE="-1" COMMENT="" />
    <EXPORT ORDINAL="844" NAME="?newConfigurationActivated@QNetworkSessionPrivate@@QEAAXXZ" PURGE="-1" COMMENT="" />
    <EXPORT ORDINAL="845" NAME="?newConnection@QLocalServer@@QEAAXXZ" PURGE="-1" COMMENT="" />
    <EXPORT ORDINAL="846" NAME="?newConnection@QTcpServer@@QEAAXXZ" PURGE="-1" COMMENT="" />
    <EXPORT ORDINAL="847" NAME="?newSessionTicketReceived@QSslSocket@@QEAAXXZ" PURGE="-1" COMMENT="" />
    <EXPORT ORDINAL="848" NAME="?nextNegotiatedProtocol@QSslConfiguration@@QEBA?AVQByteArray@@XZ" PURGE="0" COMMENT="" />
    <EXPORT ORDINAL="849" NAME="?nextPendingConnection@QLocalServer@@UEAAPEAVQLocalSocket@@XZ" PURGE="0" COMMENT="" />
    <EXPORT ORDINAL="850" NAME="?nextPendingConnection@QTcpServer@@UEAAPEAVQTcpSocket@@XZ" PURGE="0" COMMENT="" />
    <EXPORT ORDINAL="851" NAME="?nextProtocolNegotiationStatus@QSslConfiguration@@QEBA?AW4NextProtocolNegotiationStatus@1@XZ" PURGE="0" COMMENT="" />
    <EXPORT ORDINAL="852" NAME="?normalize@QNetworkCookie@@QEAAXAEBVQUrl@@@Z" PURGE="0" COMMENT="" />
    <EXPORT ORDINAL="853" NAME="?ocspResponses@QSslSocket@@QEBA?AV?$QVector@VQOcspResponse@@@@XZ" PURGE="0" COMMENT="" />
    <EXPORT ORDINAL="854" NAME="?ocspStaplingEnabled@QSslConfiguration@@QEBA_NXZ" PURGE="0" COMMENT="" />
    <EXPORT ORDINAL="855" NAME="?oid@QSslCertificateExtension@@QEBA?AVQString@@XZ" PURGE="0" COMMENT="" />
    <EXPORT ORDINAL="856" NAME="?onlineStateChanged@QNetworkConfigurationManager@@QEAAX_N@Z" PURGE="0" COMMENT="" />
    <EXPORT ORDINAL="857" NAME="?onlineStateChanged@QNetworkConfigurationManagerPrivate@@QEAAX_N@Z" PURGE="0" COMMENT="" />
    <EXPORT ORDINAL="858" NAME="?open@QLocalSocket@@UEAA_NV?$QFlags@W4OpenModeFlag@QIODevice@@@@@Z" PURGE="-1" COMMENT="" />
    <EXPORT ORDINAL="859" NAME="?open@QNetworkSession@@QEAAXXZ" PURGE="0" COMMENT="" />
    <EXPORT ORDINAL="860" NAME="?opened@QNetworkSession@@QEAAXXZ" PURGE="-1" COMMENT="" />
    <EXPORT ORDINAL="861" NAME="?operation@QNetworkReply@@QEBA?AW4Operation@QNetworkAccessManager@@XZ" PURGE="0" COMMENT="" />
    <EXPORT ORDINAL="862" NAME="?option@QAuthenticator@@QEBA?AVQVariant@@AEBVQString@@@Z" PURGE="0" COMMENT="" />
    <EXPORT ORDINAL="863" NAME="?options@QAuthenticator@@QEBA?AV?$QHash@VQString@@VQVariant@@@@XZ" PURGE="0" COMMENT="" />
    <EXPORT ORDINAL="864" NAME="?originatingObject@QNetworkRequest@@QEBAPEAVQObject@@XZ" PURGE="0" COMMENT="" />
    <EXPORT ORDINAL="865" NAME="?owner@QUrlInfo@@QEBA?AVQString@@XZ" PURGE="0" COMMENT="" />
    <EXPORT ORDINAL="866" NAME="?parseCookies@QNetworkCookie@@SA?AV?$QList@VQNetworkCookie@@@@AEBVQByteArray@@@Z" PURGE="0" COMMENT="" />
    <EXPORT ORDINAL="867" NAME="?parseSubnet@QHostAddress@@SA?AU?$QPair@VQHostAddress@@H@@AEBVQString@@@Z" PURGE="0" COMMENT="" />
    <EXPORT ORDINAL="868" NAME="?password@QAuthenticator@@QEBA?AVQString@@XZ" PURGE="0" COMMENT="" />
    <EXPORT ORDINAL="869" NAME="?password@QNetworkProxy@@QEBA?AVQString@@XZ" PURGE="0" COMMENT="" />
    <EXPORT ORDINAL="870" NAME="?path@QNetworkCookie@@QEBA?AVQString@@XZ" PURGE="0" COMMENT="" />
    <EXPORT ORDINAL="871" NAME="?pauseAccepting@QTcpServer@@QEAAXXZ" PURGE="-1" COMMENT="" />
    <EXPORT ORDINAL="872" NAME="?pauseMode@QAbstractSocket@@QEBA?AV?$QFlags@W4PauseMode@QAbstractSocket@@@@XZ" PURGE="0" COMMENT="" />
    <EXPORT ORDINAL="873" NAME="?peerAddress@QAbstractSocket@@QEBA?AVQHostAddress@@XZ" PURGE="0" COMMENT="" />
    <EXPORT ORDINAL="874" NAME="?peerAddress@QDtls@@QEBA?AVQHostAddress@@XZ" PURGE="0" COMMENT="" />
    <EXPORT ORDINAL="875" NAME="?peerCertificate@QSslConfiguration@@QEBA?AVQSslCertificate@@XZ" PURGE="0" COMMENT="" />
    <EXPORT ORDINAL="876" NAME="?peerCertificate@QSslSocket@@QEBA?AVQSslCertificate@@XZ" PURGE="0" COMMENT="" />
    <EXPORT ORDINAL="877" NAME="?peerCertificateChain@QSslConfiguration@@QEBA?AV?$QList@VQSslCertificate@@@@XZ" PURGE="0" COMMENT="" />
    <EXPORT ORDINAL="878" NAME="?peerCertificateChain@QSslSocket@@QEBA?AV?$QList@VQSslCertificate@@@@XZ" PURGE="0" COMMENT="" />
    <EXPORT ORDINAL="879" NAME="?peerHostName@QNetworkProxyQuery@@QEBA?AVQString@@XZ" PURGE="0" COMMENT="" />
    <EXPORT ORDINAL="880" NAME="?peerName@QAbstractSocket@@QEBA?AVQString@@XZ" PURGE="0" COMMENT="" />
    <EXPORT ORDINAL="881" NAME="?peerPort@QAbstractSocket@@QEBAGXZ" PURGE="0" COMMENT="" />
    <EXPORT ORDINAL="882" NAME="?peerPort@QDtls@@QEBAGXZ" PURGE="0" COMMENT="" />
    <EXPORT ORDINAL="883" NAME="?peerPort@QNetworkProxyQuery@@QEBAHXZ" PURGE="0" COMMENT="" />
    <EXPORT ORDINAL="884" NAME="?peerVerificationErrors@QDtls@@QEBA?AV?$QVector@VQSslError@@@@XZ" PURGE="0" COMMENT="" />
    <EXPORT ORDINAL="885" NAME="?peerVerificationName@QDtls@@QEBA?AVQString@@XZ" PURGE="0" COMMENT="" />
    <EXPORT ORDINAL="886" NAME="?peerVerifyDepth@QSslConfiguration@@QEBAHXZ" PURGE="0" COMMENT="" />
    <EXPORT ORDINAL="887" NAME="?peerVerifyDepth@QSslSocket@@QEBAHXZ" PURGE="0" COMMENT="" />
    <EXPORT ORDINAL="888" NAME="?peerVerifyError@QSslSocket@@QEAAXAEBVQSslError@@@Z" PURGE="0" COMMENT="" />
    <EXPORT ORDINAL="889" NAME="?peerVerifyMode@QSslConfiguration@@QEBA?AW4PeerVerifyMode@QSslSocket@@XZ" PURGE="0" COMMENT="" />
    <EXPORT ORDINAL="890" NAME="?peerVerifyMode@QSslSocket@@QEBA?AW4PeerVerifyMode@1@XZ" PURGE="0" COMMENT="" />
    <EXPORT ORDINAL="891" NAME="?peerVerifyName@QNetworkRequest@@QEBA?AVQString@@XZ" PURGE="0" COMMENT="" />
    <EXPORT ORDINAL="892" NAME="?peerVerifyName@QSslSocket@@QEBA?AVQString@@XZ" PURGE="0" COMMENT="" />
    <EXPORT ORDINAL="893" NAME="?pendingDatagramSize@QUdpSocket@@QEBA_JXZ" PURGE="0" COMMENT="" />
    <EXPORT ORDINAL="894" NAME="?performAsyncConfigurationUpdate@QNetworkConfigurationManagerPrivate@@QEAAXXZ" PURGE="-1" COMMENT="" />
    <EXPORT ORDINAL="895" NAME="?permissions@QUrlInfo@@QEBAHXZ" PURGE="0" COMMENT="" />
    <EXPORT ORDINAL="896" NAME="?pointerRecords@QDnsLookup@@QEBA?AV?$QList@VQDnsDomainNameRecord@@@@XZ" PURGE="0" COMMENT="" />
    <EXPORT ORDINAL="897" NAME="?pollEngines@QNetworkConfigurationManagerPrivate@@AEAAXXZ" PURGE="-1" COMMENT="" />
    <EXPORT ORDINAL="898" NAME="?port@QDnsServiceRecord@@QEBAGXZ" PURGE="0" COMMENT="" />
    <EXPORT ORDINAL="899" NAME="?port@QNetworkProxy@@QEBAGXZ" PURGE="0" COMMENT="" />
    <EXPORT ORDINAL="900" NAME="?post@QNetworkAccessManager@@QEAAPEAVQNetworkReply@@AEBVQNetworkRequest@@AEBVQByteArray@@@Z" PURGE="0" COMMENT="" />
    <EXPORT ORDINAL="901" NAME="?post@QNetworkAccessManager@@QEAAPEAVQNetworkReply@@AEBVQNetworkRequest@@PEAVQHttpMultiPart@@@Z" PURGE="0" COMMENT="" />
    <EXPORT ORDINAL="902" NAME="?post@QNetworkAccessManager@@QEAAPEAVQNetworkReply@@AEBVQNetworkRequest@@PEAVQIODevice@@@Z" PURGE="0" COMMENT="" />
    <EXPORT ORDINAL="903" NAME="?preSharedKey@QSslPreSharedKeyAuthenticator@@QEBA?AVQByteArray@@XZ" PURGE="0" COMMENT="" />
    <EXPORT ORDINAL="904" NAME="?preSharedKeyAuthenticationRequired@QNetworkAccessManager@@QEAAXPEAVQNetworkReply@@PEAVQSslPreSharedKeyAuthenticator@@@Z" PURGE="0" COMMENT="" />
    <EXPORT ORDINAL="905" NAME="?preSharedKeyAuthenticationRequired@QNetworkReply@@QEAAXPEAVQSslPreSharedKeyAuthenticator@@@Z" PURGE="0" COMMENT="" />
    <EXPORT ORDINAL="906" NAME="?preSharedKeyAuthenticationRequired@QSslSocket@@QEAAXPEAVQSslPreSharedKeyAuthenticator@@@Z" PURGE="0" COMMENT="" />
    <EXPORT ORDINAL="907" NAME="?preSharedKeyIdentityHint@QSslConfiguration@@QEBA?AVQByteArray@@XZ" PURGE="0" COMMENT="" />
    <EXPORT ORDINAL="908" NAME="?preference@QDnsMailExchangeRecord@@QEBAGXZ" PURGE="0" COMMENT="" />
    <EXPORT ORDINAL="909" NAME="?preferredConfigurationChanged@QNetworkSession@@QEAAXAEBVQNetworkConfiguration@@_N@Z" PURGE="0" COMMENT="" />
    <EXPORT ORDINAL="910" NAME="?preferredConfigurationChanged@QNetworkSessionPrivate@@QEAAXAEBVQNetworkConfiguration@@_N@Z" PURGE="0" COMMENT="" />
    <EXPORT ORDINAL="911" NAME="?preferredLifetime@QNetworkAddressEntry@@QEBA?AVQDeadlineTimer@@XZ" PURGE="0" COMMENT="" />
    <EXPORT ORDINAL="912" NAME="?prefixLength@QNetworkAddressEntry@@QEBAHXZ" PURGE="0" COMMENT="" />
    <EXPORT ORDINAL="913" NAME="?prepare@QNetworkDiskCache@@UEAAPEAVQIODevice@@AEBVQNetworkCacheMetaData@@@Z" PURGE="0" COMMENT="" />
    <EXPORT ORDINAL="914" NAME="?priority@QDnsServiceRecord@@QEBAGXZ" PURGE="0" COMMENT="" />
    <EXPORT ORDINAL="915" NAME="?priority@QNetworkRequest@@QEBA?AW4Priority@1@XZ" PURGE="0" COMMENT="" />
    <EXPORT ORDINAL="916" NAME="?privateConfiguration@QNetworkSessionPrivate@@IEBA?AV?$QExplicitlySharedDataPointer@VQNetworkConfigurationPrivate@@@@AEBVQNetworkConfiguration@@@Z" PURGE="0" COMMENT="" />
    <EXPORT ORDINAL="917" NAME="?privateKey@QSslConfiguration@@QEBA?AVQSslKey@@XZ" PURGE="0" COMMENT="" />
    <EXPORT ORDINAL="918" NAME="?privateKey@QSslSocket@@QEBA?AVQSslKey@@XZ" PURGE="0" COMMENT="" />
    <EXPORT ORDINAL="919" NAME="?protocol@QHostAddress@@QEBA?AW4NetworkLayerProtocol@QAbstractSocket@@XZ" PURGE="0" COMMENT="" />
    <EXPORT ORDINAL="920" NAME="?protocol@QSslCipher@@QEBA?AW4SslProtocol@QSsl@@XZ" PURGE="0" COMMENT="" />
    <EXPORT ORDINAL="921" NAME="?protocol@QSslConfiguration@@QEBA?AW4SslProtocol@QSsl@@XZ" PURGE="0" COMMENT="" />
    <EXPORT ORDINAL="922" NAME="?protocol@QSslSocket@@QEBA?AW4SslProtocol@QSsl@@XZ" PURGE="0" COMMENT="" />
    <EXPORT ORDINAL="923" NAME="?protocolString@QSslCipher@@QEBA?AVQString@@XZ" PURGE="0" COMMENT="" />
    <EXPORT ORDINAL="924" NAME="?protocolTag@QAbstractSocket@@QEBA?AVQString@@XZ" PURGE="0" COMMENT="" />
    <EXPORT ORDINAL="925" NAME="?protocolTag@QNetworkProxyQuery@@QEBA?AVQString@@XZ" PURGE="0" COMMENT="" />
    <EXPORT ORDINAL="926" NAME="?proxy@QAbstractSocket@@QEBA?AVQNetworkProxy@@XZ" PURGE="0" COMMENT="" />
    <EXPORT ORDINAL="927" NAME="?proxy@QNetworkAccessManager@@QEBA?AVQNetworkProxy@@XZ" PURGE="0" COMMENT="" />
    <EXPORT ORDINAL="928" NAME="?proxy@QTcpServer@@QEBA?AVQNetworkProxy@@XZ" PURGE="0" COMMENT="" />
    <EXPORT ORDINAL="929" NAME="?proxyAuthenticationRequired@QAbstractSocket@@QEAAXAEBVQNetworkProxy@@PEAVQAuthenticator@@@Z" PURGE="0" COMMENT="" />
    <EXPORT ORDINAL="930" NAME="?proxyAuthenticationRequired@QNetworkAccessManager@@QEAAXAEBVQNetworkProxy@@PEAVQAuthenticator@@@Z" PURGE="0" COMMENT="" />
    <EXPORT ORDINAL="931" NAME="?proxyAuthenticationRequired@QTcpServerPrivate@@UEAAXAEBVQNetworkProxy@@PEAVQAuthenticator@@@Z" PURGE="0" COMMENT="" />
    <EXPORT ORDINAL="932" NAME="?proxyFactory@QNetworkAccessManager@@QEBAPEAVQNetworkProxyFactory@@XZ" PURGE="0" COMMENT="" />
    <EXPORT ORDINAL="933" NAME="?proxyForQuery@QNetworkProxyFactory@@SA?AV?$QList@VQNetworkProxy@@@@AEBVQNetworkProxyQuery@@@Z" PURGE="0" COMMENT="" />
    <EXPORT ORDINAL="934" NAME="?pskRequired@QDtls@@QEAAXPEAVQSslPreSharedKeyAuthenticator@@@Z" PURGE="0" COMMENT="" />
    <EXPORT ORDINAL="935" NAME="?publicKey@QSslCertificate@@QEBA?AVQSslKey@@XZ" PURGE="0" COMMENT="" />
    <EXPORT ORDINAL="936" NAME="?purpose@QNetworkConfiguration@@QEBA?AW4Purpose@1@XZ" PURGE="0" COMMENT="" />
    <EXPORT ORDINAL="937" NAME="?put@QNetworkAccessManager@@QEAAPEAVQNetworkReply@@AEBVQNetworkRequest@@AEBVQByteArray@@@Z" PURGE="0" COMMENT="" />
    <EXPORT ORDINAL="938" NAME="?put@QNetworkAccessManager@@QEAAPEAVQNetworkReply@@AEBVQNetworkRequest@@PEAVQHttpMultiPart@@@Z" PURGE="0" COMMENT="" />
    <EXPORT ORDINAL="939" NAME="?put@QNetworkAccessManager@@QEAAPEAVQNetworkReply@@AEBVQNetworkRequest@@PEAVQIODevice@@@Z" PURGE="0" COMMENT="" />
    <EXPORT ORDINAL="940" NAME="?qHash@@YAIAEBVQHostAddress@@I@Z" PURGE="-1" COMMENT="" />
    <EXPORT ORDINAL="941" NAME="?qHash@@YAIAEBVQOcspResponse@@I@Z" PURGE="0" COMMENT="" />
    <EXPORT ORDINAL="942" NAME="?qHash@@YAIAEBVQSslCertificate@@I@Z" PURGE="0" COMMENT="" />
    <EXPORT ORDINAL="943" NAME="?qHash@@YAIAEBVQSslDiffieHellmanParameters@@I@Z" PURGE="-1" COMMENT="" />
    <EXPORT ORDINAL="944" NAME="?qHash@@YAIAEBVQSslError@@I@Z" PURGE="0" COMMENT="" />
    <EXPORT ORDINAL="945" NAME="?qNetworkConfigurationManagerPrivate@@YAPEAVQNetworkConfigurationManagerPrivate@@XZ" PURGE="0" COMMENT="" />
    <EXPORT ORDINAL="946" NAME="?q_func@QTcpServerPrivate@@AEAAPEAVQTcpServer@@XZ" PURGE="0" COMMENT="" />
    <EXPORT ORDINAL="947" NAME="?q_func@QTcpServerPrivate@@AEBAPEBVQTcpServer@@XZ" PURGE="0" COMMENT="" />
    <EXPORT ORDINAL="948" NAME="?qt_ForceTlsSecurityLevel@@YAXXZ" PURGE="0" COMMENT="" />
    <EXPORT ORDINAL="949" NAME="?qt_metacall@QAbstractNetworkCache@@UEAAHW4Call@QMetaObject@@HPEAPEAX@Z" PURGE="0" COMMENT="" />
    <EXPORT ORDINAL="950" NAME="?qt_metacall@QAbstractSocket@@UEAAHW4Call@QMetaObject@@HPEAPEAX@Z" PURGE="0" COMMENT="" />
    <EXPORT ORDINAL="951" NAME="?qt_metacall@QBearerEngine@@UEAAHW4Call@QMetaObject@@HPEAPEAX@Z" PURGE="0" COMMENT="" />
    <EXPORT ORDINAL="952" NAME="?qt_metacall@QBearerEnginePlugin@@UEAAHW4Call@QMetaObject@@HPEAPEAX@Z" PURGE="-1" COMMENT="" />
    <EXPORT ORDINAL="953" NAME="?qt_metacall@QDnsLookup@@UEAAHW4Call@QMetaObject@@HPEAPEAX@Z" PURGE="0" COMMENT="" />
    <EXPORT ORDINAL="954" NAME="?qt_metacall@QDtls@@UEAAHW4Call@QMetaObject@@HPEAPEAX@Z" PURGE="0" COMMENT="" />
    <EXPORT ORDINAL="955" NAME="?qt_metacall@QDtlsClientVerifier@@UEAAHW4Call@QMetaObject@@HPEAPEAX@Z" PURGE="-1" COMMENT="" />
    <EXPORT ORDINAL="956" NAME="?qt_metacall@QHttpMultiPart@@UEAAHW4Call@QMetaObject@@HPEAPEAX@Z" PURGE="-1" COMMENT="" />
    <EXPORT ORDINAL="957" NAME="?qt_metacall@QLocalServer@@UEAAHW4Call@QMetaObject@@HPEAPEAX@Z" PURGE="0" COMMENT="" />
    <EXPORT ORDINAL="958" NAME="?qt_metacall@QLocalSocket@@UEAAHW4Call@QMetaObject@@HPEAPEAX@Z" PURGE="0" COMMENT="" />
    <EXPORT ORDINAL="959" NAME="?qt_metacall@QNetworkAccessManager@@UEAAHW4Call@QMetaObject@@HPEAPEAX@Z" PURGE="0" COMMENT="" />
    <EXPORT ORDINAL="960" NAME="?qt_metacall@QNetworkConfigurationManager@@UEAAHW4Call@QMetaObject@@HPEAPEAX@Z" PURGE="0" COMMENT="" />
    <EXPORT ORDINAL="961" NAME="?qt_metacall@QNetworkConfigurationManagerPrivate@@UEAAHW4Call@QMetaObject@@HPEAPEAX@Z" PURGE="0" COMMENT="" />
    <EXPORT ORDINAL="962" NAME="?qt_metacall@QNetworkCookieJar@@UEAAHW4Call@QMetaObject@@HPEAPEAX@Z" PURGE="-1" COMMENT="" />
    <EXPORT ORDINAL="963" NAME="?qt_metacall@QNetworkDiskCache@@UEAAHW4Call@QMetaObject@@HPEAPEAX@Z" PURGE="0" COMMENT="" />
    <EXPORT ORDINAL="964" NAME="?qt_metacall@QNetworkReply@@UEAAHW4Call@QMetaObject@@HPEAPEAX@Z" PURGE="0" COMMENT="" />
    <EXPORT ORDINAL="965" NAME="?qt_metacall@QNetworkSession@@UEAAHW4Call@QMetaObject@@HPEAPEAX@Z" PURGE="0" COMMENT="" />
    <EXPORT ORDINAL="966" NAME="?qt_metacall@QNetworkSessionPrivate@@UEAAHW4Call@QMetaObject@@HPEAPEAX@Z" PURGE="0" COMMENT="" />
    <EXPORT ORDINAL="967" NAME="?qt_metacall@QSslSocket@@UEAAHW4Call@QMetaObject@@HPEAPEAX@Z" PURGE="0" COMMENT="" />
    <EXPORT ORDINAL="968" NAME="?qt_metacall@QTcpServer@@UEAAHW4Call@QMetaObject@@HPEAPEAX@Z" PURGE="0" COMMENT="" />
    <EXPORT ORDINAL="969" NAME="?qt_metacall@QTcpSocket@@UEAAHW4Call@QMetaObject@@HPEAPEAX@Z" PURGE="0" COMMENT="" />
    <EXPORT ORDINAL="970" NAME="?qt_metacall@QUdpSocket@@UEAAHW4Call@QMetaObject@@HPEAPEAX@Z" PURGE="0" COMMENT="" />
    <EXPORT ORDINAL="971" NAME="?qt_metacast@QAbstractNetworkCache@@UEAAPEAXPEBD@Z" PURGE="0" COMMENT="" />
    <EXPORT ORDINAL="972" NAME="?qt_metacast@QAbstractSocket@@UEAAPEAXPEBD@Z" PURGE="0" COMMENT="" />
    <EXPORT ORDINAL="973" NAME="?qt_metacast@QBearerEngine@@UEAAPEAXPEBD@Z" PURGE="0" COMMENT="" />
    <EXPORT ORDINAL="974" NAME="?qt_metacast@QBearerEnginePlugin@@UEAAPEAXPEBD@Z" PURGE="0" COMMENT="" />
    <EXPORT ORDINAL="975" NAME="?qt_metacast@QDnsLookup@@UEAAPEAXPEBD@Z" PURGE="0" COMMENT="" />
    <EXPORT ORDINAL="976" NAME="?qt_metacast@QDtls@@UEAAPEAXPEBD@Z" PURGE="0" COMMENT="" />
    <EXPORT ORDINAL="977" NAME="?qt_metacast@QDtlsClientVerifier@@UEAAPEAXPEBD@Z" PURGE="0" COMMENT="" />
    <EXPORT ORDINAL="978" NAME="?qt_metacast@QHttpMultiPart@@UEAAPEAXPEBD@Z" PURGE="0" COMMENT="" />
    <EXPORT ORDINAL="979" NAME="?qt_metacast@QLocalServer@@UEAAPEAXPEBD@Z" PURGE="0" COMMENT="" />
    <EXPORT ORDINAL="980" NAME="?qt_metacast@QLocalSocket@@UEAAPEAXPEBD@Z" PURGE="0" COMMENT="" />
    <EXPORT ORDINAL="981" NAME="?qt_metacast@QNetworkAccessManager@@UEAAPEAXPEBD@Z" PURGE="0" COMMENT="" />
    <EXPORT ORDINAL="982" NAME="?qt_metacast@QNetworkConfigurationManager@@UEAAPEAXPEBD@Z" PURGE="0" COMMENT="" />
    <EXPORT ORDINAL="983" NAME="?qt_metacast@QNetworkConfigurationManagerPrivate@@UEAAPEAXPEBD@Z" PURGE="0" COMMENT="" />
    <EXPORT ORDINAL="984" NAME="?qt_metacast@QNetworkCookieJar@@UEAAPEAXPEBD@Z" PURGE="0" COMMENT="" />
    <EXPORT ORDINAL="985" NAME="?qt_metacast@QNetworkDiskCache@@UEAAPEAXPEBD@Z" PURGE="0" COMMENT="" />
    <EXPORT ORDINAL="986" NAME="?qt_metacast@QNetworkReply@@UEAAPEAXPEBD@Z" PURGE="0" COMMENT="" />
    <EXPORT ORDINAL="987" NAME="?qt_metacast@QNetworkSession@@UEAAPEAXPEBD@Z" PURGE="0" COMMENT="" />
    <EXPORT ORDINAL="988" NAME="?qt_metacast@QNetworkSessionPrivate@@UEAAPEAXPEBD@Z" PURGE="0" COMMENT="" />
    <EXPORT ORDINAL="989" NAME="?qt_metacast@QSslSocket@@UEAAPEAXPEBD@Z" PURGE="0" COMMENT="" />
    <EXPORT ORDINAL="990" NAME="?qt_metacast@QTcpServer@@UEAAPEAXPEBD@Z" PURGE="0" COMMENT="" />
    <EXPORT ORDINAL="991" NAME="?qt_metacast@QTcpSocket@@UEAAPEAXPEBD@Z" PURGE="0" COMMENT="" />
    <EXPORT ORDINAL="992" NAME="?qt_metacast@QUdpSocket@@UEAAPEAXPEBD@Z" PURGE="0" COMMENT="" />
    <EXPORT ORDINAL="993" NAME="?qt_qhostinfo_lookup@@YA?AVQHostInfo@@AEBVQString@@PEAVQObject@@PEBDPEA_NPEAH@Z" PURGE="0" COMMENT="" />
    <EXPORT ORDINAL="994" NAME="?qt_static_metacall@QAbstractNetworkCache@@CAXPEAVQObject@@W4Call@QMetaObject@@HPEAPEAX@Z" PURGE="0" COMMENT="" />
    <EXPORT ORDINAL="995" NAME="?qt_static_metacall@QAbstractSocket@@CAXPEAVQObject@@W4Call@QMetaObject@@HPEAPEAX@Z" PURGE="0" COMMENT="" />
    <EXPORT ORDINAL="996" NAME="?qt_static_metacall@QBearerEngine@@CAXPEAVQObject@@W4Call@QMetaObject@@HPEAPEAX@Z" PURGE="0" COMMENT="" />
    <EXPORT ORDINAL="997" NAME="?qt_static_metacall@QBearerEnginePlugin@@CAXPEAVQObject@@W4Call@QMetaObject@@HPEAPEAX@Z" PURGE="0" COMMENT="" />
    <EXPORT ORDINAL="998" NAME="?qt_static_metacall@QDnsLookup@@CAXPEAVQObject@@W4Call@QMetaObject@@HPEAPEAX@Z" PURGE="0" COMMENT="" />
    <EXPORT ORDINAL="999" NAME="?qt_static_metacall@QDtls@@CAXPEAVQObject@@W4Call@QMetaObject@@HPEAPEAX@Z" PURGE="0" COMMENT="" />
    <EXPORT ORDINAL="1000" NAME="?qt_static_metacall@QDtlsClientVerifier@@CAXPEAVQObject@@W4Call@QMetaObject@@HPEAPEAX@Z" PURGE="0" COMMENT="" />
    <EXPORT ORDINAL="1001" NAME="?qt_static_metacall@QHttpMultiPart@@CAXPEAVQObject@@W4Call@QMetaObject@@HPEAPEAX@Z" PURGE="0" COMMENT="" />
    <EXPORT ORDINAL="1002" NAME="?qt_static_metacall@QLocalServer@@CAXPEAVQObject@@W4Call@QMetaObject@@HPEAPEAX@Z" PURGE="0" COMMENT="" />
    <EXPORT ORDINAL="1003" NAME="?qt_static_metacall@QLocalSocket@@CAXPEAVQObject@@W4Call@QMetaObject@@HPEAPEAX@Z" PURGE="0" COMMENT="" />
    <EXPORT ORDINAL="1004" NAME="?qt_static_metacall@QNetworkAccessManager@@CAXPEAVQObject@@W4Call@QMetaObject@@HPEAPEAX@Z" PURGE="0" COMMENT="" />
    <EXPORT ORDINAL="1005" NAME="?qt_static_metacall@QNetworkConfigurationManager@@CAXPEAVQObject@@W4Call@QMetaObject@@HPEAPEAX@Z" PURGE="0" COMMENT="" />
    <EXPORT ORDINAL="1006" NAME="?qt_static_metacall@QNetworkConfigurationManagerPrivate@@CAXPEAVQObject@@W4Call@QMetaObject@@HPEAPEAX@Z" PURGE="0" COMMENT="" />
    <EXPORT ORDINAL="1007" NAME="?qt_static_metacall@QNetworkCookieJar@@CAXPEAVQObject@@W4Call@QMetaObject@@HPEAPEAX@Z" PURGE="0" COMMENT="" />
    <EXPORT ORDINAL="1008" NAME="?qt_static_metacall@QNetworkDiskCache@@CAXPEAVQObject@@W4Call@QMetaObject@@HPEAPEAX@Z" PURGE="0" COMMENT="" />
    <EXPORT ORDINAL="1009" NAME="?qt_static_metacall@QNetworkReply@@CAXPEAVQObject@@W4Call@QMetaObject@@HPEAPEAX@Z" PURGE="0" COMMENT="" />
    <EXPORT ORDINAL="1010" NAME="?qt_static_metacall@QNetworkSession@@CAXPEAVQObject@@W4Call@QMetaObject@@HPEAPEAX@Z" PURGE="0" COMMENT="" />
    <EXPORT ORDINAL="1011" NAME="?qt_static_metacall@QNetworkSessionPrivate@@CAXPEAVQObject@@W4Call@QMetaObject@@HPEAPEAX@Z" PURGE="0" COMMENT="" />
    <EXPORT ORDINAL="1012" NAME="?qt_static_metacall@QSslSocket@@CAXPEAVQObject@@W4Call@QMetaObject@@HPEAPEAX@Z" PURGE="0" COMMENT="" />
    <EXPORT ORDINAL="1013" NAME="?qt_static_metacall@QTcpServer@@CAXPEAVQObject@@W4Call@QMetaObject@@HPEAPEAX@Z" PURGE="0" COMMENT="" />
    <EXPORT ORDINAL="1014" NAME="?qt_static_metacall@QTcpSocket@@CAXPEAVQObject@@W4Call@QMetaObject@@HPEAPEAX@Z" PURGE="0" COMMENT="" />
    <EXPORT ORDINAL="1015" NAME="?qt_static_metacall@QUdpSocket@@CAXPEAVQObject@@W4Call@QMetaObject@@HPEAPEAX@Z" PURGE="0" COMMENT="" />
    <EXPORT ORDINAL="1016" NAME="?queryType@QNetworkProxyQuery@@QEBA?AW4QueryType@1@XZ" PURGE="0" COMMENT="" />
    <EXPORT ORDINAL="1017" NAME="?quitPendingWaitsForOpened@QNetworkSessionPrivate@@QEAAXXZ" PURGE="-1" COMMENT="" />
    <EXPORT ORDINAL="1018" NAME="?rawHeader@QNetworkProxy@@QEBA?AVQByteArray@@AEBV2@@Z" PURGE="0" COMMENT="" />
    <EXPORT ORDINAL="1019" NAME="?rawHeader@QNetworkReply@@QEBA?AVQByteArray@@AEBV2@@Z" PURGE="0" COMMENT="" />
    <EXPORT ORDINAL="1020" NAME="?rawHeader@QNetworkRequest@@QEBA?AVQByteArray@@AEBV2@@Z" PURGE="0" COMMENT="" />
    <EXPORT ORDINAL="1021" NAME="?rawHeaderList@QNetworkProxy@@QEBA?AV?$QList@VQByteArray@@@@XZ" PURGE="0" COMMENT="" />
    <EXPORT ORDINAL="1022" NAME="?rawHeaderList@QNetworkReply@@QEBA?AV?$QList@VQByteArray@@@@XZ" PURGE="0" COMMENT="" />
    <EXPORT ORDINAL="1023" NAME="?rawHeaderList@QNetworkRequest@@QEBA?AV?$QList@VQByteArray@@@@XZ" PURGE="0" COMMENT="" />
    <EXPORT ORDINAL="1024" NAME="?rawHeaderPairs@QNetworkReply@@QEBAAEBV?$QList@U?$QPair@VQByteArray@@V1@@@@@XZ" PURGE="0" COMMENT="" />
    <EXPORT ORDINAL="1025" NAME="?rawHeaders@QNetworkCacheMetaData@@QEBA?AV?$QList@U?$QPair@VQByteArray@@V1@@@@@XZ" PURGE="0" COMMENT="" />
    <EXPORT ORDINAL="1026" NAME="?readBufferSize@QAbstractSocket@@QEBA_JXZ" PURGE="0" COMMENT="" />
    <EXPORT ORDINAL="1027" NAME="?readBufferSize@QLocalSocket@@QEBA_JXZ" PURGE="0" COMMENT="" />
    <EXPORT ORDINAL="1028" NAME="?readBufferSize@QNetworkReply@@QEBA_JXZ" PURGE="0" COMMENT="" />
    <EXPORT ORDINAL="1029" NAME="?readData@QAbstractSocket@@MEAA_JPEAD_J@Z" PURGE="0" COMMENT="" />
    <EXPORT ORDINAL="1030" NAME="?readData@QLocalSocket@@MEAA_JPEAD_J@Z" PURGE="0" COMMENT="" />
    <EXPORT ORDINAL="1031" NAME="?readData@QSslSocket@@MEAA_JPEAD_J@Z" PURGE="0" COMMENT="" />
    <EXPORT ORDINAL="1032" NAME="?readDatagram@QUdpSocket@@QEAA_JPEAD_JPEAVQHostAddress@@PEAG@Z" PURGE="0" COMMENT="" />
    <EXPORT ORDINAL="1033" NAME="?readLineData@QAbstractSocket@@MEAA_JPEAD_J@Z" PURGE="-1" COMMENT="" />
    <EXPORT ORDINAL="1034" NAME="?readNotification@QTcpServerPrivate@@UEAAXXZ" PURGE="0" COMMENT="" />
    <EXPORT ORDINAL="1035" NAME="?realm@QAuthenticator@@QEBA?AVQString@@XZ" PURGE="0" COMMENT="" />
    <EXPORT ORDINAL="1036" NAME="?receiveDatagram@QUdpSocket@@QEAA?AVQNetworkDatagram@@_J@Z" PURGE="0" COMMENT="" />
    <EXPORT ORDINAL="1037" NAME="?redirectAllowed@QNetworkReply@@QEAAXXZ" PURGE="-1" COMMENT="" />
    <EXPORT ORDINAL="1038" NAME="?redirectPolicy@QNetworkAccessManager@@QEBA?AW4RedirectPolicy@QNetworkRequest@@XZ" PURGE="0" COMMENT="" />
    <EXPORT ORDINAL="1039" NAME="?redirected@QNetworkReply@@QEAAXAEBVQUrl@@@Z" PURGE="0" COMMENT="" />
    <EXPORT ORDINAL="1040" NAME="?reject@QNetworkSession@@QEAAXXZ" PURGE="0" COMMENT="" />
    <EXPORT ORDINAL="1041" NAME="?remove@QNetworkDiskCache@@UEAA_NAEBVQUrl@@@Z" PURGE="0" COMMENT="" />
    <EXPORT ORDINAL="1042" NAME="?removeServer@QLocalServer@@SA_NAEBVQString@@@Z" PURGE="0" COMMENT="" />
    <EXPORT ORDINAL="1043" NAME="?request@QNetworkReply@@QEBA?AVQNetworkRequest@@XZ" PURGE="0" COMMENT="" />
    <EXPORT ORDINAL="1044" NAME="?requiresPolling@QBearerEngine@@UEBA_NXZ" PURGE="0" COMMENT="" />
    <EXPORT ORDINAL="1045" NAME="?resolveProxy@QTcpServerPrivate@@QEAA?AVQNetworkProxy@@AEBVQHostAddress@@G@Z" PURGE="0" COMMENT="" />
    <EXPORT ORDINAL="1046" NAME="?responder@QOcspResponse@@QEBA?AVQSslCertificate@@XZ" PURGE="0" COMMENT="" />
    <EXPORT ORDINAL="1047" NAME="?resume@QAbstractSocket@@UEAAXXZ" PURGE="0" COMMENT="" />
    <EXPORT ORDINAL="1048" NAME="?resume@QSslSocket@@UEAAXXZ" PURGE="0" COMMENT="" />
    <EXPORT ORDINAL="1049" NAME="?resumeAccepting@QTcpServer@@QEAAXXZ" PURGE="-1" COMMENT="" />
    <EXPORT ORDINAL="1050" NAME="?resumeHandshake@QDtls@@QEAA_NPEAVQUdpSocket@@@Z" PURGE="0" COMMENT="" />
    <EXPORT ORDINAL="1051" NAME="?revocationReason@QOcspResponse@@QEBA?AW4QOcspRevocationReason@@XZ" PURGE="0" COMMENT="" />
    <EXPORT ORDINAL="1052" NAME="?saveToDisk@QNetworkCacheMetaData@@QEBA_NXZ" PURGE="0" COMMENT="" />
    <EXPORT ORDINAL="1053" NAME="?scopeId@QHostAddress@@QEBA?AVQString@@XZ" PURGE="0" COMMENT="" />
    <EXPORT ORDINAL="1054" NAME="?sendCustomRequest@QNetworkAccessManager@@QEAAPEAVQNetworkReply@@AEBVQNetworkRequest@@AEBVQByteArray@@1@Z" PURGE="0" COMMENT="" />
    <EXPORT ORDINAL="1055" NAME="?sendCustomRequest@QNetworkAccessManager@@QEAAPEAVQNetworkReply@@AEBVQNetworkRequest@@AEBVQByteArray@@PEAVQHttpMultiPart@@@Z" PURGE="0" COMMENT="" />
    <EXPORT ORDINAL="1056" NAME="?sendCustomRequest@QNetworkAccessManager@@QEAAPEAVQNetworkReply@@AEBVQNetworkRequest@@AEBVQByteArray@@PEAVQIODevice@@@Z" PURGE="0" COMMENT="" />
    <EXPORT ORDINAL="1057" NAME="?senderAddress@QNetworkDatagram@@QEBA?AVQHostAddress@@XZ" PURGE="0" COMMENT="" />
    <EXPORT ORDINAL="1058" NAME="?senderPort@QNetworkDatagram@@QEBAHXZ" PURGE="0" COMMENT="" />
    <EXPORT ORDINAL="1059" NAME="?serialNumber@QSslCertificate@@QEBA?AVQByteArray@@XZ" PURGE="0" COMMENT="" />
    <EXPORT ORDINAL="1060" NAME="?serverAddress@QTcpServer@@QEBA?AVQHostAddress@@XZ" PURGE="0" COMMENT="" />
    <EXPORT ORDINAL="1061" NAME="?serverError@QLocalServer@@QEBA?AW4SocketError@QAbstractSocket@@XZ" PURGE="0" COMMENT="" />
    <EXPORT ORDINAL="1062" NAME="?serverError@QTcpServer@@QEBA?AW4SocketError@QAbstractSocket@@XZ" PURGE="0" COMMENT="" />
    <EXPORT ORDINAL="1063" NAME="?serverName@QLocalServer@@QEBA?AVQString@@XZ" PURGE="0" COMMENT="" />
    <EXPORT ORDINAL="1064" NAME="?serverName@QLocalSocket@@QEBA?AVQString@@XZ" PURGE="0" COMMENT="" />
    <EXPORT ORDINAL="1065" NAME="?serverPort@QTcpServer@@QEBAGXZ" PURGE="0" COMMENT="" />
    <EXPORT ORDINAL="1066" NAME="?serverPushEnabled@QHttp2Configuration@@QEBA_NXZ" PURGE="0" COMMENT="" />
    <EXPORT ORDINAL="1067" NAME="?serviceRecords@QDnsLookup@@QEBA?AV?$QList@VQDnsServiceRecord@@@@XZ" PURGE="0" COMMENT="" />
    <EXPORT ORDINAL="1068" NAME="?sessionCipher@QDtls@@QEBA?AVQSslCipher@@XZ" PURGE="0" COMMENT="" />
    <EXPORT ORDINAL="1069" NAME="?sessionCipher@QSslConfiguration@@QEBA?AVQSslCipher@@XZ" PURGE="0" COMMENT="" />
    <EXPORT ORDINAL="1070" NAME="?sessionCipher@QSslSocket@@QEBA?AVQSslCipher@@XZ" PURGE="0" COMMENT="" />
    <EXPORT ORDINAL="1071" NAME="?sessionProperty@QNetworkSession@@QEBA?AVQVariant@@AEBVQString@@@Z" PURGE="0" COMMENT="" />
    <EXPORT ORDINAL="1072" NAME="?sessionProtocol@QDtls@@QEBA?AW4SslProtocol@QSsl@@XZ" PURGE="0" COMMENT="" />
    <EXPORT ORDINAL="1073" NAME="?sessionProtocol@QSslConfiguration@@QEBA?AW4SslProtocol@QSsl@@XZ" PURGE="0" COMMENT="" />
    <EXPORT ORDINAL="1074" NAME="?sessionProtocol@QSslSocket@@QEBA?AW4SslProtocol@QSsl@@XZ" PURGE="-1" COMMENT="" />
    <EXPORT ORDINAL="1075" NAME="?sessionReceiveWindowSize@QHttp2Configuration@@QEBAIXZ" PURGE="0" COMMENT="" />
    <EXPORT ORDINAL="1076" NAME="?sessionTicket@QSslConfiguration@@QEBA?AVQByteArray@@XZ" PURGE="0" COMMENT="" />
    <EXPORT ORDINAL="1077" NAME="?sessionTicketLifeTimeHint@QSslConfiguration@@QEBAHXZ" PURGE="0" COMMENT="" />
    <EXPORT ORDINAL="1078" NAME="?setALREnabled@QNetworkSessionPrivate@@UEAAX_N@Z" PURGE="0" COMMENT="" />
    <EXPORT ORDINAL="1079" NAME="?setAddress@QHostAddress@@QEAAXAEBVQIPv6Address@@@Z" PURGE="0" COMMENT="" />
    <EXPORT ORDINAL="1080" NAME="?setAddress@QHostAddress@@QEAAXI@Z" PURGE="0" COMMENT="" />
    <EXPORT ORDINAL="1081" NAME="?setAddress@QHostAddress@@QEAAXPEAE@Z" PURGE="0" COMMENT="" />
    <EXPORT ORDINAL="1082" NAME="?setAddress@QHostAddress@@QEAAXPEBE@Z" PURGE="0" COMMENT="" />
    <EXPORT ORDINAL="1083" NAME="?setAddress@QHostAddress@@QEAAXPEBUsockaddr@@@Z" PURGE="0" COMMENT="" />
    <EXPORT ORDINAL="1084" NAME="?setAddress@QHostAddress@@QEAAXW4SpecialAddress@1@@Z" PURGE="0" COMMENT="" />
    <EXPORT ORDINAL="1085" NAME="?setAddress@QHostAddress@@QEAA_NAEBVQString@@@Z" PURGE="0" COMMENT="" />
    <EXPORT ORDINAL="1086" NAME="?setAddressLifetime@QNetworkAddressEntry@@QEAAXVQDeadlineTimer@@0@Z" PURGE="0" COMMENT="" />
    <EXPORT ORDINAL="1087" NAME="?setAddresses@QHostInfo@@QEAAXAEBV?$QList@VQHostAddress@@@@@Z" PURGE="0" COMMENT="" />
    <EXPORT ORDINAL="1088" NAME="?setAllCookies@QNetworkCookieJar@@IEAAXAEBV?$QList@VQNetworkCookie@@@@@Z" PURGE="0" COMMENT="" />
    <EXPORT ORDINAL="1089" NAME="?setAllowedNextProtocols@QSslConfiguration@@QEAAXV?$QList@VQByteArray@@@@@Z" PURGE="0" COMMENT="" />
    <EXPORT ORDINAL="1090" NAME="?setApplicationProxy@QNetworkProxy@@SAXAEBV1@@Z" PURGE="0" COMMENT="" />
    <EXPORT ORDINAL="1091" NAME="?setApplicationProxyFactory@QNetworkProxyFactory@@SAXPEAV1@@Z" PURGE="0" COMMENT="" />
    <EXPORT ORDINAL="1092" NAME="?setAttribute@QNetworkReply@@IEAAXW4Attribute@QNetworkRequest@@AEBVQVariant@@@Z" PURGE="0" COMMENT="" />
    <EXPORT ORDINAL="1093" NAME="?setAttribute@QNetworkRequest@@QEAAXW4Attribute@1@AEBVQVariant@@@Z" PURGE="0" COMMENT="" />
    <EXPORT ORDINAL="1094" NAME="?setAttributes@QNetworkCacheMetaData@@QEAAXAEBV?$QHash@W4Attribute@QNetworkRequest@@VQVariant@@@@@Z" PURGE="0" COMMENT="" />
    <EXPORT ORDINAL="1095" NAME="?setAutoDeleteReplies@QNetworkAccessManager@@QEAAX_N@Z" PURGE="0" COMMENT="" />
    <EXPORT ORDINAL="1096" NAME="?setBackendConfiguration@QSslConfiguration@@QEAAXAEBV?$QMap@VQByteArray@@VQVariant@@@@@Z" PURGE="0" COMMENT="" />
    <EXPORT ORDINAL="1097" NAME="?setBackendConfigurationOption@QSslConfiguration@@QEAAXAEBVQByteArray@@AEBVQVariant@@@Z" PURGE="0" COMMENT="" />
    <EXPORT ORDINAL="1098" NAME="?setBody@QHttpPart@@QEAAXAEBVQByteArray@@@Z" PURGE="0" COMMENT="" />
    <EXPORT ORDINAL="1099" NAME="?setBodyDevice@QHttpPart@@QEAAXPEAVQIODevice@@@Z" PURGE="0" COMMENT="" />
    <EXPORT ORDINAL="1100" NAME="?setBoundary@QHttpMultiPart@@QEAAXAEBVQByteArray@@@Z" PURGE="-1" COMMENT="" />
    <EXPORT ORDINAL="1101" NAME="?setBroadcast@QNetworkAddressEntry@@QEAAXAEBVQHostAddress@@@Z" PURGE="0" COMMENT="" />
    <EXPORT ORDINAL="1102" NAME="?setCaCertificates@QSslConfiguration@@QEAAXAEBV?$QList@VQSslCertificate@@@@@Z" PURGE="0" COMMENT="" />
    <EXPORT ORDINAL="1103" NAME="?setCaCertificates@QSslSocket@@QEAAXAEBV?$QList@VQSslCertificate@@@@@Z" PURGE="0" COMMENT="" />
    <EXPORT ORDINAL="1104" NAME="?setCache@QNetworkAccessManager@@QEAAXPEAVQAbstractNetworkCache@@@Z" PURGE="0" COMMENT="" />
    <EXPORT ORDINAL="1105" NAME="?setCacheDirectory@QNetworkDiskCache@@QEAAXAEBVQString@@@Z" PURGE="0" COMMENT="" />
    <EXPORT ORDINAL="1106" NAME="?setCapabilities@QNetworkProxy@@QEAAXV?$QFlags@W4Capability@QNetworkProxy@@@@@Z" PURGE="0" COMMENT="" />
    <EXPORT ORDINAL="1107" NAME="?setCiphers@QSslConfiguration@@QEAAXAEBV?$QList@VQSslCipher@@@@@Z" PURGE="0" COMMENT="" />
    <EXPORT ORDINAL="1108" NAME="?setCiphers@QSslSocket@@QEAAXAEBV?$QList@VQSslCipher@@@@@Z" PURGE="0" COMMENT="" />
    <EXPORT ORDINAL="1109" NAME="?setCiphers@QSslSocket@@QEAAXAEBVQString@@@Z" PURGE="0" COMMENT="" />
    <EXPORT ORDINAL="1110" NAME="?setConfiguration@QNetworkAccessManager@@QEAAXAEBVQNetworkConfiguration@@@Z" PURGE="0" COMMENT="" />
    <EXPORT ORDINAL="1111" NAME="?setConnectTimeout@QNetworkConfiguration@@QEAA_NH@Z" PURGE="0" COMMENT="" />
    <EXPORT ORDINAL="1112" NAME="?setContentType@QHttpMultiPart@@QEAAXW4ContentType@1@@Z" PURGE="0" COMMENT="" />
    <EXPORT ORDINAL="1113" NAME="?setCookieGeneratorParameters@QDtls@@QEAA_NAEBUGeneratorParameters@QDtlsClientVerifier@@@Z" PURGE="0" COMMENT="" />
    <EXPORT ORDINAL="1114" NAME="?setCookieGeneratorParameters@QDtlsClientVerifier@@QEAA_NAEBUGeneratorParameters@1@@Z" PURGE="0" COMMENT="" />
    <EXPORT ORDINAL="1115" NAME="?setCookieJar@QNetworkAccessManager@@QEAAXPEAVQNetworkCookieJar@@@Z" PURGE="0" COMMENT="" />
    <EXPORT ORDINAL="1116" NAME="?setCookiesFromUrl@QNetworkCookieJar@@UEAA_NAEBV?$QList@VQNetworkCookie@@@@AEBVQUrl@@@Z" PURGE="0" COMMENT="" />
    <EXPORT ORDINAL="1117" NAME="?setData@QNetworkDatagram@@QEAAXAEBVQByteArray@@@Z" PURGE="-1" COMMENT="" />
    <EXPORT ORDINAL="1118" NAME="?setDefaultCaCertificates@QSslSocket@@SAXAEBV?$QList@VQSslCertificate@@@@@Z" PURGE="0" COMMENT="" />
    <EXPORT ORDINAL="1119" NAME="?setDefaultCiphers@QSslSocket@@SAXAEBV?$QList@VQSslCipher@@@@@Z" PURGE="0" COMMENT="" />
    <EXPORT ORDINAL="1120" NAME="?setDefaultConfiguration@QSslConfiguration@@SAXAEBV1@@Z" PURGE="0" COMMENT="" />
    <EXPORT ORDINAL="1121" NAME="?setDefaultDtlsConfiguration@QSslConfiguration@@SAXAEBV1@@Z" PURGE="0" COMMENT="" />
    <EXPORT ORDINAL="1122" NAME="?setDestination@QNetworkDatagram@@QEAAXAEBVQHostAddress@@G@Z" PURGE="0" COMMENT="" />
    <EXPORT ORDINAL="1123" NAME="?setDiffieHellmanParameters@QSslConfiguration@@QEAAXAEBVQSslDiffieHellmanParameters@@@Z" PURGE="0" COMMENT="" />
    <EXPORT ORDINAL="1124" NAME="?setDir@QUrlInfo@@UEAAX_N@Z" PURGE="0" COMMENT="" />
    <EXPORT ORDINAL="1125" NAME="?setDnsEligibility@QNetworkAddressEntry@@QEAAXW4DnsEligibilityStatus@1@@Z" PURGE="0" COMMENT="" />
    <EXPORT ORDINAL="1126" NAME="?setDomain@QNetworkCookie@@QEAAXAEBVQString@@@Z" PURGE="-1" COMMENT="" />
    <EXPORT ORDINAL="1127" NAME="?setDtlsConfiguration@QDtls@@QEAA_NAEBVQSslConfiguration@@@Z" PURGE="0" COMMENT="" />
    <EXPORT ORDINAL="1128" NAME="?setDtlsCookieVerificationEnabled@QSslConfiguration@@QEAAX_N@Z" PURGE="0" COMMENT="" />
    <EXPORT ORDINAL="1129" NAME="?setEllipticCurves@QSslConfiguration@@QEAAXAEBV?$QVector@VQSslEllipticCurve@@@@@Z" PURGE="0" COMMENT="" />
    <EXPORT ORDINAL="1130" NAME="?setError@QHostInfo@@QEAAXW4HostInfoError@1@@Z" PURGE="0" COMMENT="" />
    <EXPORT ORDINAL="1131" NAME="?setError@QNetworkReply@@IEAAXW4NetworkError@1@AEBVQString@@@Z" PURGE="-1" COMMENT="" />
    <EXPORT ORDINAL="1132" NAME="?setErrorString@QHostInfo@@QEAAXAEBVQString@@@Z" PURGE="-1" COMMENT="" />
    <EXPORT ORDINAL="1133" NAME="?setExpirationDate@QNetworkCacheMetaData@@QEAAXAEBVQDateTime@@@Z" PURGE="-1" COMMENT="" />
    <EXPORT ORDINAL="1134" NAME="?setExpirationDate@QNetworkCookie@@QEAAXAEBVQDateTime@@@Z" PURGE="-1" COMMENT="" />
    <EXPORT ORDINAL="1135" NAME="?setExpiry@QHstsPolicy@@QEAAXAEBVQDateTime@@@Z" PURGE="-1" COMMENT="" />
    <EXPORT ORDINAL="1136" NAME="?setFile@QUrlInfo@@UEAAX_N@Z" PURGE="0" COMMENT="" />
    <EXPORT ORDINAL="1137" NAME="?setFinished@QNetworkReply@@IEAAX_N@Z" PURGE="0" COMMENT="" />
    <EXPORT ORDINAL="1138" NAME="?setGroup@QUrlInfo@@UEAAXAEBVQString@@@Z" PURGE="-1" COMMENT="" />
    <EXPORT ORDINAL="1139" NAME="?setHeader@QHttpPart@@QEAAXW4KnownHeaders@QNetworkRequest@@AEBVQVariant@@@Z" PURGE="0" COMMENT="" />
    <EXPORT ORDINAL="1140" NAME="?setHeader@QNetworkProxy@@QEAAXW4KnownHeaders@QNetworkRequest@@AEBVQVariant@@@Z" PURGE="0" COMMENT="" />
    <EXPORT ORDINAL="1141" NAME="?setHeader@QNetworkReply@@IEAAXW4KnownHeaders@QNetworkRequest@@AEBVQVariant@@@Z" PURGE="0" COMMENT="" />
    <EXPORT ORDINAL="1142" NAME="?setHeader@QNetworkRequest@@QEAAXW4KnownHeaders@1@AEBVQVariant@@@Z" PURGE="0" COMMENT="" />
    <EXPORT ORDINAL="1143" NAME="?setHopLimit@QNetworkDatagram@@QEAAXH@Z" PURGE="0" COMMENT="" />
    <EXPORT ORDINAL="1144" NAME="?setHost@QHstsPolicy@@QEAAXAEBVQString@@W4ParsingMode@QUrl@@@Z" PURGE="-1" COMMENT="" />
    <EXPORT ORDINAL="1145" NAME="?setHostName@QHostInfo@@QEAAXAEBVQString@@@Z" PURGE="-1" COMMENT="" />
    <EXPORT ORDINAL="1146" NAME="?setHostName@QNetworkProxy@@QEAAXAEBVQString@@@Z" PURGE="-1" COMMENT="" />
    <EXPORT ORDINAL="1147" NAME="?setHttp2Configuration@QNetworkRequest@@QEAAXAEBVQHttp2Configuration@@@Z" PURGE="0" COMMENT="" />
    <EXPORT ORDINAL="1148" NAME="?setHttpOnly@QNetworkCookie@@QEAAX_N@Z" PURGE="0" COMMENT="" />
    <EXPORT ORDINAL="1149" NAME="?setHuffmanCompressionEnabled@QHttp2Configuration@@QEAAX_N@Z" PURGE="0" COMMENT="" />
    <EXPORT ORDINAL="1150" NAME="?setIdentity@QSslPreSharedKeyAuthenticator@@QEAAXAEBVQByteArray@@@Z" PURGE="-1" COMMENT="" />
    <EXPORT ORDINAL="1151" NAME="?setIncludesSubDomains@QHstsPolicy@@QEAAX_N@Z" PURGE="0" COMMENT="" />
    <EXPORT ORDINAL="1152" NAME="?setInterfaceIndex@QNetworkDatagram@@QEAAXI@Z" PURGE="0" COMMENT="" />
    <EXPORT ORDINAL="1153" NAME="?setIp@QNetworkAddressEntry@@QEAAXAEBVQHostAddress@@@Z" PURGE="0" COMMENT="" />
    <EXPORT ORDINAL="1154" NAME="?setLastModified@QNetworkCacheMetaData@@QEAAXAEBVQDateTime@@@Z" PURGE="-1" COMMENT="" />
    <EXPORT ORDINAL="1155" NAME="?setLastModified@QUrlInfo@@UEAAXAEBVQDateTime@@@Z" PURGE="-1" COMMENT="" />
    <EXPORT ORDINAL="1156" NAME="?setLastRead@QUrlInfo@@QEAAXAEBVQDateTime@@@Z" PURGE="-1" COMMENT="" />
    <EXPORT ORDINAL="1157" NAME="?setLocalAddress@QAbstractSocket@@IEAAXAEBVQHostAddress@@@Z" PURGE="0" COMMENT="" />
    <EXPORT ORDINAL="1158" NAME="?setLocalCertificate@QSslConfiguration@@QEAAXAEBVQSslCertificate@@@Z" PURGE="0" COMMENT="" />
    <EXPORT ORDINAL="1159" NAME="?setLocalCertificate@QSslSocket@@QEAAXAEBVQSslCertificate@@@Z" PURGE="0" COMMENT="" />
    <EXPORT ORDINAL="1160" NAME="?setLocalCertificate@QSslSocket@@QEAAXAEBVQString@@W4EncodingFormat@QSsl@@@Z" PURGE="0" COMMENT="" />
    <EXPORT ORDINAL="1161" NAME="?setLocalCertificateChain@QSslConfiguration@@QEAAXAEBV?$QList@VQSslCertificate@@@@@Z" PURGE="0" COMMENT="" />
    <EXPORT ORDINAL="1162" NAME="?setLocalCertificateChain@QSslSocket@@QEAAXAEBV?$QList@VQSslCertificate@@@@@Z" PURGE="0" COMMENT="" />
    <EXPORT ORDINAL="1163" NAME="?setLocalPort@QAbstractSocket@@IEAAXG@Z" PURGE="0" COMMENT="" />
    <EXPORT ORDINAL="1164" NAME="?setLocalPort@QNetworkProxyQuery@@QEAAXH@Z" PURGE="0" COMMENT="" />
    <EXPORT ORDINAL="1165" NAME="?setLookupId@QHostInfo@@QEAAXH@Z" PURGE="0" COMMENT="" />
    <EXPORT ORDINAL="1166" NAME="?setMaxFrameSize@QHttp2Configuration@@QEAA_NI@Z" PURGE="0" COMMENT="" />
    <EXPORT ORDINAL="1167" NAME="?setMaxPendingConnections@QLocalServer@@QEAAXH@Z" PURGE="0" COMMENT="" />
    <EXPORT ORDINAL="1168" NAME="?setMaxPendingConnections@QTcpServer@@QEAAXH@Z" PURGE="0" COMMENT="" />
    <EXPORT ORDINAL="1169" NAME="?setMaximumCacheSize@QNetworkDiskCache@@QEAAX_J@Z" PURGE="0" COMMENT="" />
    <EXPORT ORDINAL="1170" NAME="?setMaximumRedirectsAllowed@QNetworkRequest@@QEAAXH@Z" PURGE="0" COMMENT="" />
    <EXPORT ORDINAL="1171" NAME="?setMtuHint@QDtls@@QEAAXG@Z" PURGE="0" COMMENT="" />
    <EXPORT ORDINAL="1172" NAME="?setMulticastInterface@QUdpSocket@@QEAAXAEBVQNetworkInterface@@@Z" PURGE="0" COMMENT="" />
    <EXPORT ORDINAL="1173" NAME="?setName@QDnsLookup@@QEAAXAEBVQString@@@Z" PURGE="0" COMMENT="" />
    <EXPORT ORDINAL="1174" NAME="?setName@QNetworkCookie@@QEAAXAEBVQByteArray@@@Z" PURGE="-1" COMMENT="" />
    <EXPORT ORDINAL="1175" NAME="?setName@QUrlInfo@@UEAAXAEBVQString@@@Z" PURGE="-1" COMMENT="" />
    <EXPORT ORDINAL="1176" NAME="?setNameserver@QDnsLookup@@QEAAXAEBVQHostAddress@@@Z" PURGE="0" COMMENT="" />
    <EXPORT ORDINAL="1177" NAME="?setNetmask@QNetworkAddressEntry@@QEAAXAEBVQHostAddress@@@Z" PURGE="0" COMMENT="" />
    <EXPORT ORDINAL="1178" NAME="?setNetworkAccessible@QNetworkAccessManager@@QEAAXW4NetworkAccessibility@1@@Z" PURGE="0" COMMENT="" />
    <EXPORT ORDINAL="1179" NAME="?setNetworkConfiguration@QNetworkProxyQuery@@QEAAXAEBVQNetworkConfiguration@@@Z" PURGE="0" COMMENT="" />
    <EXPORT ORDINAL="1180" NAME="?setOcspStaplingEnabled@QSslConfiguration@@QEAAX_N@Z" PURGE="0" COMMENT="" />
    <EXPORT ORDINAL="1181" NAME="?setOperation@QNetworkReply@@IEAAXW4Operation@QNetworkAccessManager@@@Z" PURGE="0" COMMENT="" />
    <EXPORT ORDINAL="1182" NAME="?setOption@QAuthenticator@@QEAAXAEBVQString@@AEBVQVariant@@@Z" PURGE="0" COMMENT="" />
    <EXPORT ORDINAL="1183" NAME="?setOriginatingObject@QNetworkRequest@@QEAAXPEAVQObject@@@Z" PURGE="0" COMMENT="" />
    <EXPORT ORDINAL="1184" NAME="?setOwner@QUrlInfo@@UEAAXAEBVQString@@@Z" PURGE="-1" COMMENT="" />
    <EXPORT ORDINAL="1185" NAME="?setPassword@QAuthenticator@@QEAAXAEBVQString@@@Z" PURGE="0" COMMENT="" />
    <EXPORT ORDINAL="1186" NAME="?setPassword@QNetworkProxy@@QEAAXAEBVQString@@@Z" PURGE="-1" COMMENT="" />
    <EXPORT ORDINAL="1187" NAME="?setPath@QNetworkCookie@@QEAAXAEBVQString@@@Z" PURGE="-1" COMMENT="" />
    <EXPORT ORDINAL="1188" NAME="?setPauseMode@QAbstractSocket@@QEAAXV?$QFlags@W4PauseMode@QAbstractSocket@@@@@Z" PURGE="0" COMMENT="" />
    <EXPORT ORDINAL="1189" NAME="?setPeer@QDtls@@QEAA_NAEBVQHostAddress@@GAEBVQString@@@Z" PURGE="0" COMMENT="" />
    <EXPORT ORDINAL="1190" NAME="?setPeerAddress@QAbstractSocket@@IEAAXAEBVQHostAddress@@@Z" PURGE="0" COMMENT="" />
    <EXPORT ORDINAL="1191" NAME="?setPeerHostName@QNetworkProxyQuery@@QEAAXAEBVQString@@@Z" PURGE="-1" COMMENT="" />
    <EXPORT ORDINAL="1192" NAME="?setPeerName@QAbstractSocket@@IEAAXAEBVQString@@@Z" PURGE="-1" COMMENT="" />
    <EXPORT ORDINAL="1193" NAME="?setPeerPort@QAbstractSocket@@IEAAXG@Z" PURGE="0" COMMENT="" />
    <EXPORT ORDINAL="1194" NAME="?setPeerPort@QNetworkProxyQuery@@QEAAXH@Z" PURGE="-1" COMMENT="" />
    <EXPORT ORDINAL="1195" NAME="?setPeerVerificationName@QDtls@@QEAA_NAEBVQString@@@Z" PURGE="0" COMMENT="" />
    <EXPORT ORDINAL="1196" NAME="?setPeerVerifyDepth@QSslConfiguration@@QEAAXH@Z" PURGE="0" COMMENT="" />
    <EXPORT ORDINAL="1197" NAME="?setPeerVerifyDepth@QSslSocket@@QEAAXH@Z" PURGE="0" COMMENT="" />
    <EXPORT ORDINAL="1198" NAME="?setPeerVerifyMode@QSslConfiguration@@QEAAXW4PeerVerifyMode@QSslSocket@@@Z" PURGE="0" COMMENT="" />
    <EXPORT ORDINAL="1199" NAME="?setPeerVerifyMode@QSslSocket@@QEAAXW4PeerVerifyMode@1@@Z" PURGE="0" COMMENT="" />
    <EXPORT ORDINAL="1200" NAME="?setPeerVerifyName@QNetworkRequest@@QEAAXAEBVQString@@@Z" PURGE="-1" COMMENT="" />
    <EXPORT ORDINAL="1201" NAME="?setPeerVerifyName@QSslSocket@@QEAAXAEBVQString@@@Z" PURGE="-1" COMMENT="" />
    <EXPORT ORDINAL="1202" NAME="?setPermissions@QUrlInfo@@UEAAXH@Z" PURGE="0" COMMENT="" />
    <EXPORT ORDINAL="1203" NAME="?setPort@QNetworkProxy@@QEAAXG@Z" PURGE="0" COMMENT="" />
    <EXPORT ORDINAL="1204" NAME="?setPreSharedKey@QSslPreSharedKeyAuthenticator@@QEAAXAEBVQByteArray@@@Z" PURGE="-1" COMMENT="" />
    <EXPORT ORDINAL="1205" NAME="?setPreSharedKeyIdentityHint@QSslConfiguration@@QEAAXAEBVQByteArray@@@Z" PURGE="-1" COMMENT="" />
    <EXPORT ORDINAL="1206" NAME="?setPrefixLength@QNetworkAddressEntry@@QEAAXH@Z" PURGE="0" COMMENT="" />
    <EXPORT ORDINAL="1207" NAME="?setPriority@QNetworkRequest@@QEAAXW4Priority@1@@Z" PURGE="0" COMMENT="" />
    <EXPORT ORDINAL="1208" NAME="?setPrivateConfiguration@QNetworkSessionPrivate@@IEBAXAEAVQNetworkConfiguration@@AEBV?$QExplicitlySharedDataPointer@VQNetworkConfigurationPrivate@@@@@Z" PURGE="0" COMMENT="" />
    <EXPORT ORDINAL="1209" NAME="?setPrivateKey@QSslConfiguration@@QEAAXAEBVQSslKey@@@Z" PURGE="0" COMMENT="" />
    <EXPORT ORDINAL="1210" NAME="?setPrivateKey@QSslSocket@@QEAAXAEBVQSslKey@@@Z" PURGE="0" COMMENT="" />
    <EXPORT ORDINAL="1211" NAME="?setPrivateKey@QSslSocket@@QEAAXAEBVQString@@W4KeyAlgorithm@QSsl@@W4EncodingFormat@4@AEBVQByteArray@@@Z" PURGE="0" COMMENT="" />
    <EXPORT ORDINAL="1212" NAME="?setProtocol@QSslConfiguration@@QEAAXW4SslProtocol@QSsl@@@Z" PURGE="0" COMMENT="" />
    <EXPORT ORDINAL="1213" NAME="?setProtocol@QSslSocket@@QEAAXW4SslProtocol@QSsl@@@Z" PURGE="0" COMMENT="" />
    <EXPORT ORDINAL="1214" NAME="?setProtocolTag@QAbstractSocket@@QEAAXAEBVQString@@@Z" PURGE="-1" COMMENT="" />
    <EXPORT ORDINAL="1215" NAME="?setProtocolTag@QNetworkProxyQuery@@QEAAXAEBVQString@@@Z" PURGE="-1" COMMENT="" />
    <EXPORT ORDINAL="1216" NAME="?setProxy@QAbstractSocket@@QEAAXAEBVQNetworkProxy@@@Z" PURGE="0" COMMENT="" />
    <EXPORT ORDINAL="1217" NAME="?setProxy@QNetworkAccessManager@@QEAAXAEBVQNetworkProxy@@@Z" PURGE="0" COMMENT="" />
    <EXPORT ORDINAL="1218" NAME="?setProxy@QTcpServer@@QEAAXAEBVQNetworkProxy@@@Z" PURGE="0" COMMENT="" />
    <EXPORT ORDINAL="1219" NAME="?setProxyFactory@QNetworkAccessManager@@QEAAXPEAVQNetworkProxyFactory@@@Z" PURGE="0" COMMENT="" />
    <EXPORT ORDINAL="1220" NAME="?setQueryType@QNetworkProxyQuery@@QEAAXW4QueryType@1@@Z" PURGE="0" COMMENT="" />
    <EXPORT ORDINAL="1221" NAME="?setRawHeader@QHttpPart@@QEAAXAEBVQByteArray@@0@Z" PURGE="0" COMMENT="" />
    <EXPORT ORDINAL="1222" NAME="?setRawHeader@QNetworkProxy@@QEAAXAEBVQByteArray@@0@Z" PURGE="0" COMMENT="" />
    <EXPORT ORDINAL="1223" NAME="?setRawHeader@QNetworkReply@@IEAAXAEBVQByteArray@@0@Z" PURGE="0" COMMENT="" />
    <EXPORT ORDINAL="1224" NAME="?setRawHeader@QNetworkRequest@@QEAAXAEBVQByteArray@@0@Z" PURGE="0" COMMENT="" />
    <EXPORT ORDINAL="1225" NAME="?setRawHeaders@QNetworkCacheMetaData@@QEAAXAEBV?$QList@U?$QPair@VQByteArray@@V1@@@@@@Z" PURGE="0" COMMENT="" />
    <EXPORT ORDINAL="1226" NAME="?setReadBufferSize@QAbstractSocket@@UEAAX_J@Z" PURGE="0" COMMENT="" />
    <EXPORT ORDINAL="1227" NAME="?setReadBufferSize@QLocalSocket@@QEAAX_J@Z" PURGE="0" COMMENT="" />
    <EXPORT ORDINAL="1228" NAME="?setReadBufferSize@QNetworkReply@@UEAAX_J@Z" PURGE="0" COMMENT="" />
    <EXPORT ORDINAL="1229" NAME="?setReadBufferSize@QSslSocket@@UEAAX_J@Z" PURGE="0" COMMENT="" />
    <EXPORT ORDINAL="1230" NAME="?setReadable@QUrlInfo@@UEAAX_N@Z" PURGE="0" COMMENT="" />
    <EXPORT ORDINAL="1231" NAME="?setRealm@QAuthenticator@@QEAAXAEBVQString@@@Z" PURGE="0" COMMENT="" />
    <EXPORT ORDINAL="1232" NAME="?setRedirectPolicy@QNetworkAccessManager@@QEAAXW4RedirectPolicy@QNetworkRequest@@@Z" PURGE="0" COMMENT="" />
    <EXPORT ORDINAL="1233" NAME="?setRequest@QNetworkReply@@IEAAXAEBVQNetworkRequest@@@Z" PURGE="0" COMMENT="" />
    <EXPORT ORDINAL="1234" NAME="?setSaveToDisk@QNetworkCacheMetaData@@QEAAX_N@Z" PURGE="0" COMMENT="" />
    <EXPORT ORDINAL="1235" NAME="?setScopeId@QHostAddress@@QEAAXAEBVQString@@@Z" PURGE="0" COMMENT="" />
    <EXPORT ORDINAL="1236" NAME="?setSecure@QNetworkCookie@@QEAAX_N@Z" PURGE="0" COMMENT="" />
    <EXPORT ORDINAL="1237" NAME="?setSender@QNetworkDatagram@@QEAAXAEBVQHostAddress@@G@Z" PURGE="0" COMMENT="" />
    <EXPORT ORDINAL="1238" NAME="?setServerName@QLocalSocket@@QEAAXAEBVQString@@@Z" PURGE="0" COMMENT="" />
    <EXPORT ORDINAL="1239" NAME="?setServerPushEnabled@QHttp2Configuration@@QEAAX_N@Z" PURGE="0" COMMENT="" />
    <EXPORT ORDINAL="1240" NAME="?setSessionProperty@QNetworkSession@@QEAAXAEBVQString@@AEBVQVariant@@@Z" PURGE="0" COMMENT="" />
    <EXPORT ORDINAL="1241" NAME="?setSessionReceiveWindowSize@QHttp2Configuration@@QEAA_NI@Z" PURGE="0" COMMENT="" />
    <EXPORT ORDINAL="1242" NAME="?setSessionTicket@QSslConfiguration@@QEAAXAEBVQByteArray@@@Z" PURGE="-1" COMMENT="" />
    <EXPORT ORDINAL="1243" NAME="?setSize@QUrlInfo@@UEAAX_J@Z" PURGE="0" COMMENT="" />
    <EXPORT ORDINAL="1244" NAME="?setSocketDescriptor@QAbstractSocket@@UEAA_N_JW4SocketState@1@V?$QFlags@W4OpenModeFlag@QIODevice@@@@@Z" PURGE="0" COMMENT="" />
    <EXPORT ORDINAL="1245" NAME="?setSocketDescriptor@QLocalSocket@@QEAA_N_JW4LocalSocketState@1@V?$QFlags@W4OpenModeFlag@QIODevice@@@@@Z" PURGE="0" COMMENT="" />
    <EXPORT ORDINAL="1246" NAME="?setSocketDescriptor@QSslSocket@@UEAA_N_JW4SocketState@QAbstractSocket@@V?$QFlags@W4OpenModeFlag@QIODevice@@@@@Z" PURGE="0" COMMENT="" />
    <EXPORT ORDINAL="1247" NAME="?setSocketDescriptor@QTcpServer@@QEAA_N_J@Z" PURGE="0" COMMENT="" />
    <EXPORT ORDINAL="1248" NAME="?setSocketError@QAbstractSocket@@IEAAXW4SocketError@1@@Z" PURGE="0" COMMENT="" />
    <EXPORT ORDINAL="1249" NAME="?setSocketOption@QAbstractSocket@@UEAAXW4SocketOption@1@AEBVQVariant@@@Z" PURGE="0" COMMENT="" />
    <EXPORT ORDINAL="1250" NAME="?setSocketOption@QSslSocket@@UEAAXW4SocketOption@QAbstractSocket@@AEBVQVariant@@@Z" PURGE="0" COMMENT="" />
    <EXPORT ORDINAL="1251" NAME="?setSocketOptions@QLocalServer@@QEAAXV?$QFlags@W4SocketOption@QLocalServer@@@@@Z" PURGE="0" COMMENT="" />
    <EXPORT ORDINAL="1252" NAME="?setSocketState@QAbstractSocket@@IEAAXW4SocketState@1@@Z" PURGE="0" COMMENT="" />
    <EXPORT ORDINAL="1253" NAME="?setSslConfiguration@QNetworkReply@@QEAAXAEBVQSslConfiguration@@@Z" PURGE="-1" COMMENT="" />
    <EXPORT ORDINAL="1254" NAME="?setSslConfiguration@QNetworkRequest@@QEAAXAEBVQSslConfiguration@@@Z" PURGE="0" COMMENT="" />
    <EXPORT ORDINAL="1255" NAME="?setSslConfiguration@QSslSocket@@QEAAXAEBVQSslConfiguration@@@Z" PURGE="0" COMMENT="" />
    <EXPORT ORDINAL="1256" NAME="?setSslConfigurationImplementation@QNetworkReply@@MEAAXAEBVQSslConfiguration@@@Z" PURGE="0" COMMENT="" />
    <EXPORT ORDINAL="1257" NAME="?setSslOption@QSslConfiguration@@QEAAXW4SslOption@QSsl@@_N@Z" PURGE="0" COMMENT="" />
    <EXPORT ORDINAL="1258" NAME="?setStreamReceiveWindowSize@QHttp2Configuration@@QEAA_NI@Z" PURGE="0" COMMENT="" />
    <EXPORT ORDINAL="1259" NAME="?setStrictTransportSecurityEnabled@QNetworkAccessManager@@QEAAX_N@Z" PURGE="0" COMMENT="" />
    <EXPORT ORDINAL="1260" NAME="?setSymLink@QUrlInfo@@UEAAX_N@Z" PURGE="0" COMMENT="" />
    <EXPORT ORDINAL="1261" NAME="?setTransferTimeout@QNetworkAccessManager@@QEAAXH@Z" PURGE="0" COMMENT="" />
    <EXPORT ORDINAL="1262" NAME="?setTransferTimeout@QNetworkRequest@@QEAAXH@Z" PURGE="0" COMMENT="" />
    <EXPORT ORDINAL="1263" NAME="?setType@QDnsLookup@@QEAAXW4Type@1@@Z" PURGE="0" COMMENT="" />
    <EXPORT ORDINAL="1264" NAME="?setType@QNetworkProxy@@QEAAXW4ProxyType@1@@Z" PURGE="0" COMMENT="" />
    <EXPORT ORDINAL="1265" NAME="?setUrl@QNetworkCacheMetaData@@QEAAXAEBVQUrl@@@Z" PURGE="0" COMMENT="" />
    <EXPORT ORDINAL="1266" NAME="?setUrl@QNetworkProxyQuery@@QEAAXAEBVQUrl@@@Z" PURGE="-1" COMMENT="" />
    <EXPORT ORDINAL="1267" NAME="?setUrl@QNetworkReply@@IEAAXAEBVQUrl@@@Z" PURGE="-1" COMMENT="" />
    <EXPORT ORDINAL="1268" NAME="?setUrl@QNetworkRequest@@QEAAXAEBVQUrl@@@Z" PURGE="-1" COMMENT="" />
    <EXPORT ORDINAL="1269" NAME="?setUsagePolicies@QNetworkSessionPrivate@@SAXAEAVQNetworkSession@@V?$QFlags@W4UsagePolicy@QNetworkSession@@@@@Z" PURGE="0" COMMENT="" />
    <EXPORT ORDINAL="1270" NAME="?setUseSystemConfiguration@QNetworkProxyFactory@@SAX_N@Z" PURGE="0" COMMENT="" />
    <EXPORT ORDINAL="1271" NAME="?setUser@QAuthenticator@@QEAAXAEBVQString@@@Z" PURGE="0" COMMENT="" />
    <EXPORT ORDINAL="1272" NAME="?setUser@QNetworkProxy@@QEAAXAEBVQString@@@Z" PURGE="-1" COMMENT="" />
    <EXPORT ORDINAL="1273" NAME="?setValue@QNetworkCookie@@QEAAXAEBVQByteArray@@@Z" PURGE="-1" COMMENT="" />
    <EXPORT ORDINAL="1274" NAME="?setWritable@QUrlInfo@@UEAAX_N@Z" PURGE="0" COMMENT="" />
    <EXPORT ORDINAL="1275" NAME="?shortName@QSslEllipticCurve@@QEBA?AVQString@@XZ" PURGE="0" COMMENT="" />
    <EXPORT ORDINAL="1276" NAME="?shutdown@QDtls@@QEAA_NPEAVQUdpSocket@@@Z" PURGE="0" COMMENT="" />
    <EXPORT ORDINAL="1277" NAME="?size@QUrlInfo@@QEBA_JXZ" PURGE="0" COMMENT="" />
    <EXPORT ORDINAL="1278" NAME="?socketDescriptor@QAbstractSocket@@UEBA_JXZ" PURGE="0" COMMENT="" />
    <EXPORT ORDINAL="1279" NAME="?socketDescriptor@QLocalServer@@QEBA_JXZ" PURGE="0" COMMENT="" />
    <EXPORT ORDINAL="1280" NAME="?socketDescriptor@QLocalSocket@@QEBA_JXZ" PURGE="0" COMMENT="" />
    <EXPORT ORDINAL="1281" NAME="?socketDescriptor@QTcpServer@@QEBA_JXZ" PURGE="0" COMMENT="" />
    <EXPORT ORDINAL="1282" NAME="?socketOption@QAbstractSocket@@UEAA?AVQVariant@@W4SocketOption@1@@Z" PURGE="0" COMMENT="" />
    <EXPORT ORDINAL="1283" NAME="?socketOption@QSslSocket@@UEAA?AVQVariant@@W4SocketOption@QAbstractSocket@@@Z" PURGE="0" COMMENT="" />
    <EXPORT ORDINAL="1284" NAME="?socketOptions@QLocalServer@@QEBA?AV?$QFlags@W4SocketOption@QLocalServer@@@@XZ" PURGE="0" COMMENT="" />
    <EXPORT ORDINAL="1285" NAME="?socketType@QAbstractSocket@@QEBA?AW4SocketType@1@XZ" PURGE="0" COMMENT="" />
    <EXPORT ORDINAL="1286" NAME="?sslConfiguration@QNetworkReply@@QEBA?AVQSslConfiguration@@XZ" PURGE="0" COMMENT="" />
    <EXPORT ORDINAL="1287" NAME="?sslConfiguration@QNetworkRequest@@QEBA?AVQSslConfiguration@@XZ" PURGE="0" COMMENT="" />
    <EXPORT ORDINAL="1288" NAME="?sslConfiguration@QSslSocket@@QEBA?AVQSslConfiguration@@XZ" PURGE="0" COMMENT="" />
    <EXPORT ORDINAL="1289" NAME="?sslConfigurationImplementation@QNetworkReply@@MEBAXAEAVQSslConfiguration@@@Z" PURGE="0" COMMENT="" />
    <EXPORT ORDINAL="1290" NAME="?sslErrors@QNetworkAccessManager@@QEAAXPEAVQNetworkReply@@AEBV?$QList@VQSslError@@@@@Z" PURGE="0" COMMENT="" />
    <EXPORT ORDINAL="1291" NAME="?sslErrors@QNetworkReply@@QEAAXAEBV?$QList@VQSslError@@@@@Z" PURGE="0" COMMENT="" />
    <EXPORT ORDINAL="1292" NAME="?sslErrors@QSslSocket@@QEAAXAEBV?$QList@VQSslError@@@@@Z" PURGE="0" COMMENT="" />
    <EXPORT ORDINAL="1293" NAME="?sslErrors@QSslSocket@@QEBA?AV?$QList@VQSslError@@@@XZ" PURGE="0" COMMENT="" />
    <EXPORT ORDINAL="1294" NAME="?sslHandshakeErrors@QSslSocket@@QEBA?AV?$QList@VQSslError@@@@XZ" PURGE="0" COMMENT="" />
    <EXPORT ORDINAL="1295" NAME="?sslLibraryBuildVersionNumber@QSslSocket@@SAJXZ" PURGE="0" COMMENT="" />
    <EXPORT ORDINAL="1296" NAME="?sslLibraryBuildVersionString@QSslSocket@@SA?AVQString@@XZ" PURGE="0" COMMENT="" />
    <EXPORT ORDINAL="1297" NAME="?sslLibraryVersionNumber@QSslSocket@@SAJXZ" PURGE="0" COMMENT="" />
    <EXPORT ORDINAL="1298" NAME="?sslLibraryVersionString@QSslSocket@@SA?AVQString@@XZ" PURGE="0" COMMENT="" />
    <EXPORT ORDINAL="1299" NAME="?sslMode@QDtls@@QEBA?AW4SslMode@QSslSocket@@XZ" PURGE="0" COMMENT="" />
    <EXPORT ORDINAL="1300" NAME="?startClientEncryption@QSslSocket@@QEAAXXZ" PURGE="0" COMMENT="" />
    <EXPORT ORDINAL="1301" NAME="?startHandshake@QDtls@@AEAA_NPEAVQUdpSocket@@AEBVQByteArray@@@Z" PURGE="0" COMMENT="" />
    <EXPORT ORDINAL="1302" NAME="?startPolling@QNetworkConfigurationManagerPrivate@@AEAAXXZ" PURGE="-1" COMMENT="" />
    <EXPORT ORDINAL="1303" NAME="?startServerEncryption@QSslSocket@@QEAAXXZ" PURGE="0" COMMENT="" />
    <EXPORT ORDINAL="1304" NAME="?state@QAbstractSocket@@QEBA?AW4SocketState@1@XZ" PURGE="0" COMMENT="" />
    <EXPORT ORDINAL="1305" NAME="?state@QLocalSocket@@QEBA?AW4LocalSocketState@1@XZ" PURGE="0" COMMENT="" />
    <EXPORT ORDINAL="1306" NAME="?state@QNetworkConfiguration@@QEBA?AV?$QFlags@W4StateFlag@QNetworkConfiguration@@@@XZ" PURGE="0" COMMENT="" />
    <EXPORT ORDINAL="1307" NAME="?state@QNetworkSession@@QEBA?AW4State@1@XZ" PURGE="0" COMMENT="" />
    <EXPORT ORDINAL="1308" NAME="?stateChanged@QAbstractSocket@@QEAAXW4SocketState@1@@Z" PURGE="0" COMMENT="" />
    <EXPORT ORDINAL="1309" NAME="?stateChanged@QLocalSocket@@QEAAXW4LocalSocketState@1@@Z" PURGE="0" COMMENT="" />
    <EXPORT ORDINAL="1310" NAME="?stateChanged@QNetworkSession@@QEAAXW4State@1@@Z" PURGE="0" COMMENT="" />
    <EXPORT ORDINAL="1311" NAME="?stateChanged@QNetworkSessionPrivate@@QEAAXW4State@QNetworkSession@@@Z" PURGE="0" COMMENT="" />
    <EXPORT ORDINAL="1312" NAME="?staticMetaObject@QAbstractNetworkCache@@2UQMetaObject@@B" PURGE="-1" COMMENT="" />
    <EXPORT ORDINAL="1313" NAME="?staticMetaObject@QAbstractSocket@@2UQMetaObject@@B" PURGE="-1" COMMENT="" />
    <EXPORT ORDINAL="1314" NAME="?staticMetaObject@QBearerEngine@@2UQMetaObject@@B" PURGE="-1" COMMENT="" />
    <EXPORT ORDINAL="1315" NAME="?staticMetaObject@QBearerEnginePlugin@@2UQMetaObject@@B" PURGE="-1" COMMENT="" />
    <EXPORT ORDINAL="1316" NAME="?staticMetaObject@QDnsLookup@@2UQMetaObject@@B" PURGE="-1" COMMENT="" />
    <EXPORT ORDINAL="1317" NAME="?staticMetaObject@QDtls@@2UQMetaObject@@B" PURGE="-1" COMMENT="" />
    <EXPORT ORDINAL="1318" NAME="?staticMetaObject@QDtlsClientVerifier@@2UQMetaObject@@B" PURGE="-1" COMMENT="" />
    <EXPORT ORDINAL="1319" NAME="?staticMetaObject@QHttpMultiPart@@2UQMetaObject@@B" PURGE="-1" COMMENT="" />
    <EXPORT ORDINAL="1320" NAME="?staticMetaObject@QLocalServer@@2UQMetaObject@@B" PURGE="-1" COMMENT="" />
    <EXPORT ORDINAL="1321" NAME="?staticMetaObject@QLocalSocket@@2UQMetaObject@@B" PURGE="-1" COMMENT="" />
    <EXPORT ORDINAL="1322" NAME="?staticMetaObject@QNetworkAccessManager@@2UQMetaObject@@B" PURGE="-1" COMMENT="" />
    <EXPORT ORDINAL="1323" NAME="?staticMetaObject@QNetworkConfigurationManager@@2UQMetaObject@@B" PURGE="-1" COMMENT="" />
    <EXPORT ORDINAL="1324" NAME="?staticMetaObject@QNetworkConfigurationManagerPrivate@@2UQMetaObject@@B" PURGE="-1" COMMENT="" />
    <EXPORT ORDINAL="1325" NAME="?staticMetaObject@QNetworkCookieJar@@2UQMetaObject@@B" PURGE="-1" COMMENT="" />
    <EXPORT ORDINAL="1326" NAME="?staticMetaObject@QNetworkDiskCache@@2UQMetaObject@@B" PURGE="-1" COMMENT="" />
    <EXPORT ORDINAL="1327" NAME="?staticMetaObject@QNetworkInterface@@2UQMetaObject@@B" PURGE="-1" COMMENT="" />
    <EXPORT ORDINAL="1328" NAME="?staticMetaObject@QNetworkProxyQuery@@2UQMetaObject@@B" PURGE="-1" COMMENT="" />
    <EXPORT ORDINAL="1329" NAME="?staticMetaObject@QNetworkReply@@2UQMetaObject@@B" PURGE="-1" COMMENT="" />
    <EXPORT ORDINAL="1330" NAME="?staticMetaObject@QNetworkSession@@2UQMetaObject@@B" PURGE="-1" COMMENT="" />
    <EXPORT ORDINAL="1331" NAME="?staticMetaObject@QNetworkSessionPrivate@@2UQMetaObject@@B" PURGE="-1" COMMENT="" />
    <EXPORT ORDINAL="1332" NAME="?staticMetaObject@QSslError@@2UQMetaObject@@B" PURGE="-1" COMMENT="" />
    <EXPORT ORDINAL="1333" NAME="?staticMetaObject@QSslSocket@@2UQMetaObject@@B" PURGE="-1" COMMENT="" />
    <EXPORT ORDINAL="1334" NAME="?staticMetaObject@QTcpServer@@2UQMetaObject@@B" PURGE="-1" COMMENT="" />
    <EXPORT ORDINAL="1335" NAME="?staticMetaObject@QTcpSocket@@2UQMetaObject@@B" PURGE="-1" COMMENT="" />
    <EXPORT ORDINAL="1336" NAME="?staticMetaObject@QUdpSocket@@2UQMetaObject@@B" PURGE="-1" COMMENT="" />
    <EXPORT ORDINAL="1337" NAME="?stop@QNetworkSession@@QEAAXXZ" PURGE="0" COMMENT="" />
    <EXPORT ORDINAL="1338" NAME="?streamReceiveWindowSize@QHttp2Configuration@@QEBAIXZ" PURGE="0" COMMENT="" />
    <EXPORT ORDINAL="1339" NAME="?strictTransportSecurityHosts@QNetworkAccessManager@@QEBA?AV?$QVector@VQHstsPolicy@@@@XZ" PURGE="0" COMMENT="" />
    <EXPORT ORDINAL="1340" NAME="?subject@QOcspResponse@@QEBA?AVQSslCertificate@@XZ" PURGE="0" COMMENT="" />
    <EXPORT ORDINAL="1341" NAME="?subjectAlternativeNames@QSslCertificate@@QEBA?AV?$QMultiMap@W4AlternativeNameEntryType@QSsl@@VQString@@@@XZ" PURGE="0" COMMENT="" />
    <EXPORT ORDINAL="1342" NAME="?subjectDisplayName@QSslCertificate@@QEBA?AVQString@@XZ" PURGE="0" COMMENT="" />
    <EXPORT ORDINAL="1343" NAME="?subjectInfo@QSslCertificate@@QEBA?AVQStringList@@AEBVQByteArray@@@Z" PURGE="0" COMMENT="" />
    <EXPORT ORDINAL="1344" NAME="?subjectInfo@QSslCertificate@@QEBA?AVQStringList@@W4SubjectInfo@1@@Z" PURGE="0" COMMENT="" />
    <EXPORT ORDINAL="1345" NAME="?subjectInfoAttributes@QSslCertificate@@QEBA?AV?$QList@VQByteArray@@@@XZ" PURGE="0" COMMENT="" />
    <EXPORT ORDINAL="1346" NAME="?supportedBits@QSslCipher@@QEBAHXZ" PURGE="0" COMMENT="" />
    <EXPORT ORDINAL="1347" NAME="?supportedCiphers@QSslConfiguration@@SA?AV?$QList@VQSslCipher@@@@XZ" PURGE="0" COMMENT="" />
    <EXPORT ORDINAL="1348" NAME="?supportedCiphers@QSslSocket@@SA?AV?$QList@VQSslCipher@@@@XZ" PURGE="0" COMMENT="" />
    <EXPORT ORDINAL="1349" NAME="?supportedEllipticCurves@QSslConfiguration@@SA?AV?$QVector@VQSslEllipticCurve@@@@XZ" PURGE="0" COMMENT="" />
    <EXPORT ORDINAL="1350" NAME="?supportedSchemes@QNetworkAccessManager@@QEBA?AVQStringList@@XZ" PURGE="0" COMMENT="" />
    <EXPORT ORDINAL="1351" NAME="?supportedSchemesImplementation@QNetworkAccessManager@@IEBA?AVQStringList@@XZ" PURGE="0" COMMENT="" />
    <EXPORT ORDINAL="1352" NAME="?supportsSsl@QSslSocket@@SA_NXZ" PURGE="0" COMMENT="" />
    <EXPORT ORDINAL="1353" NAME="?swap@QDnsDomainNameRecord@@QEAAXAEAV1@@Z" PURGE="0" COMMENT="" />
    <EXPORT ORDINAL="1354" NAME="?swap@QDnsHostAddressRecord@@QEAAXAEAV1@@Z" PURGE="0" COMMENT="" />
    <EXPORT ORDINAL="1355" NAME="?swap@QDnsMailExchangeRecord@@QEAAXAEAV1@@Z" PURGE="0" COMMENT="" />
    <EXPORT ORDINAL="1356" NAME="?swap@QDnsServiceRecord@@QEAAXAEAV1@@Z" PURGE="0" COMMENT="" />
    <EXPORT ORDINAL="1357" NAME="?swap@QDnsTextRecord@@QEAAXAEAV1@@Z" PURGE="0" COMMENT="" />
    <EXPORT ORDINAL="1358" NAME="?swap@QHostAddress@@QEAAXAEAV1@@Z" PURGE="0" COMMENT="" />
    <EXPORT ORDINAL="1359" NAME="?swap@QHostInfo@@QEAAXAEAV1@@Z" PURGE="0" COMMENT="" />
    <EXPORT ORDINAL="1360" NAME="?swap@QHstsPolicy@@QEAAXAEAV1@@Z" PURGE="0" COMMENT="" />
    <EXPORT ORDINAL="1361" NAME="?swap@QHttp2Configuration@@QEAAXAEAV1@@Z" PURGE="0" COMMENT="" />
    <EXPORT ORDINAL="1362" NAME="?swap@QHttpPart@@QEAAXAEAV1@@Z" PURGE="0" COMMENT="" />
    <EXPORT ORDINAL="1363" NAME="?swap@QNetworkAddressEntry@@QEAAXAEAV1@@Z" PURGE="0" COMMENT="" />
    <EXPORT ORDINAL="1364" NAME="?swap@QNetworkCacheMetaData@@QEAAXAEAV1@@Z" PURGE="0" COMMENT="" />
    <EXPORT ORDINAL="1365" NAME="?swap@QNetworkConfiguration@@QEAAXAEAV1@@Z" PURGE="0" COMMENT="" />
    <EXPORT ORDINAL="1366" NAME="?swap@QNetworkCookie@@QEAAXAEAV1@@Z" PURGE="0" COMMENT="" />
    <EXPORT ORDINAL="1367" NAME="?swap@QNetworkDatagram@@QEAAXAEAV1@@Z" PURGE="0" COMMENT="" />
    <EXPORT ORDINAL="1368" NAME="?swap@QNetworkInterface@@QEAAXAEAV1@@Z" PURGE="0" COMMENT="" />
    <EXPORT ORDINAL="1369" NAME="?swap@QNetworkProxy@@QEAAXAEAV1@@Z" PURGE="0" COMMENT="" />
    <EXPORT ORDINAL="1370" NAME="?swap@QNetworkProxyQuery@@QEAAXAEAV1@@Z" PURGE="0" COMMENT="" />
    <EXPORT ORDINAL="1371" NAME="?swap@QNetworkRequest@@QEAAXAEAV1@@Z" PURGE="0" COMMENT="" />
    <EXPORT ORDINAL="1372" NAME="?swap@QOcspResponse@@QEAAXAEAV1@@Z" PURGE="0" COMMENT="" />
    <EXPORT ORDINAL="1373" NAME="?swap@QSslCertificate@@QEAAXAEAV1@@Z" PURGE="0" COMMENT="" />
    <EXPORT ORDINAL="1374" NAME="?swap@QSslCertificateExtension@@QEAAXAEAV1@@Z" PURGE="0" COMMENT="" />
    <EXPORT ORDINAL="1375" NAME="?swap@QSslCipher@@QEAAXAEAV1@@Z" PURGE="0" COMMENT="" />
    <EXPORT ORDINAL="1376" NAME="?swap@QSslConfiguration@@QEAAXAEAV1@@Z" PURGE="0" COMMENT="" />
    <EXPORT ORDINAL="1377" NAME="?swap@QSslError@@QEAAXAEAV1@@Z" PURGE="0" COMMENT="" />
    <EXPORT ORDINAL="1378" NAME="?swap@QSslKey@@QEAAXAEAV1@@Z" PURGE="0" COMMENT="" />
    <EXPORT ORDINAL="1379" NAME="?systemCaCertificates@QSslConfiguration@@SA?AV?$QList@VQSslCertificate@@@@XZ" PURGE="0" COMMENT="" />
    <EXPORT ORDINAL="1380" NAME="?systemCaCertificates@QSslSocket@@SA?AV?$QList@VQSslCertificate@@@@XZ" PURGE="0" COMMENT="" />
    <EXPORT ORDINAL="1381" NAME="?systemProxyForQuery@QNetworkProxyFactory@@SA?AV?$QList@VQNetworkProxy@@@@AEBVQNetworkProxyQuery@@@Z" PURGE="0" COMMENT="" />
    <EXPORT ORDINAL="1382" NAME="?target@QDnsServiceRecord@@QEBA?AVQString@@XZ" PURGE="0" COMMENT="" />
    <EXPORT ORDINAL="1383" NAME="?testSslOption@QSslConfiguration@@QEBA_NW4SslOption@QSsl@@@Z" PURGE="0" COMMENT="" />
    <EXPORT ORDINAL="1384" NAME="?textRecords@QDnsLookup@@QEBA?AV?$QList@VQDnsTextRecord@@@@XZ" PURGE="0" COMMENT="" />
    <EXPORT ORDINAL="1385" NAME="?timeToLive@QDnsDomainNameRecord@@QEBAIXZ" PURGE="0" COMMENT="" />
    <EXPORT ORDINAL="1386" NAME="?timeToLive@QDnsHostAddressRecord@@QEBAIXZ" PURGE="0" COMMENT="" />
    <EXPORT ORDINAL="1387" NAME="?timeToLive@QDnsMailExchangeRecord@@QEBAIXZ" PURGE="0" COMMENT="" />
    <EXPORT ORDINAL="1388" NAME="?timeToLive@QDnsServiceRecord@@QEBAIXZ" PURGE="0" COMMENT="" />
    <EXPORT ORDINAL="1389" NAME="?timeToLive@QDnsTextRecord@@QEBAIXZ" PURGE="0" COMMENT="" />
    <EXPORT ORDINAL="1390" NAME="?toDer@QSslCertificate@@QEBA?AVQByteArray@@XZ" PURGE="0" COMMENT="" />
    <EXPORT ORDINAL="1391" NAME="?toDer@QSslKey@@QEBA?AVQByteArray@@AEBV2@@Z" PURGE="0" COMMENT="" />
    <EXPORT ORDINAL="1392" NAME="?toIPv4Address@QHostAddress@@QEBAIPEA_N@Z" PURGE="0" COMMENT="" />
    <EXPORT ORDINAL="1393" NAME="?toIPv4Address@QHostAddress@@QEBAIXZ" PURGE="0" COMMENT="" />
    <EXPORT ORDINAL="1394" NAME="?toIPv6Address@QHostAddress@@QEBA?AVQIPv6Address@@XZ" PURGE="0" COMMENT="" />
    <EXPORT ORDINAL="1395" NAME="?toPem@QSslCertificate@@QEBA?AVQByteArray@@XZ" PURGE="0" COMMENT="" />
    <EXPORT ORDINAL="1396" NAME="?toPem@QSslKey@@QEBA?AVQByteArray@@AEBV2@@Z" PURGE="0" COMMENT="" />
    <EXPORT ORDINAL="1397" NAME="?toRawForm@QNetworkCookie@@QEBA?AVQByteArray@@W4RawForm@1@@Z" PURGE="0" COMMENT="" />
    <EXPORT ORDINAL="1398" NAME="?toString@QHostAddress@@QEBA?AVQString@@XZ" PURGE="0" COMMENT="" />
    <EXPORT ORDINAL="1399" NAME="?toText@QSslCertificate@@QEBA?AVQString@@XZ" PURGE="0" COMMENT="" />
    <EXPORT ORDINAL="1400" NAME="?tr@QAbstractNetworkCache@@SA?AVQString@@PEBD0H@Z" PURGE="0" COMMENT="" />
    <EXPORT ORDINAL="1401" NAME="?tr@QAbstractSocket@@SA?AVQString@@PEBD0H@Z" PURGE="0" COMMENT="" />
    <EXPORT ORDINAL="1402" NAME="?tr@QBearerEngine@@SA?AVQString@@PEBD0H@Z" PURGE="0" COMMENT="" />
    <EXPORT ORDINAL="1403" NAME="?tr@QBearerEnginePlugin@@SA?AVQString@@PEBD0H@Z" PURGE="0" COMMENT="" />
    <EXPORT ORDINAL="1404" NAME="?tr@QDnsLookup@@SA?AVQString@@PEBD0H@Z" PURGE="0" COMMENT="" />
    <EXPORT ORDINAL="1405" NAME="?tr@QDtls@@SA?AVQString@@PEBD0H@Z" PURGE="0" COMMENT="" />
    <EXPORT ORDINAL="1406" NAME="?tr@QDtlsClientVerifier@@SA?AVQString@@PEBD0H@Z" PURGE="0" COMMENT="" />
    <EXPORT ORDINAL="1407" NAME="?tr@QHttpMultiPart@@SA?AVQString@@PEBD0H@Z" PURGE="0" COMMENT="" />
    <EXPORT ORDINAL="1408" NAME="?tr@QLocalServer@@SA?AVQString@@PEBD0H@Z" PURGE="0" COMMENT="" />
    <EXPORT ORDINAL="1409" NAME="?tr@QLocalSocket@@SA?AVQString@@PEBD0H@Z" PURGE="0" COMMENT="" />
    <EXPORT ORDINAL="1410" NAME="?tr@QNetworkAccessManager@@SA?AVQString@@PEBD0H@Z" PURGE="0" COMMENT="" />
    <EXPORT ORDINAL="1411" NAME="?tr@QNetworkConfigurationManager@@SA?AVQString@@PEBD0H@Z" PURGE="0" COMMENT="" />
    <EXPORT ORDINAL="1412" NAME="?tr@QNetworkConfigurationManagerPrivate@@SA?AVQString@@PEBD0H@Z" PURGE="0" COMMENT="" />
    <EXPORT ORDINAL="1413" NAME="?tr@QNetworkCookieJar@@SA?AVQString@@PEBD0H@Z" PURGE="0" COMMENT="" />
    <EXPORT ORDINAL="1414" NAME="?tr@QNetworkDiskCache@@SA?AVQString@@PEBD0H@Z" PURGE="0" COMMENT="" />
    <EXPORT ORDINAL="1415" NAME="?tr@QNetworkReply@@SA?AVQString@@PEBD0H@Z" PURGE="0" COMMENT="" />
    <EXPORT ORDINAL="1416" NAME="?tr@QNetworkSession@@SA?AVQString@@PEBD0H@Z" PURGE="0" COMMENT="" />
    <EXPORT ORDINAL="1417" NAME="?tr@QNetworkSessionPrivate@@SA?AVQString@@PEBD0H@Z" PURGE="0" COMMENT="" />
    <EXPORT ORDINAL="1418" NAME="?tr@QSslSocket@@SA?AVQString@@PEBD0H@Z" PURGE="0" COMMENT="" />
    <EXPORT ORDINAL="1419" NAME="?tr@QTcpServer@@SA?AVQString@@PEBD0H@Z" PURGE="0" COMMENT="" />
    <EXPORT ORDINAL="1420" NAME="?tr@QTcpSocket@@SA?AVQString@@PEBD0H@Z" PURGE="0" COMMENT="" />
    <EXPORT ORDINAL="1421" NAME="?tr@QUdpSocket@@SA?AVQString@@PEBD0H@Z" PURGE="0" COMMENT="" />
    <EXPORT ORDINAL="1422" NAME="?trUtf8@QAbstractNetworkCache@@SA?AVQString@@PEBD0H@Z" PURGE="0" COMMENT="" />
    <EXPORT ORDINAL="1423" NAME="?trUtf8@QAbstractSocket@@SA?AVQString@@PEBD0H@Z" PURGE="0" COMMENT="" />
    <EXPORT ORDINAL="1424" NAME="?trUtf8@QBearerEngine@@SA?AVQString@@PEBD0H@Z" PURGE="0" COMMENT="" />
    <EXPORT ORDINAL="1425" NAME="?trUtf8@QBearerEnginePlugin@@SA?AVQString@@PEBD0H@Z" PURGE="0" COMMENT="" />
    <EXPORT ORDINAL="1426" NAME="?trUtf8@QDnsLookup@@SA?AVQString@@PEBD0H@Z" PURGE="0" COMMENT="" />
    <EXPORT ORDINAL="1427" NAME="?trUtf8@QDtls@@SA?AVQString@@PEBD0H@Z" PURGE="0" COMMENT="" />
    <EXPORT ORDINAL="1428" NAME="?trUtf8@QDtlsClientVerifier@@SA?AVQString@@PEBD0H@Z" PURGE="0" COMMENT="" />
    <EXPORT ORDINAL="1429" NAME="?trUtf8@QHttpMultiPart@@SA?AVQString@@PEBD0H@Z" PURGE="0" COMMENT="" />
    <EXPORT ORDINAL="1430" NAME="?trUtf8@QLocalServer@@SA?AVQString@@PEBD0H@Z" PURGE="0" COMMENT="" />
    <EXPORT ORDINAL="1431" NAME="?trUtf8@QLocalSocket@@SA?AVQString@@PEBD0H@Z" PURGE="0" COMMENT="" />
    <EXPORT ORDINAL="1432" NAME="?trUtf8@QNetworkAccessManager@@SA?AVQString@@PEBD0H@Z" PURGE="0" COMMENT="" />
    <EXPORT ORDINAL="1433" NAME="?trUtf8@QNetworkConfigurationManager@@SA?AVQString@@PEBD0H@Z" PURGE="0" COMMENT="" />
    <EXPORT ORDINAL="1434" NAME="?trUtf8@QNetworkConfigurationManagerPrivate@@SA?AVQString@@PEBD0H@Z" PURGE="0" COMMENT="" />
    <EXPORT ORDINAL="1435" NAME="?trUtf8@QNetworkCookieJar@@SA?AVQString@@PEBD0H@Z" PURGE="0" COMMENT="" />
    <EXPORT ORDINAL="1436" NAME="?trUtf8@QNetworkDiskCache@@SA?AVQString@@PEBD0H@Z" PURGE="0" COMMENT="" />
    <EXPORT ORDINAL="1437" NAME="?trUtf8@QNetworkReply@@SA?AVQString@@PEBD0H@Z" PURGE="0" COMMENT="" />
    <EXPORT ORDINAL="1438" NAME="?trUtf8@QNetworkSession@@SA?AVQString@@PEBD0H@Z" PURGE="0" COMMENT="" />
    <EXPORT ORDINAL="1439" NAME="?trUtf8@QNetworkSessionPrivate@@SA?AVQString@@PEBD0H@Z" PURGE="0" COMMENT="" />
    <EXPORT ORDINAL="1440" NAME="?trUtf8@QSslSocket@@SA?AVQString@@PEBD0H@Z" PURGE="0" COMMENT="" />
    <EXPORT ORDINAL="1441" NAME="?trUtf8@QTcpServer@@SA?AVQString@@PEBD0H@Z" PURGE="0" COMMENT="" />
    <EXPORT ORDINAL="1442" NAME="?trUtf8@QTcpSocket@@SA?AVQString@@PEBD0H@Z" PURGE="0" COMMENT="" />
    <EXPORT ORDINAL="1443" NAME="?trUtf8@QUdpSocket@@SA?AVQString@@PEBD0H@Z" PURGE="0" COMMENT="" />
    <EXPORT ORDINAL="1444" NAME="?transferTimeout@QNetworkAccessManager@@QEBAHXZ" PURGE="0" COMMENT="" />
    <EXPORT ORDINAL="1445" NAME="?transferTimeout@QNetworkRequest@@QEBAHXZ" PURGE="0" COMMENT="" />
    <EXPORT ORDINAL="1446" NAME="?type@QDnsLookup@@QEBA?AW4Type@1@XZ" PURGE="0" COMMENT="" />
    <EXPORT ORDINAL="1447" NAME="?type@QNetworkConfiguration@@QEBA?AW4Type@1@XZ" PURGE="0" COMMENT="" />
    <EXPORT ORDINAL="1448" NAME="?type@QNetworkInterface@@QEBA?AW4InterfaceType@1@XZ" PURGE="0" COMMENT="" />
    <EXPORT ORDINAL="1449" NAME="?type@QNetworkProxy@@QEBA?AW4ProxyType@1@XZ" PURGE="0" COMMENT="" />
    <EXPORT ORDINAL="1450" NAME="?type@QSslKey@@QEBA?AW4KeyType@QSsl@@XZ" PURGE="0" COMMENT="" />
    <EXPORT ORDINAL="1451" NAME="?typeChanged@QDnsLookup@@QEAAXW4Type@1@@Z" PURGE="0" COMMENT="" />
    <EXPORT ORDINAL="1452" NAME="?updateCompleted@QBearerEngine@@QEAAXXZ" PURGE="-1" COMMENT="" />
    <EXPORT ORDINAL="1453" NAME="?updateCompleted@QNetworkConfigurationManager@@QEAAXXZ" PURGE="-1" COMMENT="" />
    <EXPORT ORDINAL="1454" NAME="?updateConfigurations@QNetworkConfigurationManager@@QEAAXXZ" PURGE="0" COMMENT="" />
    <EXPORT ORDINAL="1455" NAME="?updateConfigurations@QNetworkConfigurationManagerPrivate@@QEAAXXZ" PURGE="0" COMMENT="" />
    <EXPORT ORDINAL="1456" NAME="?updateCookie@QNetworkCookieJar@@UEAA_NAEBVQNetworkCookie@@@Z" PURGE="0" COMMENT="" />
    <EXPORT ORDINAL="1457" NAME="?updateMetaData@QNetworkDiskCache@@UEAAXAEBVQNetworkCacheMetaData@@@Z" PURGE="0" COMMENT="" />
    <EXPORT ORDINAL="1458" NAME="?uploadProgress@QNetworkReply@@QEAAX_J0@Z" PURGE="0" COMMENT="" />
    <EXPORT ORDINAL="1459" NAME="?url@QNetworkCacheMetaData@@QEBA?AVQUrl@@XZ" PURGE="0" COMMENT="" />
    <EXPORT ORDINAL="1460" NAME="?url@QNetworkProxyQuery@@QEBA?AVQUrl@@XZ" PURGE="0" COMMENT="" />
    <EXPORT ORDINAL="1461" NAME="?url@QNetworkReply@@QEBA?AVQUrl@@XZ" PURGE="0" COMMENT="" />
    <EXPORT ORDINAL="1462" NAME="?url@QNetworkRequest@@QEBA?AVQUrl@@XZ" PURGE="0" COMMENT="" />
    <EXPORT ORDINAL="1463" NAME="?usagePolicies@QNetworkSession@@QEBA?AV?$QFlags@W4UsagePolicy@QNetworkSession@@@@XZ" PURGE="0" COMMENT="" />
    <EXPORT ORDINAL="1464" NAME="?usagePoliciesChanged@QNetworkSession@@QEAAXV?$QFlags@W4UsagePolicy@QNetworkSession@@@@@Z" PURGE="0" COMMENT="" />
    <EXPORT ORDINAL="1465" NAME="?usagePoliciesChanged@QNetworkSessionPrivate@@QEAAXV?$QFlags@W4UsagePolicy@QNetworkSession@@@@@Z" PURGE="0" COMMENT="" />
    <EXPORT ORDINAL="1466" NAME="?usedBits@QSslCipher@@QEBAHXZ" PURGE="0" COMMENT="" />
    <EXPORT ORDINAL="1467" NAME="?user@QAuthenticator@@QEBA?AVQString@@XZ" PURGE="0" COMMENT="" />
    <EXPORT ORDINAL="1468" NAME="?user@QNetworkProxy@@QEBA?AVQString@@XZ" PURGE="0" COMMENT="" />
    <EXPORT ORDINAL="1469" NAME="?usesSystemConfiguration@QNetworkProxyFactory@@SA_NXZ" PURGE="0" COMMENT="" />
    <EXPORT ORDINAL="1470" NAME="?validateCookie@QNetworkCookieJar@@MEBA_NAEBVQNetworkCookie@@AEBVQUrl@@@Z" PURGE="0" COMMENT="" />
    <EXPORT ORDINAL="1471" NAME="?validityLifetime@QNetworkAddressEntry@@QEBA?AVQDeadlineTimer@@XZ" PURGE="0" COMMENT="" />
    <EXPORT ORDINAL="1472" NAME="?value@QDnsDomainNameRecord@@QEBA?AVQString@@XZ" PURGE="0" COMMENT="" />
    <EXPORT ORDINAL="1473" NAME="?value@QDnsHostAddressRecord@@QEBA?AVQHostAddress@@XZ" PURGE="0" COMMENT="" />
    <EXPORT ORDINAL="1474" NAME="?value@QNetworkCookie@@QEBA?AVQByteArray@@XZ" PURGE="0" COMMENT="" />
    <EXPORT ORDINAL="1475" NAME="?value@QSslCertificateExtension@@QEBA?AVQVariant@@XZ" PURGE="0" COMMENT="" />
    <EXPORT ORDINAL="1476" NAME="?values@QDnsTextRecord@@QEBA?AV?$QList@VQByteArray@@@@XZ" PURGE="0" COMMENT="" />
    <EXPORT ORDINAL="1477" NAME="?verifiedHello@QDtlsClientVerifier@@QEBA?AVQByteArray@@XZ" PURGE="0" COMMENT="" />
    <EXPORT ORDINAL="1478" NAME="?verify@QSslCertificate@@SA?AV?$QList@VQSslError@@@@V?$QList@VQSslCertificate@@@@AEBVQString@@@Z" PURGE="0" COMMENT="" />
    <EXPORT ORDINAL="1479" NAME="?verifyClient@QDtlsClientVerifier@@QEAA_NPEAVQUdpSocket@@AEBVQByteArray@@AEBVQHostAddress@@G@Z" PURGE="0" COMMENT="" />
    <EXPORT ORDINAL="1480" NAME="?version@QSslCertificate@@QEBA?AVQByteArray@@XZ" PURGE="0" COMMENT="" />
    <EXPORT ORDINAL="1481" NAME="?waitForBytesWritten@QAbstractSocket@@UEAA_NH@Z" PURGE="0" COMMENT="" />
    <EXPORT ORDINAL="1482" NAME="?waitForBytesWritten@QLocalSocket@@UEAA_NH@Z" PURGE="0" COMMENT="" />
    <EXPORT ORDINAL="1483" NAME="?waitForBytesWritten@QSslSocket@@UEAA_NH@Z" PURGE="0" COMMENT="" />
    <EXPORT ORDINAL="1484" NAME="?waitForConnected@QAbstractSocket@@UEAA_NH@Z" PURGE="0" COMMENT="" />
    <EXPORT ORDINAL="1485" NAME="?waitForConnected@QLocalSocket@@QEAA_NH@Z" PURGE="0" COMMENT="" />
    <EXPORT ORDINAL="1486" NAME="?waitForConnected@QSslSocket@@UEAA_NH@Z" PURGE="0" COMMENT="" />
    <EXPORT ORDINAL="1487" NAME="?waitForDisconnected@QAbstractSocket@@UEAA_NH@Z" PURGE="0" COMMENT="" />
    <EXPORT ORDINAL="1488" NAME="?waitForDisconnected@QLocalSocket@@QEAA_NH@Z" PURGE="0" COMMENT="" />
    <EXPORT ORDINAL="1489" NAME="?waitForDisconnected@QSslSocket@@UEAA_NH@Z" PURGE="0" COMMENT="" />
    <EXPORT ORDINAL="1490" NAME="?waitForEncrypted@QSslSocket@@QEAA_NH@Z" PURGE="0" COMMENT="" />
    <EXPORT ORDINAL="1491" NAME="?waitForNewConnection@QLocalServer@@QEAA_NHPEA_N@Z" PURGE="0" COMMENT="" />
    <EXPORT ORDINAL="1492" NAME="?waitForNewConnection@QTcpServer@@QEAA_NHPEA_N@Z" PURGE="0" COMMENT="" />
    <EXPORT ORDINAL="1493" NAME="?waitForOpened@QNetworkSession@@QEAA_NH@Z" PURGE="0" COMMENT="" />
    <EXPORT ORDINAL="1494" NAME="?waitForReadyRead@QAbstractSocket@@UEAA_NH@Z" PURGE="0" COMMENT="" />
    <EXPORT ORDINAL="1495" NAME="?waitForReadyRead@QLocalSocket@@UEAA_NH@Z" PURGE="0" COMMENT="" />
    <EXPORT ORDINAL="1496" NAME="?waitForReadyRead@QSslSocket@@UEAA_NH@Z" PURGE="0" COMMENT="" />
    <EXPORT ORDINAL="1497" NAME="?weight@QDnsServiceRecord@@QEBAGXZ" PURGE="0" COMMENT="" />
    <EXPORT ORDINAL="1498" NAME="?writeData@QAbstractSocket@@MEAA_JPEBD_J@Z" PURGE="0" COMMENT="" />
    <EXPORT ORDINAL="1499" NAME="?writeData@QLocalSocket@@MEAA_JPEBD_J@Z" PURGE="0" COMMENT="" />
    <EXPORT ORDINAL="1500" NAME="?writeData@QNetworkReply@@MEAA_JPEBD_J@Z" PURGE="0" COMMENT="" />
    <EXPORT ORDINAL="1501" NAME="?writeData@QSslSocket@@MEAA_JPEBD_J@Z" PURGE="0" COMMENT="" />
    <EXPORT ORDINAL="1502" NAME="?writeDatagram@QUdpSocket@@QEAA_JAEBVQByteArray@@AEBVQHostAddress@@G@Z" PURGE="0" COMMENT="" />
    <EXPORT ORDINAL="1503" NAME="?writeDatagram@QUdpSocket@@QEAA_JAEBVQNetworkDatagram@@@Z" PURGE="0" COMMENT="" />
    <EXPORT ORDINAL="1504" NAME="?writeDatagram@QUdpSocket@@QEAA_JPEBD_JAEBVQHostAddress@@G@Z" PURGE="0" COMMENT="" />
    <EXPORT ORDINAL="1505" NAME="?writeDatagramEncrypted@QDtls@@QEAA_JPEAVQUdpSocket@@AEBVQByteArray@@@Z" PURGE="0" COMMENT="" />
    <EXPORT ORDINAL="1506" NAME="?writeNotification@QTcpServerPrivate@@UEAAXXZ" PURGE="0" COMMENT="" />
</LIBRARY>

