<?xml version="1.0" encoding="UTF-8"?>
<LIBRARY NAME="qt5winextras.dll" PATH="/DLLArchive/etc/Qt5WinExtras.dll" DATE="Sun Jul 10 11:00:40 PDT 2022" VERSION="5.6.3.0">
    <EXPORT ORDINAL="1" NAME="??0QWinColorizationChangeEvent@@QEAA@AEBV0@@Z" PURGE="0" COMMENT="" />
    <EXPORT ORDINAL="2" NAME="??0QWinColorizationChangeEvent@@QEAA@I_N@Z" PURGE="0" COMMENT="" />
    <EXPORT ORDINAL="3" NAME="??0QWinCompositionChangeEvent@@QEAA@AEBV0@@Z" PURGE="0" COMMENT="" />
    <EXPORT ORDINAL="4" NAME="??0QWinCompositionChangeEvent@@QEAA@_N@Z" PURGE="0" COMMENT="" />
    <EXPORT ORDINAL="5" NAME="??0QWinEvent@@QEAA@AEBV0@@Z" PURGE="0" COMMENT="" />
    <EXPORT ORDINAL="6" NAME="??0QWinEvent@@QEAA@H@Z" PURGE="0" COMMENT="" />
    <EXPORT ORDINAL="7" NAME="??0QWinEventFilter@@QEAA@XZ" PURGE="0" COMMENT="" />
    <EXPORT ORDINAL="8" NAME="??0QWinJumpList@@QEAA@PEAVQObject@@@Z" PURGE="0" COMMENT="" />
    <EXPORT ORDINAL="9" NAME="??0QWinJumpListCategory@@QEAA@AEBVQString@@@Z" PURGE="0" COMMENT="" />
    <EXPORT ORDINAL="10" NAME="??0QWinJumpListItem@@QEAA@W4Type@0@@Z" PURGE="0" COMMENT="" />
    <EXPORT ORDINAL="11" NAME="??0QWinMime@@QEAA@XZ" PURGE="0" COMMENT="" />
    <EXPORT ORDINAL="12" NAME="??0QWinTaskbarButton@@QEAA@PEAVQObject@@@Z" PURGE="0" COMMENT="" />
    <EXPORT ORDINAL="13" NAME="??0QWinTaskbarProgress@@QEAA@PEAVQObject@@@Z" PURGE="0" COMMENT="" />
    <EXPORT ORDINAL="14" NAME="??0QWinThumbnailToolBar@@QEAA@PEAVQObject@@@Z" PURGE="0" COMMENT="" />
    <EXPORT ORDINAL="15" NAME="??0QWinThumbnailToolButton@@QEAA@PEAVQObject@@@Z" PURGE="0" COMMENT="" />
    <EXPORT ORDINAL="16" NAME="??1QWinColorizationChangeEvent@@UEAA@XZ" PURGE="-1" COMMENT="" />
    <EXPORT ORDINAL="17" NAME="??1QWinCompositionChangeEvent@@UEAA@XZ" PURGE="-1" COMMENT="" />
    <EXPORT ORDINAL="18" NAME="??1QWinEvent@@UEAA@XZ" PURGE="-1" COMMENT="" />
    <EXPORT ORDINAL="19" NAME="??1QWinEventFilter@@UEAA@XZ" PURGE="-1" COMMENT="" />
    <EXPORT ORDINAL="20" NAME="??1QWinJumpList@@UEAA@XZ" PURGE="-1" COMMENT="" />
    <EXPORT ORDINAL="21" NAME="??1QWinJumpListCategory@@QEAA@XZ" PURGE="0" COMMENT="" />
    <EXPORT ORDINAL="22" NAME="??1QWinJumpListItem@@QEAA@XZ" PURGE="0" COMMENT="" />
    <EXPORT ORDINAL="23" NAME="??1QWinMime@@UEAA@XZ" PURGE="0" COMMENT="" />
    <EXPORT ORDINAL="24" NAME="??1QWinTaskbarButton@@UEAA@XZ" PURGE="-1" COMMENT="" />
    <EXPORT ORDINAL="25" NAME="??1QWinTaskbarProgress@@UEAA@XZ" PURGE="-1" COMMENT="" />
    <EXPORT ORDINAL="26" NAME="??1QWinThumbnailToolBar@@UEAA@XZ" PURGE="-1" COMMENT="" />
    <EXPORT ORDINAL="27" NAME="??1QWinThumbnailToolButton@@UEAA@XZ" PURGE="-1" COMMENT="" />
    <EXPORT ORDINAL="28" NAME="??4QWinColorizationChangeEvent@@QEAAAEAV0@AEBV0@@Z" PURGE="0" COMMENT="" />
    <EXPORT ORDINAL="29" NAME="??4QWinCompositionChangeEvent@@QEAAAEAV0@AEBV0@@Z" PURGE="0" COMMENT="" />
    <EXPORT ORDINAL="30" NAME="??4QWinEvent@@QEAAAEAV0@AEBV0@@Z" PURGE="0" COMMENT="" />
    <EXPORT ORDINAL="31" NAME="??6@YA?AVQDebug@@V0@PEBVQWinJumpList@@@Z" PURGE="0" COMMENT="" />
    <EXPORT ORDINAL="32" NAME="??6@YA?AVQDebug@@V0@PEBVQWinJumpListCategory@@@Z" PURGE="0" COMMENT="" />
    <EXPORT ORDINAL="33" NAME="??6@YA?AVQDebug@@V0@PEBVQWinJumpListItem@@@Z" PURGE="0" COMMENT="" />
    <EXPORT ORDINAL="34" NAME="??_7QWinColorizationChangeEvent@@6B@" PURGE="-1" COMMENT="" />
    <EXPORT ORDINAL="35" NAME="??_7QWinCompositionChangeEvent@@6B@" PURGE="-1" COMMENT="" />
    <EXPORT ORDINAL="36" NAME="??_7QWinEvent@@6B@" PURGE="-1" COMMENT="" />
    <EXPORT ORDINAL="37" NAME="??_7QWinEventFilter@@6B@" PURGE="-1" COMMENT="" />
    <EXPORT ORDINAL="38" NAME="??_7QWinJumpList@@6B@" PURGE="-1" COMMENT="" />
    <EXPORT ORDINAL="39" NAME="??_7QWinMime@@6B@" PURGE="-1" COMMENT="" />
    <EXPORT ORDINAL="40" NAME="??_7QWinTaskbarButton@@6B@" PURGE="-1" COMMENT="" />
    <EXPORT ORDINAL="41" NAME="??_7QWinTaskbarProgress@@6B@" PURGE="-1" COMMENT="" />
    <EXPORT ORDINAL="42" NAME="??_7QWinThumbnailToolBar@@6B@" PURGE="-1" COMMENT="" />
    <EXPORT ORDINAL="43" NAME="??_7QWinThumbnailToolButton@@6B@" PURGE="-1" COMMENT="" />
    <EXPORT ORDINAL="44" NAME="??_FQWinJumpList@@QEAAXXZ" PURGE="0" COMMENT="" />
    <EXPORT ORDINAL="45" NAME="??_FQWinJumpListCategory@@QEAAXXZ" PURGE="0" COMMENT="" />
    <EXPORT ORDINAL="46" NAME="??_FQWinTaskbarButton@@QEAAXXZ" PURGE="0" COMMENT="" />
    <EXPORT ORDINAL="47" NAME="??_FQWinTaskbarProgress@@QEAAXXZ" PURGE="0" COMMENT="" />
    <EXPORT ORDINAL="48" NAME="??_FQWinThumbnailToolBar@@QEAAXXZ" PURGE="0" COMMENT="" />
    <EXPORT ORDINAL="49" NAME="??_FQWinThumbnailToolButton@@QEAAXXZ" PURGE="0" COMMENT="" />
    <EXPORT ORDINAL="50" NAME="?ColorizationChange@QWinEvent@@2HB" PURGE="-1" COMMENT="" />
    <EXPORT ORDINAL="51" NAME="?CompositionChange@QWinEvent@@2HB" PURGE="-1" COMMENT="" />
    <EXPORT ORDINAL="52" NAME="?TaskbarButtonCreated@QWinEvent@@2HB" PURGE="-1" COMMENT="" />
    <EXPORT ORDINAL="53" NAME="?ThemeChange@QWinEvent@@2HB" PURGE="-1" COMMENT="" />
    <EXPORT ORDINAL="54" NAME="?addButton@QWinThumbnailToolBar@@QEAAXPEAVQWinThumbnailToolButton@@@Z" PURGE="0" COMMENT="" />
    <EXPORT ORDINAL="55" NAME="?addCategory@QWinJumpList@@QEAAPEAVQWinJumpListCategory@@AEBVQString@@V?$QList@PEAVQWinJumpListItem@@@@@Z" PURGE="0" COMMENT="" />
    <EXPORT ORDINAL="56" NAME="?addCategory@QWinJumpList@@QEAAXPEAVQWinJumpListCategory@@@Z" PURGE="0" COMMENT="" />
    <EXPORT ORDINAL="57" NAME="?addDestination@QWinJumpListCategory@@QEAAPEAVQWinJumpListItem@@AEBVQString@@@Z" PURGE="0" COMMENT="" />
    <EXPORT ORDINAL="58" NAME="?addItem@QWinJumpListCategory@@QEAAXPEAVQWinJumpListItem@@@Z" PURGE="0" COMMENT="" />
    <EXPORT ORDINAL="59" NAME="?addLink@QWinJumpListCategory@@QEAAPEAVQWinJumpListItem@@AEBVQIcon@@AEBVQString@@1AEBVQStringList@@@Z" PURGE="0" COMMENT="" />
    <EXPORT ORDINAL="60" NAME="?addLink@QWinJumpListCategory@@QEAAPEAVQWinJumpListItem@@AEBVQString@@0AEBVQStringList@@@Z" PURGE="0" COMMENT="" />
    <EXPORT ORDINAL="61" NAME="?addSeparator@QWinJumpListCategory@@QEAAPEAVQWinJumpListItem@@XZ" PURGE="0" COMMENT="" />
    <EXPORT ORDINAL="62" NAME="?arguments@QWinJumpListItem@@QEBA?AVQStringList@@XZ" PURGE="0" COMMENT="" />
    <EXPORT ORDINAL="63" NAME="?buttons@QWinThumbnailToolBar@@QEBA?AV?$QList@PEAVQWinThumbnailToolButton@@@@XZ" PURGE="0" COMMENT="" />
    <EXPORT ORDINAL="64" NAME="?categories@QWinJumpList@@QEBA?AV?$QList@PEAVQWinJumpListCategory@@@@XZ" PURGE="0" COMMENT="" />
    <EXPORT ORDINAL="65" NAME="?changed@QWinThumbnailToolButton@@QEAAXXZ" PURGE="-1" COMMENT="" />
    <EXPORT ORDINAL="66" NAME="?clear@QWinJumpList@@QEAAXXZ" PURGE="0" COMMENT="" />
    <EXPORT ORDINAL="67" NAME="?clear@QWinJumpListCategory@@QEAAXXZ" PURGE="0" COMMENT="" />
    <EXPORT ORDINAL="68" NAME="?clear@QWinThumbnailToolBar@@QEAAXXZ" PURGE="0" COMMENT="" />
    <EXPORT ORDINAL="69" NAME="?clearOverlayIcon@QWinTaskbarButton@@QEAAXXZ" PURGE="0" COMMENT="" />
    <EXPORT ORDINAL="70" NAME="?click@QWinThumbnailToolButton@@QEAAXXZ" PURGE="0" COMMENT="" />
    <EXPORT ORDINAL="71" NAME="?clicked@QWinThumbnailToolButton@@QEAAXXZ" PURGE="-1" COMMENT="" />
    <EXPORT ORDINAL="72" NAME="?color@QWinColorizationChangeEvent@@QEBAIXZ" PURGE="0" COMMENT="" />
    <EXPORT ORDINAL="73" NAME="?colorizationColor@QtWin@@YA?AVQColor@@PEA_N@Z" PURGE="0" COMMENT="" />
    <EXPORT ORDINAL="74" NAME="?count@QWinJumpListCategory@@QEBAHXZ" PURGE="-1" COMMENT="" />
    <EXPORT ORDINAL="75" NAME="?count@QWinThumbnailToolBar@@QEBAHXZ" PURGE="-1" COMMENT="" />
    <EXPORT ORDINAL="76" NAME="?createMask@QtWin@@YAPEAUHBITMAP__@@AEBVQBitmap@@@Z" PURGE="-1" COMMENT="" />
    <EXPORT ORDINAL="77" NAME="?d_func@QWinJumpList@@AEAAPEAVQWinJumpListPrivate@@XZ" PURGE="0" COMMENT="" />
    <EXPORT ORDINAL="78" NAME="?d_func@QWinJumpList@@AEBAPEBVQWinJumpListPrivate@@XZ" PURGE="0" COMMENT="" />
    <EXPORT ORDINAL="79" NAME="?d_func@QWinJumpListCategory@@AEAAPEAVQWinJumpListCategoryPrivate@@XZ" PURGE="0" COMMENT="" />
    <EXPORT ORDINAL="80" NAME="?d_func@QWinJumpListCategory@@AEBAPEBVQWinJumpListCategoryPrivate@@XZ" PURGE="0" COMMENT="" />
    <EXPORT ORDINAL="81" NAME="?d_func@QWinJumpListItem@@AEAAPEAVQWinJumpListItemPrivate@@XZ" PURGE="0" COMMENT="" />
    <EXPORT ORDINAL="82" NAME="?d_func@QWinJumpListItem@@AEBAPEBVQWinJumpListItemPrivate@@XZ" PURGE="0" COMMENT="" />
    <EXPORT ORDINAL="83" NAME="?d_func@QWinTaskbarButton@@AEAAPEAVQWinTaskbarButtonPrivate@@XZ" PURGE="0" COMMENT="" />
    <EXPORT ORDINAL="84" NAME="?d_func@QWinTaskbarButton@@AEBAPEBVQWinTaskbarButtonPrivate@@XZ" PURGE="0" COMMENT="" />
    <EXPORT ORDINAL="85" NAME="?d_func@QWinTaskbarProgress@@AEAAPEAVQWinTaskbarProgressPrivate@@XZ" PURGE="0" COMMENT="" />
    <EXPORT ORDINAL="86" NAME="?d_func@QWinTaskbarProgress@@AEBAPEBVQWinTaskbarProgressPrivate@@XZ" PURGE="0" COMMENT="" />
    <EXPORT ORDINAL="87" NAME="?d_func@QWinThumbnailToolBar@@AEAAPEAVQWinThumbnailToolBarPrivate@@XZ" PURGE="0" COMMENT="" />
    <EXPORT ORDINAL="88" NAME="?d_func@QWinThumbnailToolBar@@AEBAPEBVQWinThumbnailToolBarPrivate@@XZ" PURGE="0" COMMENT="" />
    <EXPORT ORDINAL="89" NAME="?d_func@QWinThumbnailToolButton@@AEAAPEAVQWinThumbnailToolButtonPrivate@@XZ" PURGE="0" COMMENT="" />
    <EXPORT ORDINAL="90" NAME="?d_func@QWinThumbnailToolButton@@AEBAPEBVQWinThumbnailToolButtonPrivate@@XZ" PURGE="0" COMMENT="" />
    <EXPORT ORDINAL="91" NAME="?description@QWinJumpListItem@@QEBA?AVQString@@XZ" PURGE="0" COMMENT="" />
    <EXPORT ORDINAL="92" NAME="?disableBlurBehindWindow@QtWin@@YAXPEAVQWindow@@@Z" PURGE="0" COMMENT="" />
    <EXPORT ORDINAL="93" NAME="?dismissOnClick@QWinThumbnailToolButton@@QEBA_NXZ" PURGE="0" COMMENT="" />
    <EXPORT ORDINAL="94" NAME="?enableBlurBehindWindow@QtWin@@YAXPEAVQWindow@@@Z" PURGE="0" COMMENT="" />
    <EXPORT ORDINAL="95" NAME="?enableBlurBehindWindow@QtWin@@YAXPEAVQWindow@@AEBVQRegion@@@Z" PURGE="0" COMMENT="" />
    <EXPORT ORDINAL="96" NAME="?errorStringFromHresult@QtWin@@YA?AVQString@@J@Z" PURGE="0" COMMENT="" />
    <EXPORT ORDINAL="97" NAME="?eventFilter@QWinTaskbarButton@@UEAA_NPEAVQObject@@PEAVQEvent@@@Z" PURGE="0" COMMENT="" />
    <EXPORT ORDINAL="98" NAME="?extendFrameIntoClientArea@QtWin@@YAXPEAVQWindow@@AEBVQMargins@@@Z" PURGE="0" COMMENT="" />
    <EXPORT ORDINAL="99" NAME="?extendFrameIntoClientArea@QtWin@@YAXPEAVQWindow@@HHHH@Z" PURGE="0" COMMENT="" />
    <EXPORT ORDINAL="100" NAME="?filePath@QWinJumpListItem@@QEBA?AVQString@@XZ" PURGE="0" COMMENT="" />
    <EXPORT ORDINAL="101" NAME="?findWindow@QWinEventFilter@@AEAAPEAVQWindow@@PEAUHWND__@@@Z" PURGE="0" COMMENT="" />
    <EXPORT ORDINAL="102" NAME="?frequent@QWinJumpList@@QEBAPEAVQWinJumpListCategory@@XZ" PURGE="0" COMMENT="" />
    <EXPORT ORDINAL="103" NAME="?fromHBITMAP@QtWin@@YA?AVQPixmap@@PEAUHBITMAP__@@W4HBitmapFormat@1@@Z" PURGE="0" COMMENT="" />
    <EXPORT ORDINAL="104" NAME="?fromHICON@QtWin@@YA?AVQPixmap@@PEAUHICON__@@@Z" PURGE="0" COMMENT="" />
    <EXPORT ORDINAL="105" NAME="?fromHRGN@QtWin@@YA?AVQRegion@@PEAUHRGN__@@@Z" PURGE="0" COMMENT="" />
    <EXPORT ORDINAL="106" NAME="?hide@QWinTaskbarProgress@@QEAAXXZ" PURGE="0" COMMENT="" />
    <EXPORT ORDINAL="107" NAME="?icon@QWinJumpListItem@@QEBA?AVQIcon@@XZ" PURGE="0" COMMENT="" />
    <EXPORT ORDINAL="108" NAME="?icon@QWinThumbnailToolButton@@QEBA?AVQIcon@@XZ" PURGE="0" COMMENT="" />
    <EXPORT ORDINAL="109" NAME="?iconicLivePreviewPixmap@QWinThumbnailToolBar@@QEBA?AVQPixmap@@XZ" PURGE="0" COMMENT="" />
    <EXPORT ORDINAL="110" NAME="?iconicLivePreviewPixmapRequested@QWinThumbnailToolBar@@QEAAXXZ" PURGE="-1" COMMENT="" />
    <EXPORT ORDINAL="111" NAME="?iconicPixmapNotificationsEnabled@QWinThumbnailToolBar@@QEBA_NXZ" PURGE="0" COMMENT="" />
    <EXPORT ORDINAL="112" NAME="?iconicThumbnailPixmap@QWinThumbnailToolBar@@QEBA?AVQPixmap@@XZ" PURGE="0" COMMENT="" />
    <EXPORT ORDINAL="113" NAME="?iconicThumbnailPixmapRequested@QWinThumbnailToolBar@@QEAAXXZ" PURGE="-1" COMMENT="" />
    <EXPORT ORDINAL="114" NAME="?identifier@QWinJumpList@@QEBA?AVQString@@XZ" PURGE="0" COMMENT="" />
    <EXPORT ORDINAL="115" NAME="?imageFromHBITMAP@QtWin@@YA?AVQImage@@PEAUHDC__@@PEAUHBITMAP__@@HH@Z" PURGE="0" COMMENT="" />
    <EXPORT ORDINAL="116" NAME="?instance@QWinEventFilter@@0PEAV1@EA" PURGE="-1" COMMENT="" />
    <EXPORT ORDINAL="117" NAME="?isCompositionEnabled@QWinCompositionChangeEvent@@QEBA_NXZ" PURGE="0" COMMENT="" />
    <EXPORT ORDINAL="118" NAME="?isCompositionEnabled@QtWin@@YA_NXZ" PURGE="0" COMMENT="" />
    <EXPORT ORDINAL="119" NAME="?isCompositionOpaque@QtWin@@YA_NXZ" PURGE="0" COMMENT="" />
    <EXPORT ORDINAL="120" NAME="?isEmpty@QWinJumpListCategory@@QEBA_NXZ" PURGE="-1" COMMENT="" />
    <EXPORT ORDINAL="121" NAME="?isEnabled@QWinThumbnailToolButton@@QEBA_NXZ" PURGE="0" COMMENT="" />
    <EXPORT ORDINAL="122" NAME="?isFlat@QWinThumbnailToolButton@@QEBA_NXZ" PURGE="0" COMMENT="" />
    <EXPORT ORDINAL="123" NAME="?isInteractive@QWinThumbnailToolButton@@QEBA_NXZ" PURGE="0" COMMENT="" />
    <EXPORT ORDINAL="124" NAME="?isPaused@QWinTaskbarProgress@@QEBA_NXZ" PURGE="0" COMMENT="" />
    <EXPORT ORDINAL="125" NAME="?isStopped@QWinTaskbarProgress@@QEBA_NXZ" PURGE="0" COMMENT="" />
    <EXPORT ORDINAL="126" NAME="?isVisible@QWinJumpListCategory@@QEBA_NXZ" PURGE="0" COMMENT="" />
    <EXPORT ORDINAL="127" NAME="?isVisible@QWinTaskbarProgress@@QEBA_NXZ" PURGE="0" COMMENT="" />
    <EXPORT ORDINAL="128" NAME="?isVisible@QWinThumbnailToolButton@@QEBA_NXZ" PURGE="0" COMMENT="" />
    <EXPORT ORDINAL="129" NAME="?isWindowExcludedFromPeek@QtWin@@YA_NPEAVQWindow@@@Z" PURGE="0" COMMENT="" />
    <EXPORT ORDINAL="130" NAME="?isWindowPeekDisallowed@QtWin@@YA_NPEAVQWindow@@@Z" PURGE="0" COMMENT="" />
    <EXPORT ORDINAL="131" NAME="?items@QWinJumpListCategory@@QEBA?AV?$QList@PEAVQWinJumpListItem@@@@XZ" PURGE="0" COMMENT="" />
    <EXPORT ORDINAL="132" NAME="?markFullscreenWindow@QtWin@@YAXPEAVQWindow@@_N@Z" PURGE="0" COMMENT="" />
    <EXPORT ORDINAL="133" NAME="?maximum@QWinTaskbarProgress@@QEBAHXZ" PURGE="0" COMMENT="" />
    <EXPORT ORDINAL="134" NAME="?maximumChanged@QWinTaskbarProgress@@QEAAXH@Z" PURGE="0" COMMENT="" />
    <EXPORT ORDINAL="135" NAME="?metaObject@QWinJumpList@@UEBAPEBUQMetaObject@@XZ" PURGE="0" COMMENT="" />
    <EXPORT ORDINAL="136" NAME="?metaObject@QWinTaskbarButton@@UEBAPEBUQMetaObject@@XZ" PURGE="0" COMMENT="" />
    <EXPORT ORDINAL="137" NAME="?metaObject@QWinTaskbarProgress@@UEBAPEBUQMetaObject@@XZ" PURGE="0" COMMENT="" />
    <EXPORT ORDINAL="138" NAME="?metaObject@QWinThumbnailToolBar@@UEBAPEBUQMetaObject@@XZ" PURGE="0" COMMENT="" />
    <EXPORT ORDINAL="139" NAME="?metaObject@QWinThumbnailToolButton@@UEBAPEBUQMetaObject@@XZ" PURGE="0" COMMENT="" />
    <EXPORT ORDINAL="140" NAME="?minimum@QWinTaskbarProgress@@QEBAHXZ" PURGE="0" COMMENT="" />
    <EXPORT ORDINAL="141" NAME="?minimumChanged@QWinTaskbarProgress@@QEAAXH@Z" PURGE="0" COMMENT="" />
    <EXPORT ORDINAL="142" NAME="?nativeEventFilter@QWinEventFilter@@UEAA_NAEBVQByteArray@@PEAXPEAJ@Z" PURGE="0" COMMENT="" />
    <EXPORT ORDINAL="143" NAME="?opaqueBlend@QWinColorizationChangeEvent@@QEBA_NXZ" PURGE="0" COMMENT="" />
    <EXPORT ORDINAL="144" NAME="?overlayAccessibleDescription@QWinTaskbarButton@@QEBA?AVQString@@XZ" PURGE="0" COMMENT="" />
    <EXPORT ORDINAL="145" NAME="?overlayIcon@QWinTaskbarButton@@QEBA?AVQIcon@@XZ" PURGE="0" COMMENT="" />
    <EXPORT ORDINAL="146" NAME="?pause@QWinTaskbarProgress@@QEAAXXZ" PURGE="0" COMMENT="" />
    <EXPORT ORDINAL="147" NAME="?pausedChanged@QWinTaskbarProgress@@QEAAX_N@Z" PURGE="0" COMMENT="" />
    <EXPORT ORDINAL="148" NAME="?progress@QWinTaskbarButton@@QEBAPEAVQWinTaskbarProgress@@XZ" PURGE="0" COMMENT="" />
    <EXPORT ORDINAL="149" NAME="?qt_metacall@QWinJumpList@@UEAAHW4Call@QMetaObject@@HPEAPEAX@Z" PURGE="0" COMMENT="" />
    <EXPORT ORDINAL="150" NAME="?qt_metacall@QWinTaskbarButton@@UEAAHW4Call@QMetaObject@@HPEAPEAX@Z" PURGE="0" COMMENT="" />
    <EXPORT ORDINAL="151" NAME="?qt_metacall@QWinTaskbarProgress@@UEAAHW4Call@QMetaObject@@HPEAPEAX@Z" PURGE="0" COMMENT="" />
    <EXPORT ORDINAL="152" NAME="?qt_metacall@QWinThumbnailToolBar@@UEAAHW4Call@QMetaObject@@HPEAPEAX@Z" PURGE="0" COMMENT="" />
    <EXPORT ORDINAL="153" NAME="?qt_metacall@QWinThumbnailToolButton@@UEAAHW4Call@QMetaObject@@HPEAPEAX@Z" PURGE="0" COMMENT="" />
    <EXPORT ORDINAL="154" NAME="?qt_metacast@QWinJumpList@@UEAAPEAXPEBD@Z" PURGE="0" COMMENT="" />
    <EXPORT ORDINAL="155" NAME="?qt_metacast@QWinTaskbarButton@@UEAAPEAXPEBD@Z" PURGE="0" COMMENT="" />
    <EXPORT ORDINAL="156" NAME="?qt_metacast@QWinTaskbarProgress@@UEAAPEAXPEBD@Z" PURGE="0" COMMENT="" />
    <EXPORT ORDINAL="157" NAME="?qt_metacast@QWinThumbnailToolBar@@UEAAPEAXPEBD@Z" PURGE="0" COMMENT="" />
    <EXPORT ORDINAL="158" NAME="?qt_metacast@QWinThumbnailToolButton@@UEAAPEAXPEBD@Z" PURGE="0" COMMENT="" />
    <EXPORT ORDINAL="159" NAME="?qt_static_metacall@QWinJumpList@@CAXPEAVQObject@@W4Call@QMetaObject@@HPEAPEAX@Z" PURGE="0" COMMENT="" />
    <EXPORT ORDINAL="160" NAME="?qt_static_metacall@QWinTaskbarButton@@CAXPEAVQObject@@W4Call@QMetaObject@@HPEAPEAX@Z" PURGE="0" COMMENT="" />
    <EXPORT ORDINAL="161" NAME="?qt_static_metacall@QWinTaskbarProgress@@CAXPEAVQObject@@W4Call@QMetaObject@@HPEAPEAX@Z" PURGE="0" COMMENT="" />
    <EXPORT ORDINAL="162" NAME="?qt_static_metacall@QWinThumbnailToolBar@@CAXPEAVQObject@@W4Call@QMetaObject@@HPEAPEAX@Z" PURGE="0" COMMENT="" />
    <EXPORT ORDINAL="163" NAME="?qt_static_metacall@QWinThumbnailToolButton@@CAXPEAVQObject@@W4Call@QMetaObject@@HPEAPEAX@Z" PURGE="0" COMMENT="" />
    <EXPORT ORDINAL="164" NAME="?realColorizationColor@QtWin@@YA?AVQColor@@XZ" PURGE="0" COMMENT="" />
    <EXPORT ORDINAL="165" NAME="?recent@QWinJumpList@@QEBAPEAVQWinJumpListCategory@@XZ" PURGE="0" COMMENT="" />
    <EXPORT ORDINAL="166" NAME="?registerMimeType@QWinMime@@SAHAEBVQString@@@Z" PURGE="0" COMMENT="" />
    <EXPORT ORDINAL="167" NAME="?removeButton@QWinThumbnailToolBar@@QEAAXPEAVQWinThumbnailToolButton@@@Z" PURGE="0" COMMENT="" />
    <EXPORT ORDINAL="168" NAME="?reset@QWinTaskbarProgress@@QEAAXXZ" PURGE="0" COMMENT="" />
    <EXPORT ORDINAL="169" NAME="?resetExtendedFrame@QtWin@@YAXPEAVQWindow@@@Z" PURGE="0" COMMENT="" />
    <EXPORT ORDINAL="170" NAME="?resume@QWinTaskbarProgress@@QEAAXXZ" PURGE="0" COMMENT="" />
    <EXPORT ORDINAL="171" NAME="?setArguments@QWinJumpListItem@@QEAAXAEBVQStringList@@@Z" PURGE="0" COMMENT="" />
    <EXPORT ORDINAL="172" NAME="?setButtons@QWinThumbnailToolBar@@QEAAXAEBV?$QList@PEAVQWinThumbnailToolButton@@@@@Z" PURGE="0" COMMENT="" />
    <EXPORT ORDINAL="173" NAME="?setCompositionEnabled@QtWin@@YAX_N@Z" PURGE="0" COMMENT="" />
    <EXPORT ORDINAL="174" NAME="?setCurrentProcessExplicitAppUserModelID@QtWin@@YAXAEBVQString@@@Z" PURGE="0" COMMENT="" />
    <EXPORT ORDINAL="175" NAME="?setDescription@QWinJumpListItem@@QEAAXAEBVQString@@@Z" PURGE="0" COMMENT="" />
    <EXPORT ORDINAL="176" NAME="?setDismissOnClick@QWinThumbnailToolButton@@QEAAX_N@Z" PURGE="0" COMMENT="" />
    <EXPORT ORDINAL="177" NAME="?setEnabled@QWinThumbnailToolButton@@QEAAX_N@Z" PURGE="0" COMMENT="" />
    <EXPORT ORDINAL="178" NAME="?setFilePath@QWinJumpListItem@@QEAAXAEBVQString@@@Z" PURGE="0" COMMENT="" />
    <EXPORT ORDINAL="179" NAME="?setFlat@QWinThumbnailToolButton@@QEAAX_N@Z" PURGE="0" COMMENT="" />
    <EXPORT ORDINAL="180" NAME="?setIcon@QWinJumpListItem@@QEAAXAEBVQIcon@@@Z" PURGE="0" COMMENT="" />
    <EXPORT ORDINAL="181" NAME="?setIcon@QWinThumbnailToolButton@@QEAAXAEBVQIcon@@@Z" PURGE="0" COMMENT="" />
    <EXPORT ORDINAL="182" NAME="?setIconicLivePreviewPixmap@QWinThumbnailToolBar@@QEAAXAEBVQPixmap@@@Z" PURGE="0" COMMENT="" />
    <EXPORT ORDINAL="183" NAME="?setIconicPixmapNotificationsEnabled@QWinThumbnailToolBar@@QEAAX_N@Z" PURGE="0" COMMENT="" />
    <EXPORT ORDINAL="184" NAME="?setIconicThumbnailPixmap@QWinThumbnailToolBar@@QEAAXAEBVQPixmap@@@Z" PURGE="0" COMMENT="" />
    <EXPORT ORDINAL="185" NAME="?setIdentifier@QWinJumpList@@QEAAXAEBVQString@@@Z" PURGE="0" COMMENT="" />
    <EXPORT ORDINAL="186" NAME="?setInteractive@QWinThumbnailToolButton@@QEAAX_N@Z" PURGE="0" COMMENT="" />
    <EXPORT ORDINAL="187" NAME="?setMaximum@QWinTaskbarProgress@@QEAAXH@Z" PURGE="0" COMMENT="" />
    <EXPORT ORDINAL="188" NAME="?setMinimum@QWinTaskbarProgress@@QEAAXH@Z" PURGE="0" COMMENT="" />
    <EXPORT ORDINAL="189" NAME="?setOverlayAccessibleDescription@QWinTaskbarButton@@QEAAXAEBVQString@@@Z" PURGE="0" COMMENT="" />
    <EXPORT ORDINAL="190" NAME="?setOverlayIcon@QWinTaskbarButton@@QEAAXAEBVQIcon@@@Z" PURGE="0" COMMENT="" />
    <EXPORT ORDINAL="191" NAME="?setPaused@QWinTaskbarProgress@@QEAAX_N@Z" PURGE="0" COMMENT="" />
    <EXPORT ORDINAL="192" NAME="?setRange@QWinTaskbarProgress@@QEAAXHH@Z" PURGE="0" COMMENT="" />
    <EXPORT ORDINAL="193" NAME="?setTitle@QWinJumpListCategory@@QEAAXAEBVQString@@@Z" PURGE="0" COMMENT="" />
    <EXPORT ORDINAL="194" NAME="?setTitle@QWinJumpListItem@@QEAAXAEBVQString@@@Z" PURGE="0" COMMENT="" />
    <EXPORT ORDINAL="195" NAME="?setToolTip@QWinThumbnailToolButton@@QEAAXAEBVQString@@@Z" PURGE="0" COMMENT="" />
    <EXPORT ORDINAL="196" NAME="?setType@QWinJumpListItem@@QEAAXW4Type@1@@Z" PURGE="0" COMMENT="" />
    <EXPORT ORDINAL="197" NAME="?setValue@QWinTaskbarProgress@@QEAAXH@Z" PURGE="0" COMMENT="" />
    <EXPORT ORDINAL="198" NAME="?setVisible@QWinJumpListCategory@@QEAAX_N@Z" PURGE="0" COMMENT="" />
    <EXPORT ORDINAL="199" NAME="?setVisible@QWinTaskbarProgress@@QEAAX_N@Z" PURGE="0" COMMENT="" />
    <EXPORT ORDINAL="200" NAME="?setVisible@QWinThumbnailToolButton@@QEAAX_N@Z" PURGE="0" COMMENT="" />
    <EXPORT ORDINAL="201" NAME="?setWindow@QWinTaskbarButton@@QEAAXPEAVQWindow@@@Z" PURGE="0" COMMENT="" />
    <EXPORT ORDINAL="202" NAME="?setWindow@QWinThumbnailToolBar@@QEAAXPEAVQWindow@@@Z" PURGE="0" COMMENT="" />
    <EXPORT ORDINAL="203" NAME="?setWindowDisallowPeek@QtWin@@YAXPEAVQWindow@@_N@Z" PURGE="0" COMMENT="" />
    <EXPORT ORDINAL="204" NAME="?setWindowExcludedFromPeek@QtWin@@YAXPEAVQWindow@@_N@Z" PURGE="0" COMMENT="" />
    <EXPORT ORDINAL="205" NAME="?setWindowFlip3DPolicy@QtWin@@YAXPEAVQWindow@@W4WindowFlip3DPolicy@1@@Z" PURGE="0" COMMENT="" />
    <EXPORT ORDINAL="206" NAME="?setWorkingDirectory@QWinJumpListItem@@QEAAXAEBVQString@@@Z" PURGE="0" COMMENT="" />
    <EXPORT ORDINAL="207" NAME="?setup@QWinEventFilter@@SAXXZ" PURGE="0" COMMENT="" />
    <EXPORT ORDINAL="208" NAME="?show@QWinTaskbarProgress@@QEAAXXZ" PURGE="0" COMMENT="" />
    <EXPORT ORDINAL="209" NAME="?staticMetaObject@QWinJumpList@@2UQMetaObject@@B" PURGE="-1" COMMENT="" />
    <EXPORT ORDINAL="210" NAME="?staticMetaObject@QWinTaskbarButton@@2UQMetaObject@@B" PURGE="-1" COMMENT="" />
    <EXPORT ORDINAL="211" NAME="?staticMetaObject@QWinTaskbarProgress@@2UQMetaObject@@B" PURGE="-1" COMMENT="" />
    <EXPORT ORDINAL="212" NAME="?staticMetaObject@QWinThumbnailToolBar@@2UQMetaObject@@B" PURGE="-1" COMMENT="" />
    <EXPORT ORDINAL="213" NAME="?staticMetaObject@QWinThumbnailToolButton@@2UQMetaObject@@B" PURGE="-1" COMMENT="" />
    <EXPORT ORDINAL="214" NAME="?stop@QWinTaskbarProgress@@QEAAXXZ" PURGE="0" COMMENT="" />
    <EXPORT ORDINAL="215" NAME="?stoppedChanged@QWinTaskbarProgress@@QEAAX_N@Z" PURGE="0" COMMENT="" />
    <EXPORT ORDINAL="216" NAME="?stringFromHresult@QtWin@@YA?AVQString@@J@Z" PURGE="0" COMMENT="" />
    <EXPORT ORDINAL="217" NAME="?taskbarActivateTab@QtWin@@YAXPEAVQWindow@@@Z" PURGE="0" COMMENT="" />
    <EXPORT ORDINAL="218" NAME="?taskbarActivateTabAlt@QtWin@@YAXPEAVQWindow@@@Z" PURGE="0" COMMENT="" />
    <EXPORT ORDINAL="219" NAME="?taskbarAddTab@QtWin@@YAXPEAVQWindow@@@Z" PURGE="0" COMMENT="" />
    <EXPORT ORDINAL="220" NAME="?taskbarDeleteTab@QtWin@@YAXPEAVQWindow@@@Z" PURGE="0" COMMENT="" />
    <EXPORT ORDINAL="221" NAME="?tasks@QWinJumpList@@QEBAPEAVQWinJumpListCategory@@XZ" PURGE="0" COMMENT="" />
    <EXPORT ORDINAL="222" NAME="?title@QWinJumpListCategory@@QEBA?AVQString@@XZ" PURGE="0" COMMENT="" />
    <EXPORT ORDINAL="223" NAME="?title@QWinJumpListItem@@QEBA?AVQString@@XZ" PURGE="0" COMMENT="" />
    <EXPORT ORDINAL="224" NAME="?toHBITMAP@QtWin@@YAPEAUHBITMAP__@@AEBVQPixmap@@W4HBitmapFormat@1@@Z" PURGE="-1" COMMENT="" />
    <EXPORT ORDINAL="225" NAME="?toHICON@QtWin@@YAPEAUHICON__@@AEBVQPixmap@@@Z" PURGE="-1" COMMENT="" />
    <EXPORT ORDINAL="226" NAME="?toHRGN@QtWin@@YAPEAUHRGN__@@AEBVQRegion@@@Z" PURGE="0" COMMENT="" />
    <EXPORT ORDINAL="227" NAME="?toolTip@QWinThumbnailToolButton@@QEBA?AVQString@@XZ" PURGE="0" COMMENT="" />
    <EXPORT ORDINAL="228" NAME="?tr@QWinJumpList@@SA?AVQString@@PEBD0H@Z" PURGE="0" COMMENT="" />
    <EXPORT ORDINAL="229" NAME="?tr@QWinTaskbarButton@@SA?AVQString@@PEBD0H@Z" PURGE="0" COMMENT="" />
    <EXPORT ORDINAL="230" NAME="?tr@QWinTaskbarProgress@@SA?AVQString@@PEBD0H@Z" PURGE="0" COMMENT="" />
    <EXPORT ORDINAL="231" NAME="?tr@QWinThumbnailToolBar@@SA?AVQString@@PEBD0H@Z" PURGE="0" COMMENT="" />
    <EXPORT ORDINAL="232" NAME="?tr@QWinThumbnailToolButton@@SA?AVQString@@PEBD0H@Z" PURGE="0" COMMENT="" />
    <EXPORT ORDINAL="233" NAME="?trUtf8@QWinJumpList@@SA?AVQString@@PEBD0H@Z" PURGE="0" COMMENT="" />
    <EXPORT ORDINAL="234" NAME="?trUtf8@QWinTaskbarButton@@SA?AVQString@@PEBD0H@Z" PURGE="0" COMMENT="" />
    <EXPORT ORDINAL="235" NAME="?trUtf8@QWinTaskbarProgress@@SA?AVQString@@PEBD0H@Z" PURGE="0" COMMENT="" />
    <EXPORT ORDINAL="236" NAME="?trUtf8@QWinThumbnailToolBar@@SA?AVQString@@PEBD0H@Z" PURGE="0" COMMENT="" />
    <EXPORT ORDINAL="237" NAME="?trUtf8@QWinThumbnailToolButton@@SA?AVQString@@PEBD0H@Z" PURGE="0" COMMENT="" />
    <EXPORT ORDINAL="238" NAME="?type@QWinJumpListCategory@@QEBA?AW4Type@1@XZ" PURGE="0" COMMENT="" />
    <EXPORT ORDINAL="239" NAME="?type@QWinJumpListItem@@QEBA?AW4Type@1@XZ" PURGE="0" COMMENT="" />
    <EXPORT ORDINAL="240" NAME="?value@QWinTaskbarProgress@@QEBAHXZ" PURGE="0" COMMENT="" />
    <EXPORT ORDINAL="241" NAME="?valueChanged@QWinTaskbarProgress@@QEAAXH@Z" PURGE="0" COMMENT="" />
    <EXPORT ORDINAL="242" NAME="?visibilityChanged@QWinTaskbarProgress@@QEAAX_N@Z" PURGE="0" COMMENT="" />
    <EXPORT ORDINAL="243" NAME="?window@QWinTaskbarButton@@QEBAPEAVQWindow@@XZ" PURGE="0" COMMENT="" />
    <EXPORT ORDINAL="244" NAME="?window@QWinThumbnailToolBar@@QEBAPEAVQWindow@@XZ" PURGE="0" COMMENT="" />
    <EXPORT ORDINAL="245" NAME="?windowFlip3DPolicy@QtWin@@YA?AW4WindowFlip3DPolicy@1@PEAVQWindow@@@Z" PURGE="0" COMMENT="" />
    <EXPORT ORDINAL="246" NAME="?workingDirectory@QWinJumpListItem@@QEBA?AVQString@@XZ" PURGE="0" COMMENT="" />
</LIBRARY>

