<?xml version="1.0" encoding="UTF-8"?>
<LIBRARY NAME="qt6core.dll" PATH="/DLLArchive/etc/Qt6Core.dll" DATE="Wed Jun 26 14:51:18 CEST 2024" VERSION="6.7.0.0">
    <EXPORT ORDINAL="1" NAME="??$qbswap@$01@@YAPEAXPEBX_JPEAX@Z" PURGE="0" COMMENT="" />
    <EXPORT ORDINAL="2" NAME="??$qbswap@$03@@YAPEAXPEBX_JPEAX@Z" PURGE="0" COMMENT="" />
    <EXPORT ORDINAL="3" NAME="??$qbswap@$07@@YAPEAXPEBX_JPEAX@Z" PURGE="0" COMMENT="" />
    <EXPORT ORDINAL="4" NAME="??0?$QBaseIterator@VQMetaAssociation@@@@IEAA@$$QEAV0@@Z" PURGE="0" COMMENT="" />
    <EXPORT ORDINAL="5" NAME="??0?$QBaseIterator@VQMetaAssociation@@@@IEAA@AEBV0@@Z" PURGE="0" COMMENT="" />
    <EXPORT ORDINAL="6" NAME="??0?$QBaseIterator@VQMetaAssociation@@@@IEAA@PEAV?$QIterable@VQMetaAssociation@@@@PEAX@Z" PURGE="0" COMMENT="" />
    <EXPORT ORDINAL="7" NAME="??0?$QBaseIterator@VQMetaAssociation@@@@IEAA@PEBV?$QIterable@VQMetaAssociation@@@@PEAX@Z" PURGE="0" COMMENT="" />
    <EXPORT ORDINAL="8" NAME="??0?$QBaseIterator@VQMetaAssociation@@@@IEAA@XZ" PURGE="0" COMMENT="" />
    <EXPORT ORDINAL="9" NAME="??0?$QBaseIterator@VQMetaSequence@@@@IEAA@$$QEAV0@@Z" PURGE="0" COMMENT="" />
    <EXPORT ORDINAL="10" NAME="??0?$QBaseIterator@VQMetaSequence@@@@IEAA@AEBV0@@Z" PURGE="0" COMMENT="" />
    <EXPORT ORDINAL="11" NAME="??0?$QBaseIterator@VQMetaSequence@@@@IEAA@PEAV?$QIterable@VQMetaSequence@@@@PEAX@Z" PURGE="0" COMMENT="" />
    <EXPORT ORDINAL="12" NAME="??0?$QBaseIterator@VQMetaSequence@@@@IEAA@PEBV?$QIterable@VQMetaSequence@@@@PEAX@Z" PURGE="0" COMMENT="" />
    <EXPORT ORDINAL="13" NAME="??0?$QBaseIterator@VQMetaSequence@@@@IEAA@XZ" PURGE="0" COMMENT="" />
    <EXPORT ORDINAL="14" NAME="??0?$QConstIterator@VQMetaAssociation@@@@QEAA@AEBU0@@Z" PURGE="0" COMMENT="" />
    <EXPORT ORDINAL="15" NAME="??0?$QConstIterator@VQMetaAssociation@@@@QEAA@PEBV?$QIterable@VQMetaAssociation@@@@PEAX@Z" PURGE="0" COMMENT="" />
    <EXPORT ORDINAL="16" NAME="??0?$QConstIterator@VQMetaSequence@@@@QEAA@AEBU0@@Z" PURGE="0" COMMENT="" />
    <EXPORT ORDINAL="17" NAME="??0?$QConstIterator@VQMetaSequence@@@@QEAA@PEBV?$QIterable@VQMetaSequence@@@@PEAX@Z" PURGE="0" COMMENT="" />
    <EXPORT ORDINAL="18" NAME="??0?$QIterable@VQMetaAssociation@@@@QEAA@AEBVQMetaAssociation@@_JPEAX@Z" PURGE="0" COMMENT="" />
    <EXPORT ORDINAL="19" NAME="??0?$QIterable@VQMetaAssociation@@@@QEAA@AEBVQMetaAssociation@@_JPEBX@Z" PURGE="0" COMMENT="" />
    <EXPORT ORDINAL="20" NAME="??0?$QIterable@VQMetaSequence@@@@QEAA@AEBVQMetaSequence@@_JPEAX@Z" PURGE="0" COMMENT="" />
    <EXPORT ORDINAL="21" NAME="??0?$QIterable@VQMetaSequence@@@@QEAA@AEBVQMetaSequence@@_JPEBX@Z" PURGE="0" COMMENT="" />
    <EXPORT ORDINAL="22" NAME="??0?$QIterator@VQMetaAssociation@@@@QEAA@AEBU0@@Z" PURGE="0" COMMENT="" />
    <EXPORT ORDINAL="23" NAME="??0?$QIterator@VQMetaAssociation@@@@QEAA@PEAV?$QIterable@VQMetaAssociation@@@@PEAX@Z" PURGE="0" COMMENT="" />
    <EXPORT ORDINAL="24" NAME="??0?$QIterator@VQMetaSequence@@@@QEAA@AEBU0@@Z" PURGE="0" COMMENT="" />
    <EXPORT ORDINAL="25" NAME="??0?$QIterator@VQMetaSequence@@@@QEAA@PEAV?$QIterable@VQMetaSequence@@@@PEAX@Z" PURGE="0" COMMENT="" />
    <EXPORT ORDINAL="26" NAME="??0CompatPropertySafePoint@QtPrivate@@QEAA@PEAUQBindingStatus@@PEAVQUntypedPropertyData@@@Z" PURGE="0" COMMENT="" />
    <EXPORT ORDINAL="27" NAME="??0Connection@QMetaObject@@AEAA@PEAX@Z" PURGE="0" COMMENT="" />
    <EXPORT ORDINAL="28" NAME="??0Connection@QMetaObject@@QEAA@$$QEAV01@@Z" PURGE="0" COMMENT="" />
    <EXPORT ORDINAL="29" NAME="??0Connection@QMetaObject@@QEAA@AEBV01@@Z" PURGE="0" COMMENT="" />
    <EXPORT ORDINAL="30" NAME="??0Connection@QMetaObject@@QEAA@XZ" PURGE="0" COMMENT="" />
    <EXPORT ORDINAL="31" NAME="??0ExceptionStore@QtPrivate@@QEAA@$$QEAV01@@Z" PURGE="0" COMMENT="" />
    <EXPORT ORDINAL="32" NAME="??0ExceptionStore@QtPrivate@@QEAA@AEBV01@@Z" PURGE="0" COMMENT="" />
    <EXPORT ORDINAL="33" NAME="??0ExceptionStore@QtPrivate@@QEAA@XZ" PURGE="0" COMMENT="" />
    <EXPORT ORDINAL="34" NAME="??0QAbstractAnimation@@IEAA@AEAVQAbstractAnimationPrivate@@PEAVQObject@@@Z" PURGE="0" COMMENT="" />
    <EXPORT ORDINAL="35" NAME="??0QAbstractAnimation@@QEAA@PEAVQObject@@@Z" PURGE="0" COMMENT="" />
    <EXPORT ORDINAL="36" NAME="??0QAbstractAnimationPrivate@@QEAA@XZ" PURGE="0" COMMENT="" />
    <EXPORT ORDINAL="37" NAME="??0QAbstractAnimationTimer@@QEAA@XZ" PURGE="0" COMMENT="" />
    <EXPORT ORDINAL="38" NAME="??0QAbstractDynamicMetaObject@@QEAA@AEBU0@@Z" PURGE="0" COMMENT="" />
    <EXPORT ORDINAL="39" NAME="??0QAbstractDynamicMetaObject@@QEAA@XZ" PURGE="0" COMMENT="" />
    <EXPORT ORDINAL="40" NAME="??0QAbstractEventDispatcher@@IEAA@AEAVQAbstractEventDispatcherPrivate@@PEAVQObject@@@Z" PURGE="0" COMMENT="" />
    <EXPORT ORDINAL="41" NAME="??0QAbstractEventDispatcher@@QEAA@PEAVQObject@@@Z" PURGE="0" COMMENT="" />
    <EXPORT ORDINAL="42" NAME="??0QAbstractEventDispatcherPrivate@@QEAA@XZ" PURGE="0" COMMENT="" />
    <EXPORT ORDINAL="43" NAME="??0QAbstractFileEngine@@IEAA@AEAVQAbstractFileEnginePrivate@@@Z" PURGE="0" COMMENT="" />
    <EXPORT ORDINAL="44" NAME="??0QAbstractFileEngine@@IEAA@XZ" PURGE="0" COMMENT="" />
    <EXPORT ORDINAL="45" NAME="??0QAbstractFileEngineHandler@@QEAA@AEBV0@@Z" PURGE="0" COMMENT="" />
    <EXPORT ORDINAL="46" NAME="??0QAbstractFileEngineHandler@@QEAA@XZ" PURGE="0" COMMENT="" />
    <EXPORT ORDINAL="47" NAME="??0QAbstractFileEngineIterator@@QEAA@V?$QFlags@W4Filter@QDir@@@@AEBV?$QList@VQString@@@@@Z" PURGE="0" COMMENT="" />
    <EXPORT ORDINAL="48" NAME="??0QAbstractItemModel@@IEAA@AEAVQAbstractItemModelPrivate@@PEAVQObject@@@Z" PURGE="0" COMMENT="" />
    <EXPORT ORDINAL="49" NAME="??0QAbstractItemModel@@QEAA@PEAVQObject@@@Z" PURGE="0" COMMENT="" />
    <EXPORT ORDINAL="50" NAME="??0QAbstractItemModelPrivate@@QEAA@XZ" PURGE="0" COMMENT="" />
    <EXPORT ORDINAL="51" NAME="??0QAbstractListModel@@IEAA@AEAVQAbstractItemModelPrivate@@PEAVQObject@@@Z" PURGE="0" COMMENT="" />
    <EXPORT ORDINAL="52" NAME="??0QAbstractListModel@@QEAA@PEAVQObject@@@Z" PURGE="0" COMMENT="" />
    <EXPORT ORDINAL="53" NAME="??0QAbstractMetaCallEvent@@QEAA@AEBV0@@Z" PURGE="0" COMMENT="" />
    <EXPORT ORDINAL="54" NAME="??0QAbstractMetaCallEvent@@QEAA@PEBVQObject@@HPEAVQSemaphore@@@Z" PURGE="0" COMMENT="" />
    <EXPORT ORDINAL="55" NAME="??0QAbstractNativeEventFilter@@QEAA@XZ" PURGE="0" COMMENT="" />
    <EXPORT ORDINAL="56" NAME="??0QAbstractProxyModel@@IEAA@AEAVQAbstractProxyModelPrivate@@PEAVQObject@@@Z" PURGE="0" COMMENT="" />
    <EXPORT ORDINAL="57" NAME="??0QAbstractProxyModel@@QEAA@PEAVQObject@@@Z" PURGE="0" COMMENT="" />
    <EXPORT ORDINAL="58" NAME="??0QAbstractProxyModelPrivate@@QEAA@XZ" PURGE="0" COMMENT="" />
    <EXPORT ORDINAL="59" NAME="??0QAbstractTableModel@@IEAA@AEAVQAbstractItemModelPrivate@@PEAVQObject@@@Z" PURGE="0" COMMENT="" />
    <EXPORT ORDINAL="60" NAME="??0QAbstractTableModel@@QEAA@PEAVQObject@@@Z" PURGE="0" COMMENT="" />
    <EXPORT ORDINAL="61" NAME="??0QAnimationDriver@@IEAA@AEAVQAnimationDriverPrivate@@PEAVQObject@@@Z" PURGE="0" COMMENT="" />
    <EXPORT ORDINAL="62" NAME="??0QAnimationDriver@@QEAA@PEAVQObject@@@Z" PURGE="0" COMMENT="" />
    <EXPORT ORDINAL="63" NAME="??0QAnimationDriverPrivate@@QEAA@XZ" PURGE="0" COMMENT="" />
    <EXPORT ORDINAL="64" NAME="??0QAnimationGroup@@IEAA@AEAVQAnimationGroupPrivate@@PEAVQObject@@@Z" PURGE="0" COMMENT="" />
    <EXPORT ORDINAL="65" NAME="??0QAnimationGroup@@QEAA@PEAVQObject@@@Z" PURGE="0" COMMENT="" />
    <EXPORT ORDINAL="66" NAME="??0QAssociativeConstIterator@@QEAA@$$QEAU?$QConstIterator@VQMetaAssociation@@@@@Z" PURGE="0" COMMENT="" />
    <EXPORT ORDINAL="67" NAME="??0QAssociativeConstIterator@@QEAA@$$QEAV0@@Z" PURGE="0" COMMENT="" />
    <EXPORT ORDINAL="68" NAME="??0QAssociativeConstIterator@@QEAA@AEBV0@@Z" PURGE="0" COMMENT="" />
    <EXPORT ORDINAL="69" NAME="??0QAssociativeIterable@@QEAA@$$QEAV?$QIterable@VQMetaAssociation@@@@@Z" PURGE="0" COMMENT="" />
    <EXPORT ORDINAL="70" NAME="??0QAssociativeIterable@@QEAA@AEBVQMetaAssociation@@AEBVQMetaType@@PEAX@Z" PURGE="0" COMMENT="" />
    <EXPORT ORDINAL="71" NAME="??0QAssociativeIterable@@QEAA@AEBVQMetaAssociation@@AEBVQMetaType@@PEBX@Z" PURGE="0" COMMENT="" />
    <EXPORT ORDINAL="72" NAME="??0QAssociativeIterable@@QEAA@XZ" PURGE="0" COMMENT="" />
    <EXPORT ORDINAL="73" NAME="??0QAssociativeIterator@@QEAA@$$QEAU?$QIterator@VQMetaAssociation@@@@@Z" PURGE="0" COMMENT="" />
    <EXPORT ORDINAL="74" NAME="??0QAssociativeIterator@@QEAA@$$QEAV0@@Z" PURGE="0" COMMENT="" />
    <EXPORT ORDINAL="75" NAME="??0QAssociativeIterator@@QEAA@AEBV0@@Z" PURGE="0" COMMENT="" />
    <EXPORT ORDINAL="76" NAME="??0QBasicMutex@@QEAA@XZ" PURGE="0" COMMENT="" />
    <EXPORT ORDINAL="77" NAME="??0QBasicTimer@@QEAA@$$QEAV0@@Z" PURGE="0" COMMENT="" />
    <EXPORT ORDINAL="78" NAME="??0QBasicTimer@@QEAA@XZ" PURGE="0" COMMENT="" />
    <EXPORT ORDINAL="79" NAME="??0QBindingStorage@@QEAA@XZ" PURGE="0" COMMENT="" />
    <EXPORT ORDINAL="80" NAME="??0QBitArray@@AEAA@$$QEAU?$QArrayDataPointer@D@@@Z" PURGE="0" COMMENT="" />
    <EXPORT ORDINAL="81" NAME="??0QBitArray@@QEAA@$$QEAV0@@Z" PURGE="0" COMMENT="" />
    <EXPORT ORDINAL="82" NAME="??0QBitArray@@QEAA@AEBV0@@Z" PURGE="0" COMMENT="" />
    <EXPORT ORDINAL="83" NAME="??0QBitArray@@QEAA@XZ" PURGE="0" COMMENT="" />
    <EXPORT ORDINAL="84" NAME="??0QBitArray@@QEAA@_J_N@Z" PURGE="0" COMMENT="" />
    <EXPORT ORDINAL="85" NAME="??0QBitRef@@AEAA@AEAVQBitArray@@_J@Z" PURGE="0" COMMENT="" />
    <EXPORT ORDINAL="86" NAME="??0QBluetoothPermission@@QEAA@AEBV0@@Z" PURGE="0" COMMENT="" />
    <EXPORT ORDINAL="87" NAME="??0QBluetoothPermission@@QEAA@XZ" PURGE="0" COMMENT="" />
    <EXPORT ORDINAL="88" NAME="??0QBuffer@@QEAA@PEAVQByteArray@@PEAVQObject@@@Z" PURGE="0" COMMENT="" />
    <EXPORT ORDINAL="89" NAME="??0QBuffer@@QEAA@PEAVQObject@@@Z" PURGE="0" COMMENT="" />
    <EXPORT ORDINAL="90" NAME="??0QByteArray@@QEAA@$$QEAU?$QArrayDataPointer@D@@@Z" PURGE="0" COMMENT="" />
    <EXPORT ORDINAL="91" NAME="??0QByteArray@@QEAA@$$QEAV0@@Z" PURGE="0" COMMENT="" />
    <EXPORT ORDINAL="92" NAME="??0QByteArray@@QEAA@AEBU?$QArrayDataPointer@D@@@Z" PURGE="0" COMMENT="" />
    <EXPORT ORDINAL="93" NAME="??0QByteArray@@QEAA@AEBV0@@Z" PURGE="0" COMMENT="" />
    <EXPORT ORDINAL="94" NAME="??0QByteArray@@QEAA@PEBD_J@Z" PURGE="0" COMMENT="" />
    <EXPORT ORDINAL="95" NAME="??0QByteArray@@QEAA@XZ" PURGE="0" COMMENT="" />
    <EXPORT ORDINAL="96" NAME="??0QByteArray@@QEAA@_JD@Z" PURGE="0" COMMENT="" />
    <EXPORT ORDINAL="97" NAME="??0QByteArray@@QEAA@_JW4Initialization@Qt@@@Z" PURGE="0" COMMENT="" />
    <EXPORT ORDINAL="98" NAME="??0QByteArrayMatcher@@QEAA@AEBV0@@Z" PURGE="0" COMMENT="" />
    <EXPORT ORDINAL="99" NAME="??0QByteArrayMatcher@@QEAA@AEBVQByteArray@@@Z" PURGE="0" COMMENT="" />
    <EXPORT ORDINAL="100" NAME="??0QByteArrayMatcher@@QEAA@PEBD_J@Z" PURGE="0" COMMENT="" />
    <EXPORT ORDINAL="101" NAME="??0QByteArrayMatcher@@QEAA@VQByteArrayView@@@Z" PURGE="0" COMMENT="" />
    <EXPORT ORDINAL="102" NAME="??0QByteArrayMatcher@@QEAA@XZ" PURGE="0" COMMENT="" />
    <EXPORT ORDINAL="103" NAME="??0QByteArrayView@@QEAA@$$T@Z" PURGE="0" COMMENT="" />
    <EXPORT ORDINAL="104" NAME="??0QByteArrayView@@QEAA@XZ" PURGE="0" COMMENT="" />
    <EXPORT ORDINAL="105" NAME="??0QCalendar@@QEAA@VQAnyStringView@@@Z" PURGE="0" COMMENT="" />
    <EXPORT ORDINAL="106" NAME="??0QCalendar@@QEAA@VQLatin1String@@@Z" PURGE="0" COMMENT="" />
    <EXPORT ORDINAL="107" NAME="??0QCalendar@@QEAA@VQStringView@@@Z" PURGE="0" COMMENT="" />
    <EXPORT ORDINAL="108" NAME="??0QCalendar@@QEAA@VSystemId@0@@Z" PURGE="0" COMMENT="" />
    <EXPORT ORDINAL="109" NAME="??0QCalendar@@QEAA@W4System@0@@Z" PURGE="0" COMMENT="" />
    <EXPORT ORDINAL="110" NAME="??0QCalendar@@QEAA@XZ" PURGE="0" COMMENT="" />
    <EXPORT ORDINAL="111" NAME="??0QCalendarBackend@@QEAA@XZ" PURGE="0" COMMENT="" />
    <EXPORT ORDINAL="112" NAME="??0QCalendarPermission@@QEAA@AEBV0@@Z" PURGE="0" COMMENT="" />
    <EXPORT ORDINAL="113" NAME="??0QCalendarPermission@@QEAA@XZ" PURGE="0" COMMENT="" />
    <EXPORT ORDINAL="114" NAME="??0QCameraPermission@@QEAA@AEBV0@@Z" PURGE="0" COMMENT="" />
    <EXPORT ORDINAL="115" NAME="??0QCameraPermission@@QEAA@XZ" PURGE="0" COMMENT="" />
    <EXPORT ORDINAL="116" NAME="??0QCborArray@@AEAA@AEAVQCborContainerPrivate@@@Z" PURGE="0" COMMENT="" />
    <EXPORT ORDINAL="117" NAME="??0QCborArray@@QEAA@AEBV0@@Z" PURGE="0" COMMENT="" />
    <EXPORT ORDINAL="118" NAME="??0QCborArray@@QEAA@V?$initializer_list@VQCborValue@@@std@@@Z" PURGE="0" COMMENT="" />
    <EXPORT ORDINAL="119" NAME="??0QCborArray@@QEAA@XZ" PURGE="0" COMMENT="" />
    <EXPORT ORDINAL="120" NAME="??0QCborMap@@AEAA@AEAVQCborContainerPrivate@@@Z" PURGE="0" COMMENT="" />
    <EXPORT ORDINAL="121" NAME="??0QCborMap@@QEAA@AEBV0@@Z" PURGE="0" COMMENT="" />
    <EXPORT ORDINAL="122" NAME="??0QCborMap@@QEAA@V?$initializer_list@U?$pair@VQCborValue@@V1@@std@@@std@@@Z" PURGE="0" COMMENT="" />
    <EXPORT ORDINAL="123" NAME="??0QCborMap@@QEAA@XZ" PURGE="0" COMMENT="" />
    <EXPORT ORDINAL="124" NAME="??0QCborStreamReader@@QEAA@AEBVQByteArray@@@Z" PURGE="0" COMMENT="" />
    <EXPORT ORDINAL="125" NAME="??0QCborStreamReader@@QEAA@PEAVQIODevice@@@Z" PURGE="0" COMMENT="" />
    <EXPORT ORDINAL="126" NAME="??0QCborStreamReader@@QEAA@PEBD_J@Z" PURGE="0" COMMENT="" />
    <EXPORT ORDINAL="127" NAME="??0QCborStreamReader@@QEAA@PEBE_J@Z" PURGE="0" COMMENT="" />
    <EXPORT ORDINAL="128" NAME="??0QCborStreamReader@@QEAA@XZ" PURGE="0" COMMENT="" />
    <EXPORT ORDINAL="129" NAME="??0QCborStreamWriter@@QEAA@PEAVQByteArray@@@Z" PURGE="0" COMMENT="" />
    <EXPORT ORDINAL="130" NAME="??0QCborStreamWriter@@QEAA@PEAVQIODevice@@@Z" PURGE="0" COMMENT="" />
    <EXPORT ORDINAL="131" NAME="??0QCborValue@@QEAA@$$QEAV0@@Z" PURGE="0" COMMENT="" />
    <EXPORT ORDINAL="132" NAME="??0QCborValue@@QEAA@$$QEAVQCborArray@@@Z" PURGE="0" COMMENT="" />
    <EXPORT ORDINAL="133" NAME="??0QCborValue@@QEAA@$$QEAVQCborMap@@@Z" PURGE="0" COMMENT="" />
    <EXPORT ORDINAL="134" NAME="??0QCborValue@@QEAA@$$T@Z" PURGE="0" COMMENT="" />
    <EXPORT ORDINAL="135" NAME="??0QCborValue@@QEAA@AEBV0@@Z" PURGE="0" COMMENT="" />
    <EXPORT ORDINAL="136" NAME="??0QCborValue@@QEAA@AEBVQByteArray@@@Z" PURGE="0" COMMENT="" />
    <EXPORT ORDINAL="137" NAME="??0QCborValue@@QEAA@AEBVQCborArray@@@Z" PURGE="0" COMMENT="" />
    <EXPORT ORDINAL="138" NAME="??0QCborValue@@QEAA@AEBVQCborMap@@@Z" PURGE="0" COMMENT="" />
    <EXPORT ORDINAL="139" NAME="??0QCborValue@@QEAA@AEBVQDateTime@@@Z" PURGE="0" COMMENT="" />
    <EXPORT ORDINAL="140" NAME="??0QCborValue@@QEAA@AEBVQRegularExpression@@@Z" PURGE="0" COMMENT="" />
    <EXPORT ORDINAL="141" NAME="??0QCborValue@@QEAA@AEBVQString@@@Z" PURGE="0" COMMENT="" />
    <EXPORT ORDINAL="142" NAME="??0QCborValue@@QEAA@AEBVQUrl@@@Z" PURGE="0" COMMENT="" />
    <EXPORT ORDINAL="143" NAME="??0QCborValue@@QEAA@AEBVQUuid@@@Z" PURGE="0" COMMENT="" />
    <EXPORT ORDINAL="144" NAME="??0QCborValue@@QEAA@H@Z" PURGE="0" COMMENT="" />
    <EXPORT ORDINAL="145" NAME="??0QCborValue@@QEAA@I@Z" PURGE="0" COMMENT="" />
    <EXPORT ORDINAL="146" NAME="??0QCborValue@@QEAA@N@Z" PURGE="0" COMMENT="" />
    <EXPORT ORDINAL="147" NAME="??0QCborValue@@QEAA@PEBD@Z" PURGE="0" COMMENT="" />
    <EXPORT ORDINAL="148" NAME="??0QCborValue@@QEAA@VQLatin1String@@@Z" PURGE="0" COMMENT="" />
    <EXPORT ORDINAL="149" NAME="??0QCborValue@@QEAA@VQStringView@@@Z" PURGE="0" COMMENT="" />
    <EXPORT ORDINAL="150" NAME="??0QCborValue@@QEAA@W4QCborKnownTags@@AEBV0@@Z" PURGE="0" COMMENT="" />
    <EXPORT ORDINAL="151" NAME="??0QCborValue@@QEAA@W4QCborSimpleType@@@Z" PURGE="0" COMMENT="" />
    <EXPORT ORDINAL="152" NAME="??0QCborValue@@QEAA@W4QCborTag@@AEBV0@@Z" PURGE="0" COMMENT="" />
    <EXPORT ORDINAL="153" NAME="??0QCborValue@@QEAA@W4Type@0@@Z" PURGE="0" COMMENT="" />
    <EXPORT ORDINAL="154" NAME="??0QCborValue@@QEAA@XZ" PURGE="0" COMMENT="" />
    <EXPORT ORDINAL="155" NAME="??0QCborValue@@QEAA@_J@Z" PURGE="0" COMMENT="" />
    <EXPORT ORDINAL="156" NAME="??0QCborValue@@QEAA@_N@Z" PURGE="0" COMMENT="" />
    <EXPORT ORDINAL="157" NAME="??0QCborValueRef@@AEAA@PEAVQCborContainerPrivate@@_J@Z" PURGE="0" COMMENT="" />
    <EXPORT ORDINAL="158" NAME="??0QCborValueRef@@AEAA@XZ" PURGE="0" COMMENT="" />
    <EXPORT ORDINAL="159" NAME="??0QChar@@QEAA@D@Z" PURGE="0" COMMENT="" />
    <EXPORT ORDINAL="160" NAME="??0QChar@@QEAA@E@Z" PURGE="0" COMMENT="" />
    <EXPORT ORDINAL="161" NAME="??0QChar@@QEAA@EE@Z" PURGE="0" COMMENT="" />
    <EXPORT ORDINAL="162" NAME="??0QChar@@QEAA@F@Z" PURGE="0" COMMENT="" />
    <EXPORT ORDINAL="163" NAME="??0QChar@@QEAA@G@Z" PURGE="0" COMMENT="" />
    <EXPORT ORDINAL="164" NAME="??0QChar@@QEAA@H@Z" PURGE="0" COMMENT="" />
    <EXPORT ORDINAL="165" NAME="??0QChar@@QEAA@I@Z" PURGE="0" COMMENT="" />
    <EXPORT ORDINAL="166" NAME="??0QChar@@QEAA@UQLatin1Char@@@Z" PURGE="0" COMMENT="" />
    <EXPORT ORDINAL="167" NAME="??0QChar@@QEAA@W4SpecialCharacter@0@@Z" PURGE="0" COMMENT="" />
    <EXPORT ORDINAL="168" NAME="??0QChar@@QEAA@XZ" PURGE="0" COMMENT="" />
    <EXPORT ORDINAL="169" NAME="??0QChar@@QEAA@_S@Z" PURGE="0" COMMENT="" />
    <EXPORT ORDINAL="170" NAME="??0QChar@@QEAA@_W@Z" PURGE="0" COMMENT="" />
    <EXPORT ORDINAL="171" NAME="??0QChildEvent@@IEAA@AEBV0@@Z" PURGE="0" COMMENT="" />
    <EXPORT ORDINAL="172" NAME="??0QChildEvent@@QEAA@W4Type@QEvent@@PEAVQObject@@@Z" PURGE="0" COMMENT="" />
    <EXPORT ORDINAL="173" NAME="??0QCollator@@QEAA@$$QEAV0@@Z" PURGE="0" COMMENT="" />
    <EXPORT ORDINAL="174" NAME="??0QCollator@@QEAA@AEBV0@@Z" PURGE="0" COMMENT="" />
    <EXPORT ORDINAL="175" NAME="??0QCollator@@QEAA@AEBVQLocale@@@Z" PURGE="0" COMMENT="" />
    <EXPORT ORDINAL="176" NAME="??0QCollator@@QEAA@XZ" PURGE="0" COMMENT="" />
    <EXPORT ORDINAL="177" NAME="??0QCollatorSortKey@@IEAA@PEAVQCollatorSortKeyPrivate@@@Z" PURGE="0" COMMENT="" />
    <EXPORT ORDINAL="178" NAME="??0QCollatorSortKey@@QEAA@AEBV0@@Z" PURGE="0" COMMENT="" />
    <EXPORT ORDINAL="179" NAME="??0QComHelper@@QEAA@W4tagCOINIT@@@Z" PURGE="0" COMMENT="" />
    <EXPORT ORDINAL="180" NAME="??0QCommandLineOption@@QEAA@AEBV0@@Z" PURGE="0" COMMENT="" />
    <EXPORT ORDINAL="181" NAME="??0QCommandLineOption@@QEAA@AEBV?$QList@VQString@@@@@Z" PURGE="0" COMMENT="" />
    <EXPORT ORDINAL="182" NAME="??0QCommandLineOption@@QEAA@AEBV?$QList@VQString@@@@AEBVQString@@11@Z" PURGE="0" COMMENT="" />
    <EXPORT ORDINAL="183" NAME="??0QCommandLineOption@@QEAA@AEBVQString@@000@Z" PURGE="0" COMMENT="" />
    <EXPORT ORDINAL="184" NAME="??0QCommandLineOption@@QEAA@AEBVQString@@@Z" PURGE="0" COMMENT="" />
    <EXPORT ORDINAL="185" NAME="??0QCommandLineParser@@QEAA@XZ" PURGE="0" COMMENT="" />
    <EXPORT ORDINAL="186" NAME="??0QConcatenateTablesProxyModel@@QEAA@PEAVQObject@@@Z" PURGE="0" COMMENT="" />
    <EXPORT ORDINAL="187" NAME="??0QContactsPermission@@QEAA@AEBV0@@Z" PURGE="0" COMMENT="" />
    <EXPORT ORDINAL="188" NAME="??0QContactsPermission@@QEAA@XZ" PURGE="0" COMMENT="" />
    <EXPORT ORDINAL="189" NAME="??0QContiguousCacheData@@QEAA@XZ" PURGE="0" COMMENT="" />
    <EXPORT ORDINAL="190" NAME="??0QCoreApplication@@IEAA@AEAVQCoreApplicationPrivate@@@Z" PURGE="0" COMMENT="" />
    <EXPORT ORDINAL="191" NAME="??0QCoreApplication@@QEAA@AEAHPEAPEADH@Z" PURGE="0" COMMENT="" />
    <EXPORT ORDINAL="192" NAME="??0QCoreApplicationPrivate@@QEAA@AEAHPEAPEAD@Z" PURGE="0" COMMENT="" />
    <EXPORT ORDINAL="193" NAME="??0QCryptographicHash@@QEAA@$$QEAV0@@Z" PURGE="0" COMMENT="" />
    <EXPORT ORDINAL="194" NAME="??0QCryptographicHash@@QEAA@W4Algorithm@0@@Z" PURGE="0" COMMENT="" />
    <EXPORT ORDINAL="195" NAME="??0QDaemonThread@@QEAA@PEAVQObject@@@Z" PURGE="0" COMMENT="" />
    <EXPORT ORDINAL="196" NAME="??0QDataStream@@QEAA@AEBVQByteArray@@@Z" PURGE="0" COMMENT="" />
    <EXPORT ORDINAL="197" NAME="??0QDataStream@@QEAA@PEAVQByteArray@@V?$QFlags@W4OpenModeFlag@QIODeviceBase@@@@@Z" PURGE="0" COMMENT="" />
    <EXPORT ORDINAL="198" NAME="??0QDataStream@@QEAA@PEAVQIODevice@@@Z" PURGE="0" COMMENT="" />
    <EXPORT ORDINAL="199" NAME="??0QDataStream@@QEAA@XZ" PURGE="0" COMMENT="" />
    <EXPORT ORDINAL="200" NAME="??0QDate@@AEAA@_J@Z" PURGE="0" COMMENT="" />
    <EXPORT ORDINAL="201" NAME="??0QDate@@QEAA@HHH@Z" PURGE="0" COMMENT="" />
    <EXPORT ORDINAL="202" NAME="??0QDate@@QEAA@HHHVQCalendar@@@Z" PURGE="0" COMMENT="" />
    <EXPORT ORDINAL="203" NAME="??0QDate@@QEAA@XZ" PURGE="0" COMMENT="" />
    <EXPORT ORDINAL="204" NAME="??0QDateTime@@QEAA@$$QEAV0@@Z" PURGE="0" COMMENT="" />
    <EXPORT ORDINAL="205" NAME="??0QDateTime@@QEAA@AEBV0@@Z" PURGE="0" COMMENT="" />
    <EXPORT ORDINAL="206" NAME="??0QDateTime@@QEAA@VQDate@@VQTime@@@Z" PURGE="0" COMMENT="" />
    <EXPORT ORDINAL="207" NAME="??0QDateTime@@QEAA@VQDate@@VQTime@@AEBVQTimeZone@@@Z" PURGE="0" COMMENT="" />
    <EXPORT ORDINAL="208" NAME="??0QDateTime@@QEAA@VQDate@@VQTime@@AEBVQTimeZone@@W4TransitionResolution@0@@Z" PURGE="0" COMMENT="" />
    <EXPORT ORDINAL="209" NAME="??0QDateTime@@QEAA@VQDate@@VQTime@@W4TimeSpec@Qt@@H@Z" PURGE="0" COMMENT="" />
    <EXPORT ORDINAL="210" NAME="??0QDateTime@@QEAA@VQDate@@VQTime@@W4TransitionResolution@0@@Z" PURGE="0" COMMENT="" />
    <EXPORT ORDINAL="211" NAME="??0QDateTime@@QEAA@XZ" PURGE="0" COMMENT="" />
    <EXPORT ORDINAL="212" NAME="??0QDateTimeParser@@QEAA@AEBV0@@Z" PURGE="0" COMMENT="" />
    <EXPORT ORDINAL="213" NAME="??0QDateTimeParser@@QEAA@W4Type@QMetaType@@W4Context@0@AEBVQCalendar@@@Z" PURGE="0" COMMENT="" />
    <EXPORT ORDINAL="214" NAME="??0QDeadlineTimer@@QEAA@W4ForeverConstant@0@W4TimerType@Qt@@@Z" PURGE="0" COMMENT="" />
    <EXPORT ORDINAL="215" NAME="??0QDeadlineTimer@@QEAA@W4TimerType@Qt@@@Z" PURGE="0" COMMENT="" />
    <EXPORT ORDINAL="216" NAME="??0QDeadlineTimer@@QEAA@XZ" PURGE="0" COMMENT="" />
    <EXPORT ORDINAL="217" NAME="??0QDeadlineTimer@@QEAA@_JW4TimerType@Qt@@@Z" PURGE="0" COMMENT="" />
    <EXPORT ORDINAL="218" NAME="??0QDebug@@QEAA@$$QEAV0@@Z" PURGE="0" COMMENT="" />
    <EXPORT ORDINAL="219" NAME="??0QDebug@@QEAA@AEBV0@@Z" PURGE="0" COMMENT="" />
    <EXPORT ORDINAL="220" NAME="??0QDebug@@QEAA@PEAVQIODevice@@@Z" PURGE="0" COMMENT="" />
    <EXPORT ORDINAL="221" NAME="??0QDebug@@QEAA@PEAVQString@@@Z" PURGE="0" COMMENT="" />
    <EXPORT ORDINAL="222" NAME="??0QDebug@@QEAA@W4QtMsgType@@@Z" PURGE="0" COMMENT="" />
    <EXPORT ORDINAL="223" NAME="??0QDebugStateSaver@@QEAA@AEAVQDebug@@@Z" PURGE="0" COMMENT="" />
    <EXPORT ORDINAL="224" NAME="??0QDir@@IEAA@AEAVQDirPrivate@@@Z" PURGE="0" COMMENT="" />
    <EXPORT ORDINAL="225" NAME="??0QDir@@QEAA@AEBV0@@Z" PURGE="0" COMMENT="" />
    <EXPORT ORDINAL="226" NAME="??0QDir@@QEAA@AEBVQString@@0V?$QFlags@W4SortFlag@QDir@@@@V?$QFlags@W4Filter@QDir@@@@@Z" PURGE="0" COMMENT="" />
    <EXPORT ORDINAL="227" NAME="??0QDir@@QEAA@AEBVQString@@@Z" PURGE="0" COMMENT="" />
    <EXPORT ORDINAL="228" NAME="??0QDirIterator@@QEAA@AEBVQDir@@V?$QFlags@W4IteratorFlag@QDirIterator@@@@@Z" PURGE="0" COMMENT="" />
    <EXPORT ORDINAL="229" NAME="??0QDirIterator@@QEAA@AEBVQString@@AEBV?$QList@VQString@@@@V?$QFlags@W4Filter@QDir@@@@V?$QFlags@W4IteratorFlag@QDirIterator@@@@@Z" PURGE="0" COMMENT="" />
    <EXPORT ORDINAL="230" NAME="??0QDirIterator@@QEAA@AEBVQString@@V?$QFlags@W4Filter@QDir@@@@V?$QFlags@W4IteratorFlag@QDirIterator@@@@@Z" PURGE="0" COMMENT="" />
    <EXPORT ORDINAL="231" NAME="??0QDirIterator@@QEAA@AEBVQString@@V?$QFlags@W4IteratorFlag@QDirIterator@@@@@Z" PURGE="0" COMMENT="" />
    <EXPORT ORDINAL="232" NAME="??0QDynamicMetaObjectData@@QEAA@AEBU0@@Z" PURGE="0" COMMENT="" />
    <EXPORT ORDINAL="233" NAME="??0QDynamicMetaObjectData@@QEAA@XZ" PURGE="0" COMMENT="" />
    <EXPORT ORDINAL="234" NAME="??0QDynamicPropertyChangeEvent@@IEAA@AEBV0@@Z" PURGE="0" COMMENT="" />
    <EXPORT ORDINAL="235" NAME="??0QDynamicPropertyChangeEvent@@QEAA@AEBVQByteArray@@@Z" PURGE="0" COMMENT="" />
    <EXPORT ORDINAL="236" NAME="??0QEasingCurve@@QEAA@$$QEAV0@@Z" PURGE="0" COMMENT="" />
    <EXPORT ORDINAL="237" NAME="??0QEasingCurve@@QEAA@AEBV0@@Z" PURGE="0" COMMENT="" />
    <EXPORT ORDINAL="238" NAME="??0QEasingCurve@@QEAA@W4Type@0@@Z" PURGE="0" COMMENT="" />
    <EXPORT ORDINAL="239" NAME="??0QElapsedTimer@@QEAA@XZ" PURGE="0" COMMENT="" />
    <EXPORT ORDINAL="240" NAME="??0QEvent@@IEAA@AEBV0@@Z" PURGE="0" COMMENT="" />
    <EXPORT ORDINAL="241" NAME="??0QEvent@@IEAA@W4Type@0@UInputEventTag@0@@Z" PURGE="0" COMMENT="" />
    <EXPORT ORDINAL="242" NAME="??0QEvent@@IEAA@W4Type@0@UPointerEventTag@0@@Z" PURGE="0" COMMENT="" />
    <EXPORT ORDINAL="243" NAME="??0QEvent@@IEAA@W4Type@0@USinglePointEventTag@0@@Z" PURGE="0" COMMENT="" />
    <EXPORT ORDINAL="244" NAME="??0QEvent@@QEAA@W4Type@0@@Z" PURGE="0" COMMENT="" />
    <EXPORT ORDINAL="245" NAME="??0QEventDispatcherWin32@@IEAA@AEAVQEventDispatcherWin32Private@@PEAVQObject@@@Z" PURGE="0" COMMENT="" />
    <EXPORT ORDINAL="246" NAME="??0QEventDispatcherWin32@@QEAA@PEAVQObject@@@Z" PURGE="0" COMMENT="" />
    <EXPORT ORDINAL="247" NAME="??0QEventDispatcherWin32Private@@QEAA@XZ" PURGE="0" COMMENT="" />
    <EXPORT ORDINAL="248" NAME="??0QEventLoop@@QEAA@PEAVQObject@@@Z" PURGE="0" COMMENT="" />
    <EXPORT ORDINAL="249" NAME="??0QEventLoopLocker@@QEAA@PEAVQEventLoop@@@Z" PURGE="0" COMMENT="" />
    <EXPORT ORDINAL="250" NAME="??0QEventLoopLocker@@QEAA@PEAVQThread@@@Z" PURGE="0" COMMENT="" />
    <EXPORT ORDINAL="251" NAME="??0QEventLoopLocker@@QEAA@XZ" PURGE="0" COMMENT="" />
    <EXPORT ORDINAL="252" NAME="??0QException@@QEAA@AEBV0@@Z" PURGE="0" COMMENT="" />
    <EXPORT ORDINAL="253" NAME="??0QException@@QEAA@XZ" PURGE="0" COMMENT="" />
    <EXPORT ORDINAL="254" NAME="??0QFSFileEngine@@IEAA@AEAVQFSFileEnginePrivate@@@Z" PURGE="0" COMMENT="" />
    <EXPORT ORDINAL="255" NAME="??0QFSFileEngine@@QEAA@AEBVQString@@@Z" PURGE="0" COMMENT="" />
    <EXPORT ORDINAL="256" NAME="??0QFSFileEngine@@QEAA@XZ" PURGE="0" COMMENT="" />
    <EXPORT ORDINAL="257" NAME="??0QFactoryInterface@@QEAA@AEBU0@@Z" PURGE="0" COMMENT="" />
    <EXPORT ORDINAL="258" NAME="??0QFactoryInterface@@QEAA@XZ" PURGE="0" COMMENT="" />
    <EXPORT ORDINAL="259" NAME="??0QFactoryLoader@@QEAA@PEBDAEBVQString@@W4CaseSensitivity@Qt@@@Z" PURGE="0" COMMENT="" />
    <EXPORT ORDINAL="260" NAME="??0QFile@@IEAA@AEAVQFilePrivate@@PEAVQObject@@@Z" PURGE="0" COMMENT="" />
    <EXPORT ORDINAL="261" NAME="??0QFile@@QEAA@AEBVQString@@@Z" PURGE="0" COMMENT="" />
    <EXPORT ORDINAL="262" NAME="??0QFile@@QEAA@AEBVQString@@PEAVQObject@@@Z" PURGE="0" COMMENT="" />
    <EXPORT ORDINAL="263" NAME="??0QFile@@QEAA@PEAVQObject@@@Z" PURGE="0" COMMENT="" />
    <EXPORT ORDINAL="264" NAME="??0QFile@@QEAA@XZ" PURGE="0" COMMENT="" />
    <EXPORT ORDINAL="265" NAME="??0QFileDevice@@IEAA@AEAVQFileDevicePrivate@@PEAVQObject@@@Z" PURGE="0" COMMENT="" />
    <EXPORT ORDINAL="266" NAME="??0QFileDevice@@IEAA@PEAVQObject@@@Z" PURGE="0" COMMENT="" />
    <EXPORT ORDINAL="267" NAME="??0QFileDevice@@IEAA@XZ" PURGE="0" COMMENT="" />
    <EXPORT ORDINAL="268" NAME="??0QFileInfo@@QEAA@AEBV0@@Z" PURGE="0" COMMENT="" />
    <EXPORT ORDINAL="269" NAME="??0QFileInfo@@QEAA@AEBVQDir@@AEBVQString@@@Z" PURGE="0" COMMENT="" />
    <EXPORT ORDINAL="270" NAME="??0QFileInfo@@QEAA@AEBVQFileDevice@@@Z" PURGE="0" COMMENT="" />
    <EXPORT ORDINAL="271" NAME="??0QFileInfo@@QEAA@AEBVQString@@@Z" PURGE="0" COMMENT="" />
    <EXPORT ORDINAL="272" NAME="??0QFileInfo@@QEAA@PEAVQFileInfoPrivate@@@Z" PURGE="0" COMMENT="" />
    <EXPORT ORDINAL="273" NAME="??0QFileInfo@@QEAA@XZ" PURGE="0" COMMENT="" />
    <EXPORT ORDINAL="274" NAME="??0QFileSelector@@QEAA@PEAVQObject@@@Z" PURGE="0" COMMENT="" />
    <EXPORT ORDINAL="275" NAME="??0QFileSelectorPrivate@@QEAA@XZ" PURGE="0" COMMENT="" />
    <EXPORT ORDINAL="276" NAME="??0QFileSystemWatcher@@QEAA@AEBV?$QList@VQString@@@@PEAVQObject@@@Z" PURGE="0" COMMENT="" />
    <EXPORT ORDINAL="277" NAME="??0QFileSystemWatcher@@QEAA@PEAVQObject@@@Z" PURGE="0" COMMENT="" />
    <EXPORT ORDINAL="278" NAME="??0QFutureCallOutEvent@@IEAA@AEBV0@@Z" PURGE="0" COMMENT="" />
    <EXPORT ORDINAL="279" NAME="??0QFutureCallOutEvent@@QEAA@W4CallOutType@0@H@Z" PURGE="0" COMMENT="" />
    <EXPORT ORDINAL="280" NAME="??0QFutureCallOutEvent@@QEAA@W4CallOutType@0@HAEBVQString@@@Z" PURGE="0" COMMENT="" />
    <EXPORT ORDINAL="281" NAME="??0QFutureCallOutEvent@@QEAA@W4CallOutType@0@HH@Z" PURGE="0" COMMENT="" />
    <EXPORT ORDINAL="282" NAME="??0QFutureCallOutEvent@@QEAA@XZ" PURGE="0" COMMENT="" />
    <EXPORT ORDINAL="283" NAME="??0QFutureCallOutInterface@@QEAA@AEBV0@@Z" PURGE="0" COMMENT="" />
    <EXPORT ORDINAL="284" NAME="??0QFutureCallOutInterface@@QEAA@XZ" PURGE="0" COMMENT="" />
    <EXPORT ORDINAL="285" NAME="??0QFutureInterfaceBase@@QEAA@$$QEAV0@@Z" PURGE="0" COMMENT="" />
    <EXPORT ORDINAL="286" NAME="??0QFutureInterfaceBase@@QEAA@AEBV0@@Z" PURGE="0" COMMENT="" />
    <EXPORT ORDINAL="287" NAME="??0QFutureInterfaceBase@@QEAA@W4State@0@@Z" PURGE="0" COMMENT="" />
    <EXPORT ORDINAL="288" NAME="??0QFutureWatcherBase@@QEAA@PEAVQObject@@@Z" PURGE="0" COMMENT="" />
    <EXPORT ORDINAL="289" NAME="??0QGenericArgument@@QEAA@PEBDPEBX@Z" PURGE="0" COMMENT="" />
    <EXPORT ORDINAL="290" NAME="??0QGenericReturnArgument@@QEAA@PEBDPEAX@Z" PURGE="0" COMMENT="" />
    <EXPORT ORDINAL="291" NAME="??0QGregorianCalendar@@QEAA@XZ" PURGE="0" COMMENT="" />
    <EXPORT ORDINAL="292" NAME="??0QHijriCalendar@@QEAA@XZ" PURGE="0" COMMENT="" />
    <EXPORT ORDINAL="293" NAME="??0QIODevice@@IEAA@AEAVQIODevicePrivate@@PEAVQObject@@@Z" PURGE="0" COMMENT="" />
    <EXPORT ORDINAL="294" NAME="??0QIODevice@@QEAA@PEAVQObject@@@Z" PURGE="0" COMMENT="" />
    <EXPORT ORDINAL="295" NAME="??0QIODevice@@QEAA@XZ" PURGE="0" COMMENT="" />
    <EXPORT ORDINAL="296" NAME="??0QIODevicePrivate@@QEAA@XZ" PURGE="0" COMMENT="" />
    <EXPORT ORDINAL="297" NAME="??0QIdentityProxyModel@@IEAA@AEAVQIdentityProxyModelPrivate@@PEAVQObject@@@Z" PURGE="0" COMMENT="" />
    <EXPORT ORDINAL="298" NAME="??0QIdentityProxyModel@@QEAA@PEAVQObject@@@Z" PURGE="0" COMMENT="" />
    <EXPORT ORDINAL="299" NAME="??0QIdentityProxyModelPrivate@@QEAA@XZ" PURGE="0" COMMENT="" />
    <EXPORT ORDINAL="300" NAME="??0QIslamicCivilCalendar@@QEAA@XZ" PURGE="0" COMMENT="" />
    <EXPORT ORDINAL="301" NAME="??0QItemSelection@@QEAA@AEBVQModelIndex@@0@Z" PURGE="0" COMMENT="" />
    <EXPORT ORDINAL="302" NAME="??0QItemSelectionModel@@IEAA@AEAVQItemSelectionModelPrivate@@PEAVQAbstractItemModel@@@Z" PURGE="0" COMMENT="" />
    <EXPORT ORDINAL="303" NAME="??0QItemSelectionModel@@QEAA@PEAVQAbstractItemModel@@@Z" PURGE="0" COMMENT="" />
    <EXPORT ORDINAL="304" NAME="??0QItemSelectionModel@@QEAA@PEAVQAbstractItemModel@@PEAVQObject@@@Z" PURGE="0" COMMENT="" />
    <EXPORT ORDINAL="305" NAME="??0QItemSelectionRange@@QEAA@$$QEAV0@@Z" PURGE="0" COMMENT="" />
    <EXPORT ORDINAL="306" NAME="??0QItemSelectionRange@@QEAA@AEBV0@@Z" PURGE="0" COMMENT="" />
    <EXPORT ORDINAL="307" NAME="??0QItemSelectionRange@@QEAA@AEBVQModelIndex@@0@Z" PURGE="0" COMMENT="" />
    <EXPORT ORDINAL="308" NAME="??0QItemSelectionRange@@QEAA@AEBVQModelIndex@@@Z" PURGE="0" COMMENT="" />
    <EXPORT ORDINAL="309" NAME="??0QItemSelectionRange@@QEAA@XZ" PURGE="0" COMMENT="" />
    <EXPORT ORDINAL="310" NAME="??0QJalaliCalendar@@QEAA@XZ" PURGE="0" COMMENT="" />
    <EXPORT ORDINAL="311" NAME="??0QJsonArray@@AEAA@PEAVQCborContainerPrivate@@@Z" PURGE="0" COMMENT="" />
    <EXPORT ORDINAL="312" NAME="??0QJsonArray@@QEAA@$$QEAV0@@Z" PURGE="0" COMMENT="" />
    <EXPORT ORDINAL="313" NAME="??0QJsonArray@@QEAA@AEBV0@@Z" PURGE="0" COMMENT="" />
    <EXPORT ORDINAL="314" NAME="??0QJsonArray@@QEAA@V?$initializer_list@VQJsonValue@@@std@@@Z" PURGE="0" COMMENT="" />
    <EXPORT ORDINAL="315" NAME="??0QJsonArray@@QEAA@XZ" PURGE="0" COMMENT="" />
    <EXPORT ORDINAL="316" NAME="??0QJsonDocument@@AEAA@AEBVQCborValue@@@Z" PURGE="0" COMMENT="" />
    <EXPORT ORDINAL="317" NAME="??0QJsonDocument@@QEAA@$$QEAV0@@Z" PURGE="0" COMMENT="" />
    <EXPORT ORDINAL="318" NAME="??0QJsonDocument@@QEAA@AEBV0@@Z" PURGE="0" COMMENT="" />
    <EXPORT ORDINAL="319" NAME="??0QJsonDocument@@QEAA@AEBVQJsonArray@@@Z" PURGE="0" COMMENT="" />
    <EXPORT ORDINAL="320" NAME="??0QJsonDocument@@QEAA@AEBVQJsonObject@@@Z" PURGE="0" COMMENT="" />
    <EXPORT ORDINAL="321" NAME="??0QJsonDocument@@QEAA@XZ" PURGE="0" COMMENT="" />
    <EXPORT ORDINAL="322" NAME="??0QJsonObject@@AEAA@PEAVQCborContainerPrivate@@@Z" PURGE="0" COMMENT="" />
    <EXPORT ORDINAL="323" NAME="??0QJsonObject@@QEAA@$$QEAV0@@Z" PURGE="0" COMMENT="" />
    <EXPORT ORDINAL="324" NAME="??0QJsonObject@@QEAA@AEBV0@@Z" PURGE="0" COMMENT="" />
    <EXPORT ORDINAL="325" NAME="??0QJsonObject@@QEAA@V?$initializer_list@U?$pair@VQString@@VQJsonValue@@@std@@@std@@@Z" PURGE="0" COMMENT="" />
    <EXPORT ORDINAL="326" NAME="??0QJsonObject@@QEAA@XZ" PURGE="0" COMMENT="" />
    <EXPORT ORDINAL="327" NAME="??0QJsonParseError@@QEAA@XZ" PURGE="0" COMMENT="" />
    <EXPORT ORDINAL="328" NAME="??0QJsonValue@@QEAA@$$QEAV0@@Z" PURGE="0" COMMENT="" />
    <EXPORT ORDINAL="329" NAME="??0QJsonValue@@QEAA@$$QEAVQJsonArray@@@Z" PURGE="0" COMMENT="" />
    <EXPORT ORDINAL="330" NAME="??0QJsonValue@@QEAA@$$QEAVQJsonObject@@@Z" PURGE="0" COMMENT="" />
    <EXPORT ORDINAL="331" NAME="??0QJsonValue@@QEAA@AEBV0@@Z" PURGE="0" COMMENT="" />
    <EXPORT ORDINAL="332" NAME="??0QJsonValue@@QEAA@AEBVQJsonArray@@@Z" PURGE="0" COMMENT="" />
    <EXPORT ORDINAL="333" NAME="??0QJsonValue@@QEAA@AEBVQJsonObject@@@Z" PURGE="0" COMMENT="" />
    <EXPORT ORDINAL="334" NAME="??0QJsonValue@@QEAA@AEBVQString@@@Z" PURGE="0" COMMENT="" />
    <EXPORT ORDINAL="335" NAME="??0QJsonValue@@QEAA@H@Z" PURGE="0" COMMENT="" />
    <EXPORT ORDINAL="336" NAME="??0QJsonValue@@QEAA@N@Z" PURGE="0" COMMENT="" />
    <EXPORT ORDINAL="337" NAME="??0QJsonValue@@QEAA@PEBD@Z" PURGE="0" COMMENT="" />
    <EXPORT ORDINAL="338" NAME="??0QJsonValue@@QEAA@VQLatin1String@@@Z" PURGE="0" COMMENT="" />
    <EXPORT ORDINAL="339" NAME="??0QJsonValue@@QEAA@W4Type@0@@Z" PURGE="0" COMMENT="" />
    <EXPORT ORDINAL="340" NAME="??0QJsonValue@@QEAA@_J@Z" PURGE="0" COMMENT="" />
    <EXPORT ORDINAL="341" NAME="??0QJsonValue@@QEAA@_N@Z" PURGE="0" COMMENT="" />
    <EXPORT ORDINAL="342" NAME="??0QJsonValueRef@@QEAA@PEAVQJsonArray@@_J@Z" PURGE="0" COMMENT="" />
    <EXPORT ORDINAL="343" NAME="??0QJsonValueRef@@QEAA@PEAVQJsonObject@@_J@Z" PURGE="0" COMMENT="" />
    <EXPORT ORDINAL="344" NAME="??0QJulianCalendar@@QEAA@XZ" PURGE="0" COMMENT="" />
    <EXPORT ORDINAL="345" NAME="??0QLatin1StringMatcher@@QEAA@VQLatin1String@@W4CaseSensitivity@Qt@@@Z" PURGE="0" COMMENT="" />
    <EXPORT ORDINAL="346" NAME="??0QLatin1StringMatcher@@QEAA@XZ" PURGE="0" COMMENT="" />
    <EXPORT ORDINAL="347" NAME="??0QLibrary@@QEAA@AEBVQString@@0PEAVQObject@@@Z" PURGE="0" COMMENT="" />
    <EXPORT ORDINAL="348" NAME="??0QLibrary@@QEAA@AEBVQString@@HPEAVQObject@@@Z" PURGE="0" COMMENT="" />
    <EXPORT ORDINAL="349" NAME="??0QLibrary@@QEAA@AEBVQString@@PEAVQObject@@@Z" PURGE="0" COMMENT="" />
    <EXPORT ORDINAL="350" NAME="??0QLibrary@@QEAA@PEAVQObject@@@Z" PURGE="0" COMMENT="" />
    <EXPORT ORDINAL="351" NAME="??0QLibraryInfo@@AEAA@XZ" PURGE="0" COMMENT="" />
    <EXPORT ORDINAL="352" NAME="??0QLine@@QEAA@AEBVQPoint@@0@Z" PURGE="0" COMMENT="" />
    <EXPORT ORDINAL="353" NAME="??0QLine@@QEAA@HHHH@Z" PURGE="0" COMMENT="" />
    <EXPORT ORDINAL="354" NAME="??0QLine@@QEAA@XZ" PURGE="0" COMMENT="" />
    <EXPORT ORDINAL="355" NAME="??0QLineF@@QEAA@AEBVQLine@@@Z" PURGE="0" COMMENT="" />
    <EXPORT ORDINAL="356" NAME="??0QLineF@@QEAA@AEBVQPointF@@0@Z" PURGE="0" COMMENT="" />
    <EXPORT ORDINAL="357" NAME="??0QLineF@@QEAA@NNNN@Z" PURGE="0" COMMENT="" />
    <EXPORT ORDINAL="358" NAME="??0QLineF@@QEAA@XZ" PURGE="0" COMMENT="" />
    <EXPORT ORDINAL="359" NAME="??0QLocale@@AEAA@AEAVQLocalePrivate@@@Z" PURGE="0" COMMENT="" />
    <EXPORT ORDINAL="360" NAME="??0QLocale@@QEAA@AEBV0@@Z" PURGE="0" COMMENT="" />
    <EXPORT ORDINAL="361" NAME="??0QLocale@@QEAA@AEBVQString@@@Z" PURGE="0" COMMENT="" />
    <EXPORT ORDINAL="362" NAME="??0QLocale@@QEAA@VQStringView@@@Z" PURGE="0" COMMENT="" />
    <EXPORT ORDINAL="363" NAME="??0QLocale@@QEAA@W4Language@0@W4Country@0@@Z" PURGE="0" COMMENT="" />
    <EXPORT ORDINAL="364" NAME="??0QLocale@@QEAA@W4Language@0@W4Script@0@W4Country@0@@Z" PURGE="0" COMMENT="" />
    <EXPORT ORDINAL="365" NAME="??0QLocale@@QEAA@XZ" PURGE="0" COMMENT="" />
    <EXPORT ORDINAL="366" NAME="??0QLocationPermission@@QEAA@AEBV0@@Z" PURGE="0" COMMENT="" />
    <EXPORT ORDINAL="367" NAME="??0QLocationPermission@@QEAA@XZ" PURGE="0" COMMENT="" />
    <EXPORT ORDINAL="368" NAME="??0QLockFile@@QEAA@AEBVQString@@@Z" PURGE="0" COMMENT="" />
    <EXPORT ORDINAL="369" NAME="??0QLoggingCategory@@QEAA@PEBDW4QtMsgType@@@Z" PURGE="0" COMMENT="" />
    <EXPORT ORDINAL="370" NAME="??0QMessageAuthenticationCode@@QEAA@$$QEAV0@@Z" PURGE="0" COMMENT="" />
    <EXPORT ORDINAL="371" NAME="??0QMessageAuthenticationCode@@QEAA@W4Algorithm@QCryptographicHash@@AEBVQByteArray@@@Z" PURGE="0" COMMENT="" />
    <EXPORT ORDINAL="372" NAME="??0QMessageAuthenticationCode@@QEAA@W4Algorithm@QCryptographicHash@@VQByteArrayView@@@Z" PURGE="0" COMMENT="" />
    <EXPORT ORDINAL="373" NAME="??0QMessageLogger@@QEAA@PEBDH00@Z" PURGE="0" COMMENT="" />
    <EXPORT ORDINAL="374" NAME="??0QMessageLogger@@QEAA@PEBDH0@Z" PURGE="0" COMMENT="" />
    <EXPORT ORDINAL="375" NAME="??0QMessageLogger@@QEAA@XZ" PURGE="0" COMMENT="" />
    <EXPORT ORDINAL="376" NAME="??0QMetaAssociation@@QEAA@PEBVQMetaAssociationInterface@QtMetaContainerPrivate@@@Z" PURGE="0" COMMENT="" />
    <EXPORT ORDINAL="377" NAME="??0QMetaAssociation@@QEAA@XZ" PURGE="0" COMMENT="" />
    <EXPORT ORDINAL="378" NAME="??0QMetaCallEvent@@QEAA@GGP6AXPEAVQObject@@W4Call@QMetaObject@@HPEAPEAX@ZPEBV1@H2PEAVQSemaphore@@@Z" PURGE="0" COMMENT="" />
    <EXPORT ORDINAL="379" NAME="??0QMetaCallEvent@@QEAA@GGP6AXPEAVQObject@@W4Call@QMetaObject@@HPEAPEAX@ZPEBV1@HH@Z" PURGE="0" COMMENT="" />
    <EXPORT ORDINAL="380" NAME="??0QMetaCallEvent@@QEAA@PEAVQSlotObjectBase@QtPrivate@@PEBVQObject@@HH@Z" PURGE="0" COMMENT="" />
    <EXPORT ORDINAL="381" NAME="??0QMetaCallEvent@@QEAA@PEAVQSlotObjectBase@QtPrivate@@PEBVQObject@@HPEAPEAXPEAVQSemaphore@@@Z" PURGE="0" COMMENT="" />
    <EXPORT ORDINAL="382" NAME="??0QMetaCallEvent@@QEAA@V?$unique_ptr@VQSlotObjectBase@QtPrivate@@UDeleter@12@@std@@PEBVQObject@@HH@Z" PURGE="0" COMMENT="" />
    <EXPORT ORDINAL="383" NAME="??0QMetaCallEvent@@QEAA@V?$unique_ptr@VQSlotObjectBase@QtPrivate@@UDeleter@12@@std@@PEBVQObject@@HPEAPEAXPEAVQSemaphore@@@Z" PURGE="0" COMMENT="" />
    <EXPORT ORDINAL="384" NAME="??0QMetaClassInfo@@QEAA@XZ" PURGE="0" COMMENT="" />
    <EXPORT ORDINAL="385" NAME="??0QMetaContainer@@QEAA@PEBVQMetaContainerInterface@QtMetaContainerPrivate@@@Z" PURGE="0" COMMENT="" />
    <EXPORT ORDINAL="386" NAME="??0QMetaContainer@@QEAA@XZ" PURGE="0" COMMENT="" />
    <EXPORT ORDINAL="387" NAME="??0QMetaEnum@@AEAA@PEBUQMetaObject@@H@Z" PURGE="0" COMMENT="" />
    <EXPORT ORDINAL="388" NAME="??0QMetaEnum@@QEAA@XZ" PURGE="0" COMMENT="" />
    <EXPORT ORDINAL="389" NAME="??0QMetaEnumBuilder@@AEAA@PEBVQMetaObjectBuilder@@H@Z" PURGE="0" COMMENT="" />
    <EXPORT ORDINAL="390" NAME="??0QMetaEnumBuilder@@QEAA@XZ" PURGE="0" COMMENT="" />
    <EXPORT ORDINAL="391" NAME="??0QMetaMethod@@AEAA@PEBUQMetaObject@@AEBUData@0@@Z" PURGE="0" COMMENT="" />
    <EXPORT ORDINAL="392" NAME="??0QMetaMethod@@QEAA@XZ" PURGE="0" COMMENT="" />
    <EXPORT ORDINAL="393" NAME="??0QMetaMethodBuilder@@AEAA@PEBVQMetaObjectBuilder@@H@Z" PURGE="0" COMMENT="" />
    <EXPORT ORDINAL="394" NAME="??0QMetaMethodBuilder@@QEAA@XZ" PURGE="0" COMMENT="" />
    <EXPORT ORDINAL="395" NAME="??0QMetaObject@@QEAA@XZ" PURGE="0" COMMENT="" />
    <EXPORT ORDINAL="396" NAME="??0QMetaObjectBuilder@@QEAA@PEBUQMetaObject@@V?$QFlags@W4AddMember@QMetaObjectBuilder@@@@@Z" PURGE="0" COMMENT="" />
    <EXPORT ORDINAL="397" NAME="??0QMetaObjectBuilder@@QEAA@XZ" PURGE="0" COMMENT="" />
    <EXPORT ORDINAL="398" NAME="??0QMetaProperty@@AEAA@PEBUQMetaObject@@H@Z" PURGE="0" COMMENT="" />
    <EXPORT ORDINAL="399" NAME="??0QMetaProperty@@QEAA@XZ" PURGE="0" COMMENT="" />
    <EXPORT ORDINAL="400" NAME="??0QMetaPropertyBuilder@@AEAA@PEBVQMetaObjectBuilder@@H@Z" PURGE="0" COMMENT="" />
    <EXPORT ORDINAL="401" NAME="??0QMetaPropertyBuilder@@QEAA@XZ" PURGE="0" COMMENT="" />
    <EXPORT ORDINAL="402" NAME="??0QMetaSequence@@QEAA@PEBVQMetaSequenceInterface@QtMetaContainerPrivate@@@Z" PURGE="0" COMMENT="" />
    <EXPORT ORDINAL="403" NAME="??0QMetaSequence@@QEAA@XZ" PURGE="0" COMMENT="" />
    <EXPORT ORDINAL="404" NAME="??0QMetaStringTable@@QEAA@AEBVQByteArray@@@Z" PURGE="0" COMMENT="" />
    <EXPORT ORDINAL="405" NAME="??0QMetaType@@QEAA@H@Z" PURGE="0" COMMENT="" />
    <EXPORT ORDINAL="406" NAME="??0QMetaType@@QEAA@PEBVQMetaTypeInterface@QtPrivate@@@Z" PURGE="0" COMMENT="" />
    <EXPORT ORDINAL="407" NAME="??0QMetaType@@QEAA@XZ" PURGE="0" COMMENT="" />
    <EXPORT ORDINAL="408" NAME="??0QMetaTypeModuleHelper@@IEAA@XZ" PURGE="0" COMMENT="" />
    <EXPORT ORDINAL="409" NAME="??0QMicrophonePermission@@QEAA@AEBV0@@Z" PURGE="0" COMMENT="" />
    <EXPORT ORDINAL="410" NAME="??0QMicrophonePermission@@QEAA@XZ" PURGE="0" COMMENT="" />
    <EXPORT ORDINAL="411" NAME="??0QMilankovicCalendar@@QEAA@XZ" PURGE="0" COMMENT="" />
    <EXPORT ORDINAL="412" NAME="??0QMimeData@@QEAA@XZ" PURGE="0" COMMENT="" />
    <EXPORT ORDINAL="413" NAME="??0QMimeDatabase@@QEAA@XZ" PURGE="0" COMMENT="" />
    <EXPORT ORDINAL="414" NAME="??0QMimeType@@QEAA@AEBV0@@Z" PURGE="0" COMMENT="" />
    <EXPORT ORDINAL="415" NAME="??0QMimeType@@QEAA@AEBVQMimeTypePrivate@@@Z" PURGE="0" COMMENT="" />
    <EXPORT ORDINAL="416" NAME="??0QMimeType@@QEAA@XZ" PURGE="0" COMMENT="" />
    <EXPORT ORDINAL="417" NAME="??0QMutex@@QEAA@XZ" PURGE="0" COMMENT="" />
    <EXPORT ORDINAL="418" NAME="??0QNonContiguousByteDevice@@IEAA@XZ" PURGE="0" COMMENT="" />
    <EXPORT ORDINAL="419" NAME="??0QObject@@IEAA@AEAVQObjectPrivate@@PEAV0@@Z" PURGE="0" COMMENT="" />
    <EXPORT ORDINAL="420" NAME="??0QObject@@QEAA@PEAV0@@Z" PURGE="0" COMMENT="" />
    <EXPORT ORDINAL="421" NAME="??0QObjectCleanupHandler@@QEAA@XZ" PURGE="0" COMMENT="" />
    <EXPORT ORDINAL="422" NAME="??0QObjectData@@QEAA@XZ" PURGE="0" COMMENT="" />
    <EXPORT ORDINAL="423" NAME="??0QObjectPrivate@@QEAA@H@Z" PURGE="0" COMMENT="" />
    <EXPORT ORDINAL="424" NAME="??0QOperatingSystemVersion@@AEAA@XZ" PURGE="0" COMMENT="" />
    <EXPORT ORDINAL="425" NAME="??0QOperatingSystemVersion@@QEAA@AEBVQOperatingSystemVersionBase@@@Z" PURGE="0" COMMENT="" />
    <EXPORT ORDINAL="426" NAME="??0QOperatingSystemVersion@@QEAA@W4OSType@0@HHH@Z" PURGE="0" COMMENT="" />
    <EXPORT ORDINAL="427" NAME="??0QParallelAnimationGroup@@IEAA@AEAVQParallelAnimationGroupPrivate@@PEAVQObject@@@Z" PURGE="0" COMMENT="" />
    <EXPORT ORDINAL="428" NAME="??0QParallelAnimationGroup@@QEAA@PEAVQObject@@@Z" PURGE="0" COMMENT="" />
    <EXPORT ORDINAL="429" NAME="??0QPauseAnimation@@QEAA@HPEAVQObject@@@Z" PURGE="0" COMMENT="" />
    <EXPORT ORDINAL="430" NAME="??0QPauseAnimation@@QEAA@PEAVQObject@@@Z" PURGE="0" COMMENT="" />
    <EXPORT ORDINAL="431" NAME="??0QPermissionPlugin@@QEAA@XZ" PURGE="0" COMMENT="" />
    <EXPORT ORDINAL="432" NAME="??0QPersistentModelIndex@@QEAA@$$QEAV0@@Z" PURGE="0" COMMENT="" />
    <EXPORT ORDINAL="433" NAME="??0QPersistentModelIndex@@QEAA@AEBV0@@Z" PURGE="0" COMMENT="" />
    <EXPORT ORDINAL="434" NAME="??0QPersistentModelIndex@@QEAA@AEBVQModelIndex@@@Z" PURGE="0" COMMENT="" />
    <EXPORT ORDINAL="435" NAME="??0QPersistentModelIndex@@QEAA@XZ" PURGE="0" COMMENT="" />
    <EXPORT ORDINAL="436" NAME="??0QPluginLoader@@QEAA@AEBVQString@@PEAVQObject@@@Z" PURGE="0" COMMENT="" />
    <EXPORT ORDINAL="437" NAME="??0QPluginLoader@@QEAA@PEAVQObject@@@Z" PURGE="0" COMMENT="" />
    <EXPORT ORDINAL="438" NAME="??0QProcess@@QEAA@PEAVQObject@@@Z" PURGE="0" COMMENT="" />
    <EXPORT ORDINAL="439" NAME="??0QProcessEnvironment@@QEAA@AEBV0@@Z" PURGE="0" COMMENT="" />
    <EXPORT ORDINAL="440" NAME="??0QProcessEnvironment@@QEAA@W4Initialization@0@@Z" PURGE="0" COMMENT="" />
    <EXPORT ORDINAL="441" NAME="??0QProcessEnvironment@@QEAA@XZ" PURGE="0" COMMENT="" />
    <EXPORT ORDINAL="442" NAME="??0QPropertyAnimation@@QEAA@PEAVQObject@@@Z" PURGE="0" COMMENT="" />
    <EXPORT ORDINAL="443" NAME="??0QPropertyAnimation@@QEAA@PEAVQObject@@AEBVQByteArray@@0@Z" PURGE="0" COMMENT="" />
    <EXPORT ORDINAL="444" NAME="??0QPropertyBindingData@QtPrivate@@QEAA@$$QEAV01@@Z" PURGE="0" COMMENT="" />
    <EXPORT ORDINAL="445" NAME="??0QPropertyBindingData@QtPrivate@@QEAA@XZ" PURGE="0" COMMENT="" />
    <EXPORT ORDINAL="446" NAME="??0QPropertyBindingError@@QEAA@$$QEAV0@@Z" PURGE="0" COMMENT="" />
    <EXPORT ORDINAL="447" NAME="??0QPropertyBindingError@@QEAA@AEBV0@@Z" PURGE="0" COMMENT="" />
    <EXPORT ORDINAL="448" NAME="??0QPropertyBindingError@@QEAA@W4Type@0@AEBVQString@@@Z" PURGE="0" COMMENT="" />
    <EXPORT ORDINAL="449" NAME="??0QPropertyBindingError@@QEAA@XZ" PURGE="0" COMMENT="" />
    <EXPORT ORDINAL="450" NAME="??0QPropertyBindingPrivate@@QEAA@VQMetaType@@PEBUBindingFunctionVTable@QtPrivate@@AEBUQPropertyBindingSourceLocation@@_N@Z" PURGE="0" COMMENT="" />
    <EXPORT ORDINAL="451" NAME="??0QPropertyBindingSourceLocation@@QEAA@XZ" PURGE="0" COMMENT="" />
    <EXPORT ORDINAL="452" NAME="??0QPropertyObserver@@IEAA@P6AXPEAV0@PEAVQUntypedPropertyData@@@Z@Z" PURGE="0" COMMENT="" />
    <EXPORT ORDINAL="453" NAME="??0QPropertyObserver@@IEAA@PEAVQUntypedPropertyData@@@Z" PURGE="0" COMMENT="" />
    <EXPORT ORDINAL="454" NAME="??0QPropertyObserver@@QEAA@$$QEAV0@@Z" PURGE="0" COMMENT="" />
    <EXPORT ORDINAL="455" NAME="??0QPropertyObserver@@QEAA@XZ" PURGE="0" COMMENT="" />
    <EXPORT ORDINAL="456" NAME="??0QRandomGenerator@@QEAA@AEAVseed_seq@std@@@Z" PURGE="0" COMMENT="" />
    <EXPORT ORDINAL="457" NAME="??0QRandomGenerator@@QEAA@AEBV0@@Z" PURGE="0" COMMENT="" />
    <EXPORT ORDINAL="458" NAME="??0QRandomGenerator@@QEAA@PEBI0@Z" PURGE="0" COMMENT="" />
    <EXPORT ORDINAL="459" NAME="??0QReadLocker@@QEAA@PEAVQReadWriteLock@@@Z" PURGE="0" COMMENT="" />
    <EXPORT ORDINAL="460" NAME="??0QReadWriteLock@@QEAA@W4RecursionMode@0@@Z" PURGE="0" COMMENT="" />
    <EXPORT ORDINAL="461" NAME="??0QRect@@QEAA@AEBVQPoint@@0@Z" PURGE="0" COMMENT="" />
    <EXPORT ORDINAL="462" NAME="??0QRect@@QEAA@AEBVQPoint@@AEBVQSize@@@Z" PURGE="0" COMMENT="" />
    <EXPORT ORDINAL="463" NAME="??0QRect@@QEAA@HHHH@Z" PURGE="0" COMMENT="" />
    <EXPORT ORDINAL="464" NAME="??0QRect@@QEAA@XZ" PURGE="0" COMMENT="" />
    <EXPORT ORDINAL="465" NAME="??0QRectF@@QEAA@AEBVQPointF@@0@Z" PURGE="0" COMMENT="" />
    <EXPORT ORDINAL="466" NAME="??0QRectF@@QEAA@AEBVQPointF@@AEBVQSizeF@@@Z" PURGE="0" COMMENT="" />
    <EXPORT ORDINAL="467" NAME="??0QRectF@@QEAA@AEBVQRect@@@Z" PURGE="0" COMMENT="" />
    <EXPORT ORDINAL="468" NAME="??0QRectF@@QEAA@NNNN@Z" PURGE="0" COMMENT="" />
    <EXPORT ORDINAL="469" NAME="??0QRectF@@QEAA@XZ" PURGE="0" COMMENT="" />
    <EXPORT ORDINAL="470" NAME="??0QRecursiveMutex@@QEAA@XZ" PURGE="0" COMMENT="" />
    <EXPORT ORDINAL="471" NAME="??0QRegularExpression@@AEAA@AEAUQRegularExpressionPrivate@@@Z" PURGE="0" COMMENT="" />
    <EXPORT ORDINAL="472" NAME="??0QRegularExpression@@QEAA@$$QEAV0@@Z" PURGE="0" COMMENT="" />
    <EXPORT ORDINAL="473" NAME="??0QRegularExpression@@QEAA@AEBV0@@Z" PURGE="0" COMMENT="" />
    <EXPORT ORDINAL="474" NAME="??0QRegularExpression@@QEAA@AEBVQString@@V?$QFlags@W4PatternOption@QRegularExpression@@@@@Z" PURGE="0" COMMENT="" />
    <EXPORT ORDINAL="475" NAME="??0QRegularExpression@@QEAA@XZ" PURGE="0" COMMENT="" />
    <EXPORT ORDINAL="476" NAME="??0QRegularExpressionMatch@@AEAA@AEAUQRegularExpressionMatchPrivate@@@Z" PURGE="0" COMMENT="" />
    <EXPORT ORDINAL="477" NAME="??0QRegularExpressionMatch@@QEAA@$$QEAV0@@Z" PURGE="0" COMMENT="" />
    <EXPORT ORDINAL="478" NAME="??0QRegularExpressionMatch@@QEAA@AEBV0@@Z" PURGE="0" COMMENT="" />
    <EXPORT ORDINAL="479" NAME="??0QRegularExpressionMatch@@QEAA@XZ" PURGE="0" COMMENT="" />
    <EXPORT ORDINAL="480" NAME="??0QRegularExpressionMatchIterator@@AEAA@AEAUQRegularExpressionMatchIteratorPrivate@@@Z" PURGE="0" COMMENT="" />
    <EXPORT ORDINAL="481" NAME="??0QRegularExpressionMatchIterator@@QEAA@$$QEAV0@@Z" PURGE="0" COMMENT="" />
    <EXPORT ORDINAL="482" NAME="??0QRegularExpressionMatchIterator@@QEAA@AEBV0@@Z" PURGE="0" COMMENT="" />
    <EXPORT ORDINAL="483" NAME="??0QRegularExpressionMatchIterator@@QEAA@XZ" PURGE="0" COMMENT="" />
    <EXPORT ORDINAL="484" NAME="??0QResource@@QEAA@AEBVQString@@AEBVQLocale@@@Z" PURGE="0" COMMENT="" />
    <EXPORT ORDINAL="485" NAME="??0QRomanCalendar@@QEAA@XZ" PURGE="0" COMMENT="" />
    <EXPORT ORDINAL="486" NAME="??0QRunnable@@QEAA@XZ" PURGE="0" COMMENT="" />
    <EXPORT ORDINAL="487" NAME="??0QSaveFile@@QEAA@AEBVQString@@@Z" PURGE="0" COMMENT="" />
    <EXPORT ORDINAL="488" NAME="??0QSaveFile@@QEAA@AEBVQString@@PEAVQObject@@@Z" PURGE="0" COMMENT="" />
    <EXPORT ORDINAL="489" NAME="??0QSaveFile@@QEAA@PEAVQObject@@@Z" PURGE="0" COMMENT="" />
    <EXPORT ORDINAL="490" NAME="??0QSemaphore@@QEAA@H@Z" PURGE="0" COMMENT="" />
    <EXPORT ORDINAL="491" NAME="??0QSequentialAnimationGroup@@IEAA@AEAVQSequentialAnimationGroupPrivate@@PEAVQObject@@@Z" PURGE="0" COMMENT="" />
    <EXPORT ORDINAL="492" NAME="??0QSequentialAnimationGroup@@QEAA@PEAVQObject@@@Z" PURGE="0" COMMENT="" />
    <EXPORT ORDINAL="493" NAME="??0QSequentialConstIterator@@QEAA@$$QEAU?$QConstIterator@VQMetaSequence@@@@@Z" PURGE="0" COMMENT="" />
    <EXPORT ORDINAL="494" NAME="??0QSequentialConstIterator@@QEAA@$$QEAV0@@Z" PURGE="0" COMMENT="" />
    <EXPORT ORDINAL="495" NAME="??0QSequentialConstIterator@@QEAA@AEBV0@@Z" PURGE="0" COMMENT="" />
    <EXPORT ORDINAL="496" NAME="??0QSequentialIterable@@QEAA@$$QEAV?$QIterable@VQMetaSequence@@@@@Z" PURGE="0" COMMENT="" />
    <EXPORT ORDINAL="497" NAME="??0QSequentialIterable@@QEAA@AEBVQMetaSequence@@AEBVQMetaType@@PEAX@Z" PURGE="0" COMMENT="" />
    <EXPORT ORDINAL="498" NAME="??0QSequentialIterable@@QEAA@AEBVQMetaSequence@@AEBVQMetaType@@PEBX@Z" PURGE="0" COMMENT="" />
    <EXPORT ORDINAL="499" NAME="??0QSequentialIterable@@QEAA@XZ" PURGE="0" COMMENT="" />
    <EXPORT ORDINAL="500" NAME="??0QSequentialIterator@@QEAA@$$QEAU?$QIterator@VQMetaSequence@@@@@Z" PURGE="0" COMMENT="" />
    <EXPORT ORDINAL="501" NAME="??0QSequentialIterator@@QEAA@$$QEAV0@@Z" PURGE="0" COMMENT="" />
    <EXPORT ORDINAL="502" NAME="??0QSequentialIterator@@QEAA@AEBV0@@Z" PURGE="0" COMMENT="" />
    <EXPORT ORDINAL="503" NAME="??0QSettings@@QEAA@AEBVQString@@0PEAVQObject@@@Z" PURGE="0" COMMENT="" />
    <EXPORT ORDINAL="504" NAME="??0QSettings@@QEAA@AEBVQString@@W4Format@0@PEAVQObject@@@Z" PURGE="0" COMMENT="" />
    <EXPORT ORDINAL="505" NAME="??0QSettings@@QEAA@PEAVQObject@@@Z" PURGE="0" COMMENT="" />
    <EXPORT ORDINAL="506" NAME="??0QSettings@@QEAA@W4Format@0@W4Scope@0@AEBVQString@@2PEAVQObject@@@Z" PURGE="0" COMMENT="" />
    <EXPORT ORDINAL="507" NAME="??0QSettings@@QEAA@W4Scope@0@AEBVQString@@1PEAVQObject@@@Z" PURGE="0" COMMENT="" />
    <EXPORT ORDINAL="508" NAME="??0QSettings@@QEAA@W4Scope@0@PEAVQObject@@@Z" PURGE="0" COMMENT="" />
    <EXPORT ORDINAL="509" NAME="??0QSharedMemory@@QEAA@AEBVQNativeIpcKey@@PEAVQObject@@@Z" PURGE="0" COMMENT="" />
    <EXPORT ORDINAL="510" NAME="??0QSharedMemory@@QEAA@AEBVQString@@PEAVQObject@@@Z" PURGE="0" COMMENT="" />
    <EXPORT ORDINAL="511" NAME="??0QSharedMemory@@QEAA@PEAVQObject@@@Z" PURGE="0" COMMENT="" />
    <EXPORT ORDINAL="512" NAME="??0QSignalMapper@@QEAA@PEAVQObject@@@Z" PURGE="0" COMMENT="" />
    <EXPORT ORDINAL="513" NAME="??0QSize@@QEAA@HH@Z" PURGE="0" COMMENT="" />
    <EXPORT ORDINAL="514" NAME="??0QSize@@QEAA@XZ" PURGE="0" COMMENT="" />
    <EXPORT ORDINAL="515" NAME="??0QSizeF@@QEAA@AEBVQSize@@@Z" PURGE="0" COMMENT="" />
    <EXPORT ORDINAL="516" NAME="??0QSizeF@@QEAA@NN@Z" PURGE="0" COMMENT="" />
    <EXPORT ORDINAL="517" NAME="??0QSizeF@@QEAA@XZ" PURGE="0" COMMENT="" />
    <EXPORT ORDINAL="518" NAME="??0QSocketNotifier@@QEAA@W4Type@0@PEAVQObject@@@Z" PURGE="0" COMMENT="" />
    <EXPORT ORDINAL="519" NAME="??0QSocketNotifier@@QEAA@_JW4Type@0@PEAVQObject@@@Z" PURGE="0" COMMENT="" />
    <EXPORT ORDINAL="520" NAME="??0QSortFilterProxyModel@@QEAA@PEAVQObject@@@Z" PURGE="0" COMMENT="" />
    <EXPORT ORDINAL="521" NAME="??0QStaticPlugin@@QEAA@P6APEAVQObject@@XZP6A?AUQPluginMetaData@@XZ@Z" PURGE="0" COMMENT="" />
    <EXPORT ORDINAL="522" NAME="??0QStorageInfo@@AEAA@AEAVQStorageInfoPrivate@@@Z" PURGE="0" COMMENT="" />
    <EXPORT ORDINAL="523" NAME="??0QStorageInfo@@QEAA@AEBV0@@Z" PURGE="0" COMMENT="" />
    <EXPORT ORDINAL="524" NAME="??0QStorageInfo@@QEAA@AEBVQDir@@@Z" PURGE="0" COMMENT="" />
    <EXPORT ORDINAL="525" NAME="??0QStorageInfo@@QEAA@AEBVQString@@@Z" PURGE="0" COMMENT="" />
    <EXPORT ORDINAL="526" NAME="??0QStorageInfo@@QEAA@XZ" PURGE="0" COMMENT="" />
    <EXPORT ORDINAL="527" NAME="??0QString@@QEAA@$$QEAU?$QArrayDataPointer@_S@@@Z" PURGE="0" COMMENT="" />
    <EXPORT ORDINAL="528" NAME="??0QString@@QEAA@$$QEAV0@@Z" PURGE="0" COMMENT="" />
    <EXPORT ORDINAL="529" NAME="??0QString@@QEAA@AEBV0@@Z" PURGE="0" COMMENT="" />
    <EXPORT ORDINAL="530" NAME="??0QString@@QEAA@AEBVQByteArray@@@Z" PURGE="0" COMMENT="" />
    <EXPORT ORDINAL="531" NAME="??0QString@@QEAA@PEBD@Z" PURGE="0" COMMENT="" />
    <EXPORT ORDINAL="532" NAME="??0QString@@QEAA@PEBVQChar@@_J@Z" PURGE="0" COMMENT="" />
    <EXPORT ORDINAL="533" NAME="??0QString@@QEAA@VQChar@@@Z" PURGE="0" COMMENT="" />
    <EXPORT ORDINAL="534" NAME="??0QString@@QEAA@VQLatin1String@@@Z" PURGE="0" COMMENT="" />
    <EXPORT ORDINAL="535" NAME="??0QString@@QEAA@XZ" PURGE="0" COMMENT="" />
    <EXPORT ORDINAL="536" NAME="??0QString@@QEAA@_JVQChar@@@Z" PURGE="0" COMMENT="" />
    <EXPORT ORDINAL="537" NAME="??0QString@@QEAA@_JW4Initialization@Qt@@@Z" PURGE="0" COMMENT="" />
    <EXPORT ORDINAL="538" NAME="??0QStringConverter@@IEAA@PEBDV?$QFlags@W4Flag@QStringConverterBase@@@@@Z" PURGE="0" COMMENT="" />
    <EXPORT ORDINAL="539" NAME="??0QStringListModel@@QEAA@AEBV?$QList@VQString@@@@PEAVQObject@@@Z" PURGE="0" COMMENT="" />
    <EXPORT ORDINAL="540" NAME="??0QStringListModel@@QEAA@PEAVQObject@@@Z" PURGE="0" COMMENT="" />
    <EXPORT ORDINAL="541" NAME="??0QStringMatcher@@QEAA@AEBV0@@Z" PURGE="0" COMMENT="" />
    <EXPORT ORDINAL="542" NAME="??0QStringMatcher@@QEAA@AEBVQString@@W4CaseSensitivity@Qt@@@Z" PURGE="0" COMMENT="" />
    <EXPORT ORDINAL="543" NAME="??0QStringMatcher@@QEAA@PEBVQChar@@_JW4CaseSensitivity@Qt@@@Z" PURGE="0" COMMENT="" />
    <EXPORT ORDINAL="544" NAME="??0QStringMatcher@@QEAA@VQStringView@@W4CaseSensitivity@Qt@@@Z" PURGE="0" COMMENT="" />
    <EXPORT ORDINAL="545" NAME="??0QStringMatcher@@QEAA@XZ" PURGE="0" COMMENT="" />
    <EXPORT ORDINAL="546" NAME="??0QSystemLocale@@QEAA@AEBV0@@Z" PURGE="0" COMMENT="" />
    <EXPORT ORDINAL="547" NAME="??0QSystemLocale@@QEAA@XZ" PURGE="0" COMMENT="" />
    <EXPORT ORDINAL="548" NAME="??0QSystemSemaphore@@QEAA@AEBVQNativeIpcKey@@HW4AccessMode@0@@Z" PURGE="0" COMMENT="" />
    <EXPORT ORDINAL="549" NAME="??0QSystemSemaphore@@QEAA@AEBVQString@@HW4AccessMode@0@@Z" PURGE="0" COMMENT="" />
    <EXPORT ORDINAL="550" NAME="??0QTemporaryDir@@QEAA@$$QEAV0@@Z" PURGE="0" COMMENT="" />
    <EXPORT ORDINAL="551" NAME="??0QTemporaryDir@@QEAA@AEBVQString@@@Z" PURGE="0" COMMENT="" />
    <EXPORT ORDINAL="552" NAME="??0QTemporaryDir@@QEAA@XZ" PURGE="0" COMMENT="" />
    <EXPORT ORDINAL="553" NAME="??0QTemporaryFile@@QEAA@AEBVQString@@@Z" PURGE="0" COMMENT="" />
    <EXPORT ORDINAL="554" NAME="??0QTemporaryFile@@QEAA@AEBVQString@@PEAVQObject@@@Z" PURGE="0" COMMENT="" />
    <EXPORT ORDINAL="555" NAME="??0QTemporaryFile@@QEAA@PEAVQObject@@@Z" PURGE="0" COMMENT="" />
    <EXPORT ORDINAL="556" NAME="??0QTemporaryFile@@QEAA@XZ" PURGE="0" COMMENT="" />
    <EXPORT ORDINAL="557" NAME="??0QTextBoundaryFinder@@QEAA@AEBV0@@Z" PURGE="0" COMMENT="" />
    <EXPORT ORDINAL="558" NAME="??0QTextBoundaryFinder@@QEAA@W4BoundaryType@0@AEBVQString@@@Z" PURGE="0" COMMENT="" />
    <EXPORT ORDINAL="559" NAME="??0QTextBoundaryFinder@@QEAA@W4BoundaryType@0@PEBVQChar@@_JPEAE2@Z" PURGE="0" COMMENT="" />
    <EXPORT ORDINAL="560" NAME="??0QTextBoundaryFinder@@QEAA@W4BoundaryType@0@VQStringView@@PEAE_J@Z" PURGE="0" COMMENT="" />
    <EXPORT ORDINAL="561" NAME="??0QTextBoundaryFinder@@QEAA@XZ" PURGE="0" COMMENT="" />
    <EXPORT ORDINAL="562" NAME="??0QTextStream@@QEAA@AEBVQByteArray@@V?$QFlags@W4OpenModeFlag@QIODeviceBase@@@@@Z" PURGE="0" COMMENT="" />
    <EXPORT ORDINAL="563" NAME="??0QTextStream@@QEAA@PEAU_iobuf@@V?$QFlags@W4OpenModeFlag@QIODeviceBase@@@@@Z" PURGE="0" COMMENT="" />
    <EXPORT ORDINAL="564" NAME="??0QTextStream@@QEAA@PEAVQByteArray@@V?$QFlags@W4OpenModeFlag@QIODeviceBase@@@@@Z" PURGE="0" COMMENT="" />
    <EXPORT ORDINAL="565" NAME="??0QTextStream@@QEAA@PEAVQIODevice@@@Z" PURGE="0" COMMENT="" />
    <EXPORT ORDINAL="566" NAME="??0QTextStream@@QEAA@PEAVQString@@V?$QFlags@W4OpenModeFlag@QIODeviceBase@@@@@Z" PURGE="0" COMMENT="" />
    <EXPORT ORDINAL="567" NAME="??0QTextStream@@QEAA@XZ" PURGE="0" COMMENT="" />
    <EXPORT ORDINAL="568" NAME="??0QTextStreamManipulator@@QEAA@P8QTextStream@@EAAXH@ZH@Z" PURGE="0" COMMENT="" />
    <EXPORT ORDINAL="569" NAME="??0QTextStreamManipulator@@QEAA@P8QTextStream@@EAAXVQChar@@@Z0@Z" PURGE="0" COMMENT="" />
    <EXPORT ORDINAL="570" NAME="??0QThread@@IEAA@AEAVQThreadPrivate@@PEAVQObject@@@Z" PURGE="0" COMMENT="" />
    <EXPORT ORDINAL="571" NAME="??0QThread@@QEAA@PEAVQObject@@@Z" PURGE="0" COMMENT="" />
    <EXPORT ORDINAL="572" NAME="??0QThreadPool@@QEAA@PEAVQObject@@@Z" PURGE="0" COMMENT="" />
    <EXPORT ORDINAL="573" NAME="??0QThreadPoolPrivate@@QEAA@XZ" PURGE="0" COMMENT="" />
    <EXPORT ORDINAL="574" NAME="??0QThreadStorageData@@QEAA@P6AXPEAX@Z@Z" PURGE="0" COMMENT="" />
    <EXPORT ORDINAL="575" NAME="??0QTime@@AEAA@H@Z" PURGE="0" COMMENT="" />
    <EXPORT ORDINAL="576" NAME="??0QTime@@QEAA@HHHH@Z" PURGE="0" COMMENT="" />
    <EXPORT ORDINAL="577" NAME="??0QTime@@QEAA@XZ" PURGE="0" COMMENT="" />
    <EXPORT ORDINAL="578" NAME="??0QTimeLine@@QEAA@HPEAVQObject@@@Z" PURGE="0" COMMENT="" />
    <EXPORT ORDINAL="579" NAME="??0QTimeZone@@AEAA@AEAVQTimeZonePrivate@@@Z" PURGE="0" COMMENT="" />
    <EXPORT ORDINAL="580" NAME="??0QTimeZone@@AEAA@UShortData@0@@Z" PURGE="0" COMMENT="" />
    <EXPORT ORDINAL="581" NAME="??0QTimeZone@@QEAA@$$QEAV0@@Z" PURGE="0" COMMENT="" />
    <EXPORT ORDINAL="582" NAME="??0QTimeZone@@QEAA@AEBV0@@Z" PURGE="0" COMMENT="" />
    <EXPORT ORDINAL="583" NAME="??0QTimeZone@@QEAA@AEBVQByteArray@@@Z" PURGE="0" COMMENT="" />
    <EXPORT ORDINAL="584" NAME="??0QTimeZone@@QEAA@AEBVQByteArray@@HAEBVQString@@1W4Country@QLocale@@1@Z" PURGE="0" COMMENT="" />
    <EXPORT ORDINAL="585" NAME="??0QTimeZone@@QEAA@H@Z" PURGE="0" COMMENT="" />
    <EXPORT ORDINAL="586" NAME="??0QTimeZone@@QEAA@W4Initialization@0@@Z" PURGE="0" COMMENT="" />
    <EXPORT ORDINAL="587" NAME="??0QTimeZone@@QEAA@XZ" PURGE="0" COMMENT="" />
    <EXPORT ORDINAL="588" NAME="??0QTimer@@QEAA@PEAVQObject@@@Z" PURGE="0" COMMENT="" />
    <EXPORT ORDINAL="589" NAME="??0QTimerEvent@@IEAA@AEBV0@@Z" PURGE="0" COMMENT="" />
    <EXPORT ORDINAL="590" NAME="??0QTimerEvent@@QEAA@H@Z" PURGE="0" COMMENT="" />
    <EXPORT ORDINAL="591" NAME="??0QTranslator@@QEAA@PEAVQObject@@@Z" PURGE="0" COMMENT="" />
    <EXPORT ORDINAL="592" NAME="??0QTransposeProxyModel@@IEAA@AEAVQTransposeProxyModelPrivate@@PEAVQObject@@@Z" PURGE="0" COMMENT="" />
    <EXPORT ORDINAL="593" NAME="??0QTransposeProxyModel@@QEAA@PEAVQObject@@@Z" PURGE="0" COMMENT="" />
    <EXPORT ORDINAL="594" NAME="??0QUnhandledException@@QEAA@$$QEAV0@@Z" PURGE="0" COMMENT="" />
    <EXPORT ORDINAL="595" NAME="??0QUnhandledException@@QEAA@AEBV0@@Z" PURGE="0" COMMENT="" />
    <EXPORT ORDINAL="596" NAME="??0QUnhandledException@@QEAA@Vexception_ptr@std@@@Z" PURGE="0" COMMENT="" />
    <EXPORT ORDINAL="597" NAME="??0QUnifiedTimer@@AEAA@XZ" PURGE="0" COMMENT="" />
    <EXPORT ORDINAL="598" NAME="??0QUntypedBindable@@IEAA@PEAVQObject@@AEBVQMetaProperty@@PEBUQBindableInterface@QtPrivate@@@Z" PURGE="0" COMMENT="" />
    <EXPORT ORDINAL="599" NAME="??0QUntypedBindable@@IEAA@PEAVQObject@@PEBDPEBUQBindableInterface@QtPrivate@@@Z" PURGE="0" COMMENT="" />
    <EXPORT ORDINAL="600" NAME="??0QUntypedPropertyBinding@@QEAA@$$QEAV0@@Z" PURGE="0" COMMENT="" />
    <EXPORT ORDINAL="601" NAME="??0QUntypedPropertyBinding@@QEAA@AEBV0@@Z" PURGE="0" COMMENT="" />
    <EXPORT ORDINAL="602" NAME="??0QUntypedPropertyBinding@@QEAA@PEAVQPropertyBindingPrivate@@@Z" PURGE="0" COMMENT="" />
    <EXPORT ORDINAL="603" NAME="??0QUntypedPropertyBinding@@QEAA@VQMetaType@@PEBUBindingFunctionVTable@QtPrivate@@PEAXAEBUQPropertyBindingSourceLocation@@@Z" PURGE="0" COMMENT="" />
    <EXPORT ORDINAL="604" NAME="??0QUntypedPropertyBinding@@QEAA@XZ" PURGE="0" COMMENT="" />
    <EXPORT ORDINAL="605" NAME="??0QUrl@@QEAA@$$QEAV0@@Z" PURGE="0" COMMENT="" />
    <EXPORT ORDINAL="606" NAME="??0QUrl@@QEAA@AEBV0@@Z" PURGE="0" COMMENT="" />
    <EXPORT ORDINAL="607" NAME="??0QUrl@@QEAA@AEBVQString@@W4ParsingMode@0@@Z" PURGE="0" COMMENT="" />
    <EXPORT ORDINAL="608" NAME="??0QUrl@@QEAA@XZ" PURGE="0" COMMENT="" />
    <EXPORT ORDINAL="609" NAME="??0QUrlQuery@@QEAA@$$QEAV0@@Z" PURGE="0" COMMENT="" />
    <EXPORT ORDINAL="610" NAME="??0QUrlQuery@@QEAA@AEBV0@@Z" PURGE="0" COMMENT="" />
    <EXPORT ORDINAL="611" NAME="??0QUrlQuery@@QEAA@AEBVQString@@@Z" PURGE="0" COMMENT="" />
    <EXPORT ORDINAL="612" NAME="??0QUrlQuery@@QEAA@AEBVQUrl@@@Z" PURGE="0" COMMENT="" />
    <EXPORT ORDINAL="613" NAME="??0QUrlQuery@@QEAA@V?$initializer_list@U?$pair@VQString@@V1@@std@@@std@@@Z" PURGE="0" COMMENT="" />
    <EXPORT ORDINAL="614" NAME="??0QUrlQuery@@QEAA@XZ" PURGE="0" COMMENT="" />
    <EXPORT ORDINAL="615" NAME="??0QUuid@@AEAA@W4Initialization@Qt@@@Z" PURGE="0" COMMENT="" />
    <EXPORT ORDINAL="616" NAME="??0QUuid@@QEAA@AEBU_GUID@@@Z" PURGE="0" COMMENT="" />
    <EXPORT ORDINAL="617" NAME="??0QUuid@@QEAA@AEBVQByteArray@@@Z" PURGE="0" COMMENT="" />
    <EXPORT ORDINAL="618" NAME="??0QUuid@@QEAA@AEBVQString@@@Z" PURGE="0" COMMENT="" />
    <EXPORT ORDINAL="619" NAME="??0QUuid@@QEAA@IGGEEEEEEEE@Z" PURGE="0" COMMENT="" />
    <EXPORT ORDINAL="620" NAME="??0QUuid@@QEAA@PEBD@Z" PURGE="0" COMMENT="" />
    <EXPORT ORDINAL="621" NAME="??0QUuid@@QEAA@TId128Bytes@0@W4Endian@QSysInfo@@@Z" PURGE="0" COMMENT="" />
    <EXPORT ORDINAL="622" NAME="??0QUuid@@QEAA@VQAnyStringView@@@Z" PURGE="0" COMMENT="" />
    <EXPORT ORDINAL="623" NAME="??0QUuid@@QEAA@XZ" PURGE="0" COMMENT="" />
    <EXPORT ORDINAL="624" NAME="??0QVariant@@AEAA@Uin_place_t@std@@VQMetaType@@@Z" PURGE="0" COMMENT="" />
    <EXPORT ORDINAL="625" NAME="??0QVariant@@QEAA@$$QEAV0@@Z" PURGE="0" COMMENT="" />
    <EXPORT ORDINAL="626" NAME="??0QVariant@@QEAA@AEBV0@@Z" PURGE="0" COMMENT="" />
    <EXPORT ORDINAL="627" NAME="??0QVariant@@QEAA@AEBV?$QHash@VQString@@VQVariant@@@@@Z" PURGE="0" COMMENT="" />
    <EXPORT ORDINAL="628" NAME="??0QVariant@@QEAA@AEBV?$QList@VQString@@@@@Z" PURGE="0" COMMENT="" />
    <EXPORT ORDINAL="629" NAME="??0QVariant@@QEAA@AEBV?$QList@VQVariant@@@@@Z" PURGE="0" COMMENT="" />
    <EXPORT ORDINAL="630" NAME="??0QVariant@@QEAA@AEBV?$QMap@VQString@@VQVariant@@@@@Z" PURGE="0" COMMENT="" />
    <EXPORT ORDINAL="631" NAME="??0QVariant@@QEAA@AEBVQBitArray@@@Z" PURGE="0" COMMENT="" />
    <EXPORT ORDINAL="632" NAME="??0QVariant@@QEAA@AEBVQByteArray@@@Z" PURGE="0" COMMENT="" />
    <EXPORT ORDINAL="633" NAME="??0QVariant@@QEAA@AEBVQDateTime@@@Z" PURGE="0" COMMENT="" />
    <EXPORT ORDINAL="634" NAME="??0QVariant@@QEAA@AEBVQEasingCurve@@@Z" PURGE="0" COMMENT="" />
    <EXPORT ORDINAL="635" NAME="??0QVariant@@QEAA@AEBVQJsonArray@@@Z" PURGE="0" COMMENT="" />
    <EXPORT ORDINAL="636" NAME="??0QVariant@@QEAA@AEBVQJsonDocument@@@Z" PURGE="0" COMMENT="" />
    <EXPORT ORDINAL="637" NAME="??0QVariant@@QEAA@AEBVQJsonObject@@@Z" PURGE="0" COMMENT="" />
    <EXPORT ORDINAL="638" NAME="??0QVariant@@QEAA@AEBVQJsonValue@@@Z" PURGE="0" COMMENT="" />
    <EXPORT ORDINAL="639" NAME="??0QVariant@@QEAA@AEBVQLine@@@Z" PURGE="0" COMMENT="" />
    <EXPORT ORDINAL="640" NAME="??0QVariant@@QEAA@AEBVQLineF@@@Z" PURGE="0" COMMENT="" />
    <EXPORT ORDINAL="641" NAME="??0QVariant@@QEAA@AEBVQLocale@@@Z" PURGE="0" COMMENT="" />
    <EXPORT ORDINAL="642" NAME="??0QVariant@@QEAA@AEBVQModelIndex@@@Z" PURGE="0" COMMENT="" />
    <EXPORT ORDINAL="643" NAME="??0QVariant@@QEAA@AEBVQPersistentModelIndex@@@Z" PURGE="0" COMMENT="" />
    <EXPORT ORDINAL="644" NAME="??0QVariant@@QEAA@AEBVQPoint@@@Z" PURGE="0" COMMENT="" />
    <EXPORT ORDINAL="645" NAME="??0QVariant@@QEAA@AEBVQPointF@@@Z" PURGE="0" COMMENT="" />
    <EXPORT ORDINAL="646" NAME="??0QVariant@@QEAA@AEBVQRect@@@Z" PURGE="0" COMMENT="" />
    <EXPORT ORDINAL="647" NAME="??0QVariant@@QEAA@AEBVQRectF@@@Z" PURGE="0" COMMENT="" />
    <EXPORT ORDINAL="648" NAME="??0QVariant@@QEAA@AEBVQRegularExpression@@@Z" PURGE="0" COMMENT="" />
    <EXPORT ORDINAL="649" NAME="??0QVariant@@QEAA@AEBVQSize@@@Z" PURGE="0" COMMENT="" />
    <EXPORT ORDINAL="650" NAME="??0QVariant@@QEAA@AEBVQSizeF@@@Z" PURGE="0" COMMENT="" />
    <EXPORT ORDINAL="651" NAME="??0QVariant@@QEAA@AEBVQString@@@Z" PURGE="0" COMMENT="" />
    <EXPORT ORDINAL="652" NAME="??0QVariant@@QEAA@AEBVQUrl@@@Z" PURGE="0" COMMENT="" />
    <EXPORT ORDINAL="653" NAME="??0QVariant@@QEAA@AEBVQUuid@@@Z" PURGE="0" COMMENT="" />
    <EXPORT ORDINAL="654" NAME="??0QVariant@@QEAA@H@Z" PURGE="0" COMMENT="" />
    <EXPORT ORDINAL="655" NAME="??0QVariant@@QEAA@I@Z" PURGE="0" COMMENT="" />
    <EXPORT ORDINAL="656" NAME="??0QVariant@@QEAA@M@Z" PURGE="0" COMMENT="" />
    <EXPORT ORDINAL="657" NAME="??0QVariant@@QEAA@N@Z" PURGE="0" COMMENT="" />
    <EXPORT ORDINAL="658" NAME="??0QVariant@@QEAA@PEBD@Z" PURGE="0" COMMENT="" />
    <EXPORT ORDINAL="659" NAME="??0QVariant@@QEAA@VQChar@@@Z" PURGE="0" COMMENT="" />
    <EXPORT ORDINAL="660" NAME="??0QVariant@@QEAA@VQDate@@@Z" PURGE="0" COMMENT="" />
    <EXPORT ORDINAL="661" NAME="??0QVariant@@QEAA@VQLatin1String@@@Z" PURGE="0" COMMENT="" />
    <EXPORT ORDINAL="662" NAME="??0QVariant@@QEAA@VQLine@@@Z" PURGE="0" COMMENT="" />
    <EXPORT ORDINAL="663" NAME="??0QVariant@@QEAA@VQLineF@@@Z" PURGE="0" COMMENT="" />
    <EXPORT ORDINAL="664" NAME="??0QVariant@@QEAA@VQMetaType@@PEBX@Z" PURGE="0" COMMENT="" />
    <EXPORT ORDINAL="665" NAME="??0QVariant@@QEAA@VQPoint@@@Z" PURGE="0" COMMENT="" />
    <EXPORT ORDINAL="666" NAME="??0QVariant@@QEAA@VQPointF@@@Z" PURGE="0" COMMENT="" />
    <EXPORT ORDINAL="667" NAME="??0QVariant@@QEAA@VQRect@@@Z" PURGE="0" COMMENT="" />
    <EXPORT ORDINAL="668" NAME="??0QVariant@@QEAA@VQRectF@@@Z" PURGE="0" COMMENT="" />
    <EXPORT ORDINAL="669" NAME="??0QVariant@@QEAA@VQSize@@@Z" PURGE="0" COMMENT="" />
    <EXPORT ORDINAL="670" NAME="??0QVariant@@QEAA@VQSizeF@@@Z" PURGE="0" COMMENT="" />
    <EXPORT ORDINAL="671" NAME="??0QVariant@@QEAA@VQTime@@@Z" PURGE="0" COMMENT="" />
    <EXPORT ORDINAL="672" NAME="??0QVariant@@QEAA@VQUuid@@@Z" PURGE="0" COMMENT="" />
    <EXPORT ORDINAL="673" NAME="??0QVariant@@QEAA@W4Type@0@@Z" PURGE="0" COMMENT="" />
    <EXPORT ORDINAL="674" NAME="??0QVariant@@QEAA@XZ" PURGE="0" COMMENT="" />
    <EXPORT ORDINAL="675" NAME="??0QVariant@@QEAA@_J@Z" PURGE="0" COMMENT="" />
    <EXPORT ORDINAL="676" NAME="??0QVariant@@QEAA@_K@Z" PURGE="0" COMMENT="" />
    <EXPORT ORDINAL="677" NAME="??0QVariant@@QEAA@_N@Z" PURGE="0" COMMENT="" />
    <EXPORT ORDINAL="678" NAME="??0QVariantAnimation@@IEAA@AEAVQVariantAnimationPrivate@@PEAVQObject@@@Z" PURGE="0" COMMENT="" />
    <EXPORT ORDINAL="679" NAME="??0QVariantAnimation@@QEAA@PEAVQObject@@@Z" PURGE="0" COMMENT="" />
    <EXPORT ORDINAL="680" NAME="??0QVariantConstPointer@@QEAA@$$QEAV0@@Z" PURGE="0" COMMENT="" />
    <EXPORT ORDINAL="681" NAME="??0QVariantConstPointer@@QEAA@AEBV0@@Z" PURGE="0" COMMENT="" />
    <EXPORT ORDINAL="682" NAME="??0QVariantConstPointer@@QEAA@VQVariant@@@Z" PURGE="0" COMMENT="" />
    <EXPORT ORDINAL="683" NAME="??0QVariantTypeCoercer@QtPrivate@@QEAA@$$QEAV01@@Z" PURGE="0" COMMENT="" />
    <EXPORT ORDINAL="684" NAME="??0QVariantTypeCoercer@QtPrivate@@QEAA@AEBV01@@Z" PURGE="0" COMMENT="" />
    <EXPORT ORDINAL="685" NAME="??0QVariantTypeCoercer@QtPrivate@@QEAA@XZ" PURGE="0" COMMENT="" />
    <EXPORT ORDINAL="686" NAME="??0QWaitCondition@@QEAA@XZ" PURGE="0" COMMENT="" />
    <EXPORT ORDINAL="687" NAME="??0QWinEventNotifier@@QEAA@PEAVQObject@@@Z" PURGE="0" COMMENT="" />
    <EXPORT ORDINAL="688" NAME="??0QWinEventNotifier@@QEAA@PEAXPEAVQObject@@@Z" PURGE="0" COMMENT="" />
    <EXPORT ORDINAL="689" NAME="??0QWinRTFactoryCacheRegistration@detail@@QEAA@P6AXXZ@Z" PURGE="0" COMMENT="" />
    <EXPORT ORDINAL="690" NAME="??0QWinRegistryKey@@QEAA@$$QEAV0@@Z" PURGE="0" COMMENT="" />
    <EXPORT ORDINAL="691" NAME="??0QWinRegistryKey@@QEAA@PEAUHKEY__@@VQStringView@@KK@Z" PURGE="0" COMMENT="" />
    <EXPORT ORDINAL="692" NAME="??0QWinRegistryKey@@QEAA@XZ" PURGE="0" COMMENT="" />
    <EXPORT ORDINAL="693" NAME="??0QWindowsPipeReader@@QEAA@PEAVQObject@@@Z" PURGE="0" COMMENT="" />
    <EXPORT ORDINAL="694" NAME="??0QWindowsPipeWriter@@QEAA@PEAXPEAVQObject@@@Z" PURGE="0" COMMENT="" />
    <EXPORT ORDINAL="695" NAME="??0QWriteLocker@@QEAA@PEAVQReadWriteLock@@@Z" PURGE="0" COMMENT="" />
    <EXPORT ORDINAL="696" NAME="??0QXmlStreamAttribute@@QEAA@$$QEAV0@@Z" PURGE="0" COMMENT="" />
    <EXPORT ORDINAL="697" NAME="??0QXmlStreamAttribute@@QEAA@AEBV0@@Z" PURGE="0" COMMENT="" />
    <EXPORT ORDINAL="698" NAME="??0QXmlStreamAttribute@@QEAA@AEBVQString@@00@Z" PURGE="0" COMMENT="" />
    <EXPORT ORDINAL="699" NAME="??0QXmlStreamAttribute@@QEAA@AEBVQString@@0@Z" PURGE="0" COMMENT="" />
    <EXPORT ORDINAL="700" NAME="??0QXmlStreamAttribute@@QEAA@XZ" PURGE="0" COMMENT="" />
    <EXPORT ORDINAL="701" NAME="??0QXmlStreamEntityDeclaration@@QEAA@$$QEAV0@@Z" PURGE="0" COMMENT="" />
    <EXPORT ORDINAL="702" NAME="??0QXmlStreamEntityDeclaration@@QEAA@AEBV0@@Z" PURGE="0" COMMENT="" />
    <EXPORT ORDINAL="703" NAME="??0QXmlStreamEntityDeclaration@@QEAA@XZ" PURGE="0" COMMENT="" />
    <EXPORT ORDINAL="704" NAME="??0QXmlStreamEntityResolver@@QEAA@AEBV0@@Z" PURGE="0" COMMENT="" />
    <EXPORT ORDINAL="705" NAME="??0QXmlStreamEntityResolver@@QEAA@XZ" PURGE="0" COMMENT="" />
    <EXPORT ORDINAL="706" NAME="??0QXmlStreamNamespaceDeclaration@@QEAA@$$QEAV0@@Z" PURGE="0" COMMENT="" />
    <EXPORT ORDINAL="707" NAME="??0QXmlStreamNamespaceDeclaration@@QEAA@AEBV0@@Z" PURGE="0" COMMENT="" />
    <EXPORT ORDINAL="708" NAME="??0QXmlStreamNamespaceDeclaration@@QEAA@AEBVQString@@0@Z" PURGE="0" COMMENT="" />
    <EXPORT ORDINAL="709" NAME="??0QXmlStreamNamespaceDeclaration@@QEAA@XZ" PURGE="0" COMMENT="" />
    <EXPORT ORDINAL="710" NAME="??0QXmlStreamNotationDeclaration@@QEAA@$$QEAV0@@Z" PURGE="0" COMMENT="" />
    <EXPORT ORDINAL="711" NAME="??0QXmlStreamNotationDeclaration@@QEAA@AEBV0@@Z" PURGE="0" COMMENT="" />
    <EXPORT ORDINAL="712" NAME="??0QXmlStreamNotationDeclaration@@QEAA@XZ" PURGE="0" COMMENT="" />
    <EXPORT ORDINAL="713" NAME="??0QXmlStreamReader@@AEAA@AEBVQByteArray@@UPrivateConstructorTag@0@@Z" PURGE="0" COMMENT="" />
    <EXPORT ORDINAL="714" NAME="??0QXmlStreamReader@@QEAA@AEBVQByteArray@@@Z" PURGE="0" COMMENT="" />
    <EXPORT ORDINAL="715" NAME="??0QXmlStreamReader@@QEAA@AEBVQString@@@Z" PURGE="0" COMMENT="" />
    <EXPORT ORDINAL="716" NAME="??0QXmlStreamReader@@QEAA@PEAVQIODevice@@@Z" PURGE="0" COMMENT="" />
    <EXPORT ORDINAL="717" NAME="??0QXmlStreamReader@@QEAA@PEBD@Z" PURGE="0" COMMENT="" />
    <EXPORT ORDINAL="718" NAME="??0QXmlStreamReader@@QEAA@VQAnyStringView@@@Z" PURGE="0" COMMENT="" />
    <EXPORT ORDINAL="719" NAME="??0QXmlStreamReader@@QEAA@XZ" PURGE="0" COMMENT="" />
    <EXPORT ORDINAL="720" NAME="??0QXmlStreamWriter@@QEAA@PEAVQByteArray@@@Z" PURGE="0" COMMENT="" />
    <EXPORT ORDINAL="721" NAME="??0QXmlStreamWriter@@QEAA@PEAVQIODevice@@@Z" PURGE="0" COMMENT="" />
    <EXPORT ORDINAL="722" NAME="??0QXmlStreamWriter@@QEAA@PEAVQString@@@Z" PURGE="0" COMMENT="" />
    <EXPORT ORDINAL="723" NAME="??0QXmlStreamWriter@@QEAA@XZ" PURGE="0" COMMENT="" />
    <EXPORT ORDINAL="724" NAME="??0QZipReader@@QEAA@AEBVQString@@V?$QFlags@W4OpenModeFlag@QIODeviceBase@@@@@Z" PURGE="0" COMMENT="" />
    <EXPORT ORDINAL="725" NAME="??0QZipReader@@QEAA@PEAVQIODevice@@@Z" PURGE="0" COMMENT="" />
    <EXPORT ORDINAL="726" NAME="??0QZipWriter@@QEAA@AEBVQString@@V?$QFlags@W4OpenModeFlag@QIODeviceBase@@@@@Z" PURGE="0" COMMENT="" />
    <EXPORT ORDINAL="727" NAME="??0QZipWriter@@QEAA@PEAVQIODevice@@@Z" PURGE="0" COMMENT="" />
    <EXPORT ORDINAL="728" NAME="??0ResultIteratorBase@QtPrivate@@QEAA@Vconst_iterator@?$QMap@HVResultItem@QtPrivate@@@@H@Z" PURGE="0" COMMENT="" />
    <EXPORT ORDINAL="729" NAME="??0ResultIteratorBase@QtPrivate@@QEAA@XZ" PURGE="0" COMMENT="" />
    <EXPORT ORDINAL="730" NAME="??0ResultStoreBase@QtPrivate@@QEAA@AEBV01@@Z" PURGE="0" COMMENT="" />
    <EXPORT ORDINAL="731" NAME="??0ResultStoreBase@QtPrivate@@QEAA@XZ" PURGE="0" COMMENT="" />
    <EXPORT ORDINAL="732" NAME="??1?$QBaseIterator@VQMetaAssociation@@@@IEAA@XZ" PURGE="0" COMMENT="" />
    <EXPORT ORDINAL="733" NAME="??1?$QBaseIterator@VQMetaSequence@@@@IEAA@XZ" PURGE="0" COMMENT="" />
    <EXPORT ORDINAL="734" NAME="??1?$QConstIterator@VQMetaAssociation@@@@QEAA@XZ" PURGE="0" COMMENT="" />
    <EXPORT ORDINAL="735" NAME="??1?$QConstIterator@VQMetaSequence@@@@QEAA@XZ" PURGE="0" COMMENT="" />
    <EXPORT ORDINAL="736" NAME="??1?$QExplicitlySharedDataPointer@UQRegularExpressionMatchIteratorPrivate@@@@QEAA@XZ" PURGE="0" COMMENT="" />
    <EXPORT ORDINAL="737" NAME="??1?$QExplicitlySharedDataPointer@UQRegularExpressionMatchPrivate@@@@QEAA@XZ" PURGE="0" COMMENT="" />
    <EXPORT ORDINAL="738" NAME="??1?$QExplicitlySharedDataPointer@UQRegularExpressionPrivate@@@@QEAA@XZ" PURGE="0" COMMENT="" />
    <EXPORT ORDINAL="739" NAME="??1?$QIterator@VQMetaAssociation@@@@QEAA@XZ" PURGE="0" COMMENT="" />
    <EXPORT ORDINAL="740" NAME="??1?$QIterator@VQMetaSequence@@@@QEAA@XZ" PURGE="0" COMMENT="" />
    <EXPORT ORDINAL="741" NAME="??1Connection@QMetaObject@@QEAA@XZ" PURGE="0" COMMENT="" />
    <EXPORT ORDINAL="742" NAME="??1ExceptionStore@QtPrivate@@QEAA@XZ" PURGE="2147483647" COMMENT="" />
    <EXPORT ORDINAL="743" NAME="??1QAbstractAnimation@@UEAA@XZ" PURGE="0" COMMENT="" />
    <EXPORT ORDINAL="744" NAME="??1QAbstractAnimationPrivate@@UEAA@XZ" PURGE="0" COMMENT="" />
    <EXPORT ORDINAL="745" NAME="??1QAbstractAnimationTimer@@UEAA@XZ" PURGE="0" COMMENT="" />
    <EXPORT ORDINAL="746" NAME="??1QAbstractDynamicMetaObject@@UEAA@XZ" PURGE="0" COMMENT="" />
    <EXPORT ORDINAL="747" NAME="??1QAbstractEventDispatcher@@UEAA@XZ" PURGE="0" COMMENT="" />
    <EXPORT ORDINAL="748" NAME="??1QAbstractEventDispatcherPrivate@@UEAA@XZ" PURGE="0" COMMENT="" />
    <EXPORT ORDINAL="749" NAME="??1QAbstractFileEngine@@UEAA@XZ" PURGE="0" COMMENT="" />
    <EXPORT ORDINAL="750" NAME="??1QAbstractFileEngineHandler@@UEAA@XZ" PURGE="0" COMMENT="" />
    <EXPORT ORDINAL="751" NAME="??1QAbstractFileEngineIterator@@UEAA@XZ" PURGE="0" COMMENT="" />
    <EXPORT ORDINAL="752" NAME="??1QAbstractItemModel@@UEAA@XZ" PURGE="0" COMMENT="" />
    <EXPORT ORDINAL="753" NAME="??1QAbstractItemModelPrivate@@UEAA@XZ" PURGE="0" COMMENT="" />
    <EXPORT ORDINAL="754" NAME="??1QAbstractListModel@@UEAA@XZ" PURGE="0" COMMENT="" />
    <EXPORT ORDINAL="755" NAME="??1QAbstractMetaCallEvent@@UEAA@XZ" PURGE="0" COMMENT="" />
    <EXPORT ORDINAL="756" NAME="??1QAbstractNativeEventFilter@@UEAA@XZ" PURGE="0" COMMENT="" />
    <EXPORT ORDINAL="757" NAME="??1QAbstractProxyModel@@UEAA@XZ" PURGE="0" COMMENT="" />
    <EXPORT ORDINAL="758" NAME="??1QAbstractProxyModelPrivate@@UEAA@XZ" PURGE="0" COMMENT="" />
    <EXPORT ORDINAL="759" NAME="??1QAbstractTableModel@@UEAA@XZ" PURGE="0" COMMENT="" />
    <EXPORT ORDINAL="760" NAME="??1QAnimationDriver@@UEAA@XZ" PURGE="0" COMMENT="" />
    <EXPORT ORDINAL="761" NAME="??1QAnimationDriverPrivate@@UEAA@XZ" PURGE="0" COMMENT="" />
    <EXPORT ORDINAL="762" NAME="??1QAnimationGroup@@UEAA@XZ" PURGE="0" COMMENT="" />
    <EXPORT ORDINAL="763" NAME="??1QAssociativeConstIterator@@QEAA@XZ" PURGE="0" COMMENT="" />
    <EXPORT ORDINAL="764" NAME="??1QAssociativeIterator@@QEAA@XZ" PURGE="0" COMMENT="" />
    <EXPORT ORDINAL="765" NAME="??1QBasicTimer@@QEAA@XZ" PURGE="0" COMMENT="" />
    <EXPORT ORDINAL="766" NAME="??1QBindingStorage@@QEAA@XZ" PURGE="0" COMMENT="" />
    <EXPORT ORDINAL="767" NAME="??1QBitArray@@QEAA@XZ" PURGE="0" COMMENT="" />
    <EXPORT ORDINAL="768" NAME="??1QBluetoothPermission@@QEAA@XZ" PURGE="0" COMMENT="" />
    <EXPORT ORDINAL="769" NAME="??1QBuffer@@UEAA@XZ" PURGE="0" COMMENT="" />
    <EXPORT ORDINAL="770" NAME="??1QByteArray@@QEAA@XZ" PURGE="0" COMMENT="" />
    <EXPORT ORDINAL="771" NAME="??1QByteArrayMatcher@@QEAA@XZ" PURGE="0" COMMENT="" />
    <EXPORT ORDINAL="772" NAME="??1QCalendarBackend@@UEAA@XZ" PURGE="0" COMMENT="" />
    <EXPORT ORDINAL="773" NAME="??1QCalendarPermission@@QEAA@XZ" PURGE="0" COMMENT="" />
    <EXPORT ORDINAL="774" NAME="??1QCameraPermission@@QEAA@XZ" PURGE="0" COMMENT="" />
    <EXPORT ORDINAL="775" NAME="??1QCborArray@@QEAA@XZ" PURGE="0" COMMENT="" />
    <EXPORT ORDINAL="776" NAME="??1QCborMap@@QEAA@XZ" PURGE="0" COMMENT="" />
    <EXPORT ORDINAL="777" NAME="??1QCborStreamReader@@QEAA@XZ" PURGE="0" COMMENT="" />
    <EXPORT ORDINAL="778" NAME="??1QCborStreamWriter@@QEAA@XZ" PURGE="0" COMMENT="" />
    <EXPORT ORDINAL="779" NAME="??1QCborValue@@QEAA@XZ" PURGE="0" COMMENT="" />
    <EXPORT ORDINAL="780" NAME="??1QChildEvent@@UEAA@XZ" PURGE="0" COMMENT="" />
    <EXPORT ORDINAL="781" NAME="??1QCollator@@QEAA@XZ" PURGE="0" COMMENT="" />
    <EXPORT ORDINAL="782" NAME="??1QCollatorSortKey@@QEAA@XZ" PURGE="0" COMMENT="" />
    <EXPORT ORDINAL="783" NAME="??1QComHelper@@QEAA@XZ" PURGE="0" COMMENT="" />
    <EXPORT ORDINAL="784" NAME="??1QCommandLineOption@@QEAA@XZ" PURGE="0" COMMENT="" />
    <EXPORT ORDINAL="785" NAME="??1QCommandLineParser@@QEAA@XZ" PURGE="0" COMMENT="" />
    <EXPORT ORDINAL="786" NAME="??1QConcatenateTablesProxyModel@@UEAA@XZ" PURGE="0" COMMENT="" />
    <EXPORT ORDINAL="787" NAME="??1QContactsPermission@@QEAA@XZ" PURGE="0" COMMENT="" />
    <EXPORT ORDINAL="788" NAME="??1QCoreApplication@@UEAA@XZ" PURGE="0" COMMENT="" />
    <EXPORT ORDINAL="789" NAME="??1QCoreApplicationPrivate@@UEAA@XZ" PURGE="0" COMMENT="" />
    <EXPORT ORDINAL="790" NAME="??1QCryptographicHash@@QEAA@XZ" PURGE="0" COMMENT="" />
    <EXPORT ORDINAL="791" NAME="??1QDaemonThread@@UEAA@XZ" PURGE="0" COMMENT="" />
    <EXPORT ORDINAL="792" NAME="??1QDataStream@@QEAA@XZ" PURGE="2147483647" COMMENT="" />
    <EXPORT ORDINAL="793" NAME="??1QDateTime@@QEAA@XZ" PURGE="0" COMMENT="" />
    <EXPORT ORDINAL="794" NAME="??1QDateTimeParser@@UEAA@XZ" PURGE="0" COMMENT="" />
    <EXPORT ORDINAL="795" NAME="??1QDebug@@QEAA@XZ" PURGE="0" COMMENT="" />
    <EXPORT ORDINAL="796" NAME="??1QDebugStateSaver@@QEAA@XZ" PURGE="2147483647" COMMENT="" />
    <EXPORT ORDINAL="797" NAME="??1QDir@@QEAA@XZ" PURGE="0" COMMENT="" />
    <EXPORT ORDINAL="798" NAME="??1QDirIterator@@QEAA@XZ" PURGE="0" COMMENT="" />
    <EXPORT ORDINAL="799" NAME="??1QDynamicMetaObjectData@@UEAA@XZ" PURGE="0" COMMENT="" />
    <EXPORT ORDINAL="800" NAME="??1QDynamicPropertyChangeEvent@@UEAA@XZ" PURGE="0" COMMENT="" />
    <EXPORT ORDINAL="801" NAME="??1QEasingCurve@@QEAA@XZ" PURGE="0" COMMENT="" />
    <EXPORT ORDINAL="802" NAME="??1QEvent@@UEAA@XZ" PURGE="0" COMMENT="" />
    <EXPORT ORDINAL="803" NAME="??1QEventDispatcherWin32@@UEAA@XZ" PURGE="0" COMMENT="" />
    <EXPORT ORDINAL="804" NAME="??1QEventDispatcherWin32Private@@UEAA@XZ" PURGE="0" COMMENT="" />
    <EXPORT ORDINAL="805" NAME="??1QEventLoop@@UEAA@XZ" PURGE="0" COMMENT="" />
    <EXPORT ORDINAL="806" NAME="??1QEventLoopLocker@@QEAA@XZ" PURGE="0" COMMENT="" />
    <EXPORT ORDINAL="807" NAME="??1QException@@UEAA@XZ" PURGE="2147483647" COMMENT="" />
    <EXPORT ORDINAL="808" NAME="??1QFSFileEngine@@UEAA@XZ" PURGE="0" COMMENT="" />
    <EXPORT ORDINAL="809" NAME="??1QFactoryInterface@@UEAA@XZ" PURGE="0" COMMENT="" />
    <EXPORT ORDINAL="810" NAME="??1QFactoryLoader@@UEAA@XZ" PURGE="0" COMMENT="" />
    <EXPORT ORDINAL="811" NAME="??1QFile@@UEAA@XZ" PURGE="0" COMMENT="" />
    <EXPORT ORDINAL="812" NAME="??1QFileDevice@@UEAA@XZ" PURGE="0" COMMENT="" />
    <EXPORT ORDINAL="813" NAME="??1QFileInfo@@QEAA@XZ" PURGE="0" COMMENT="" />
    <EXPORT ORDINAL="814" NAME="??1QFileSelector@@UEAA@XZ" PURGE="0" COMMENT="" />
    <EXPORT ORDINAL="815" NAME="??1QFileSelectorPrivate@@UEAA@XZ" PURGE="0" COMMENT="" />
    <EXPORT ORDINAL="816" NAME="??1QFileSystemWatcher@@UEAA@XZ" PURGE="0" COMMENT="" />
    <EXPORT ORDINAL="817" NAME="??1QFutureCallOutEvent@@UEAA@XZ" PURGE="0" COMMENT="" />
    <EXPORT ORDINAL="818" NAME="??1QFutureCallOutInterface@@UEAA@XZ" PURGE="0" COMMENT="" />
    <EXPORT ORDINAL="819" NAME="??1QFutureInterfaceBase@@UEAA@XZ" PURGE="0" COMMENT="" />
    <EXPORT ORDINAL="820" NAME="??1QFutureWatcherBase@@UEAA@XZ" PURGE="0" COMMENT="" />
    <EXPORT ORDINAL="821" NAME="??1QGenericRunnable@QRunnable@@UEAA@XZ" PURGE="0" COMMENT="" />
    <EXPORT ORDINAL="822" NAME="??1QGregorianCalendar@@UEAA@XZ" PURGE="0" COMMENT="" />
    <EXPORT ORDINAL="823" NAME="??1QHijriCalendar@@UEAA@XZ" PURGE="0" COMMENT="" />
    <EXPORT ORDINAL="824" NAME="??1QIODevice@@UEAA@XZ" PURGE="0" COMMENT="" />
    <EXPORT ORDINAL="825" NAME="??1QIODevicePrivate@@UEAA@XZ" PURGE="0" COMMENT="" />
    <EXPORT ORDINAL="826" NAME="??1QIdentityProxyModel@@UEAA@XZ" PURGE="0" COMMENT="" />
    <EXPORT ORDINAL="827" NAME="??1QIdentityProxyModelPrivate@@UEAA@XZ" PURGE="0" COMMENT="" />
    <EXPORT ORDINAL="828" NAME="??1QIslamicCivilCalendar@@UEAA@XZ" PURGE="0" COMMENT="" />
    <EXPORT ORDINAL="829" NAME="??1QItemSelectionModel@@UEAA@XZ" PURGE="0" COMMENT="" />
    <EXPORT ORDINAL="830" NAME="??1QItemSelectionRange@@QEAA@XZ" PURGE="0" COMMENT="" />
    <EXPORT ORDINAL="831" NAME="??1QJalaliCalendar@@UEAA@XZ" PURGE="0" COMMENT="" />
    <EXPORT ORDINAL="832" NAME="??1QJsonArray@@QEAA@XZ" PURGE="0" COMMENT="" />
    <EXPORT ORDINAL="833" NAME="??1QJsonDocument@@QEAA@XZ" PURGE="0" COMMENT="" />
    <EXPORT ORDINAL="834" NAME="??1QJsonObject@@QEAA@XZ" PURGE="0" COMMENT="" />
    <EXPORT ORDINAL="835" NAME="??1QJsonValue@@QEAA@XZ" PURGE="0" COMMENT="" />
    <EXPORT ORDINAL="836" NAME="??1QJulianCalendar@@UEAA@XZ" PURGE="0" COMMENT="" />
    <EXPORT ORDINAL="837" NAME="??1QLatin1StringMatcher@@QEAA@XZ" PURGE="0" COMMENT="" />
    <EXPORT ORDINAL="838" NAME="??1QLibrary@@UEAA@XZ" PURGE="0" COMMENT="" />
    <EXPORT ORDINAL="839" NAME="??1QLocale@@QEAA@XZ" PURGE="0" COMMENT="" />
    <EXPORT ORDINAL="840" NAME="??1QLocationPermission@@QEAA@XZ" PURGE="0" COMMENT="" />
    <EXPORT ORDINAL="841" NAME="??1QLockFile@@QEAA@XZ" PURGE="0" COMMENT="" />
    <EXPORT ORDINAL="842" NAME="??1QLoggingCategory@@QEAA@XZ" PURGE="0" COMMENT="" />
    <EXPORT ORDINAL="843" NAME="??1QMessageAuthenticationCode@@QEAA@XZ" PURGE="0" COMMENT="" />
    <EXPORT ORDINAL="844" NAME="??1QMetaCallEvent@@UEAA@XZ" PURGE="0" COMMENT="" />
    <EXPORT ORDINAL="845" NAME="??1QMetaObjectBuilder@@UEAA@XZ" PURGE="0" COMMENT="" />
    <EXPORT ORDINAL="846" NAME="??1QMetaStringTable@@QEAA@XZ" PURGE="0" COMMENT="" />
    <EXPORT ORDINAL="847" NAME="??1QMicrophonePermission@@QEAA@XZ" PURGE="0" COMMENT="" />
    <EXPORT ORDINAL="848" NAME="??1QMilankovicCalendar@@UEAA@XZ" PURGE="0" COMMENT="" />
    <EXPORT ORDINAL="849" NAME="??1QMimeData@@UEAA@XZ" PURGE="0" COMMENT="" />
    <EXPORT ORDINAL="850" NAME="??1QMimeDatabase@@QEAA@XZ" PURGE="0" COMMENT="" />
    <EXPORT ORDINAL="851" NAME="??1QMimeType@@QEAA@XZ" PURGE="0" COMMENT="" />
    <EXPORT ORDINAL="852" NAME="??1QMutex@@QEAA@XZ" PURGE="0" COMMENT="" />
    <EXPORT ORDINAL="853" NAME="??1QNonContiguousByteDevice@@UEAA@XZ" PURGE="0" COMMENT="" />
    <EXPORT ORDINAL="854" NAME="??1QObject@@UEAA@XZ" PURGE="0" COMMENT="" />
    <EXPORT ORDINAL="855" NAME="??1QObjectCleanupHandler@@UEAA@XZ" PURGE="0" COMMENT="" />
    <EXPORT ORDINAL="856" NAME="??1QObjectData@@UEAA@XZ" PURGE="0" COMMENT="" />
    <EXPORT ORDINAL="857" NAME="??1QObjectPrivate@@UEAA@XZ" PURGE="0" COMMENT="" />
    <EXPORT ORDINAL="858" NAME="??1QParallelAnimationGroup@@UEAA@XZ" PURGE="0" COMMENT="" />
    <EXPORT ORDINAL="859" NAME="??1QPauseAnimation@@UEAA@XZ" PURGE="0" COMMENT="" />
    <EXPORT ORDINAL="860" NAME="??1QPermissionPlugin@@UEAA@XZ" PURGE="0" COMMENT="" />
    <EXPORT ORDINAL="861" NAME="??1QPersistentModelIndex@@QEAA@XZ" PURGE="0" COMMENT="" />
    <EXPORT ORDINAL="862" NAME="??1QPluginLoader@@UEAA@XZ" PURGE="0" COMMENT="" />
    <EXPORT ORDINAL="863" NAME="??1QProcess@@UEAA@XZ" PURGE="0" COMMENT="" />
    <EXPORT ORDINAL="864" NAME="??1QProcessEnvironment@@QEAA@XZ" PURGE="0" COMMENT="" />
    <EXPORT ORDINAL="865" NAME="??1QPropertyAnimation@@UEAA@XZ" PURGE="0" COMMENT="" />
    <EXPORT ORDINAL="866" NAME="??1QPropertyBindingData@QtPrivate@@QEAA@XZ" PURGE="0" COMMENT="" />
    <EXPORT ORDINAL="867" NAME="??1QPropertyBindingError@@QEAA@XZ" PURGE="0" COMMENT="" />
    <EXPORT ORDINAL="868" NAME="??1QPropertyBindingPrivate@@QEAA@XZ" PURGE="0" COMMENT="" />
    <EXPORT ORDINAL="869" NAME="??1QPropertyObserver@@QEAA@XZ" PURGE="0" COMMENT="" />
    <EXPORT ORDINAL="870" NAME="??1QReadLocker@@QEAA@XZ" PURGE="0" COMMENT="" />
    <EXPORT ORDINAL="871" NAME="??1QReadWriteLock@@QEAA@XZ" PURGE="0" COMMENT="" />
    <EXPORT ORDINAL="872" NAME="??1QRecursiveMutex@@QEAA@XZ" PURGE="0" COMMENT="" />
    <EXPORT ORDINAL="873" NAME="??1QRegularExpression@@QEAA@XZ" PURGE="0" COMMENT="" />
    <EXPORT ORDINAL="874" NAME="??1QRegularExpressionMatch@@QEAA@XZ" PURGE="0" COMMENT="" />
    <EXPORT ORDINAL="875" NAME="??1QRegularExpressionMatchIterator@@QEAA@XZ" PURGE="0" COMMENT="" />
    <EXPORT ORDINAL="876" NAME="??1QResource@@QEAA@XZ" PURGE="0" COMMENT="" />
    <EXPORT ORDINAL="877" NAME="??1QRomanCalendar@@UEAA@XZ" PURGE="0" COMMENT="" />
    <EXPORT ORDINAL="878" NAME="??1QRunnable@@UEAA@XZ" PURGE="0" COMMENT="" />
    <EXPORT ORDINAL="879" NAME="??1QSaveFile@@UEAA@XZ" PURGE="0" COMMENT="" />
    <EXPORT ORDINAL="880" NAME="??1QSemaphore@@QEAA@XZ" PURGE="0" COMMENT="" />
    <EXPORT ORDINAL="881" NAME="??1QSequentialAnimationGroup@@UEAA@XZ" PURGE="0" COMMENT="" />
    <EXPORT ORDINAL="882" NAME="??1QSequentialConstIterator@@QEAA@XZ" PURGE="0" COMMENT="" />
    <EXPORT ORDINAL="883" NAME="??1QSequentialIterator@@QEAA@XZ" PURGE="0" COMMENT="" />
    <EXPORT ORDINAL="884" NAME="??1QSettings@@UEAA@XZ" PURGE="0" COMMENT="" />
    <EXPORT ORDINAL="885" NAME="??1QSharedMemory@@UEAA@XZ" PURGE="0" COMMENT="" />
    <EXPORT ORDINAL="886" NAME="??1QSignalMapper@@UEAA@XZ" PURGE="0" COMMENT="" />
    <EXPORT ORDINAL="887" NAME="??1QSocketNotifier@@UEAA@XZ" PURGE="0" COMMENT="" />
    <EXPORT ORDINAL="888" NAME="??1QSortFilterProxyModel@@UEAA@XZ" PURGE="0" COMMENT="" />
    <EXPORT ORDINAL="889" NAME="??1QStorageInfo@@QEAA@XZ" PURGE="0" COMMENT="" />
    <EXPORT ORDINAL="890" NAME="??1QString@@QEAA@XZ" PURGE="0" COMMENT="" />
    <EXPORT ORDINAL="891" NAME="??1QStringListModel@@UEAA@XZ" PURGE="0" COMMENT="" />
    <EXPORT ORDINAL="892" NAME="??1QStringMatcher@@QEAA@XZ" PURGE="0" COMMENT="" />
    <EXPORT ORDINAL="893" NAME="??1QSystemLocale@@UEAA@XZ" PURGE="0" COMMENT="" />
    <EXPORT ORDINAL="894" NAME="??1QSystemSemaphore@@QEAA@XZ" PURGE="0" COMMENT="" />
    <EXPORT ORDINAL="895" NAME="??1QTemporaryDir@@QEAA@XZ" PURGE="0" COMMENT="" />
    <EXPORT ORDINAL="896" NAME="??1QTemporaryFile@@UEAA@XZ" PURGE="0" COMMENT="" />
    <EXPORT ORDINAL="897" NAME="??1QTextBoundaryFinder@@QEAA@XZ" PURGE="0" COMMENT="" />
    <EXPORT ORDINAL="898" NAME="??1QTextStream@@UEAA@XZ" PURGE="0" COMMENT="" />
    <EXPORT ORDINAL="899" NAME="??1QThread@@UEAA@XZ" PURGE="0" COMMENT="" />
    <EXPORT ORDINAL="900" NAME="??1QThreadPool@@UEAA@XZ" PURGE="0" COMMENT="" />
    <EXPORT ORDINAL="901" NAME="??1QThreadPoolPrivate@@UEAA@XZ" PURGE="0" COMMENT="" />
    <EXPORT ORDINAL="902" NAME="??1QThreadStorageData@@QEAA@XZ" PURGE="0" COMMENT="" />
    <EXPORT ORDINAL="903" NAME="??1QTimeLine@@UEAA@XZ" PURGE="0" COMMENT="" />
    <EXPORT ORDINAL="904" NAME="??1QTimeZone@@QEAA@XZ" PURGE="0" COMMENT="" />
    <EXPORT ORDINAL="905" NAME="??1QTimer@@UEAA@XZ" PURGE="0" COMMENT="" />
    <EXPORT ORDINAL="906" NAME="??1QTimerEvent@@UEAA@XZ" PURGE="0" COMMENT="" />
    <EXPORT ORDINAL="907" NAME="??1QTranslator@@UEAA@XZ" PURGE="0" COMMENT="" />
    <EXPORT ORDINAL="908" NAME="??1QTransposeProxyModel@@UEAA@XZ" PURGE="0" COMMENT="" />
    <EXPORT ORDINAL="909" NAME="??1QUnhandledException@@UEAA@XZ" PURGE="2147483647" COMMENT="" />
    <EXPORT ORDINAL="910" NAME="??1QUnifiedTimer@@UEAA@XZ" PURGE="0" COMMENT="" />
    <EXPORT ORDINAL="911" NAME="??1QUntypedPropertyBinding@@QEAA@XZ" PURGE="0" COMMENT="" />
    <EXPORT ORDINAL="912" NAME="??1QUrl@@QEAA@XZ" PURGE="0" COMMENT="" />
    <EXPORT ORDINAL="913" NAME="??1QUrlQuery@@QEAA@XZ" PURGE="0" COMMENT="" />
    <EXPORT ORDINAL="914" NAME="??1QVariant@@QEAA@XZ" PURGE="0" COMMENT="" />
    <EXPORT ORDINAL="915" NAME="??1QVariantAnimation@@UEAA@XZ" PURGE="0" COMMENT="" />
    <EXPORT ORDINAL="916" NAME="??1QVariantConstPointer@@QEAA@XZ" PURGE="0" COMMENT="" />
    <EXPORT ORDINAL="917" NAME="??1QVariantTypeCoercer@QtPrivate@@QEAA@XZ" PURGE="0" COMMENT="" />
    <EXPORT ORDINAL="918" NAME="??1QWaitCondition@@QEAA@XZ" PURGE="0" COMMENT="" />
    <EXPORT ORDINAL="919" NAME="??1QWinEventNotifier@@UEAA@XZ" PURGE="0" COMMENT="" />
    <EXPORT ORDINAL="920" NAME="??1QWinRTFactoryCacheRegistration@detail@@QEAA@XZ" PURGE="0" COMMENT="" />
    <EXPORT ORDINAL="921" NAME="??1QWinRegistryKey@@QEAA@XZ" PURGE="0" COMMENT="" />
    <EXPORT ORDINAL="922" NAME="??1QWindowsPipeReader@@UEAA@XZ" PURGE="0" COMMENT="" />
    <EXPORT ORDINAL="923" NAME="??1QWindowsPipeWriter@@UEAA@XZ" PURGE="0" COMMENT="" />
    <EXPORT ORDINAL="924" NAME="??1QWriteLocker@@QEAA@XZ" PURGE="0" COMMENT="" />
    <EXPORT ORDINAL="925" NAME="??1QXmlStreamAttribute@@QEAA@XZ" PURGE="0" COMMENT="" />
    <EXPORT ORDINAL="926" NAME="??1QXmlStreamEntityDeclaration@@QEAA@XZ" PURGE="0" COMMENT="" />
    <EXPORT ORDINAL="927" NAME="??1QXmlStreamEntityResolver@@UEAA@XZ" PURGE="0" COMMENT="" />
    <EXPORT ORDINAL="928" NAME="??1QXmlStreamNamespaceDeclaration@@QEAA@XZ" PURGE="0" COMMENT="" />
    <EXPORT ORDINAL="929" NAME="??1QXmlStreamNotationDeclaration@@QEAA@XZ" PURGE="0" COMMENT="" />
    <EXPORT ORDINAL="930" NAME="??1QXmlStreamReader@@QEAA@XZ" PURGE="0" COMMENT="" />
    <EXPORT ORDINAL="931" NAME="??1QXmlStreamWriter@@QEAA@XZ" PURGE="0" COMMENT="" />
    <EXPORT ORDINAL="932" NAME="??1QZipReader@@QEAA@XZ" PURGE="0" COMMENT="" />
    <EXPORT ORDINAL="933" NAME="??1QZipWriter@@QEAA@XZ" PURGE="0" COMMENT="" />
    <EXPORT ORDINAL="934" NAME="??1ResultStoreBase@QtPrivate@@UEAA@XZ" PURGE="0" COMMENT="" />
    <EXPORT ORDINAL="935" NAME="??4?$QBaseIterator@VQMetaAssociation@@@@IEAAAEAV0@$$QEAV0@@Z" PURGE="0" COMMENT="" />
    <EXPORT ORDINAL="936" NAME="??4?$QBaseIterator@VQMetaAssociation@@@@IEAAAEAV0@AEBV0@@Z" PURGE="0" COMMENT="" />
    <EXPORT ORDINAL="937" NAME="??4?$QBaseIterator@VQMetaSequence@@@@IEAAAEAV0@$$QEAV0@@Z" PURGE="0" COMMENT="" />
    <EXPORT ORDINAL="938" NAME="??4?$QBaseIterator@VQMetaSequence@@@@IEAAAEAV0@AEBV0@@Z" PURGE="0" COMMENT="" />
    <EXPORT ORDINAL="939" NAME="??4?$QConstIterator@VQMetaAssociation@@@@QEAAAEAU0@$$QEAU0@@Z" PURGE="0" COMMENT="" />
    <EXPORT ORDINAL="940" NAME="??4?$QConstIterator@VQMetaAssociation@@@@QEAAAEAU0@AEBU0@@Z" PURGE="0" COMMENT="" />
    <EXPORT ORDINAL="941" NAME="??4?$QConstIterator@VQMetaSequence@@@@QEAAAEAU0@$$QEAU0@@Z" PURGE="0" COMMENT="" />
    <EXPORT ORDINAL="942" NAME="??4?$QConstIterator@VQMetaSequence@@@@QEAAAEAU0@AEBU0@@Z" PURGE="0" COMMENT="" />
    <EXPORT ORDINAL="943" NAME="??4?$QIterable@VQMetaAssociation@@@@QEAAAEAV0@$$QEAV0@@Z" PURGE="0" COMMENT="" />
    <EXPORT ORDINAL="944" NAME="??4?$QIterable@VQMetaAssociation@@@@QEAAAEAV0@AEBV0@@Z" PURGE="0" COMMENT="" />
    <EXPORT ORDINAL="945" NAME="??4?$QIterable@VQMetaSequence@@@@QEAAAEAV0@$$QEAV0@@Z" PURGE="0" COMMENT="" />
    <EXPORT ORDINAL="946" NAME="??4?$QIterable@VQMetaSequence@@@@QEAAAEAV0@AEBV0@@Z" PURGE="0" COMMENT="" />
    <EXPORT ORDINAL="947" NAME="??4?$QIterator@VQMetaAssociation@@@@QEAAAEAU0@$$QEAU0@@Z" PURGE="0" COMMENT="" />
    <EXPORT ORDINAL="948" NAME="??4?$QIterator@VQMetaAssociation@@@@QEAAAEAU0@AEBU0@@Z" PURGE="0" COMMENT="" />
    <EXPORT ORDINAL="949" NAME="??4?$QIterator@VQMetaSequence@@@@QEAAAEAU0@$$QEAU0@@Z" PURGE="0" COMMENT="" />
    <EXPORT ORDINAL="950" NAME="??4?$QIterator@VQMetaSequence@@@@QEAAAEAU0@AEBU0@@Z" PURGE="0" COMMENT="" />
    <EXPORT ORDINAL="951" NAME="??4Connection@QMetaObject@@QEAAAEAV01@$$QEAV01@@Z" PURGE="0" COMMENT="" />
    <EXPORT ORDINAL="952" NAME="??4Connection@QMetaObject@@QEAAAEAV01@AEBV01@@Z" PURGE="0" COMMENT="" />
    <EXPORT ORDINAL="953" NAME="??4ExceptionStore@QtPrivate@@QEAAAEAV01@$$QEAV01@@Z" PURGE="0" COMMENT="" />
    <EXPORT ORDINAL="954" NAME="??4ExceptionStore@QtPrivate@@QEAAAEAV01@AEBV01@@Z" PURGE="0" COMMENT="" />
    <EXPORT ORDINAL="955" NAME="??4QAbstractConcatenable@@QEAAAEAU0@$$QEAU0@@Z" PURGE="0" COMMENT="" />
    <EXPORT ORDINAL="956" NAME="??4QAbstractConcatenable@@QEAAAEAU0@AEBU0@@Z" PURGE="0" COMMENT="" />
    <EXPORT ORDINAL="957" NAME="??4QAbstractDeclarativeData@@QEAAAEAV0@$$QEAV0@@Z" PURGE="0" COMMENT="" />
    <EXPORT ORDINAL="958" NAME="??4QAbstractDeclarativeData@@QEAAAEAV0@AEBV0@@Z" PURGE="0" COMMENT="" />
    <EXPORT ORDINAL="959" NAME="??4QAbstractDynamicMetaObject@@QEAAAEAU0@AEBU0@@Z" PURGE="0" COMMENT="" />
    <EXPORT ORDINAL="960" NAME="??4QAbstractFileEngineHandler@@QEAAAEAV0@AEBV0@@Z" PURGE="0" COMMENT="" />
    <EXPORT ORDINAL="961" NAME="??4QAbstractMetaCallEvent@@QEAAAEAV0@AEBV0@@Z" PURGE="0" COMMENT="" />
    <EXPORT ORDINAL="962" NAME="??4QAssociativeConstIterator@@QEAAAEAV0@$$QEAV0@@Z" PURGE="0" COMMENT="" />
    <EXPORT ORDINAL="963" NAME="??4QAssociativeConstIterator@@QEAAAEAV0@AEBV0@@Z" PURGE="0" COMMENT="" />
    <EXPORT ORDINAL="964" NAME="??4QAssociativeIterable@@QEAAAEAV0@$$QEAV0@@Z" PURGE="0" COMMENT="" />
    <EXPORT ORDINAL="965" NAME="??4QAssociativeIterable@@QEAAAEAV0@$$QEAV?$QIterable@VQMetaAssociation@@@@@Z" PURGE="0" COMMENT="" />
    <EXPORT ORDINAL="966" NAME="??4QAssociativeIterable@@QEAAAEAV0@AEBV0@@Z" PURGE="0" COMMENT="" />
    <EXPORT ORDINAL="967" NAME="??4QAssociativeIterator@@QEAAAEAV0@$$QEAV0@@Z" PURGE="0" COMMENT="" />
    <EXPORT ORDINAL="968" NAME="??4QAssociativeIterator@@QEAAAEAV0@AEBV0@@Z" PURGE="0" COMMENT="" />
    <EXPORT ORDINAL="969" NAME="??4QBasicTimer@@QEAAAEAV0@$$QEAV0@@Z" PURGE="0" COMMENT="" />
    <EXPORT ORDINAL="970" NAME="??4QBindingStorage@@QEAAAEAV0@AEBV0@@Z" PURGE="0" COMMENT="" />
    <EXPORT ORDINAL="971" NAME="??4QBitArray@@QEAAAEAV0@$$QEAV0@@Z" PURGE="0" COMMENT="" />
    <EXPORT ORDINAL="972" NAME="??4QBitArray@@QEAAAEAV0@AEBV0@@Z" PURGE="0" COMMENT="" />
    <EXPORT ORDINAL="973" NAME="??4QBitRef@@QEAAAEAV0@AEBV0@@Z" PURGE="0" COMMENT="" />
    <EXPORT ORDINAL="974" NAME="??4QBitRef@@QEAAAEAV0@_N@Z" PURGE="0" COMMENT="" />
    <EXPORT ORDINAL="975" NAME="??4QBluetoothPermission@@QEAAAEAV0@AEBV0@@Z" PURGE="0" COMMENT="" />
    <EXPORT ORDINAL="976" NAME="??4QByteArray@@QEAAAEAV0@$$QEAV0@@Z" PURGE="0" COMMENT="" />
    <EXPORT ORDINAL="977" NAME="??4QByteArray@@QEAAAEAV0@AEBV0@@Z" PURGE="0" COMMENT="" />
    <EXPORT ORDINAL="978" NAME="??4QByteArray@@QEAAAEAV0@PEBD@Z" PURGE="0" COMMENT="" />
    <EXPORT ORDINAL="979" NAME="??4QByteArrayMatcher@@QEAAAEAV0@AEBV0@@Z" PURGE="0" COMMENT="" />
    <EXPORT ORDINAL="980" NAME="??4QByteArrayView@@QEAAAEAV0@$$QEAV0@@Z" PURGE="0" COMMENT="" />
    <EXPORT ORDINAL="981" NAME="??4QByteArrayView@@QEAAAEAV0@AEBV0@@Z" PURGE="0" COMMENT="" />
    <EXPORT ORDINAL="982" NAME="??4QCalendar@@QEAAAEAV0@$$QEAV0@@Z" PURGE="0" COMMENT="" />
    <EXPORT ORDINAL="983" NAME="??4QCalendar@@QEAAAEAV0@AEBV0@@Z" PURGE="0" COMMENT="" />
    <EXPORT ORDINAL="984" NAME="??4QCalendarPermission@@QEAAAEAV0@AEBV0@@Z" PURGE="0" COMMENT="" />
    <EXPORT ORDINAL="985" NAME="??4QCameraPermission@@QEAAAEAV0@AEBV0@@Z" PURGE="0" COMMENT="" />
    <EXPORT ORDINAL="986" NAME="??4QCborArray@@QEAAAEAV0@AEBV0@@Z" PURGE="0" COMMENT="" />
    <EXPORT ORDINAL="987" NAME="??4QCborError@@QEAAAEAU0@$$QEAU0@@Z" PURGE="0" COMMENT="" />
    <EXPORT ORDINAL="988" NAME="??4QCborError@@QEAAAEAU0@AEBU0@@Z" PURGE="0" COMMENT="" />
    <EXPORT ORDINAL="989" NAME="??4QCborMap@@QEAAAEAV0@AEBV0@@Z" PURGE="0" COMMENT="" />
    <EXPORT ORDINAL="990" NAME="??4QCborValue@@QEAAAEAV0@$$QEAV0@@Z" PURGE="0" COMMENT="" />
    <EXPORT ORDINAL="991" NAME="??4QCborValue@@QEAAAEAV0@AEBV0@@Z" PURGE="0" COMMENT="" />
    <EXPORT ORDINAL="992" NAME="??4QCborValueRef@@QEAAAEAV0@$$QEAVQCborValue@@@Z" PURGE="0" COMMENT="" />
    <EXPORT ORDINAL="993" NAME="??4QCborValueRef@@QEAAAEAV0@AEBV0@@Z" PURGE="0" COMMENT="" />
    <EXPORT ORDINAL="994" NAME="??4QCborValueRef@@QEAAAEAV0@AEBVQCborValue@@@Z" PURGE="0" COMMENT="" />
    <EXPORT ORDINAL="995" NAME="??4QChar@@QEAAAEAV0@$$QEAV0@@Z" PURGE="0" COMMENT="" />
    <EXPORT ORDINAL="996" NAME="??4QChar@@QEAAAEAV0@AEBV0@@Z" PURGE="0" COMMENT="" />
    <EXPORT ORDINAL="997" NAME="??4QChildEvent@@IEAAAEAV0@AEBV0@@Z" PURGE="0" COMMENT="" />
    <EXPORT ORDINAL="998" NAME="??4QCollator@@QEAAAEAV0@$$QEAV0@@Z" PURGE="0" COMMENT="" />
    <EXPORT ORDINAL="999" NAME="??4QCollator@@QEAAAEAV0@AEBV0@@Z" PURGE="0" COMMENT="" />
    <EXPORT ORDINAL="1000" NAME="??4QCollatorSortKey@@QEAAAEAV0@$$QEAV0@@Z" PURGE="0" COMMENT="" />
    <EXPORT ORDINAL="1001" NAME="??4QCollatorSortKey@@QEAAAEAV0@AEBV0@@Z" PURGE="0" COMMENT="" />
    <EXPORT ORDINAL="1002" NAME="??4QCommandLineOption@@QEAAAEAV0@$$QEAV0@@Z" PURGE="0" COMMENT="" />
    <EXPORT ORDINAL="1003" NAME="??4QCommandLineOption@@QEAAAEAV0@AEBV0@@Z" PURGE="0" COMMENT="" />
    <EXPORT ORDINAL="1004" NAME="??4QContactsPermission@@QEAAAEAV0@AEBV0@@Z" PURGE="0" COMMENT="" />
    <EXPORT ORDINAL="1005" NAME="??4QContainerImplHelper@QtPrivate@@QEAAAEAU01@$$QEAU01@@Z" PURGE="0" COMMENT="" />
    <EXPORT ORDINAL="1006" NAME="??4QContainerImplHelper@QtPrivate@@QEAAAEAU01@AEBU01@@Z" PURGE="0" COMMENT="" />
    <EXPORT ORDINAL="1007" NAME="??4QCryptographicHash@@QEAAAEAV0@$$QEAV0@@Z" PURGE="0" COMMENT="" />
    <EXPORT ORDINAL="1008" NAME="??4QDate@@QEAAAEAV0@$$QEAV0@@Z" PURGE="0" COMMENT="" />
    <EXPORT ORDINAL="1009" NAME="??4QDate@@QEAAAEAV0@AEBV0@@Z" PURGE="0" COMMENT="" />
    <EXPORT ORDINAL="1010" NAME="??4QDateTime@@QEAAAEAV0@$$QEAV0@@Z" PURGE="0" COMMENT="" />
    <EXPORT ORDINAL="1011" NAME="??4QDateTime@@QEAAAEAV0@AEBV0@@Z" PURGE="0" COMMENT="" />
    <EXPORT ORDINAL="1012" NAME="??4QDateTimeParser@@QEAAAEAV0@AEBV0@@Z" PURGE="0" COMMENT="" />
    <EXPORT ORDINAL="1013" NAME="??4QDeadlineTimer@@QEAAAEAV0@$$QEAV0@@Z" PURGE="0" COMMENT="" />
    <EXPORT ORDINAL="1014" NAME="??4QDeadlineTimer@@QEAAAEAV0@AEBV0@@Z" PURGE="0" COMMENT="" />
    <EXPORT ORDINAL="1015" NAME="??4QDebug@@QEAAAEAV0@$$QEAV0@@Z" PURGE="0" COMMENT="" />
    <EXPORT ORDINAL="1016" NAME="??4QDebug@@QEAAAEAV0@AEBV0@@Z" PURGE="0" COMMENT="" />
    <EXPORT ORDINAL="1017" NAME="??4QDir@@QEAAAEAV0@$$QEAV0@@Z" PURGE="0" COMMENT="" />
    <EXPORT ORDINAL="1018" NAME="??4QDir@@QEAAAEAV0@AEBV0@@Z" PURGE="0" COMMENT="" />
    <EXPORT ORDINAL="1019" NAME="??4QDynamicMetaObjectData@@QEAAAEAU0@AEBU0@@Z" PURGE="0" COMMENT="" />
    <EXPORT ORDINAL="1020" NAME="??4QDynamicPropertyChangeEvent@@IEAAAEAV0@AEBV0@@Z" PURGE="0" COMMENT="" />
    <EXPORT ORDINAL="1021" NAME="??4QEasingCurve@@QEAAAEAV0@$$QEAV0@@Z" PURGE="0" COMMENT="" />
    <EXPORT ORDINAL="1022" NAME="??4QEasingCurve@@QEAAAEAV0@AEBV0@@Z" PURGE="0" COMMENT="" />
    <EXPORT ORDINAL="1023" NAME="??4QElapsedTimer@@QEAAAEAV0@$$QEAV0@@Z" PURGE="0" COMMENT="" />
    <EXPORT ORDINAL="1024" NAME="??4QElapsedTimer@@QEAAAEAV0@AEBV0@@Z" PURGE="0" COMMENT="" />
    <EXPORT ORDINAL="1025" NAME="??4QEvent@@IEAAAEAV0@AEBV0@@Z" PURGE="0" COMMENT="" />
    <EXPORT ORDINAL="1026" NAME="??4QException@@QEAAAEAV0@AEBV0@@Z" PURGE="0" COMMENT="" />
    <EXPORT ORDINAL="1027" NAME="??4QFactoryInterface@@QEAAAEAU0@AEBU0@@Z" PURGE="0" COMMENT="" />
    <EXPORT ORDINAL="1028" NAME="??4QFileInfo@@QEAAAEAV0@$$QEAV0@@Z" PURGE="0" COMMENT="" />
    <EXPORT ORDINAL="1029" NAME="??4QFileInfo@@QEAAAEAV0@AEBV0@@Z" PURGE="0" COMMENT="" />
    <EXPORT ORDINAL="1030" NAME="??4QFutureCallOutEvent@@IEAAAEAV0@AEBV0@@Z" PURGE="0" COMMENT="" />
    <EXPORT ORDINAL="1031" NAME="??4QFutureCallOutInterface@@QEAAAEAV0@AEBV0@@Z" PURGE="0" COMMENT="" />
    <EXPORT ORDINAL="1032" NAME="??4QFutureInterfaceBase@@QEAAAEAV0@$$QEAV0@@Z" PURGE="0" COMMENT="" />
    <EXPORT ORDINAL="1033" NAME="??4QFutureInterfaceBase@@QEAAAEAV0@AEBV0@@Z" PURGE="0" COMMENT="" />
    <EXPORT ORDINAL="1034" NAME="??4QGenericArgument@@QEAAAEAV0@$$QEAV0@@Z" PURGE="0" COMMENT="" />
    <EXPORT ORDINAL="1035" NAME="??4QGenericArgument@@QEAAAEAV0@AEBV0@@Z" PURGE="0" COMMENT="" />
    <EXPORT ORDINAL="1036" NAME="??4QGenericReturnArgument@@QEAAAEAV0@$$QEAV0@@Z" PURGE="0" COMMENT="" />
    <EXPORT ORDINAL="1037" NAME="??4QGenericReturnArgument@@QEAAAEAV0@AEBV0@@Z" PURGE="0" COMMENT="" />
    <EXPORT ORDINAL="1038" NAME="??4QInternal@@QEAAAEAV0@$$QEAV0@@Z" PURGE="0" COMMENT="" />
    <EXPORT ORDINAL="1039" NAME="??4QInternal@@QEAAAEAV0@AEBV0@@Z" PURGE="0" COMMENT="" />
    <EXPORT ORDINAL="1040" NAME="??4QItemSelectionRange@@QEAAAEAV0@$$QEAV0@@Z" PURGE="0" COMMENT="" />
    <EXPORT ORDINAL="1041" NAME="??4QItemSelectionRange@@QEAAAEAV0@AEBV0@@Z" PURGE="0" COMMENT="" />
    <EXPORT ORDINAL="1042" NAME="??4QJsonArray@@QEAAAEAV0@$$QEAV0@@Z" PURGE="0" COMMENT="" />
    <EXPORT ORDINAL="1043" NAME="??4QJsonArray@@QEAAAEAV0@AEBV0@@Z" PURGE="0" COMMENT="" />
    <EXPORT ORDINAL="1044" NAME="??4QJsonDocument@@QEAAAEAV0@$$QEAV0@@Z" PURGE="0" COMMENT="" />
    <EXPORT ORDINAL="1045" NAME="??4QJsonDocument@@QEAAAEAV0@AEBV0@@Z" PURGE="0" COMMENT="" />
    <EXPORT ORDINAL="1046" NAME="??4QJsonObject@@QEAAAEAV0@$$QEAV0@@Z" PURGE="0" COMMENT="" />
    <EXPORT ORDINAL="1047" NAME="??4QJsonObject@@QEAAAEAV0@AEBV0@@Z" PURGE="0" COMMENT="" />
    <EXPORT ORDINAL="1048" NAME="??4QJsonParseError@@QEAAAEAU0@$$QEAU0@@Z" PURGE="0" COMMENT="" />
    <EXPORT ORDINAL="1049" NAME="??4QJsonParseError@@QEAAAEAU0@AEBU0@@Z" PURGE="0" COMMENT="" />
    <EXPORT ORDINAL="1050" NAME="??4QJsonValue@@QEAAAEAV0@$$QEAV0@@Z" PURGE="0" COMMENT="" />
    <EXPORT ORDINAL="1051" NAME="??4QJsonValue@@QEAAAEAV0@AEBV0@@Z" PURGE="0" COMMENT="" />
    <EXPORT ORDINAL="1052" NAME="??4QJsonValueRef@@QEAAAEAV0@AEBV0@@Z" PURGE="0" COMMENT="" />
    <EXPORT ORDINAL="1053" NAME="??4QJsonValueRef@@QEAAAEAV0@AEBVQJsonValue@@@Z" PURGE="0" COMMENT="" />
    <EXPORT ORDINAL="1054" NAME="??4QLibraryInfo@@QEAAAEAV0@$$QEAV0@@Z" PURGE="0" COMMENT="" />
    <EXPORT ORDINAL="1055" NAME="??4QLibraryInfo@@QEAAAEAV0@AEBV0@@Z" PURGE="0" COMMENT="" />
    <EXPORT ORDINAL="1056" NAME="??4QLibraryInfoPrivate@@QEAAAEAV0@$$QEAV0@@Z" PURGE="0" COMMENT="" />
    <EXPORT ORDINAL="1057" NAME="??4QLibraryInfoPrivate@@QEAAAEAV0@AEBV0@@Z" PURGE="0" COMMENT="" />
    <EXPORT ORDINAL="1058" NAME="??4QLine@@QEAAAEAV0@$$QEAV0@@Z" PURGE="0" COMMENT="" />
    <EXPORT ORDINAL="1059" NAME="??4QLine@@QEAAAEAV0@AEBV0@@Z" PURGE="0" COMMENT="" />
    <EXPORT ORDINAL="1060" NAME="??4QLineF@@QEAAAEAV0@$$QEAV0@@Z" PURGE="0" COMMENT="" />
    <EXPORT ORDINAL="1061" NAME="??4QLineF@@QEAAAEAV0@AEBV0@@Z" PURGE="0" COMMENT="" />
    <EXPORT ORDINAL="1062" NAME="??4QLocal8Bit@@QEAAAEAU0@$$QEAU0@@Z" PURGE="0" COMMENT="" />
    <EXPORT ORDINAL="1063" NAME="??4QLocal8Bit@@QEAAAEAU0@AEBU0@@Z" PURGE="0" COMMENT="" />
    <EXPORT ORDINAL="1064" NAME="??4QLocale@@QEAAAEAV0@$$QEAV0@@Z" PURGE="0" COMMENT="" />
    <EXPORT ORDINAL="1065" NAME="??4QLocale@@QEAAAEAV0@AEBV0@@Z" PURGE="0" COMMENT="" />
    <EXPORT ORDINAL="1066" NAME="??4QLocationPermission@@QEAAAEAV0@AEBV0@@Z" PURGE="0" COMMENT="" />
    <EXPORT ORDINAL="1067" NAME="??4QMessageAuthenticationCode@@QEAAAEAV0@$$QEAV0@@Z" PURGE="0" COMMENT="" />
    <EXPORT ORDINAL="1068" NAME="??4QMetaAssociation@@QEAAAEAV0@$$QEAV0@@Z" PURGE="0" COMMENT="" />
    <EXPORT ORDINAL="1069" NAME="??4QMetaAssociation@@QEAAAEAV0@AEBV0@@Z" PURGE="0" COMMENT="" />
    <EXPORT ORDINAL="1070" NAME="??4QMetaClassInfo@@QEAAAEAV0@$$QEAV0@@Z" PURGE="0" COMMENT="" />
    <EXPORT ORDINAL="1071" NAME="??4QMetaClassInfo@@QEAAAEAV0@AEBV0@@Z" PURGE="0" COMMENT="" />
    <EXPORT ORDINAL="1072" NAME="??4QMetaContainer@@QEAAAEAV0@$$QEAV0@@Z" PURGE="0" COMMENT="" />
    <EXPORT ORDINAL="1073" NAME="??4QMetaContainer@@QEAAAEAV0@AEBV0@@Z" PURGE="0" COMMENT="" />
    <EXPORT ORDINAL="1074" NAME="??4QMetaEnum@@QEAAAEAV0@$$QEAV0@@Z" PURGE="0" COMMENT="" />
    <EXPORT ORDINAL="1075" NAME="??4QMetaEnum@@QEAAAEAV0@AEBV0@@Z" PURGE="0" COMMENT="" />
    <EXPORT ORDINAL="1076" NAME="??4QMetaEnumBuilder@@QEAAAEAV0@$$QEAV0@@Z" PURGE="0" COMMENT="" />
    <EXPORT ORDINAL="1077" NAME="??4QMetaEnumBuilder@@QEAAAEAV0@AEBV0@@Z" PURGE="0" COMMENT="" />
    <EXPORT ORDINAL="1078" NAME="??4QMetaMethod@@QEAAAEAV0@$$QEAV0@@Z" PURGE="0" COMMENT="" />
    <EXPORT ORDINAL="1079" NAME="??4QMetaMethod@@QEAAAEAV0@AEBV0@@Z" PURGE="0" COMMENT="" />
    <EXPORT ORDINAL="1080" NAME="??4QMetaMethodBuilder@@QEAAAEAV0@$$QEAV0@@Z" PURGE="0" COMMENT="" />
    <EXPORT ORDINAL="1081" NAME="??4QMetaMethodBuilder@@QEAAAEAV0@AEBV0@@Z" PURGE="0" COMMENT="" />
    <EXPORT ORDINAL="1082" NAME="??4QMetaObject@@QEAAAEAU0@$$QEAU0@@Z" PURGE="0" COMMENT="" />
    <EXPORT ORDINAL="1083" NAME="??4QMetaObject@@QEAAAEAU0@AEBU0@@Z" PURGE="0" COMMENT="" />
    <EXPORT ORDINAL="1084" NAME="??4QMetaProperty@@QEAAAEAV0@$$QEAV0@@Z" PURGE="0" COMMENT="" />
    <EXPORT ORDINAL="1085" NAME="??4QMetaProperty@@QEAAAEAV0@AEBV0@@Z" PURGE="0" COMMENT="" />
    <EXPORT ORDINAL="1086" NAME="??4QMetaPropertyBuilder@@QEAAAEAV0@$$QEAV0@@Z" PURGE="0" COMMENT="" />
    <EXPORT ORDINAL="1087" NAME="??4QMetaPropertyBuilder@@QEAAAEAV0@AEBV0@@Z" PURGE="0" COMMENT="" />
    <EXPORT ORDINAL="1088" NAME="??4QMetaSequence@@QEAAAEAV0@$$QEAV0@@Z" PURGE="0" COMMENT="" />
    <EXPORT ORDINAL="1089" NAME="??4QMetaSequence@@QEAAAEAV0@AEBV0@@Z" PURGE="0" COMMENT="" />
    <EXPORT ORDINAL="1090" NAME="??4QMetaType@@QEAAAEAV0@$$QEAV0@@Z" PURGE="0" COMMENT="" />
    <EXPORT ORDINAL="1091" NAME="??4QMetaType@@QEAAAEAV0@AEBV0@@Z" PURGE="0" COMMENT="" />
    <EXPORT ORDINAL="1092" NAME="??4QMicrophonePermission@@QEAAAEAV0@AEBV0@@Z" PURGE="0" COMMENT="" />
    <EXPORT ORDINAL="1093" NAME="??4QMimeType@@QEAAAEAV0@$$QEAV0@@Z" PURGE="0" COMMENT="" />
    <EXPORT ORDINAL="1094" NAME="??4QMimeType@@QEAAAEAV0@AEBV0@@Z" PURGE="0" COMMENT="" />
    <EXPORT ORDINAL="1095" NAME="??4QNonContiguousByteDeviceFactory@@QEAAAEAV0@$$QEAV0@@Z" PURGE="0" COMMENT="" />
    <EXPORT ORDINAL="1096" NAME="??4QNonContiguousByteDeviceFactory@@QEAAAEAV0@AEBV0@@Z" PURGE="0" COMMENT="" />
    <EXPORT ORDINAL="1097" NAME="??4QOperatingSystemVersion@@QEAAAEAV0@$$QEAV0@@Z" PURGE="0" COMMENT="" />
    <EXPORT ORDINAL="1098" NAME="??4QOperatingSystemVersion@@QEAAAEAV0@AEBV0@@Z" PURGE="0" COMMENT="" />
    <EXPORT ORDINAL="1099" NAME="??4QPersistentModelIndex@@QEAAAEAV0@$$QEAV0@@Z" PURGE="0" COMMENT="" />
    <EXPORT ORDINAL="1100" NAME="??4QPersistentModelIndex@@QEAAAEAV0@AEBV0@@Z" PURGE="0" COMMENT="" />
    <EXPORT ORDINAL="1101" NAME="??4QPersistentModelIndex@@QEAAAEAV0@AEBVQModelIndex@@@Z" PURGE="0" COMMENT="" />
    <EXPORT ORDINAL="1102" NAME="??4QProcessEnvironment@@QEAAAEAV0@$$QEAV0@@Z" PURGE="0" COMMENT="" />
    <EXPORT ORDINAL="1103" NAME="??4QProcessEnvironment@@QEAAAEAV0@AEBV0@@Z" PURGE="0" COMMENT="" />
    <EXPORT ORDINAL="1104" NAME="??4QPropertyBindingError@@QEAAAEAV0@$$QEAV0@@Z" PURGE="0" COMMENT="" />
    <EXPORT ORDINAL="1105" NAME="??4QPropertyBindingError@@QEAAAEAV0@AEBV0@@Z" PURGE="0" COMMENT="" />
    <EXPORT ORDINAL="1106" NAME="??4QPropertyBindingSourceLocation@@QEAAAEAU0@$$QEAU0@@Z" PURGE="0" COMMENT="" />
    <EXPORT ORDINAL="1107" NAME="??4QPropertyBindingSourceLocation@@QEAAAEAU0@AEBU0@@Z" PURGE="0" COMMENT="" />
    <EXPORT ORDINAL="1108" NAME="??4QPropertyObserver@@QEAAAEAV0@$$QEAV0@@Z" PURGE="0" COMMENT="" />
    <EXPORT ORDINAL="1109" NAME="??4QRandomGenerator@@QEAAAEAV0@AEBV0@@Z" PURGE="0" COMMENT="" />
    <EXPORT ORDINAL="1110" NAME="??4QRect@@QEAAAEAV0@$$QEAV0@@Z" PURGE="0" COMMENT="" />
    <EXPORT ORDINAL="1111" NAME="??4QRect@@QEAAAEAV0@AEBV0@@Z" PURGE="0" COMMENT="" />
    <EXPORT ORDINAL="1112" NAME="??4QRectF@@QEAAAEAV0@$$QEAV0@@Z" PURGE="0" COMMENT="" />
    <EXPORT ORDINAL="1113" NAME="??4QRectF@@QEAAAEAV0@AEBV0@@Z" PURGE="0" COMMENT="" />
    <EXPORT ORDINAL="1114" NAME="??4QRegularExpression@@QEAAAEAV0@$$QEAV0@@Z" PURGE="0" COMMENT="" />
    <EXPORT ORDINAL="1115" NAME="??4QRegularExpression@@QEAAAEAV0@AEBV0@@Z" PURGE="0" COMMENT="" />
    <EXPORT ORDINAL="1116" NAME="??4QRegularExpressionMatch@@QEAAAEAV0@$$QEAV0@@Z" PURGE="0" COMMENT="" />
    <EXPORT ORDINAL="1117" NAME="??4QRegularExpressionMatch@@QEAAAEAV0@AEBV0@@Z" PURGE="0" COMMENT="" />
    <EXPORT ORDINAL="1118" NAME="??4QRegularExpressionMatchIterator@@QEAAAEAV0@$$QEAV0@@Z" PURGE="0" COMMENT="" />
    <EXPORT ORDINAL="1119" NAME="??4QRegularExpressionMatchIterator@@QEAAAEAV0@AEBV0@@Z" PURGE="0" COMMENT="" />
    <EXPORT ORDINAL="1120" NAME="??4QSequentialConstIterator@@QEAAAEAV0@$$QEAV0@@Z" PURGE="0" COMMENT="" />
    <EXPORT ORDINAL="1121" NAME="??4QSequentialConstIterator@@QEAAAEAV0@AEBV0@@Z" PURGE="0" COMMENT="" />
    <EXPORT ORDINAL="1122" NAME="??4QSequentialIterable@@QEAAAEAV0@$$QEAV0@@Z" PURGE="0" COMMENT="" />
    <EXPORT ORDINAL="1123" NAME="??4QSequentialIterable@@QEAAAEAV0@$$QEAV?$QIterable@VQMetaSequence@@@@@Z" PURGE="0" COMMENT="" />
    <EXPORT ORDINAL="1124" NAME="??4QSequentialIterable@@QEAAAEAV0@AEBV0@@Z" PURGE="0" COMMENT="" />
    <EXPORT ORDINAL="1125" NAME="??4QSequentialIterator@@QEAAAEAV0@$$QEAV0@@Z" PURGE="0" COMMENT="" />
    <EXPORT ORDINAL="1126" NAME="??4QSequentialIterator@@QEAAAEAV0@AEBV0@@Z" PURGE="0" COMMENT="" />
    <EXPORT ORDINAL="1127" NAME="??4QSize@@QEAAAEAV0@$$QEAV0@@Z" PURGE="0" COMMENT="" />
    <EXPORT ORDINAL="1128" NAME="??4QSize@@QEAAAEAV0@AEBV0@@Z" PURGE="0" COMMENT="" />
    <EXPORT ORDINAL="1129" NAME="??4QSizeF@@QEAAAEAV0@$$QEAV0@@Z" PURGE="0" COMMENT="" />
    <EXPORT ORDINAL="1130" NAME="??4QSizeF@@QEAAAEAV0@AEBV0@@Z" PURGE="0" COMMENT="" />
    <EXPORT ORDINAL="1131" NAME="??4QStandardPaths@@QEAAAEAV0@AEBV0@@Z" PURGE="0" COMMENT="" />
    <EXPORT ORDINAL="1132" NAME="??4QStaticPlugin@@QEAAAEAU0@$$QEAU0@@Z" PURGE="0" COMMENT="" />
    <EXPORT ORDINAL="1133" NAME="??4QStaticPlugin@@QEAAAEAU0@AEBU0@@Z" PURGE="0" COMMENT="" />
    <EXPORT ORDINAL="1134" NAME="??4QStorageInfo@@QEAAAEAV0@$$QEAV0@@Z" PURGE="0" COMMENT="" />
    <EXPORT ORDINAL="1135" NAME="??4QStorageInfo@@QEAAAEAV0@AEBV0@@Z" PURGE="0" COMMENT="" />
    <EXPORT ORDINAL="1136" NAME="??4QString@@QEAAAEAV0@$$QEAV0@@Z" PURGE="0" COMMENT="" />
    <EXPORT ORDINAL="1137" NAME="??4QString@@QEAAAEAV0@AEBV0@@Z" PURGE="0" COMMENT="" />
    <EXPORT ORDINAL="1138" NAME="??4QString@@QEAAAEAV0@AEBVQByteArray@@@Z" PURGE="0" COMMENT="" />
    <EXPORT ORDINAL="1139" NAME="??4QString@@QEAAAEAV0@PEBD@Z" PURGE="0" COMMENT="" />
    <EXPORT ORDINAL="1140" NAME="??4QString@@QEAAAEAV0@VQChar@@@Z" PURGE="0" COMMENT="" />
    <EXPORT ORDINAL="1141" NAME="??4QString@@QEAAAEAV0@VQLatin1String@@@Z" PURGE="0" COMMENT="" />
    <EXPORT ORDINAL="1142" NAME="??4QStringMatcher@@QEAAAEAV0@AEBV0@@Z" PURGE="0" COMMENT="" />
    <EXPORT ORDINAL="1143" NAME="??4QSysInfo@@QEAAAEAV0@$$QEAV0@@Z" PURGE="0" COMMENT="" />
    <EXPORT ORDINAL="1144" NAME="??4QSysInfo@@QEAAAEAV0@AEBV0@@Z" PURGE="0" COMMENT="" />
    <EXPORT ORDINAL="1145" NAME="??4QSystemLocale@@QEAAAEAV0@AEBV0@@Z" PURGE="0" COMMENT="" />
    <EXPORT ORDINAL="1146" NAME="??4QTemporaryDir@@QEAAAEAV0@$$QEAV0@@Z" PURGE="0" COMMENT="" />
    <EXPORT ORDINAL="1147" NAME="??4QTextBoundaryFinder@@QEAAAEAV0@AEBV0@@Z" PURGE="0" COMMENT="" />
    <EXPORT ORDINAL="1148" NAME="??4QTextStreamManipulator@@QEAAAEAV0@$$QEAV0@@Z" PURGE="0" COMMENT="" />
    <EXPORT ORDINAL="1149" NAME="??4QTextStreamManipulator@@QEAAAEAV0@AEBV0@@Z" PURGE="0" COMMENT="" />
    <EXPORT ORDINAL="1150" NAME="??4QThreadStorageData@@QEAAAEAV0@AEBV0@@Z" PURGE="0" COMMENT="" />
    <EXPORT ORDINAL="1151" NAME="??4QTime@@QEAAAEAV0@$$QEAV0@@Z" PURGE="0" COMMENT="" />
    <EXPORT ORDINAL="1152" NAME="??4QTime@@QEAAAEAV0@AEBV0@@Z" PURGE="0" COMMENT="" />
    <EXPORT ORDINAL="1153" NAME="??4QTimeZone@@QEAAAEAV0@$$QEAV0@@Z" PURGE="0" COMMENT="" />
    <EXPORT ORDINAL="1154" NAME="??4QTimeZone@@QEAAAEAV0@AEBV0@@Z" PURGE="0" COMMENT="" />
    <EXPORT ORDINAL="1155" NAME="??4QTimerEvent@@IEAAAEAV0@AEBV0@@Z" PURGE="0" COMMENT="" />
    <EXPORT ORDINAL="1156" NAME="??4QUnhandledException@@QEAAAEAV0@$$QEAV0@@Z" PURGE="0" COMMENT="" />
    <EXPORT ORDINAL="1157" NAME="??4QUnhandledException@@QEAAAEAV0@AEBV0@@Z" PURGE="0" COMMENT="" />
    <EXPORT ORDINAL="1158" NAME="??4QUntypedPropertyBinding@@QEAAAEAV0@$$QEAV0@@Z" PURGE="0" COMMENT="" />
    <EXPORT ORDINAL="1159" NAME="??4QUntypedPropertyBinding@@QEAAAEAV0@AEBV0@@Z" PURGE="0" COMMENT="" />
    <EXPORT ORDINAL="1160" NAME="??4QUrl@@QEAAAEAV0@$$QEAV0@@Z" PURGE="0" COMMENT="" />
    <EXPORT ORDINAL="1161" NAME="??4QUrl@@QEAAAEAV0@AEBV0@@Z" PURGE="0" COMMENT="" />
    <EXPORT ORDINAL="1162" NAME="??4QUrl@@QEAAAEAV0@AEBVQString@@@Z" PURGE="0" COMMENT="" />
    <EXPORT ORDINAL="1163" NAME="??4QUrlQuery@@QEAAAEAV0@$$QEAV0@@Z" PURGE="0" COMMENT="" />
    <EXPORT ORDINAL="1164" NAME="??4QUrlQuery@@QEAAAEAV0@AEBV0@@Z" PURGE="0" COMMENT="" />
    <EXPORT ORDINAL="1165" NAME="??4QUuid@@QEAAAEAV0@$$QEAV0@@Z" PURGE="0" COMMENT="" />
    <EXPORT ORDINAL="1166" NAME="??4QUuid@@QEAAAEAV0@AEBU_GUID@@@Z" PURGE="0" COMMENT="" />
    <EXPORT ORDINAL="1167" NAME="??4QUuid@@QEAAAEAV0@AEBV0@@Z" PURGE="0" COMMENT="" />
    <EXPORT ORDINAL="1168" NAME="??4QVariant@@QEAAAEAV0@$$QEAV0@@Z" PURGE="0" COMMENT="" />
    <EXPORT ORDINAL="1169" NAME="??4QVariant@@QEAAAEAV0@AEBV0@@Z" PURGE="0" COMMENT="" />
    <EXPORT ORDINAL="1170" NAME="??4QVariantConstPointer@@QEAAAEAV0@$$QEAV0@@Z" PURGE="0" COMMENT="" />
    <EXPORT ORDINAL="1171" NAME="??4QVariantConstPointer@@QEAAAEAV0@AEBV0@@Z" PURGE="0" COMMENT="" />
    <EXPORT ORDINAL="1172" NAME="??4QVariantTypeCoercer@QtPrivate@@QEAAAEAV01@$$QEAV01@@Z" PURGE="0" COMMENT="" />
    <EXPORT ORDINAL="1173" NAME="??4QVariantTypeCoercer@QtPrivate@@QEAAAEAV01@AEBV01@@Z" PURGE="0" COMMENT="" />
    <EXPORT ORDINAL="1174" NAME="??4QWinRegistryKey@@QEAAAEAV0@$$QEAV0@@Z" PURGE="0" COMMENT="" />
    <EXPORT ORDINAL="1175" NAME="??4QXmlStreamAttribute@@QEAAAEAV0@$$QEAV0@@Z" PURGE="0" COMMENT="" />
    <EXPORT ORDINAL="1176" NAME="??4QXmlStreamAttribute@@QEAAAEAV0@AEBV0@@Z" PURGE="0" COMMENT="" />
    <EXPORT ORDINAL="1177" NAME="??4QXmlStreamEntityDeclaration@@QEAAAEAV0@$$QEAV0@@Z" PURGE="0" COMMENT="" />
    <EXPORT ORDINAL="1178" NAME="??4QXmlStreamEntityDeclaration@@QEAAAEAV0@AEBV0@@Z" PURGE="0" COMMENT="" />
    <EXPORT ORDINAL="1179" NAME="??4QXmlStreamEntityResolver@@QEAAAEAV0@AEBV0@@Z" PURGE="0" COMMENT="" />
    <EXPORT ORDINAL="1180" NAME="??4QXmlStreamNamespaceDeclaration@@QEAAAEAV0@$$QEAV0@@Z" PURGE="0" COMMENT="" />
    <EXPORT ORDINAL="1181" NAME="??4QXmlStreamNamespaceDeclaration@@QEAAAEAV0@AEBV0@@Z" PURGE="0" COMMENT="" />
    <EXPORT ORDINAL="1182" NAME="??4QXmlStreamNotationDeclaration@@QEAAAEAV0@$$QEAV0@@Z" PURGE="0" COMMENT="" />
    <EXPORT ORDINAL="1183" NAME="??4QXmlStreamNotationDeclaration@@QEAAAEAV0@AEBV0@@Z" PURGE="0" COMMENT="" />
    <EXPORT ORDINAL="1184" NAME="??4QXmlUtils@@QEAAAEAV0@$$QEAV0@@Z" PURGE="0" COMMENT="" />
    <EXPORT ORDINAL="1185" NAME="??4QXmlUtils@@QEAAAEAV0@AEBV0@@Z" PURGE="0" COMMENT="" />
    <EXPORT ORDINAL="1186" NAME="??4ResultIteratorBase@QtPrivate@@QEAAAEAV01@$$QEAV01@@Z" PURGE="0" COMMENT="" />
    <EXPORT ORDINAL="1187" NAME="??4ResultIteratorBase@QtPrivate@@QEAAAEAV01@AEBV01@@Z" PURGE="0" COMMENT="" />
    <EXPORT ORDINAL="1188" NAME="??4ResultStoreBase@QtPrivate@@QEAAAEAV01@AEBV01@@Z" PURGE="0" COMMENT="" />
    <EXPORT ORDINAL="1189" NAME="??4SectionNode@QDateTimeParser@@QEAAAEAU01@$$QEAU01@@Z" PURGE="0" COMMENT="" />
    <EXPORT ORDINAL="1190" NAME="??4SectionNode@QDateTimeParser@@QEAAAEAU01@AEBU01@@Z" PURGE="0" COMMENT="" />
    <EXPORT ORDINAL="1191" NAME="??5@YAAEAVQDataStream@@AEAV0@AEAVQBitArray@@@Z" PURGE="0" COMMENT="" />
    <EXPORT ORDINAL="1192" NAME="??5@YAAEAVQDataStream@@AEAV0@AEAVQByteArray@@@Z" PURGE="0" COMMENT="" />
    <EXPORT ORDINAL="1193" NAME="??5@YAAEAVQDataStream@@AEAV0@AEAVQCborArray@@@Z" PURGE="0" COMMENT="" />
    <EXPORT ORDINAL="1194" NAME="??5@YAAEAVQDataStream@@AEAV0@AEAVQCborMap@@@Z" PURGE="0" COMMENT="" />
    <EXPORT ORDINAL="1195" NAME="??5@YAAEAVQDataStream@@AEAV0@AEAVQCborValue@@@Z" PURGE="0" COMMENT="" />
    <EXPORT ORDINAL="1196" NAME="??5@YAAEAVQDataStream@@AEAV0@AEAVQChar@@@Z" PURGE="0" COMMENT="" />
    <EXPORT ORDINAL="1197" NAME="??5@YAAEAVQDataStream@@AEAV0@AEAVQDate@@@Z" PURGE="0" COMMENT="" />
    <EXPORT ORDINAL="1198" NAME="??5@YAAEAVQDataStream@@AEAV0@AEAVQDateTime@@@Z" PURGE="0" COMMENT="" />
    <EXPORT ORDINAL="1199" NAME="??5@YAAEAVQDataStream@@AEAV0@AEAVQEasingCurve@@@Z" PURGE="0" COMMENT="" />
    <EXPORT ORDINAL="1200" NAME="??5@YAAEAVQDataStream@@AEAV0@AEAVQJsonArray@@@Z" PURGE="0" COMMENT="" />
    <EXPORT ORDINAL="1201" NAME="??5@YAAEAVQDataStream@@AEAV0@AEAVQJsonDocument@@@Z" PURGE="0" COMMENT="" />
    <EXPORT ORDINAL="1202" NAME="??5@YAAEAVQDataStream@@AEAV0@AEAVQJsonObject@@@Z" PURGE="0" COMMENT="" />
    <EXPORT ORDINAL="1203" NAME="??5@YAAEAVQDataStream@@AEAV0@AEAVQJsonValue@@@Z" PURGE="0" COMMENT="" />
    <EXPORT ORDINAL="1204" NAME="??5@YAAEAVQDataStream@@AEAV0@AEAVQLine@@@Z" PURGE="0" COMMENT="" />
    <EXPORT ORDINAL="1205" NAME="??5@YAAEAVQDataStream@@AEAV0@AEAVQLineF@@@Z" PURGE="0" COMMENT="" />
    <EXPORT ORDINAL="1206" NAME="??5@YAAEAVQDataStream@@AEAV0@AEAVQLocale@@@Z" PURGE="0" COMMENT="" />
    <EXPORT ORDINAL="1207" NAME="??5@YAAEAVQDataStream@@AEAV0@AEAVQMargins@@@Z" PURGE="0" COMMENT="" />
    <EXPORT ORDINAL="1208" NAME="??5@YAAEAVQDataStream@@AEAV0@AEAVQMarginsF@@@Z" PURGE="0" COMMENT="" />
    <EXPORT ORDINAL="1209" NAME="??5@YAAEAVQDataStream@@AEAV0@AEAVQPoint@@@Z" PURGE="0" COMMENT="" />
    <EXPORT ORDINAL="1210" NAME="??5@YAAEAVQDataStream@@AEAV0@AEAVQPointF@@@Z" PURGE="0" COMMENT="" />
    <EXPORT ORDINAL="1211" NAME="??5@YAAEAVQDataStream@@AEAV0@AEAVQRect@@@Z" PURGE="0" COMMENT="" />
    <EXPORT ORDINAL="1212" NAME="??5@YAAEAVQDataStream@@AEAV0@AEAVQRectF@@@Z" PURGE="0" COMMENT="" />
    <EXPORT ORDINAL="1213" NAME="??5@YAAEAVQDataStream@@AEAV0@AEAVQRegularExpression@@@Z" PURGE="0" COMMENT="" />
    <EXPORT ORDINAL="1214" NAME="??5@YAAEAVQDataStream@@AEAV0@AEAVQSize@@@Z" PURGE="0" COMMENT="" />
    <EXPORT ORDINAL="1215" NAME="??5@YAAEAVQDataStream@@AEAV0@AEAVQSizeF@@@Z" PURGE="0" COMMENT="" />
    <EXPORT ORDINAL="1216" NAME="??5@YAAEAVQDataStream@@AEAV0@AEAVQString@@@Z" PURGE="0" COMMENT="" />
    <EXPORT ORDINAL="1217" NAME="??5@YAAEAVQDataStream@@AEAV0@AEAVQTime@@@Z" PURGE="0" COMMENT="" />
    <EXPORT ORDINAL="1218" NAME="??5@YAAEAVQDataStream@@AEAV0@AEAVQTimeZone@@@Z" PURGE="0" COMMENT="" />
    <EXPORT ORDINAL="1219" NAME="??5@YAAEAVQDataStream@@AEAV0@AEAVQTypeRevision@@@Z" PURGE="0" COMMENT="" />
    <EXPORT ORDINAL="1220" NAME="??5@YAAEAVQDataStream@@AEAV0@AEAVQUrl@@@Z" PURGE="0" COMMENT="" />
    <EXPORT ORDINAL="1221" NAME="??5@YAAEAVQDataStream@@AEAV0@AEAVQUuid@@@Z" PURGE="0" COMMENT="" />
    <EXPORT ORDINAL="1222" NAME="??5@YAAEAVQDataStream@@AEAV0@AEAVQVariant@@@Z" PURGE="0" COMMENT="" />
    <EXPORT ORDINAL="1223" NAME="??5@YAAEAVQDataStream@@AEAV0@AEAVQVersionNumber@@@Z" PURGE="0" COMMENT="" />
    <EXPORT ORDINAL="1224" NAME="??5@YAAEAVQDataStream@@AEAV0@AEAVqfloat16@@@Z" PURGE="0" COMMENT="" />
    <EXPORT ORDINAL="1225" NAME="??5@YAAEAVQDataStream@@AEAV0@AEAW4QCborSimpleType@@@Z" PURGE="0" COMMENT="" />
    <EXPORT ORDINAL="1226" NAME="??5@YAAEAVQTextStream@@AEAV0@AEAVqfloat16@@@Z" PURGE="0" COMMENT="" />
    <EXPORT ORDINAL="1227" NAME="??5QDataStream@@QEAAAEAV0@AEA$$T@Z" PURGE="0" COMMENT="" />
    <EXPORT ORDINAL="1228" NAME="??5QDataStream@@QEAAAEAV0@AEAC@Z" PURGE="0" COMMENT="" />
    <EXPORT ORDINAL="1229" NAME="??5QDataStream@@QEAAAEAV0@AEAD@Z" PURGE="0" COMMENT="" />
    <EXPORT ORDINAL="1230" NAME="??5QDataStream@@QEAAAEAV0@AEAE@Z" PURGE="0" COMMENT="" />
    <EXPORT ORDINAL="1231" NAME="??5QDataStream@@QEAAAEAV0@AEAF@Z" PURGE="0" COMMENT="" />
    <EXPORT ORDINAL="1232" NAME="??5QDataStream@@QEAAAEAV0@AEAG@Z" PURGE="0" COMMENT="" />
    <EXPORT ORDINAL="1233" NAME="??5QDataStream@@QEAAAEAV0@AEAH@Z" PURGE="0" COMMENT="" />
    <EXPORT ORDINAL="1234" NAME="??5QDataStream@@QEAAAEAV0@AEAI@Z" PURGE="0" COMMENT="" />
    <EXPORT ORDINAL="1235" NAME="??5QDataStream@@QEAAAEAV0@AEAM@Z" PURGE="0" COMMENT="" />
    <EXPORT ORDINAL="1236" NAME="??5QDataStream@@QEAAAEAV0@AEAN@Z" PURGE="0" COMMENT="" />
    <EXPORT ORDINAL="1237" NAME="??5QDataStream@@QEAAAEAV0@AEAPEAD@Z" PURGE="0" COMMENT="" />
    <EXPORT ORDINAL="1238" NAME="??5QDataStream@@QEAAAEAV0@AEAVqfloat16@@@Z" PURGE="0" COMMENT="" />
    <EXPORT ORDINAL="1239" NAME="??5QDataStream@@QEAAAEAV0@AEA_J@Z" PURGE="0" COMMENT="" />
    <EXPORT ORDINAL="1240" NAME="??5QDataStream@@QEAAAEAV0@AEA_K@Z" PURGE="0" COMMENT="" />
    <EXPORT ORDINAL="1241" NAME="??5QDataStream@@QEAAAEAV0@AEA_N@Z" PURGE="0" COMMENT="" />
    <EXPORT ORDINAL="1242" NAME="??5QDataStream@@QEAAAEAV0@AEA_S@Z" PURGE="0" COMMENT="" />
    <EXPORT ORDINAL="1243" NAME="??5QDataStream@@QEAAAEAV0@AEA_U@Z" PURGE="0" COMMENT="" />
    <EXPORT ORDINAL="1244" NAME="??5QTextStream@@QEAAAEAV0@AEAD@Z" PURGE="0" COMMENT="" />
    <EXPORT ORDINAL="1245" NAME="??5QTextStream@@QEAAAEAV0@AEAF@Z" PURGE="0" COMMENT="" />
    <EXPORT ORDINAL="1246" NAME="??5QTextStream@@QEAAAEAV0@AEAG@Z" PURGE="0" COMMENT="" />
    <EXPORT ORDINAL="1247" NAME="??5QTextStream@@QEAAAEAV0@AEAH@Z" PURGE="0" COMMENT="" />
    <EXPORT ORDINAL="1248" NAME="??5QTextStream@@QEAAAEAV0@AEAI@Z" PURGE="0" COMMENT="" />
    <EXPORT ORDINAL="1249" NAME="??5QTextStream@@QEAAAEAV0@AEAJ@Z" PURGE="0" COMMENT="" />
    <EXPORT ORDINAL="1250" NAME="??5QTextStream@@QEAAAEAV0@AEAK@Z" PURGE="0" COMMENT="" />
    <EXPORT ORDINAL="1251" NAME="??5QTextStream@@QEAAAEAV0@AEAM@Z" PURGE="0" COMMENT="" />
    <EXPORT ORDINAL="1252" NAME="??5QTextStream@@QEAAAEAV0@AEAN@Z" PURGE="0" COMMENT="" />
    <EXPORT ORDINAL="1253" NAME="??5QTextStream@@QEAAAEAV0@AEAVQByteArray@@@Z" PURGE="0" COMMENT="" />
    <EXPORT ORDINAL="1254" NAME="??5QTextStream@@QEAAAEAV0@AEAVQChar@@@Z" PURGE="0" COMMENT="" />
    <EXPORT ORDINAL="1255" NAME="??5QTextStream@@QEAAAEAV0@AEAVQString@@@Z" PURGE="0" COMMENT="" />
    <EXPORT ORDINAL="1256" NAME="??5QTextStream@@QEAAAEAV0@AEA_J@Z" PURGE="0" COMMENT="" />
    <EXPORT ORDINAL="1257" NAME="??5QTextStream@@QEAAAEAV0@AEA_K@Z" PURGE="0" COMMENT="" />
    <EXPORT ORDINAL="1258" NAME="??5QTextStream@@QEAAAEAV0@AEA_S@Z" PURGE="0" COMMENT="" />
    <EXPORT ORDINAL="1259" NAME="??5QTextStream@@QEAAAEAV0@PEAD@Z" PURGE="0" COMMENT="" />
    <EXPORT ORDINAL="1260" NAME="??6@YA?AVQDebug@@V0@AEBUtagMSG@@@Z" PURGE="0" COMMENT="" />
    <EXPORT ORDINAL="1261" NAME="??6@YA?AVQDebug@@V0@AEBVQBitArray@@@Z" PURGE="0" COMMENT="" />
    <EXPORT ORDINAL="1262" NAME="??6@YA?AVQDebug@@V0@AEBVQCborArray@@@Z" PURGE="0" COMMENT="" />
    <EXPORT ORDINAL="1263" NAME="??6@YA?AVQDebug@@V0@AEBVQCborMap@@@Z" PURGE="0" COMMENT="" />
    <EXPORT ORDINAL="1264" NAME="??6@YA?AVQDebug@@V0@AEBVQCborValue@@@Z" PURGE="0" COMMENT="" />
    <EXPORT ORDINAL="1265" NAME="??6@YA?AVQDebug@@V0@AEBVQDateTime@@@Z" PURGE="0" COMMENT="" />
    <EXPORT ORDINAL="1266" NAME="??6@YA?AVQDebug@@V0@AEBVQDir@@@Z" PURGE="0" COMMENT="" />
    <EXPORT ORDINAL="1267" NAME="??6@YA?AVQDebug@@V0@AEBVQEasingCurve@@@Z" PURGE="0" COMMENT="" />
    <EXPORT ORDINAL="1268" NAME="??6@YA?AVQDebug@@V0@AEBVQFileInfo@@@Z" PURGE="0" COMMENT="" />
    <EXPORT ORDINAL="1269" NAME="??6@YA?AVQDebug@@V0@AEBVQItemSelectionRange@@@Z" PURGE="0" COMMENT="" />
    <EXPORT ORDINAL="1270" NAME="??6@YA?AVQDebug@@V0@AEBVQJsonArray@@@Z" PURGE="0" COMMENT="" />
    <EXPORT ORDINAL="1271" NAME="??6@YA?AVQDebug@@V0@AEBVQJsonDocument@@@Z" PURGE="0" COMMENT="" />
    <EXPORT ORDINAL="1272" NAME="??6@YA?AVQDebug@@V0@AEBVQJsonObject@@@Z" PURGE="0" COMMENT="" />
    <EXPORT ORDINAL="1273" NAME="??6@YA?AVQDebug@@V0@AEBVQJsonValue@@@Z" PURGE="0" COMMENT="" />
    <EXPORT ORDINAL="1274" NAME="??6@YA?AVQDebug@@V0@AEBVQLine@@@Z" PURGE="0" COMMENT="" />
    <EXPORT ORDINAL="1275" NAME="??6@YA?AVQDebug@@V0@AEBVQLineF@@@Z" PURGE="0" COMMENT="" />
    <EXPORT ORDINAL="1276" NAME="??6@YA?AVQDebug@@V0@AEBVQLocale@@@Z" PURGE="0" COMMENT="" />
    <EXPORT ORDINAL="1277" NAME="??6@YA?AVQDebug@@V0@AEBVQMargins@@@Z" PURGE="0" COMMENT="" />
    <EXPORT ORDINAL="1278" NAME="??6@YA?AVQDebug@@V0@AEBVQMarginsF@@@Z" PURGE="0" COMMENT="" />
    <EXPORT ORDINAL="1279" NAME="??6@YA?AVQDebug@@V0@AEBVQMimeType@@@Z" PURGE="0" COMMENT="" />
    <EXPORT ORDINAL="1280" NAME="??6@YA?AVQDebug@@V0@AEBVQModelIndex@@@Z" PURGE="0" COMMENT="" />
    <EXPORT ORDINAL="1281" NAME="??6@YA?AVQDebug@@V0@AEBVQOperatingSystemVersion@@@Z" PURGE="0" COMMENT="" />
    <EXPORT ORDINAL="1282" NAME="??6@YA?AVQDebug@@V0@AEBVQPermission@@@Z" PURGE="0" COMMENT="" />
    <EXPORT ORDINAL="1283" NAME="??6@YA?AVQDebug@@V0@AEBVQPersistentModelIndex@@@Z" PURGE="0" COMMENT="" />
    <EXPORT ORDINAL="1284" NAME="??6@YA?AVQDebug@@V0@AEBVQPoint@@@Z" PURGE="0" COMMENT="" />
    <EXPORT ORDINAL="1285" NAME="??6@YA?AVQDebug@@V0@AEBVQPointF@@@Z" PURGE="0" COMMENT="" />
    <EXPORT ORDINAL="1286" NAME="??6@YA?AVQDebug@@V0@AEBVQRect@@@Z" PURGE="0" COMMENT="" />
    <EXPORT ORDINAL="1287" NAME="??6@YA?AVQDebug@@V0@AEBVQRectF@@@Z" PURGE="0" COMMENT="" />
    <EXPORT ORDINAL="1288" NAME="??6@YA?AVQDebug@@V0@AEBVQRegularExpression@@@Z" PURGE="0" COMMENT="" />
    <EXPORT ORDINAL="1289" NAME="??6@YA?AVQDebug@@V0@AEBVQRegularExpressionMatch@@@Z" PURGE="0" COMMENT="" />
    <EXPORT ORDINAL="1290" NAME="??6@YA?AVQDebug@@V0@AEBVQSize@@@Z" PURGE="0" COMMENT="" />
    <EXPORT ORDINAL="1291" NAME="??6@YA?AVQDebug@@V0@AEBVQSizeF@@@Z" PURGE="0" COMMENT="" />
    <EXPORT ORDINAL="1292" NAME="??6@YA?AVQDebug@@V0@AEBVQStorageInfo@@@Z" PURGE="0" COMMENT="" />
    <EXPORT ORDINAL="1293" NAME="??6@YA?AVQDebug@@V0@AEBVQTimeZone@@@Z" PURGE="0" COMMENT="" />
    <EXPORT ORDINAL="1294" NAME="??6@YA?AVQDebug@@V0@AEBVQTypeRevision@@@Z" PURGE="0" COMMENT="" />
    <EXPORT ORDINAL="1295" NAME="??6@YA?AVQDebug@@V0@AEBVQUrl@@@Z" PURGE="0" COMMENT="" />
    <EXPORT ORDINAL="1296" NAME="??6@YA?AVQDebug@@V0@AEBVQUuid@@@Z" PURGE="0" COMMENT="" />
    <EXPORT ORDINAL="1297" NAME="??6@YA?AVQDebug@@V0@AEBVQVersionNumber@@@Z" PURGE="0" COMMENT="" />
    <EXPORT ORDINAL="1298" NAME="??6@YA?AVQDebug@@V0@PEBVQObject@@@Z" PURGE="0" COMMENT="" />
    <EXPORT ORDINAL="1299" NAME="??6@YA?AVQDebug@@V0@V?$QFlags@W4Filter@QDir@@@@@Z" PURGE="0" COMMENT="" />
    <EXPORT ORDINAL="1300" NAME="??6@YA?AVQDebug@@V0@V?$QFlags@W4OpenModeFlag@QIODeviceBase@@@@@Z" PURGE="0" COMMENT="" />
    <EXPORT ORDINAL="1301" NAME="??6@YA?AVQDebug@@V0@V?$QFlags@W4PatternOption@QRegularExpression@@@@@Z" PURGE="0" COMMENT="" />
    <EXPORT ORDINAL="1302" NAME="??6@YA?AVQDebug@@V0@VQAnyStringView@@@Z" PURGE="0" COMMENT="" />
    <EXPORT ORDINAL="1303" NAME="??6@YA?AVQDebug@@V0@VQDate@@@Z" PURGE="0" COMMENT="" />
    <EXPORT ORDINAL="1304" NAME="??6@YA?AVQDebug@@V0@VQMetaType@@@Z" PURGE="0" COMMENT="" />
    <EXPORT ORDINAL="1305" NAME="??6@YA?AVQDebug@@V0@VQTime@@@Z" PURGE="0" COMMENT="" />
    <EXPORT ORDINAL="1306" NAME="??6@YA?AVQDebug@@V0@W4QCborKnownTags@@@Z" PURGE="0" COMMENT="" />
    <EXPORT ORDINAL="1307" NAME="??6@YA?AVQDebug@@V0@W4QCborSimpleType@@@Z" PURGE="0" COMMENT="" />
    <EXPORT ORDINAL="1308" NAME="??6@YA?AVQDebug@@V0@W4QCborTag@@@Z" PURGE="0" COMMENT="" />
    <EXPORT ORDINAL="1309" NAME="??6@YA?AVQDebug@@V0@W4Type@QVariant@@@Z" PURGE="0" COMMENT="" />
    <EXPORT ORDINAL="1310" NAME="??6@YAAEAVQDataStream@@AEAV0@AEBVQBitArray@@@Z" PURGE="0" COMMENT="" />
    <EXPORT ORDINAL="1311" NAME="??6@YAAEAVQDataStream@@AEAV0@AEBVQByteArray@@@Z" PURGE="0" COMMENT="" />
    <EXPORT ORDINAL="1312" NAME="??6@YAAEAVQDataStream@@AEAV0@AEBVQCborArray@@@Z" PURGE="0" COMMENT="" />
    <EXPORT ORDINAL="1313" NAME="??6@YAAEAVQDataStream@@AEAV0@AEBVQCborMap@@@Z" PURGE="0" COMMENT="" />
    <EXPORT ORDINAL="1314" NAME="??6@YAAEAVQDataStream@@AEAV0@AEBVQCborValue@@@Z" PURGE="0" COMMENT="" />
    <EXPORT ORDINAL="1315" NAME="??6@YAAEAVQDataStream@@AEAV0@AEBVQDateTime@@@Z" PURGE="0" COMMENT="" />
    <EXPORT ORDINAL="1316" NAME="??6@YAAEAVQDataStream@@AEAV0@AEBVQEasingCurve@@@Z" PURGE="0" COMMENT="" />
    <EXPORT ORDINAL="1317" NAME="??6@YAAEAVQDataStream@@AEAV0@AEBVQJsonArray@@@Z" PURGE="0" COMMENT="" />
    <EXPORT ORDINAL="1318" NAME="??6@YAAEAVQDataStream@@AEAV0@AEBVQJsonDocument@@@Z" PURGE="0" COMMENT="" />
    <EXPORT ORDINAL="1319" NAME="??6@YAAEAVQDataStream@@AEAV0@AEBVQJsonObject@@@Z" PURGE="0" COMMENT="" />
    <EXPORT ORDINAL="1320" NAME="??6@YAAEAVQDataStream@@AEAV0@AEBVQJsonValue@@@Z" PURGE="0" COMMENT="" />
    <EXPORT ORDINAL="1321" NAME="??6@YAAEAVQDataStream@@AEAV0@AEBVQLine@@@Z" PURGE="0" COMMENT="" />
    <EXPORT ORDINAL="1322" NAME="??6@YAAEAVQDataStream@@AEAV0@AEBVQLineF@@@Z" PURGE="0" COMMENT="" />
    <EXPORT ORDINAL="1323" NAME="??6@YAAEAVQDataStream@@AEAV0@AEBVQLocale@@@Z" PURGE="0" COMMENT="" />
    <EXPORT ORDINAL="1324" NAME="??6@YAAEAVQDataStream@@AEAV0@AEBVQMargins@@@Z" PURGE="0" COMMENT="" />
    <EXPORT ORDINAL="1325" NAME="??6@YAAEAVQDataStream@@AEAV0@AEBVQMarginsF@@@Z" PURGE="0" COMMENT="" />
    <EXPORT ORDINAL="1326" NAME="??6@YAAEAVQDataStream@@AEAV0@AEBVQPoint@@@Z" PURGE="0" COMMENT="" />
    <EXPORT ORDINAL="1327" NAME="??6@YAAEAVQDataStream@@AEAV0@AEBVQPointF@@@Z" PURGE="0" COMMENT="" />
    <EXPORT ORDINAL="1328" NAME="??6@YAAEAVQDataStream@@AEAV0@AEBVQRect@@@Z" PURGE="0" COMMENT="" />
    <EXPORT ORDINAL="1329" NAME="??6@YAAEAVQDataStream@@AEAV0@AEBVQRectF@@@Z" PURGE="0" COMMENT="" />
    <EXPORT ORDINAL="1330" NAME="??6@YAAEAVQDataStream@@AEAV0@AEBVQRegularExpression@@@Z" PURGE="0" COMMENT="" />
    <EXPORT ORDINAL="1331" NAME="??6@YAAEAVQDataStream@@AEAV0@AEBVQSize@@@Z" PURGE="0" COMMENT="" />
    <EXPORT ORDINAL="1332" NAME="??6@YAAEAVQDataStream@@AEAV0@AEBVQSizeF@@@Z" PURGE="0" COMMENT="" />
    <EXPORT ORDINAL="1333" NAME="??6@YAAEAVQDataStream@@AEAV0@AEBVQString@@@Z" PURGE="0" COMMENT="" />
    <EXPORT ORDINAL="1334" NAME="??6@YAAEAVQDataStream@@AEAV0@AEBVQTimeZone@@@Z" PURGE="0" COMMENT="" />
    <EXPORT ORDINAL="1335" NAME="??6@YAAEAVQDataStream@@AEAV0@AEBVQTypeRevision@@@Z" PURGE="0" COMMENT="" />
    <EXPORT ORDINAL="1336" NAME="??6@YAAEAVQDataStream@@AEAV0@AEBVQUrl@@@Z" PURGE="0" COMMENT="" />
    <EXPORT ORDINAL="1337" NAME="??6@YAAEAVQDataStream@@AEAV0@AEBVQUuid@@@Z" PURGE="0" COMMENT="" />
    <EXPORT ORDINAL="1338" NAME="??6@YAAEAVQDataStream@@AEAV0@AEBVQVariant@@@Z" PURGE="0" COMMENT="" />
    <EXPORT ORDINAL="1339" NAME="??6@YAAEAVQDataStream@@AEAV0@AEBVQVersionNumber@@@Z" PURGE="0" COMMENT="" />
    <EXPORT ORDINAL="1340" NAME="??6@YAAEAVQDataStream@@AEAV0@VQChar@@@Z" PURGE="0" COMMENT="" />
    <EXPORT ORDINAL="1341" NAME="??6@YAAEAVQDataStream@@AEAV0@VQDate@@@Z" PURGE="0" COMMENT="" />
    <EXPORT ORDINAL="1342" NAME="??6@YAAEAVQDataStream@@AEAV0@VQTime@@@Z" PURGE="0" COMMENT="" />
    <EXPORT ORDINAL="1343" NAME="??6@YAAEAVQDataStream@@AEAV0@Vqfloat16@@@Z" PURGE="0" COMMENT="" />
    <EXPORT ORDINAL="1344" NAME="??6@YAAEAVQDataStream@@AEAV0@W4QCborSimpleType@@@Z" PURGE="0" COMMENT="" />
    <EXPORT ORDINAL="1345" NAME="??6@YAAEAVQTextStream@@AEAV0@Vqfloat16@@@Z" PURGE="0" COMMENT="" />
    <EXPORT ORDINAL="1346" NAME="??6QCborArray@@QEAAAEAV0@AEBVQCborValue@@@Z" PURGE="0" COMMENT="" />
    <EXPORT ORDINAL="1347" NAME="??6QDataStream@@QEAAAEAV0@$$T@Z" PURGE="0" COMMENT="" />
    <EXPORT ORDINAL="1348" NAME="??6QDataStream@@QEAAAEAV0@C@Z" PURGE="0" COMMENT="" />
    <EXPORT ORDINAL="1349" NAME="??6QDataStream@@QEAAAEAV0@D@Z" PURGE="0" COMMENT="" />
    <EXPORT ORDINAL="1350" NAME="??6QDataStream@@QEAAAEAV0@E@Z" PURGE="0" COMMENT="" />
    <EXPORT ORDINAL="1351" NAME="??6QDataStream@@QEAAAEAV0@F@Z" PURGE="0" COMMENT="" />
    <EXPORT ORDINAL="1352" NAME="??6QDataStream@@QEAAAEAV0@G@Z" PURGE="0" COMMENT="" />
    <EXPORT ORDINAL="1353" NAME="??6QDataStream@@QEAAAEAV0@H@Z" PURGE="0" COMMENT="" />
    <EXPORT ORDINAL="1354" NAME="??6QDataStream@@QEAAAEAV0@I@Z" PURGE="0" COMMENT="" />
    <EXPORT ORDINAL="1355" NAME="??6QDataStream@@QEAAAEAV0@M@Z" PURGE="0" COMMENT="" />
    <EXPORT ORDINAL="1356" NAME="??6QDataStream@@QEAAAEAV0@N@Z" PURGE="0" COMMENT="" />
    <EXPORT ORDINAL="1357" NAME="??6QDataStream@@QEAAAEAV0@PEBD@Z" PURGE="0" COMMENT="" />
    <EXPORT ORDINAL="1358" NAME="??6QDataStream@@QEAAAEAV0@Vqfloat16@@@Z" PURGE="0" COMMENT="" />
    <EXPORT ORDINAL="1359" NAME="??6QDataStream@@QEAAAEAV0@_J@Z" PURGE="0" COMMENT="" />
    <EXPORT ORDINAL="1360" NAME="??6QDataStream@@QEAAAEAV0@_K@Z" PURGE="0" COMMENT="" />
    <EXPORT ORDINAL="1361" NAME="??6QDataStream@@QEAAAEAV0@_N@Z" PURGE="0" COMMENT="" />
    <EXPORT ORDINAL="1362" NAME="??6QDataStream@@QEAAAEAV0@_S@Z" PURGE="0" COMMENT="" />
    <EXPORT ORDINAL="1363" NAME="??6QDataStream@@QEAAAEAV0@_U@Z" PURGE="0" COMMENT="" />
    <EXPORT ORDINAL="1364" NAME="??6QDebug@@QEAAAEAV0@$$T@Z" PURGE="0" COMMENT="" />
    <EXPORT ORDINAL="1365" NAME="??6QDebug@@QEAAAEAV0@AEBVQByteArray@@@Z" PURGE="0" COMMENT="" />
    <EXPORT ORDINAL="1366" NAME="??6QDebug@@QEAAAEAV0@AEBVQString@@@Z" PURGE="0" COMMENT="" />
    <EXPORT ORDINAL="1367" NAME="??6QDebug@@QEAAAEAV0@D@Z" PURGE="0" COMMENT="" />
    <EXPORT ORDINAL="1368" NAME="??6QDebug@@QEAAAEAV0@F@Z" PURGE="0" COMMENT="" />
    <EXPORT ORDINAL="1369" NAME="??6QDebug@@QEAAAEAV0@G@Z" PURGE="0" COMMENT="" />
    <EXPORT ORDINAL="1370" NAME="??6QDebug@@QEAAAEAV0@H@Z" PURGE="0" COMMENT="" />
    <EXPORT ORDINAL="1371" NAME="??6QDebug@@QEAAAEAV0@I@Z" PURGE="0" COMMENT="" />
    <EXPORT ORDINAL="1372" NAME="??6QDebug@@QEAAAEAV0@J@Z" PURGE="0" COMMENT="" />
    <EXPORT ORDINAL="1373" NAME="??6QDebug@@QEAAAEAV0@K@Z" PURGE="0" COMMENT="" />
    <EXPORT ORDINAL="1374" NAME="??6QDebug@@QEAAAEAV0@M@Z" PURGE="0" COMMENT="" />
    <EXPORT ORDINAL="1375" NAME="??6QDebug@@QEAAAEAV0@N@Z" PURGE="0" COMMENT="" />
    <EXPORT ORDINAL="1376" NAME="??6QDebug@@QEAAAEAV0@P6AAEAVQTextStream@@AEAV1@@Z@Z" PURGE="0" COMMENT="" />
    <EXPORT ORDINAL="1377" NAME="??6QDebug@@QEAAAEAV0@PEBD@Z" PURGE="0" COMMENT="" />
    <EXPORT ORDINAL="1378" NAME="??6QDebug@@QEAAAEAV0@PEBX@Z" PURGE="0" COMMENT="" />
    <EXPORT ORDINAL="1379" NAME="??6QDebug@@QEAAAEAV0@PEB_S@Z" PURGE="0" COMMENT="" />
    <EXPORT ORDINAL="1380" NAME="??6QDebug@@QEAAAEAV0@Unullopt_t@std@@@Z" PURGE="0" COMMENT="" />
    <EXPORT ORDINAL="1381" NAME="??6QDebug@@QEAAAEAV0@V?$QBasicUtf8StringView@$0A@@@@Z" PURGE="0" COMMENT="" />
    <EXPORT ORDINAL="1382" NAME="??6QDebug@@QEAAAEAV0@VQByteArrayView@@@Z" PURGE="0" COMMENT="" />
    <EXPORT ORDINAL="1383" NAME="??6QDebug@@QEAAAEAV0@VQChar@@@Z" PURGE="0" COMMENT="" />
    <EXPORT ORDINAL="1384" NAME="??6QDebug@@QEAAAEAV0@VQLatin1String@@@Z" PURGE="0" COMMENT="" />
    <EXPORT ORDINAL="1385" NAME="??6QDebug@@QEAAAEAV0@VQStringView@@@Z" PURGE="0" COMMENT="" />
    <EXPORT ORDINAL="1386" NAME="??6QDebug@@QEAAAEAV0@VQTextStreamManipulator@@@Z" PURGE="0" COMMENT="" />
    <EXPORT ORDINAL="1387" NAME="??6QDebug@@QEAAAEAV0@Vqfloat16@@@Z" PURGE="0" COMMENT="" />
    <EXPORT ORDINAL="1388" NAME="??6QDebug@@QEAAAEAV0@_J@Z" PURGE="0" COMMENT="" />
    <EXPORT ORDINAL="1389" NAME="??6QDebug@@QEAAAEAV0@_K@Z" PURGE="0" COMMENT="" />
    <EXPORT ORDINAL="1390" NAME="??6QDebug@@QEAAAEAV0@_N@Z" PURGE="0" COMMENT="" />
    <EXPORT ORDINAL="1391" NAME="??6QDebug@@QEAAAEAV0@_S@Z" PURGE="0" COMMENT="" />
    <EXPORT ORDINAL="1392" NAME="??6QDebug@@QEAAAEAV0@_U@Z" PURGE="0" COMMENT="" />
    <EXPORT ORDINAL="1393" NAME="??6QJsonArray@@QEAAAEAV0@AEBVQJsonValue@@@Z" PURGE="0" COMMENT="" />
    <EXPORT ORDINAL="1394" NAME="??6QTextStream@@QEAAAEAV0@AEBVQByteArray@@@Z" PURGE="0" COMMENT="" />
    <EXPORT ORDINAL="1395" NAME="??6QTextStream@@QEAAAEAV0@AEBVQString@@@Z" PURGE="0" COMMENT="" />
    <EXPORT ORDINAL="1396" NAME="??6QTextStream@@QEAAAEAV0@D@Z" PURGE="0" COMMENT="" />
    <EXPORT ORDINAL="1397" NAME="??6QTextStream@@QEAAAEAV0@F@Z" PURGE="0" COMMENT="" />
    <EXPORT ORDINAL="1398" NAME="??6QTextStream@@QEAAAEAV0@G@Z" PURGE="0" COMMENT="" />
    <EXPORT ORDINAL="1399" NAME="??6QTextStream@@QEAAAEAV0@H@Z" PURGE="0" COMMENT="" />
    <EXPORT ORDINAL="1400" NAME="??6QTextStream@@QEAAAEAV0@I@Z" PURGE="0" COMMENT="" />
    <EXPORT ORDINAL="1401" NAME="??6QTextStream@@QEAAAEAV0@J@Z" PURGE="0" COMMENT="" />
    <EXPORT ORDINAL="1402" NAME="??6QTextStream@@QEAAAEAV0@K@Z" PURGE="0" COMMENT="" />
    <EXPORT ORDINAL="1403" NAME="??6QTextStream@@QEAAAEAV0@M@Z" PURGE="0" COMMENT="" />
    <EXPORT ORDINAL="1404" NAME="??6QTextStream@@QEAAAEAV0@N@Z" PURGE="0" COMMENT="" />
    <EXPORT ORDINAL="1405" NAME="??6QTextStream@@QEAAAEAV0@PEBD@Z" PURGE="0" COMMENT="" />
    <EXPORT ORDINAL="1406" NAME="??6QTextStream@@QEAAAEAV0@PEBX@Z" PURGE="0" COMMENT="" />
    <EXPORT ORDINAL="1407" NAME="??6QTextStream@@QEAAAEAV0@VQChar@@@Z" PURGE="0" COMMENT="" />
    <EXPORT ORDINAL="1408" NAME="??6QTextStream@@QEAAAEAV0@VQLatin1String@@@Z" PURGE="0" COMMENT="" />
    <EXPORT ORDINAL="1409" NAME="??6QTextStream@@QEAAAEAV0@VQStringView@@@Z" PURGE="0" COMMENT="" />
    <EXPORT ORDINAL="1410" NAME="??6QTextStream@@QEAAAEAV0@_J@Z" PURGE="0" COMMENT="" />
    <EXPORT ORDINAL="1411" NAME="??6QTextStream@@QEAAAEAV0@_K@Z" PURGE="0" COMMENT="" />
    <EXPORT ORDINAL="1412" NAME="??6QTextStream@@QEAAAEAV0@_S@Z" PURGE="0" COMMENT="" />
    <EXPORT ORDINAL="1413" NAME="??7QBitRef@@QEBA_NXZ" PURGE="0" COMMENT="" />
    <EXPORT ORDINAL="1414" NAME="??8?$QConstIterator@VQMetaAssociation@@@@QEBA_NAEBU0@@Z" PURGE="0" COMMENT="" />
    <EXPORT ORDINAL="1415" NAME="??8?$QConstIterator@VQMetaSequence@@@@QEBA_NAEBU0@@Z" PURGE="0" COMMENT="" />
    <EXPORT ORDINAL="1416" NAME="??8?$QIterator@VQMetaAssociation@@@@QEBA_NAEBU0@@Z" PURGE="0" COMMENT="" />
    <EXPORT ORDINAL="1417" NAME="??8?$QIterator@VQMetaSequence@@@@QEBA_NAEBU0@@Z" PURGE="0" COMMENT="" />
    <EXPORT ORDINAL="1418" NAME="??8@YA_NAEBUSectionNode@QDateTimeParser@@0@Z" PURGE="0" COMMENT="" />
    <EXPORT ORDINAL="1419" NAME="??8@YA_NAEBVQRandomGenerator@@0@Z" PURGE="0" COMMENT="" />
    <EXPORT ORDINAL="1420" NAME="??8QBitArray@@QEBA_NAEBV0@@Z" PURGE="0" COMMENT="" />
    <EXPORT ORDINAL="1421" NAME="??8QByteArray@@QEBA_NAEBVQString@@@Z" PURGE="0" COMMENT="" />
    <EXPORT ORDINAL="1422" NAME="??8QCborArray@@QEBA_NAEBV0@@Z" PURGE="0" COMMENT="" />
    <EXPORT ORDINAL="1423" NAME="??8QCborMap@@QEBA_NAEBV0@@Z" PURGE="0" COMMENT="" />
    <EXPORT ORDINAL="1424" NAME="??8QCborValue@@QEBA_NAEBV0@@Z" PURGE="0" COMMENT="" />
    <EXPORT ORDINAL="1425" NAME="??8QCborValueRef@@QEBA_NAEBVQCborValue@@@Z" PURGE="0" COMMENT="" />
    <EXPORT ORDINAL="1426" NAME="??8QDir@@QEBA_NAEBV0@@Z" PURGE="0" COMMENT="" />
    <EXPORT ORDINAL="1427" NAME="??8QEasingCurve@@QEBA_NAEBV0@@Z" PURGE="0" COMMENT="" />
    <EXPORT ORDINAL="1428" NAME="??8QFileInfo@@QEBA_NAEBV0@@Z" PURGE="0" COMMENT="" />
    <EXPORT ORDINAL="1429" NAME="??8QFutureInterfaceBase@@QEBA_NAEBV0@@Z" PURGE="0" COMMENT="" />
    <EXPORT ORDINAL="1430" NAME="??8QItemSelectionRange@@QEBA_NAEBV0@@Z" PURGE="0" COMMENT="" />
    <EXPORT ORDINAL="1431" NAME="??8QJsonArray@@QEBA_NAEBV0@@Z" PURGE="0" COMMENT="" />
    <EXPORT ORDINAL="1432" NAME="??8QJsonDocument@@QEBA_NAEBV0@@Z" PURGE="0" COMMENT="" />
    <EXPORT ORDINAL="1433" NAME="??8QJsonObject@@QEBA_NAEBV0@@Z" PURGE="0" COMMENT="" />
    <EXPORT ORDINAL="1434" NAME="??8QJsonValue@@QEBA_NAEBV0@@Z" PURGE="0" COMMENT="" />
    <EXPORT ORDINAL="1435" NAME="??8QJsonValueRef@@QEBA_NAEBVQJsonValue@@@Z" PURGE="0" COMMENT="" />
    <EXPORT ORDINAL="1436" NAME="??8QLine@@QEBA_NAEBV0@@Z" PURGE="0" COMMENT="" />
    <EXPORT ORDINAL="1437" NAME="??8QLineF@@QEBA_NAEBV0@@Z" PURGE="0" COMMENT="" />
    <EXPORT ORDINAL="1438" NAME="??8QMimeType@@QEBA_NAEBV0@@Z" PURGE="0" COMMENT="" />
    <EXPORT ORDINAL="1439" NAME="??8QPersistentModelIndex@@QEBA_NAEBV0@@Z" PURGE="0" COMMENT="" />
    <EXPORT ORDINAL="1440" NAME="??8QPersistentModelIndex@@QEBA_NAEBVQModelIndex@@@Z" PURGE="0" COMMENT="" />
    <EXPORT ORDINAL="1441" NAME="??8QProcessEnvironment@@QEBA_NAEBV0@@Z" PURGE="0" COMMENT="" />
    <EXPORT ORDINAL="1442" NAME="??8QRegularExpression@@QEBA_NAEBV0@@Z" PURGE="0" COMMENT="" />
    <EXPORT ORDINAL="1443" NAME="??8QString@@QEBA_NAEBVQByteArray@@@Z" PURGE="0" COMMENT="" />
    <EXPORT ORDINAL="1444" NAME="??8QString@@QEBA_NPEBD@Z" PURGE="0" COMMENT="" />
    <EXPORT ORDINAL="1445" NAME="??8QTimeZone@@QEBA_NAEBV0@@Z" PURGE="0" COMMENT="" />
    <EXPORT ORDINAL="1446" NAME="??8QUrl@@QEBA_NAEBV0@@Z" PURGE="0" COMMENT="" />
    <EXPORT ORDINAL="1447" NAME="??8QUrlQuery@@QEBA_NAEBV0@@Z" PURGE="0" COMMENT="" />
    <EXPORT ORDINAL="1448" NAME="??8QUuid@@QEBA_NAEBU_GUID@@@Z" PURGE="0" COMMENT="" />
    <EXPORT ORDINAL="1449" NAME="??8QUuid@@QEBA_NAEBV0@@Z" PURGE="0" COMMENT="" />
    <EXPORT ORDINAL="1450" NAME="??8QXmlStreamAttribute@@QEBA_NAEBV0@@Z" PURGE="0" COMMENT="" />
    <EXPORT ORDINAL="1451" NAME="??8QXmlStreamEntityDeclaration@@QEBA_NAEBV0@@Z" PURGE="0" COMMENT="" />
    <EXPORT ORDINAL="1452" NAME="??8QXmlStreamNamespaceDeclaration@@QEBA_NAEBV0@@Z" PURGE="0" COMMENT="" />
    <EXPORT ORDINAL="1453" NAME="??8QXmlStreamNotationDeclaration@@QEBA_NAEBV0@@Z" PURGE="0" COMMENT="" />
    <EXPORT ORDINAL="1454" NAME="??8ResultIteratorBase@QtPrivate@@QEBA_NAEBV01@@Z" PURGE="0" COMMENT="" />
    <EXPORT ORDINAL="1455" NAME="??9?$QConstIterator@VQMetaAssociation@@@@QEBA_NAEBU0@@Z" PURGE="0" COMMENT="" />
    <EXPORT ORDINAL="1456" NAME="??9?$QConstIterator@VQMetaSequence@@@@QEBA_NAEBU0@@Z" PURGE="0" COMMENT="" />
    <EXPORT ORDINAL="1457" NAME="??9?$QIterator@VQMetaAssociation@@@@QEBA_NAEBU0@@Z" PURGE="0" COMMENT="" />
    <EXPORT ORDINAL="1458" NAME="??9?$QIterator@VQMetaSequence@@@@QEBA_NAEBU0@@Z" PURGE="0" COMMENT="" />
    <EXPORT ORDINAL="1459" NAME="??9QBitArray@@QEBA_NAEBV0@@Z" PURGE="0" COMMENT="" />
    <EXPORT ORDINAL="1460" NAME="??9QByteArray@@QEBA_NAEBVQString@@@Z" PURGE="0" COMMENT="" />
    <EXPORT ORDINAL="1461" NAME="??9QCborArray@@QEBA_NAEBV0@@Z" PURGE="0" COMMENT="" />
    <EXPORT ORDINAL="1462" NAME="??9QCborMap@@QEBA_NAEBV0@@Z" PURGE="0" COMMENT="" />
    <EXPORT ORDINAL="1463" NAME="??9QCborValue@@QEBA_NAEBV0@@Z" PURGE="0" COMMENT="" />
    <EXPORT ORDINAL="1464" NAME="??9QCborValueRef@@QEBA_NAEBVQCborValue@@@Z" PURGE="0" COMMENT="" />
    <EXPORT ORDINAL="1465" NAME="??9QDir@@QEBA_NAEBV0@@Z" PURGE="0" COMMENT="" />
    <EXPORT ORDINAL="1466" NAME="??9QEasingCurve@@QEBA_NAEBV0@@Z" PURGE="0" COMMENT="" />
    <EXPORT ORDINAL="1467" NAME="??9QFileInfo@@QEBA_NAEBV0@@Z" PURGE="0" COMMENT="" />
    <EXPORT ORDINAL="1468" NAME="??9QFutureInterfaceBase@@QEBA_NAEBV0@@Z" PURGE="0" COMMENT="" />
    <EXPORT ORDINAL="1469" NAME="??9QItemSelectionRange@@QEBA_NAEBV0@@Z" PURGE="0" COMMENT="" />
    <EXPORT ORDINAL="1470" NAME="??9QJsonArray@@QEBA_NAEBV0@@Z" PURGE="0" COMMENT="" />
    <EXPORT ORDINAL="1471" NAME="??9QJsonDocument@@QEBA_NAEBV0@@Z" PURGE="0" COMMENT="" />
    <EXPORT ORDINAL="1472" NAME="??9QJsonObject@@QEBA_NAEBV0@@Z" PURGE="0" COMMENT="" />
    <EXPORT ORDINAL="1473" NAME="??9QJsonValue@@QEBA_NAEBV0@@Z" PURGE="0" COMMENT="" />
    <EXPORT ORDINAL="1474" NAME="??9QJsonValueRef@@QEBA_NAEBVQJsonValue@@@Z" PURGE="0" COMMENT="" />
    <EXPORT ORDINAL="1475" NAME="??9QLine@@QEBA_NAEBV0@@Z" PURGE="0" COMMENT="" />
    <EXPORT ORDINAL="1476" NAME="??9QLineF@@QEBA_NAEBV0@@Z" PURGE="0" COMMENT="" />
    <EXPORT ORDINAL="1477" NAME="??9QMimeType@@QEBA_NAEBV0@@Z" PURGE="0" COMMENT="" />
    <EXPORT ORDINAL="1478" NAME="??9QPersistentModelIndex@@QEBA_NAEBV0@@Z" PURGE="0" COMMENT="" />
    <EXPORT ORDINAL="1479" NAME="??9QPersistentModelIndex@@QEBA_NAEBVQModelIndex@@@Z" PURGE="0" COMMENT="" />
    <EXPORT ORDINAL="1480" NAME="??9QProcessEnvironment@@QEBA_NAEBV0@@Z" PURGE="0" COMMENT="" />
    <EXPORT ORDINAL="1481" NAME="??9QRegularExpression@@QEBA_NAEBV0@@Z" PURGE="0" COMMENT="" />
    <EXPORT ORDINAL="1482" NAME="??9QString@@QEBA_NAEBVQByteArray@@@Z" PURGE="0" COMMENT="" />
    <EXPORT ORDINAL="1483" NAME="??9QString@@QEBA_NPEBD@Z" PURGE="0" COMMENT="" />
    <EXPORT ORDINAL="1484" NAME="??9QTimeZone@@QEBA_NAEBV0@@Z" PURGE="0" COMMENT="" />
    <EXPORT ORDINAL="1485" NAME="??9QUrl@@QEBA_NAEBV0@@Z" PURGE="0" COMMENT="" />
    <EXPORT ORDINAL="1486" NAME="??9QUrlQuery@@QEBA_NAEBV0@@Z" PURGE="0" COMMENT="" />
    <EXPORT ORDINAL="1487" NAME="??9QUuid@@QEBA_NAEBU_GUID@@@Z" PURGE="0" COMMENT="" />
    <EXPORT ORDINAL="1488" NAME="??9QUuid@@QEBA_NAEBV0@@Z" PURGE="0" COMMENT="" />
    <EXPORT ORDINAL="1489" NAME="??9QXmlStreamAttribute@@QEBA_NAEBV0@@Z" PURGE="0" COMMENT="" />
    <EXPORT ORDINAL="1490" NAME="??9QXmlStreamEntityDeclaration@@QEBA_NAEBV0@@Z" PURGE="0" COMMENT="" />
    <EXPORT ORDINAL="1491" NAME="??9QXmlStreamNamespaceDeclaration@@QEBA_NAEBV0@@Z" PURGE="0" COMMENT="" />
    <EXPORT ORDINAL="1492" NAME="??9QXmlStreamNotationDeclaration@@QEBA_NAEBV0@@Z" PURGE="0" COMMENT="" />
    <EXPORT ORDINAL="1493" NAME="??9ResultIteratorBase@QtPrivate@@QEBA_NAEBV01@@Z" PURGE="0" COMMENT="" />
    <EXPORT ORDINAL="1494" NAME="??AQBitArray@@QEAA?AVQBitRef@@_J@Z" PURGE="0" COMMENT="" />
    <EXPORT ORDINAL="1495" NAME="??AQBitArray@@QEBA_N_J@Z" PURGE="0" COMMENT="" />
    <EXPORT ORDINAL="1496" NAME="??AQByteArray@@QEAAAEAD_J@Z" PURGE="0" COMMENT="" />
    <EXPORT ORDINAL="1497" NAME="??AQByteArray@@QEBAD_J@Z" PURGE="0" COMMENT="" />
    <EXPORT ORDINAL="1498" NAME="??AQByteArrayView@@QEBAD_J@Z" PURGE="0" COMMENT="" />
    <EXPORT ORDINAL="1499" NAME="??AQCborArray@@QEAA?AVQCborValueRef@@_J@Z" PURGE="0" COMMENT="" />
    <EXPORT ORDINAL="1500" NAME="??AQCborArray@@QEBA?BVQCborValue@@_J@Z" PURGE="0" COMMENT="" />
    <EXPORT ORDINAL="1501" NAME="??AQCborMap@@QEAA?AVQCborValueRef@@AEBVQCborValue@@@Z" PURGE="0" COMMENT="" />
    <EXPORT ORDINAL="1502" NAME="??AQCborMap@@QEAA?AVQCborValueRef@@AEBVQString@@@Z" PURGE="0" COMMENT="" />
    <EXPORT ORDINAL="1503" NAME="??AQCborMap@@QEAA?AVQCborValueRef@@VQLatin1String@@@Z" PURGE="0" COMMENT="" />
    <EXPORT ORDINAL="1504" NAME="??AQCborMap@@QEAA?AVQCborValueRef@@_J@Z" PURGE="0" COMMENT="" />
    <EXPORT ORDINAL="1505" NAME="??AQCborMap@@QEBA?BVQCborValue@@AEBV1@@Z" PURGE="0" COMMENT="" />
    <EXPORT ORDINAL="1506" NAME="??AQCborMap@@QEBA?BVQCborValue@@AEBVQString@@@Z" PURGE="0" COMMENT="" />
    <EXPORT ORDINAL="1507" NAME="??AQCborMap@@QEBA?BVQCborValue@@VQLatin1String@@@Z" PURGE="0" COMMENT="" />
    <EXPORT ORDINAL="1508" NAME="??AQCborMap@@QEBA?BVQCborValue@@_J@Z" PURGE="0" COMMENT="" />
    <EXPORT ORDINAL="1509" NAME="??AQCborValue@@QEAA?AVQCborValueRef@@AEBVQString@@@Z" PURGE="0" COMMENT="" />
    <EXPORT ORDINAL="1510" NAME="??AQCborValue@@QEAA?AVQCborValueRef@@VQLatin1String@@@Z" PURGE="0" COMMENT="" />
    <EXPORT ORDINAL="1511" NAME="??AQCborValue@@QEAA?AVQCborValueRef@@_J@Z" PURGE="0" COMMENT="" />
    <EXPORT ORDINAL="1512" NAME="??AQCborValue@@QEBA?BV0@AEBVQString@@@Z" PURGE="0" COMMENT="" />
    <EXPORT ORDINAL="1513" NAME="??AQCborValue@@QEBA?BV0@VQLatin1String@@@Z" PURGE="0" COMMENT="" />
    <EXPORT ORDINAL="1514" NAME="??AQCborValue@@QEBA?BV0@_J@Z" PURGE="0" COMMENT="" />
    <EXPORT ORDINAL="1515" NAME="??AQCborValueConstRef@@QEBA?BVQCborValue@@AEBVQString@@@Z" PURGE="0" COMMENT="" />
    <EXPORT ORDINAL="1516" NAME="??AQCborValueConstRef@@QEBA?BVQCborValue@@VQLatin1String@@@Z" PURGE="0" COMMENT="" />
    <EXPORT ORDINAL="1517" NAME="??AQCborValueConstRef@@QEBA?BVQCborValue@@_J@Z" PURGE="0" COMMENT="" />
    <EXPORT ORDINAL="1518" NAME="??AQCborValueRef@@QEAA?AV0@AEBVQString@@@Z" PURGE="0" COMMENT="" />
    <EXPORT ORDINAL="1519" NAME="??AQCborValueRef@@QEAA?AV0@VQLatin1String@@@Z" PURGE="0" COMMENT="" />
    <EXPORT ORDINAL="1520" NAME="??AQCborValueRef@@QEAA?AV0@_J@Z" PURGE="0" COMMENT="" />
    <EXPORT ORDINAL="1521" NAME="??AQCborValueRef@@QEBA?BVQCborValue@@AEBVQString@@@Z" PURGE="0" COMMENT="" />
    <EXPORT ORDINAL="1522" NAME="??AQCborValueRef@@QEBA?BVQCborValue@@VQLatin1String@@@Z" PURGE="0" COMMENT="" />
    <EXPORT ORDINAL="1523" NAME="??AQCborValueRef@@QEBA?BVQCborValue@@_J@Z" PURGE="0" COMMENT="" />
    <EXPORT ORDINAL="1524" NAME="??AQDir@@QEBA?AVQString@@H@Z" PURGE="0" COMMENT="" />
    <EXPORT ORDINAL="1525" NAME="??AQDir@@QEBA?AVQString@@_J@Z" PURGE="0" COMMENT="" />
    <EXPORT ORDINAL="1526" NAME="??AQJsonArray@@QEAA?AVQJsonValueRef@@_J@Z" PURGE="0" COMMENT="" />
    <EXPORT ORDINAL="1527" NAME="??AQJsonArray@@QEBA?AVQJsonValue@@_J@Z" PURGE="0" COMMENT="" />
    <EXPORT ORDINAL="1528" NAME="??AQJsonDocument@@QEBA?BVQJsonValue@@AEBVQString@@@Z" PURGE="0" COMMENT="" />
    <EXPORT ORDINAL="1529" NAME="??AQJsonDocument@@QEBA?BVQJsonValue@@VQLatin1String@@@Z" PURGE="0" COMMENT="" />
    <EXPORT ORDINAL="1530" NAME="??AQJsonDocument@@QEBA?BVQJsonValue@@VQStringView@@@Z" PURGE="0" COMMENT="" />
    <EXPORT ORDINAL="1531" NAME="??AQJsonDocument@@QEBA?BVQJsonValue@@_J@Z" PURGE="0" COMMENT="" />
    <EXPORT ORDINAL="1532" NAME="??AQJsonObject@@QEAA?AVQJsonValueRef@@AEBVQString@@@Z" PURGE="0" COMMENT="" />
    <EXPORT ORDINAL="1533" NAME="??AQJsonObject@@QEAA?AVQJsonValueRef@@VQLatin1String@@@Z" PURGE="0" COMMENT="" />
    <EXPORT ORDINAL="1534" NAME="??AQJsonObject@@QEAA?AVQJsonValueRef@@VQStringView@@@Z" PURGE="0" COMMENT="" />
    <EXPORT ORDINAL="1535" NAME="??AQJsonObject@@QEBA?AVQJsonValue@@AEBVQString@@@Z" PURGE="0" COMMENT="" />
    <EXPORT ORDINAL="1536" NAME="??AQJsonObject@@QEBA?AVQJsonValue@@VQLatin1String@@@Z" PURGE="0" COMMENT="" />
    <EXPORT ORDINAL="1537" NAME="??AQJsonObject@@QEBA?AVQJsonValue@@VQStringView@@@Z" PURGE="0" COMMENT="" />
    <EXPORT ORDINAL="1538" NAME="??AQJsonValue@@QEBA?BV0@AEBVQString@@@Z" PURGE="0" COMMENT="" />
    <EXPORT ORDINAL="1539" NAME="??AQJsonValue@@QEBA?BV0@VQLatin1String@@@Z" PURGE="0" COMMENT="" />
    <EXPORT ORDINAL="1540" NAME="??AQJsonValue@@QEBA?BV0@VQStringView@@@Z" PURGE="0" COMMENT="" />
    <EXPORT ORDINAL="1541" NAME="??AQJsonValue@@QEBA?BV0@_J@Z" PURGE="0" COMMENT="" />
    <EXPORT ORDINAL="1542" NAME="??AQJsonValueRef@@QEBA?BVQJsonValue@@VQLatin1String@@@Z" PURGE="0" COMMENT="" />
    <EXPORT ORDINAL="1543" NAME="??AQJsonValueRef@@QEBA?BVQJsonValue@@VQStringView@@@Z" PURGE="0" COMMENT="" />
    <EXPORT ORDINAL="1544" NAME="??AQJsonValueRef@@QEBA?BVQJsonValue@@_J@Z" PURGE="0" COMMENT="" />
    <EXPORT ORDINAL="1545" NAME="??AQString@@QEAAAEAVQChar@@_J@Z" PURGE="0" COMMENT="" />
    <EXPORT ORDINAL="1546" NAME="??AQString@@QEBA?BVQChar@@_J@Z" PURGE="0" COMMENT="" />
    <EXPORT ORDINAL="1547" NAME="??BConnection@QMetaObject@@QEBAPEQ01@PEAXXZ" PURGE="0" COMMENT="" />
    <EXPORT ORDINAL="1548" NAME="??BQBitRef@@QEBA_NXZ" PURGE="0" COMMENT="" />
    <EXPORT ORDINAL="1549" NAME="??BQByteArray@@QEBAPEBDXZ" PURGE="0" COMMENT="" />
    <EXPORT ORDINAL="1550" NAME="??BQByteArray@@QEBAPEBXXZ" PURGE="0" COMMENT="" />
    <EXPORT ORDINAL="1551" NAME="??BQByteArrayView@@QEBA?AV?$basic_string_view@DU?$char_traits@D@std@@@std@@XZ" PURGE="0" COMMENT="" />
    <EXPORT ORDINAL="1552" NAME="??BQCborError@@QEBA?AW4Code@0@XZ" PURGE="0" COMMENT="" />
    <EXPORT ORDINAL="1553" NAME="??BQCborValueRef@@QEBA?AVQCborValue@@XZ" PURGE="0" COMMENT="" />
    <EXPORT ORDINAL="1554" NAME="??BQComHelper@@QEBA_NXZ" PURGE="0" COMMENT="" />
    <EXPORT ORDINAL="1555" NAME="??BQJsonValueRef@@QEBA?AVQJsonValue@@XZ" PURGE="0" COMMENT="" />
    <EXPORT ORDINAL="1556" NAME="??BQPersistentModelIndex@@QEBA?AVQModelIndex@@XZ" PURGE="0" COMMENT="" />
    <EXPORT ORDINAL="1557" NAME="??BQString@@QEBA?AV?$basic_string_view@_SU?$char_traits@_S@std@@@std@@XZ" PURGE="0" COMMENT="" />
    <EXPORT ORDINAL="1558" NAME="??BQUuid@@QEBA?AU_GUID@@XZ" PURGE="0" COMMENT="" />
    <EXPORT ORDINAL="1559" NAME="??BQWinRegistryKey@@QEBAPEAUHKEY__@@XZ" PURGE="0" COMMENT="" />
    <EXPORT ORDINAL="1560" NAME="??CQAssociativeConstIterator@@QEBA?AVQVariantConstPointer@@XZ" PURGE="0" COMMENT="" />
    <EXPORT ORDINAL="1561" NAME="??CQAssociativeIterator@@QEBA?AV?$QVariantPointer@VQAssociativeIterator@@@@XZ" PURGE="0" COMMENT="" />
    <EXPORT ORDINAL="1562" NAME="??CQSequentialConstIterator@@QEBA?AVQVariantConstPointer@@XZ" PURGE="0" COMMENT="" />
    <EXPORT ORDINAL="1563" NAME="??CQSequentialIterator@@QEBA?AV?$QVariantPointer@VQSequentialIterator@@@@XZ" PURGE="0" COMMENT="" />
    <EXPORT ORDINAL="1564" NAME="??CQVariantConstPointer@@QEBAPEBVQVariant@@XZ" PURGE="0" COMMENT="" />
    <EXPORT ORDINAL="1565" NAME="??DQAssociativeConstIterator@@QEBA?AVQVariant@@XZ" PURGE="0" COMMENT="" />
    <EXPORT ORDINAL="1566" NAME="??DQAssociativeIterator@@QEBA?AV?$QVariantRef@VQAssociativeIterator@@@@XZ" PURGE="0" COMMENT="" />
    <EXPORT ORDINAL="1567" NAME="??DQSequentialConstIterator@@QEBA?AVQVariant@@XZ" PURGE="0" COMMENT="" />
    <EXPORT ORDINAL="1568" NAME="??DQSequentialIterator@@QEBA?AV?$QVariantRef@VQSequentialIterator@@@@XZ" PURGE="0" COMMENT="" />
    <EXPORT ORDINAL="1569" NAME="??DQVariantConstPointer@@QEBA?AVQVariant@@XZ" PURGE="0" COMMENT="" />
    <EXPORT ORDINAL="1570" NAME="??E?$QConstIterator@VQMetaAssociation@@@@QEAA?AU0@H@Z" PURGE="0" COMMENT="" />
    <EXPORT ORDINAL="1571" NAME="??E?$QConstIterator@VQMetaAssociation@@@@QEAAAEAU0@XZ" PURGE="0" COMMENT="" />
    <EXPORT ORDINAL="1572" NAME="??E?$QConstIterator@VQMetaSequence@@@@QEAA?AU0@H@Z" PURGE="0" COMMENT="" />
    <EXPORT ORDINAL="1573" NAME="??E?$QConstIterator@VQMetaSequence@@@@QEAAAEAU0@XZ" PURGE="0" COMMENT="" />
    <EXPORT ORDINAL="1574" NAME="??E?$QIterator@VQMetaAssociation@@@@QEAA?AU0@H@Z" PURGE="0" COMMENT="" />
    <EXPORT ORDINAL="1575" NAME="??E?$QIterator@VQMetaAssociation@@@@QEAAAEAU0@XZ" PURGE="0" COMMENT="" />
    <EXPORT ORDINAL="1576" NAME="??E?$QIterator@VQMetaSequence@@@@QEAA?AU0@H@Z" PURGE="0" COMMENT="" />
    <EXPORT ORDINAL="1577" NAME="??E?$QIterator@VQMetaSequence@@@@QEAAAEAU0@XZ" PURGE="0" COMMENT="" />
    <EXPORT ORDINAL="1578" NAME="??EResultIteratorBase@QtPrivate@@QEAA?AV01@XZ" PURGE="0" COMMENT="" />
    <EXPORT ORDINAL="1579" NAME="??F?$QConstIterator@VQMetaAssociation@@@@QEAA?AU0@H@Z" PURGE="0" COMMENT="" />
    <EXPORT ORDINAL="1580" NAME="??F?$QConstIterator@VQMetaAssociation@@@@QEAAAEAU0@XZ" PURGE="0" COMMENT="" />
    <EXPORT ORDINAL="1581" NAME="??F?$QConstIterator@VQMetaSequence@@@@QEAA?AU0@H@Z" PURGE="0" COMMENT="" />
    <EXPORT ORDINAL="1582" NAME="??F?$QConstIterator@VQMetaSequence@@@@QEAAAEAU0@XZ" PURGE="0" COMMENT="" />
    <EXPORT ORDINAL="1583" NAME="??F?$QIterator@VQMetaAssociation@@@@QEAA?AU0@H@Z" PURGE="0" COMMENT="" />
    <EXPORT ORDINAL="1584" NAME="??F?$QIterator@VQMetaAssociation@@@@QEAAAEAU0@XZ" PURGE="0" COMMENT="" />
    <EXPORT ORDINAL="1585" NAME="??F?$QIterator@VQMetaSequence@@@@QEAA?AU0@H@Z" PURGE="0" COMMENT="" />
    <EXPORT ORDINAL="1586" NAME="??F?$QIterator@VQMetaSequence@@@@QEAAAEAU0@XZ" PURGE="0" COMMENT="" />
    <EXPORT ORDINAL="1587" NAME="??G?$QConstIterator@VQMetaAssociation@@@@QEBA?AU0@_J@Z" PURGE="0" COMMENT="" />
    <EXPORT ORDINAL="1588" NAME="??G?$QConstIterator@VQMetaAssociation@@@@QEBA_JAEBU0@@Z" PURGE="0" COMMENT="" />
    <EXPORT ORDINAL="1589" NAME="??G?$QConstIterator@VQMetaSequence@@@@QEBA?AU0@_J@Z" PURGE="0" COMMENT="" />
    <EXPORT ORDINAL="1590" NAME="??G?$QConstIterator@VQMetaSequence@@@@QEBA_JAEBU0@@Z" PURGE="0" COMMENT="" />
    <EXPORT ORDINAL="1591" NAME="??G?$QIterator@VQMetaAssociation@@@@QEBA?AU0@_J@Z" PURGE="0" COMMENT="" />
    <EXPORT ORDINAL="1592" NAME="??G?$QIterator@VQMetaAssociation@@@@QEBA_JAEBU0@@Z" PURGE="0" COMMENT="" />
    <EXPORT ORDINAL="1593" NAME="??G?$QIterator@VQMetaSequence@@@@QEBA?AU0@_J@Z" PURGE="0" COMMENT="" />
    <EXPORT ORDINAL="1594" NAME="??G?$QIterator@VQMetaSequence@@@@QEBA_JAEBU0@@Z" PURGE="0" COMMENT="" />
    <EXPORT ORDINAL="1595" NAME="??H?$QConstIterator@VQMetaAssociation@@@@QEBA?AU0@_J@Z" PURGE="0" COMMENT="" />
    <EXPORT ORDINAL="1596" NAME="??H?$QConstIterator@VQMetaSequence@@@@QEBA?AU0@_J@Z" PURGE="0" COMMENT="" />
    <EXPORT ORDINAL="1597" NAME="??H?$QIterator@VQMetaAssociation@@@@QEBA?AU0@_J@Z" PURGE="0" COMMENT="" />
    <EXPORT ORDINAL="1598" NAME="??H?$QIterator@VQMetaSequence@@@@QEBA?AU0@_J@Z" PURGE="0" COMMENT="" />
    <EXPORT ORDINAL="1599" NAME="??H@YA?AVQDeadlineTimer@@V0@_J@Z" PURGE="0" COMMENT="" />
    <EXPORT ORDINAL="1600" NAME="??HQCborArray@@QEBA?AV0@AEBVQCborValue@@@Z" PURGE="0" COMMENT="" />
    <EXPORT ORDINAL="1601" NAME="??HQJsonArray@@QEBA?AV0@AEBVQJsonValue@@@Z" PURGE="0" COMMENT="" />
    <EXPORT ORDINAL="1602" NAME="??I@YA?AVQBitArray@@AEBV0@0@Z" PURGE="0" COMMENT="" />
    <EXPORT ORDINAL="1603" NAME="??IQRect@@QEBA?AV0@AEBV0@@Z" PURGE="0" COMMENT="" />
    <EXPORT ORDINAL="1604" NAME="??IQRectF@@QEBA?AV0@AEBV0@@Z" PURGE="0" COMMENT="" />
    <EXPORT ORDINAL="1605" NAME="??M@YA_NAEBVQElapsedTimer@@0@Z" PURGE="0" COMMENT="" />
    <EXPORT ORDINAL="1606" NAME="??MQByteArray@@QEBA_NAEBVQString@@@Z" PURGE="0" COMMENT="" />
    <EXPORT ORDINAL="1607" NAME="??MQCborArray@@QEBA_NAEBV0@@Z" PURGE="0" COMMENT="" />
    <EXPORT ORDINAL="1608" NAME="??MQCborMap@@QEBA_NAEBV0@@Z" PURGE="0" COMMENT="" />
    <EXPORT ORDINAL="1609" NAME="??MQCborValue@@QEBA_NAEBV0@@Z" PURGE="0" COMMENT="" />
    <EXPORT ORDINAL="1610" NAME="??MQCborValueRef@@QEBA_NAEBVQCborValue@@@Z" PURGE="0" COMMENT="" />
    <EXPORT ORDINAL="1611" NAME="??MQPersistentModelIndex@@QEBA_NAEBV0@@Z" PURGE="0" COMMENT="" />
    <EXPORT ORDINAL="1612" NAME="??MQString@@QEBA_NAEBVQByteArray@@@Z" PURGE="0" COMMENT="" />
    <EXPORT ORDINAL="1613" NAME="??MQString@@QEBA_NPEBD@Z" PURGE="0" COMMENT="" />
    <EXPORT ORDINAL="1614" NAME="??MQUrl@@QEBA_NAEBV0@@Z" PURGE="0" COMMENT="" />
    <EXPORT ORDINAL="1615" NAME="??MQUuid@@QEBA_NAEBV0@@Z" PURGE="0" COMMENT="" />
    <EXPORT ORDINAL="1616" NAME="??NQByteArray@@QEBA_NAEBVQString@@@Z" PURGE="0" COMMENT="" />
    <EXPORT ORDINAL="1617" NAME="??NQString@@QEBA_NAEBVQByteArray@@@Z" PURGE="0" COMMENT="" />
    <EXPORT ORDINAL="1618" NAME="??NQString@@QEBA_NPEBD@Z" PURGE="0" COMMENT="" />
    <EXPORT ORDINAL="1619" NAME="??OQByteArray@@QEBA_NAEBVQString@@@Z" PURGE="0" COMMENT="" />
    <EXPORT ORDINAL="1620" NAME="??OQString@@QEBA_NAEBVQByteArray@@@Z" PURGE="0" COMMENT="" />
    <EXPORT ORDINAL="1621" NAME="??OQString@@QEBA_NPEBD@Z" PURGE="0" COMMENT="" />
    <EXPORT ORDINAL="1622" NAME="??OQUuid@@QEBA_NAEBV0@@Z" PURGE="0" COMMENT="" />
    <EXPORT ORDINAL="1623" NAME="??PQByteArray@@QEBA_NAEBVQString@@@Z" PURGE="0" COMMENT="" />
    <EXPORT ORDINAL="1624" NAME="??PQString@@QEBA_NAEBVQByteArray@@@Z" PURGE="0" COMMENT="" />
    <EXPORT ORDINAL="1625" NAME="??PQString@@QEBA_NPEBD@Z" PURGE="0" COMMENT="" />
    <EXPORT ORDINAL="1626" NAME="??RQCollator@@QEBA_NAEBVQString@@0@Z" PURGE="0" COMMENT="" />
    <EXPORT ORDINAL="1627" NAME="??RQCollator@@QEBA_NVQStringView@@0@Z" PURGE="0" COMMENT="" />
    <EXPORT ORDINAL="1628" NAME="??RQLoggingCategory@@QEAAAEAV0@XZ" PURGE="0" COMMENT="" />
    <EXPORT ORDINAL="1629" NAME="??RQLoggingCategory@@QEBAAEBV0@XZ" PURGE="0" COMMENT="" />
    <EXPORT ORDINAL="1630" NAME="??SQBitArray@@QEBA?AV0@XZ" PURGE="0" COMMENT="" />
    <EXPORT ORDINAL="1631" NAME="??T@YA?AVQBitArray@@AEBV0@0@Z" PURGE="0" COMMENT="" />
    <EXPORT ORDINAL="1632" NAME="??U@YA?AVQBitArray@@AEBV0@0@Z" PURGE="0" COMMENT="" />
    <EXPORT ORDINAL="1633" NAME="??UQRect@@QEBA?AV0@AEBV0@@Z" PURGE="0" COMMENT="" />
    <EXPORT ORDINAL="1634" NAME="??UQRectF@@QEBA?AV0@AEBV0@@Z" PURGE="0" COMMENT="" />
    <EXPORT ORDINAL="1635" NAME="??XQSize@@QEAAAEAV0@N@Z" PURGE="0" COMMENT="" />
    <EXPORT ORDINAL="1636" NAME="??XQSizeF@@QEAAAEAV0@N@Z" PURGE="0" COMMENT="" />
    <EXPORT ORDINAL="1637" NAME="??Y?$QConstIterator@VQMetaAssociation@@@@QEAAAEAU0@_J@Z" PURGE="0" COMMENT="" />
    <EXPORT ORDINAL="1638" NAME="??Y?$QConstIterator@VQMetaSequence@@@@QEAAAEAU0@_J@Z" PURGE="0" COMMENT="" />
    <EXPORT ORDINAL="1639" NAME="??Y?$QIterator@VQMetaAssociation@@@@QEAAAEAU0@_J@Z" PURGE="0" COMMENT="" />
    <EXPORT ORDINAL="1640" NAME="??Y?$QIterator@VQMetaSequence@@@@QEAAAEAU0@_J@Z" PURGE="0" COMMENT="" />
    <EXPORT ORDINAL="1641" NAME="??YQByteArray@@QEAAAEAV0@AEBV0@@Z" PURGE="0" COMMENT="" />
    <EXPORT ORDINAL="1642" NAME="??YQByteArray@@QEAAAEAV0@D@Z" PURGE="0" COMMENT="" />
    <EXPORT ORDINAL="1643" NAME="??YQByteArray@@QEAAAEAV0@PEBD@Z" PURGE="0" COMMENT="" />
    <EXPORT ORDINAL="1644" NAME="??YQByteArray@@QEAAAEAV0@VQByteArrayView@@@Z" PURGE="0" COMMENT="" />
    <EXPORT ORDINAL="1645" NAME="??YQCborArray@@QEAAAEAV0@AEBVQCborValue@@@Z" PURGE="0" COMMENT="" />
    <EXPORT ORDINAL="1646" NAME="??YQDateTime@@QEAAAEAV0@V?$duration@_JU?$ratio@$00$0DOI@@std@@@chrono@std@@@Z" PURGE="0" COMMENT="" />
    <EXPORT ORDINAL="1647" NAME="??YQDeadlineTimer@@QEAAAEAV0@_J@Z" PURGE="0" COMMENT="" />
    <EXPORT ORDINAL="1648" NAME="??YQJsonArray@@QEAAAEAV0@AEBVQJsonValue@@@Z" PURGE="0" COMMENT="" />
    <EXPORT ORDINAL="1649" NAME="??YQRect@@QEAAAEAV0@AEBVQMargins@@@Z" PURGE="0" COMMENT="" />
    <EXPORT ORDINAL="1650" NAME="??YQRectF@@QEAAAEAV0@AEBVQMarginsF@@@Z" PURGE="0" COMMENT="" />
    <EXPORT ORDINAL="1651" NAME="??YQSize@@QEAAAEAV0@AEBV0@@Z" PURGE="0" COMMENT="" />
    <EXPORT ORDINAL="1652" NAME="??YQSizeF@@QEAAAEAV0@AEBV0@@Z" PURGE="0" COMMENT="" />
    <EXPORT ORDINAL="1653" NAME="??YQString@@QEAAAEAV0@AEBV0@@Z" PURGE="0" COMMENT="" />
    <EXPORT ORDINAL="1654" NAME="??YQString@@QEAAAEAV0@AEBVQByteArray@@@Z" PURGE="0" COMMENT="" />
    <EXPORT ORDINAL="1655" NAME="??YQString@@QEAAAEAV0@PEBD@Z" PURGE="0" COMMENT="" />
    <EXPORT ORDINAL="1656" NAME="??YQString@@QEAAAEAV0@V?$QBasicUtf8StringView@$0A@@@@Z" PURGE="0" COMMENT="" />
    <EXPORT ORDINAL="1657" NAME="??YQString@@QEAAAEAV0@VQChar@@@Z" PURGE="0" COMMENT="" />
    <EXPORT ORDINAL="1658" NAME="??YQString@@QEAAAEAV0@VQLatin1String@@@Z" PURGE="0" COMMENT="" />
    <EXPORT ORDINAL="1659" NAME="??YQString@@QEAAAEAV0@VQStringView@@@Z" PURGE="0" COMMENT="" />
    <EXPORT ORDINAL="1660" NAME="??Z?$QConstIterator@VQMetaAssociation@@@@QEAAAEAU0@_J@Z" PURGE="0" COMMENT="" />
    <EXPORT ORDINAL="1661" NAME="??Z?$QConstIterator@VQMetaSequence@@@@QEAAAEAU0@_J@Z" PURGE="0" COMMENT="" />
    <EXPORT ORDINAL="1662" NAME="??Z?$QIterator@VQMetaAssociation@@@@QEAAAEAU0@_J@Z" PURGE="0" COMMENT="" />
    <EXPORT ORDINAL="1663" NAME="??Z?$QIterator@VQMetaSequence@@@@QEAAAEAU0@_J@Z" PURGE="0" COMMENT="" />
    <EXPORT ORDINAL="1664" NAME="??ZQDateTime@@QEAAAEAV0@V?$duration@_JU?$ratio@$00$0DOI@@std@@@chrono@std@@@Z" PURGE="0" COMMENT="" />
    <EXPORT ORDINAL="1665" NAME="??ZQDeadlineTimer@@QEAAAEAV0@_J@Z" PURGE="0" COMMENT="" />
    <EXPORT ORDINAL="1666" NAME="??ZQRect@@QEAAAEAV0@AEBVQMargins@@@Z" PURGE="0" COMMENT="" />
    <EXPORT ORDINAL="1667" NAME="??ZQRectF@@QEAAAEAV0@AEBVQMarginsF@@@Z" PURGE="0" COMMENT="" />
    <EXPORT ORDINAL="1668" NAME="??ZQSize@@QEAAAEAV0@AEBV0@@Z" PURGE="0" COMMENT="" />
    <EXPORT ORDINAL="1669" NAME="??ZQSizeF@@QEAAAEAV0@AEBV0@@Z" PURGE="0" COMMENT="" />
    <EXPORT ORDINAL="1670" NAME="??_0QSize@@QEAAAEAV0@N@Z" PURGE="0" COMMENT="" />
    <EXPORT ORDINAL="1671" NAME="??_0QSizeF@@QEAAAEAV0@N@Z" PURGE="0" COMMENT="" />
    <EXPORT ORDINAL="1672" NAME="??_4QBitArray@@QEAAAEAV0@$$QEAV0@@Z" PURGE="0" COMMENT="" />
    <EXPORT ORDINAL="1673" NAME="??_4QBitArray@@QEAAAEAV0@AEBV0@@Z" PURGE="0" COMMENT="" />
    <EXPORT ORDINAL="1674" NAME="??_4QRect@@QEAAAEAV0@AEBV0@@Z" PURGE="0" COMMENT="" />
    <EXPORT ORDINAL="1675" NAME="??_4QRectF@@QEAAAEAV0@AEBV0@@Z" PURGE="0" COMMENT="" />
    <EXPORT ORDINAL="1676" NAME="??_5QBitArray@@QEAAAEAV0@$$QEAV0@@Z" PURGE="0" COMMENT="" />
    <EXPORT ORDINAL="1677" NAME="??_5QBitArray@@QEAAAEAV0@AEBV0@@Z" PURGE="0" COMMENT="" />
    <EXPORT ORDINAL="1678" NAME="??_5QRect@@QEAAAEAV0@AEBV0@@Z" PURGE="0" COMMENT="" />
    <EXPORT ORDINAL="1679" NAME="??_5QRectF@@QEAAAEAV0@AEBV0@@Z" PURGE="0" COMMENT="" />
    <EXPORT ORDINAL="1680" NAME="??_6QBitArray@@QEAAAEAV0@$$QEAV0@@Z" PURGE="0" COMMENT="" />
    <EXPORT ORDINAL="1681" NAME="??_6QBitArray@@QEAAAEAV0@AEBV0@@Z" PURGE="0" COMMENT="" />
    <EXPORT ORDINAL="1682" NAME="??_7QAbstractAnimation@@6B@" PURGE="-1" COMMENT="" />
    <EXPORT ORDINAL="1683" NAME="??_7QAbstractAnimationPrivate@@6B@" PURGE="-1" COMMENT="" />
    <EXPORT ORDINAL="1684" NAME="??_7QAbstractAnimationTimer@@6B@" PURGE="-1" COMMENT="" />
    <EXPORT ORDINAL="1685" NAME="??_7QAbstractDynamicMetaObject@@6B@" PURGE="-1" COMMENT="" />
    <EXPORT ORDINAL="1686" NAME="??_7QAbstractEventDispatcher@@6B@" PURGE="-1" COMMENT="" />
    <EXPORT ORDINAL="1687" NAME="??_7QAbstractEventDispatcherPrivate@@6B@" PURGE="-1" COMMENT="" />
    <EXPORT ORDINAL="1688" NAME="??_7QAbstractFileEngine@@6B@" PURGE="-1" COMMENT="" />
    <EXPORT ORDINAL="1689" NAME="??_7QAbstractFileEngineHandler@@6B@" PURGE="-1" COMMENT="" />
    <EXPORT ORDINAL="1690" NAME="??_7QAbstractFileEngineIterator@@6B@" PURGE="-1" COMMENT="" />
    <EXPORT ORDINAL="1691" NAME="??_7QAbstractItemModel@@6B@" PURGE="-1" COMMENT="" />
    <EXPORT ORDINAL="1692" NAME="??_7QAbstractItemModelPrivate@@6B@" PURGE="-1" COMMENT="" />
    <EXPORT ORDINAL="1693" NAME="??_7QAbstractListModel@@6B@" PURGE="-1" COMMENT="" />
    <EXPORT ORDINAL="1694" NAME="??_7QAbstractMetaCallEvent@@6B@" PURGE="-1" COMMENT="" />
    <EXPORT ORDINAL="1695" NAME="??_7QAbstractNativeEventFilter@@6B@" PURGE="-1" COMMENT="" />
    <EXPORT ORDINAL="1696" NAME="??_7QAbstractProxyModel@@6B@" PURGE="-1" COMMENT="" />
    <EXPORT ORDINAL="1697" NAME="??_7QAbstractProxyModelPrivate@@6B@" PURGE="-1" COMMENT="" />
    <EXPORT ORDINAL="1698" NAME="??_7QAbstractTableModel@@6B@" PURGE="-1" COMMENT="" />
    <EXPORT ORDINAL="1699" NAME="??_7QAnimationDriver@@6B@" PURGE="-1" COMMENT="" />
    <EXPORT ORDINAL="1700" NAME="??_7QAnimationDriverPrivate@@6B@" PURGE="-1" COMMENT="" />
    <EXPORT ORDINAL="1701" NAME="??_7QAnimationGroup@@6B@" PURGE="-1" COMMENT="" />
    <EXPORT ORDINAL="1702" NAME="??_7QBuffer@@6B@" PURGE="-1" COMMENT="" />
    <EXPORT ORDINAL="1703" NAME="??_7QCalendarBackend@@6B@" PURGE="-1" COMMENT="" />
    <EXPORT ORDINAL="1704" NAME="??_7QChildEvent@@6B@" PURGE="-1" COMMENT="" />
    <EXPORT ORDINAL="1705" NAME="??_7QConcatenateTablesProxyModel@@6B@" PURGE="-1" COMMENT="" />
    <EXPORT ORDINAL="1706" NAME="??_7QCoreApplication@@6B@" PURGE="-1" COMMENT="" />
    <EXPORT ORDINAL="1707" NAME="??_7QCoreApplicationPrivate@@6B@" PURGE="-1" COMMENT="" />
    <EXPORT ORDINAL="1708" NAME="??_7QDaemonThread@@6B@" PURGE="-1" COMMENT="" />
    <EXPORT ORDINAL="1709" NAME="??_7QDateTimeParser@@6B@" PURGE="-1" COMMENT="" />
    <EXPORT ORDINAL="1710" NAME="??_7QDynamicMetaObjectData@@6B@" PURGE="-1" COMMENT="" />
    <EXPORT ORDINAL="1711" NAME="??_7QDynamicPropertyChangeEvent@@6B@" PURGE="-1" COMMENT="" />
    <EXPORT ORDINAL="1712" NAME="??_7QEvent@@6B@" PURGE="-1" COMMENT="" />
    <EXPORT ORDINAL="1713" NAME="??_7QEventDispatcherWin32@@6B@" PURGE="-1" COMMENT="" />
    <EXPORT ORDINAL="1714" NAME="??_7QEventDispatcherWin32Private@@6B@" PURGE="-1" COMMENT="" />
    <EXPORT ORDINAL="1715" NAME="??_7QEventLoop@@6B@" PURGE="-1" COMMENT="" />
    <EXPORT ORDINAL="1716" NAME="??_7QException@@6B@" PURGE="-1" COMMENT="" />
    <EXPORT ORDINAL="1717" NAME="??_7QFSFileEngine@@6B@" PURGE="-1" COMMENT="" />
    <EXPORT ORDINAL="1718" NAME="??_7QFactoryInterface@@6B@" PURGE="-1" COMMENT="" />
    <EXPORT ORDINAL="1719" NAME="??_7QFactoryLoader@@6B@" PURGE="-1" COMMENT="" />
    <EXPORT ORDINAL="1720" NAME="??_7QFile@@6B@" PURGE="-1" COMMENT="" />
    <EXPORT ORDINAL="1721" NAME="??_7QFileDevice@@6B@" PURGE="-1" COMMENT="" />
    <EXPORT ORDINAL="1722" NAME="??_7QFileSelector@@6B@" PURGE="-1" COMMENT="" />
    <EXPORT ORDINAL="1723" NAME="??_7QFileSelectorPrivate@@6B@" PURGE="-1" COMMENT="" />
    <EXPORT ORDINAL="1724" NAME="??_7QFileSystemWatcher@@6B@" PURGE="-1" COMMENT="" />
    <EXPORT ORDINAL="1725" NAME="??_7QFutureCallOutEvent@@6B@" PURGE="-1" COMMENT="" />
    <EXPORT ORDINAL="1726" NAME="??_7QFutureCallOutInterface@@6B@" PURGE="-1" COMMENT="" />
    <EXPORT ORDINAL="1727" NAME="??_7QFutureInterfaceBase@@6B@" PURGE="-1" COMMENT="" />
    <EXPORT ORDINAL="1728" NAME="??_7QFutureWatcherBase@@6B@" PURGE="-1" COMMENT="" />
    <EXPORT ORDINAL="1729" NAME="??_7QGenericRunnable@QRunnable@@6B@" PURGE="-1" COMMENT="" />
    <EXPORT ORDINAL="1730" NAME="??_7QGregorianCalendar@@6B@" PURGE="-1" COMMENT="" />
    <EXPORT ORDINAL="1731" NAME="??_7QHijriCalendar@@6B@" PURGE="-1" COMMENT="" />
    <EXPORT ORDINAL="1732" NAME="??_7QIODevice@@6B@" PURGE="-1" COMMENT="" />
    <EXPORT ORDINAL="1733" NAME="??_7QIODevicePrivate@@6B@" PURGE="-1" COMMENT="" />
    <EXPORT ORDINAL="1734" NAME="??_7QIdentityProxyModel@@6B@" PURGE="-1" COMMENT="" />
    <EXPORT ORDINAL="1735" NAME="??_7QIdentityProxyModelPrivate@@6B@" PURGE="-1" COMMENT="" />
    <EXPORT ORDINAL="1736" NAME="??_7QIslamicCivilCalendar@@6B@" PURGE="-1" COMMENT="" />
    <EXPORT ORDINAL="1737" NAME="??_7QItemSelectionModel@@6B@" PURGE="-1" COMMENT="" />
    <EXPORT ORDINAL="1738" NAME="??_7QJalaliCalendar@@6B@" PURGE="-1" COMMENT="" />
    <EXPORT ORDINAL="1739" NAME="??_7QJulianCalendar@@6B@" PURGE="-1" COMMENT="" />
    <EXPORT ORDINAL="1740" NAME="??_7QLibrary@@6B@" PURGE="-1" COMMENT="" />
    <EXPORT ORDINAL="1741" NAME="??_7QMetaCallEvent@@6B@" PURGE="-1" COMMENT="" />
    <EXPORT ORDINAL="1742" NAME="??_7QMetaObjectBuilder@@6B@" PURGE="-1" COMMENT="" />
    <EXPORT ORDINAL="1743" NAME="??_7QMetaTypeModuleHelper@@6B@" PURGE="-1" COMMENT="" />
    <EXPORT ORDINAL="1744" NAME="??_7QMilankovicCalendar@@6B@" PURGE="-1" COMMENT="" />
    <EXPORT ORDINAL="1745" NAME="??_7QMimeData@@6B@" PURGE="-1" COMMENT="" />
    <EXPORT ORDINAL="1746" NAME="??_7QNonContiguousByteDevice@@6B@" PURGE="-1" COMMENT="" />
    <EXPORT ORDINAL="1747" NAME="??_7QObject@@6B@" PURGE="-1" COMMENT="" />
    <EXPORT ORDINAL="1748" NAME="??_7QObjectCleanupHandler@@6B@" PURGE="-1" COMMENT="" />
    <EXPORT ORDINAL="1749" NAME="??_7QObjectData@@6B@" PURGE="-1" COMMENT="" />
    <EXPORT ORDINAL="1750" NAME="??_7QObjectPrivate@@6B@" PURGE="-1" COMMENT="" />
    <EXPORT ORDINAL="1751" NAME="??_7QParallelAnimationGroup@@6B@" PURGE="-1" COMMENT="" />
    <EXPORT ORDINAL="1752" NAME="??_7QPauseAnimation@@6B@" PURGE="-1" COMMENT="" />
    <EXPORT ORDINAL="1753" NAME="??_7QPermissionPlugin@@6B@" PURGE="-1" COMMENT="" />
    <EXPORT ORDINAL="1754" NAME="??_7QPluginLoader@@6B@" PURGE="-1" COMMENT="" />
    <EXPORT ORDINAL="1755" NAME="??_7QProcess@@6B@" PURGE="-1" COMMENT="" />
    <EXPORT ORDINAL="1756" NAME="??_7QPropertyAnimation@@6B@" PURGE="-1" COMMENT="" />
    <EXPORT ORDINAL="1757" NAME="??_7QRomanCalendar@@6B@" PURGE="-1" COMMENT="" />
    <EXPORT ORDINAL="1758" NAME="??_7QRunnable@@6B@" PURGE="-1" COMMENT="" />
    <EXPORT ORDINAL="1759" NAME="??_7QSaveFile@@6B@" PURGE="-1" COMMENT="" />
    <EXPORT ORDINAL="1760" NAME="??_7QSequentialAnimationGroup@@6B@" PURGE="-1" COMMENT="" />
    <EXPORT ORDINAL="1761" NAME="??_7QSettings@@6B@" PURGE="-1" COMMENT="" />
    <EXPORT ORDINAL="1762" NAME="??_7QSharedMemory@@6B@" PURGE="-1" COMMENT="" />
    <EXPORT ORDINAL="1763" NAME="??_7QSignalMapper@@6B@" PURGE="-1" COMMENT="" />
    <EXPORT ORDINAL="1764" NAME="??_7QSocketNotifier@@6B@" PURGE="-1" COMMENT="" />
    <EXPORT ORDINAL="1765" NAME="??_7QSortFilterProxyModel@@6B@" PURGE="-1" COMMENT="" />
    <EXPORT ORDINAL="1766" NAME="??_7QStringListModel@@6B@" PURGE="-1" COMMENT="" />
    <EXPORT ORDINAL="1767" NAME="??_7QSystemLocale@@6B@" PURGE="-1" COMMENT="" />
    <EXPORT ORDINAL="1768" NAME="??_7QTemporaryFile@@6B@" PURGE="-1" COMMENT="" />
    <EXPORT ORDINAL="1769" NAME="??_7QTextStream@@6B@" PURGE="-1" COMMENT="" />
    <EXPORT ORDINAL="1770" NAME="??_7QThread@@6B@" PURGE="-1" COMMENT="" />
    <EXPORT ORDINAL="1771" NAME="??_7QThreadPool@@6B@" PURGE="-1" COMMENT="" />
    <EXPORT ORDINAL="1772" NAME="??_7QThreadPoolPrivate@@6B@" PURGE="-1" COMMENT="" />
    <EXPORT ORDINAL="1773" NAME="??_7QTimeLine@@6B@" PURGE="-1" COMMENT="" />
    <EXPORT ORDINAL="1774" NAME="??_7QTimer@@6B@" PURGE="-1" COMMENT="" />
    <EXPORT ORDINAL="1775" NAME="??_7QTimerEvent@@6B@" PURGE="-1" COMMENT="" />
    <EXPORT ORDINAL="1776" NAME="??_7QTranslator@@6B@" PURGE="-1" COMMENT="" />
    <EXPORT ORDINAL="1777" NAME="??_7QTransposeProxyModel@@6B@" PURGE="-1" COMMENT="" />
    <EXPORT ORDINAL="1778" NAME="??_7QUnhandledException@@6B@" PURGE="-1" COMMENT="" />
    <EXPORT ORDINAL="1779" NAME="??_7QUnifiedTimer@@6B@" PURGE="-1" COMMENT="" />
    <EXPORT ORDINAL="1780" NAME="??_7QVariantAnimation@@6B@" PURGE="-1" COMMENT="" />
    <EXPORT ORDINAL="1781" NAME="??_7QWinEventNotifier@@6B@" PURGE="-1" COMMENT="" />
    <EXPORT ORDINAL="1782" NAME="??_7QWindowsPipeReader@@6B@" PURGE="-1" COMMENT="" />
    <EXPORT ORDINAL="1783" NAME="??_7QWindowsPipeWriter@@6B@" PURGE="-1" COMMENT="" />
    <EXPORT ORDINAL="1784" NAME="??_7QXmlStreamEntityResolver@@6B@" PURGE="-1" COMMENT="" />
    <EXPORT ORDINAL="1785" NAME="??_7ResultStoreBase@QtPrivate@@6B@" PURGE="-1" COMMENT="" />
    <EXPORT ORDINAL="1786" NAME="??_FQAbstractAnimation@@QEAAXXZ" PURGE="0" COMMENT="" />
    <EXPORT ORDINAL="1787" NAME="??_FQAbstractEventDispatcher@@QEAAXXZ" PURGE="0" COMMENT="" />
    <EXPORT ORDINAL="1788" NAME="??_FQAbstractItemModel@@QEAAXXZ" PURGE="0" COMMENT="" />
    <EXPORT ORDINAL="1789" NAME="??_FQAbstractListModel@@QEAAXXZ" PURGE="0" COMMENT="" />
    <EXPORT ORDINAL="1790" NAME="??_FQAbstractProxyModel@@QEAAXXZ" PURGE="0" COMMENT="" />
    <EXPORT ORDINAL="1791" NAME="??_FQAbstractTableModel@@QEAAXXZ" PURGE="0" COMMENT="" />
    <EXPORT ORDINAL="1792" NAME="??_FQAnimationDriver@@QEAAXXZ" PURGE="0" COMMENT="" />
    <EXPORT ORDINAL="1793" NAME="??_FQAnimationGroup@@QEAAXXZ" PURGE="0" COMMENT="" />
    <EXPORT ORDINAL="1794" NAME="??_FQBuffer@@QEAAXXZ" PURGE="0" COMMENT="" />
    <EXPORT ORDINAL="1795" NAME="??_FQComHelper@@QEAAXXZ" PURGE="0" COMMENT="" />
    <EXPORT ORDINAL="1796" NAME="??_FQConcatenateTablesProxyModel@@QEAAXXZ" PURGE="0" COMMENT="" />
    <EXPORT ORDINAL="1797" NAME="??_FQDaemonThread@@QEAAXXZ" PURGE="0" COMMENT="" />
    <EXPORT ORDINAL="1798" NAME="??_FQDir@@QEAAXXZ" PURGE="0" COMMENT="" />
    <EXPORT ORDINAL="1799" NAME="??_FQEasingCurve@@QEAAXXZ" PURGE="0" COMMENT="" />
    <EXPORT ORDINAL="1800" NAME="??_FQEventDispatcherWin32@@QEAAXXZ" PURGE="0" COMMENT="" />
    <EXPORT ORDINAL="1801" NAME="??_FQEventLoop@@QEAAXXZ" PURGE="0" COMMENT="" />
    <EXPORT ORDINAL="1802" NAME="??_FQFileSelector@@QEAAXXZ" PURGE="0" COMMENT="" />
    <EXPORT ORDINAL="1803" NAME="??_FQFileSystemWatcher@@QEAAXXZ" PURGE="0" COMMENT="" />
    <EXPORT ORDINAL="1804" NAME="??_FQFutureInterfaceBase@@QEAAXXZ" PURGE="0" COMMENT="" />
    <EXPORT ORDINAL="1805" NAME="??_FQFutureWatcherBase@@QEAAXXZ" PURGE="0" COMMENT="" />
    <EXPORT ORDINAL="1806" NAME="??_FQGenericArgument@@QEAAXXZ" PURGE="0" COMMENT="" />
    <EXPORT ORDINAL="1807" NAME="??_FQGenericReturnArgument@@QEAAXXZ" PURGE="0" COMMENT="" />
    <EXPORT ORDINAL="1808" NAME="??_FQIdentityProxyModel@@QEAAXXZ" PURGE="0" COMMENT="" />
    <EXPORT ORDINAL="1809" NAME="??_FQItemSelectionModel@@QEAAXXZ" PURGE="0" COMMENT="" />
    <EXPORT ORDINAL="1810" NAME="??_FQJsonValue@@QEAAXXZ" PURGE="0" COMMENT="" />
    <EXPORT ORDINAL="1811" NAME="??_FQLibrary@@QEAAXXZ" PURGE="0" COMMENT="" />
    <EXPORT ORDINAL="1812" NAME="??_FQObject@@QEAAXXZ" PURGE="0" COMMENT="" />
    <EXPORT ORDINAL="1813" NAME="??_FQObjectPrivate@@QEAAXXZ" PURGE="0" COMMENT="" />
    <EXPORT ORDINAL="1814" NAME="??_FQParallelAnimationGroup@@QEAAXXZ" PURGE="0" COMMENT="" />
    <EXPORT ORDINAL="1815" NAME="??_FQPauseAnimation@@QEAAXXZ" PURGE="0" COMMENT="" />
    <EXPORT ORDINAL="1816" NAME="??_FQPluginLoader@@QEAAXXZ" PURGE="0" COMMENT="" />
    <EXPORT ORDINAL="1817" NAME="??_FQProcess@@QEAAXXZ" PURGE="0" COMMENT="" />
    <EXPORT ORDINAL="1818" NAME="??_FQPropertyAnimation@@QEAAXXZ" PURGE="0" COMMENT="" />
    <EXPORT ORDINAL="1819" NAME="??_FQReadWriteLock@@QEAAXXZ" PURGE="0" COMMENT="" />
    <EXPORT ORDINAL="1820" NAME="??_FQResource@@QEAAXXZ" PURGE="0" COMMENT="" />
    <EXPORT ORDINAL="1821" NAME="??_FQSaveFile@@QEAAXXZ" PURGE="0" COMMENT="" />
    <EXPORT ORDINAL="1822" NAME="??_FQSemaphore@@QEAAXXZ" PURGE="0" COMMENT="" />
    <EXPORT ORDINAL="1823" NAME="??_FQSequentialAnimationGroup@@QEAAXXZ" PURGE="0" COMMENT="" />
    <EXPORT ORDINAL="1824" NAME="??_FQSettings@@QEAAXXZ" PURGE="0" COMMENT="" />
    <EXPORT ORDINAL="1825" NAME="??_FQSharedMemory@@QEAAXXZ" PURGE="0" COMMENT="" />
    <EXPORT ORDINAL="1826" NAME="??_FQSignalMapper@@QEAAXXZ" PURGE="0" COMMENT="" />
    <EXPORT ORDINAL="1827" NAME="??_FQSortFilterProxyModel@@QEAAXXZ" PURGE="0" COMMENT="" />
    <EXPORT ORDINAL="1828" NAME="??_FQStringListModel@@QEAAXXZ" PURGE="0" COMMENT="" />
    <EXPORT ORDINAL="1829" NAME="??_FQThread@@QEAAXXZ" PURGE="0" COMMENT="" />
    <EXPORT ORDINAL="1830" NAME="??_FQThreadPool@@QEAAXXZ" PURGE="0" COMMENT="" />
    <EXPORT ORDINAL="1831" NAME="??_FQTimeLine@@QEAAXXZ" PURGE="0" COMMENT="" />
    <EXPORT ORDINAL="1832" NAME="??_FQTimer@@QEAAXXZ" PURGE="0" COMMENT="" />
    <EXPORT ORDINAL="1833" NAME="??_FQTranslator@@QEAAXXZ" PURGE="0" COMMENT="" />
    <EXPORT ORDINAL="1834" NAME="??_FQTransposeProxyModel@@QEAAXXZ" PURGE="0" COMMENT="" />
    <EXPORT ORDINAL="1835" NAME="??_FQUnhandledException@@QEAAXXZ" PURGE="0" COMMENT="" />
    <EXPORT ORDINAL="1836" NAME="??_FQVariantAnimation@@QEAAXXZ" PURGE="0" COMMENT="" />
    <EXPORT ORDINAL="1837" NAME="??_FQWinEventNotifier@@QEAAXXZ" PURGE="0" COMMENT="" />
    <EXPORT ORDINAL="1838" NAME="??_FQWindowsPipeReader@@QEAAXXZ" PURGE="0" COMMENT="" />
    <EXPORT ORDINAL="1839" NAME="?Android10@QOperatingSystemVersion@@2V1@B" PURGE="-1" COMMENT="" />
    <EXPORT ORDINAL="1840" NAME="?Android11@QOperatingSystemVersion@@2V1@B" PURGE="-1" COMMENT="" />
    <EXPORT ORDINAL="1841" NAME="?Android12@QOperatingSystemVersion@@2VQOperatingSystemVersionBase@@B" PURGE="-1" COMMENT="" />
    <EXPORT ORDINAL="1842" NAME="?Android12L@QOperatingSystemVersion@@2VQOperatingSystemVersionBase@@B" PURGE="-1" COMMENT="" />
    <EXPORT ORDINAL="1843" NAME="?Android13@QOperatingSystemVersion@@2VQOperatingSystemVersionBase@@B" PURGE="-1" COMMENT="" />
    <EXPORT ORDINAL="1844" NAME="?AndroidJellyBean@QOperatingSystemVersion@@2V1@B" PURGE="-1" COMMENT="" />
    <EXPORT ORDINAL="1845" NAME="?AndroidJellyBean_MR1@QOperatingSystemVersion@@2V1@B" PURGE="-1" COMMENT="" />
    <EXPORT ORDINAL="1846" NAME="?AndroidJellyBean_MR2@QOperatingSystemVersion@@2V1@B" PURGE="-1" COMMENT="" />
    <EXPORT ORDINAL="1847" NAME="?AndroidKitKat@QOperatingSystemVersion@@2V1@B" PURGE="-1" COMMENT="" />
    <EXPORT ORDINAL="1848" NAME="?AndroidLollipop@QOperatingSystemVersion@@2V1@B" PURGE="-1" COMMENT="" />
    <EXPORT ORDINAL="1849" NAME="?AndroidLollipop_MR1@QOperatingSystemVersion@@2V1@B" PURGE="-1" COMMENT="" />
    <EXPORT ORDINAL="1850" NAME="?AndroidMarshmallow@QOperatingSystemVersion@@2V1@B" PURGE="-1" COMMENT="" />
    <EXPORT ORDINAL="1851" NAME="?AndroidNougat@QOperatingSystemVersion@@2V1@B" PURGE="-1" COMMENT="" />
    <EXPORT ORDINAL="1852" NAME="?AndroidNougat_MR1@QOperatingSystemVersion@@2V1@B" PURGE="-1" COMMENT="" />
    <EXPORT ORDINAL="1853" NAME="?AndroidOreo@QOperatingSystemVersion@@2V1@B" PURGE="-1" COMMENT="" />
    <EXPORT ORDINAL="1854" NAME="?AndroidOreo_MR1@QOperatingSystemVersion@@2V1@B" PURGE="-1" COMMENT="" />
    <EXPORT ORDINAL="1855" NAME="?AndroidPie@QOperatingSystemVersion@@2V1@B" PURGE="-1" COMMENT="" />
    <EXPORT ORDINAL="1856" NAME="?BinaryFormatTag@QJsonDocument@@2IB" PURGE="-1" COMMENT="" />
    <EXPORT ORDINAL="1857" NAME="?BindingBit@QPropertyBindingData@QtPrivate@@2_KB" PURGE="-1" COMMENT="" />
    <EXPORT ORDINAL="1858" NAME="?DefaultTwoDigitBaseYear@QLocale@@2HB" PURGE="-1" COMMENT="" />
    <EXPORT ORDINAL="1859" NAME="?DelayedNotificationBit@QPropertyBindingData@QtPrivate@@2_KB" PURGE="-1" COMMENT="" />
    <EXPORT ORDINAL="1860" NAME="?ExtendedSize@QDataStream@@0IB" PURGE="-1" COMMENT="" />
    <EXPORT ORDINAL="1861" NAME="?Forever@QDeadlineTimer@@2W4ForeverConstant@1@B" PURGE="-1" COMMENT="" />
    <EXPORT ORDINAL="1862" NAME="?MacOSBigSur@QOperatingSystemVersion@@2V1@B" PURGE="-1" COMMENT="" />
    <EXPORT ORDINAL="1863" NAME="?MacOSCatalina@QOperatingSystemVersion@@2V1@B" PURGE="-1" COMMENT="" />
    <EXPORT ORDINAL="1864" NAME="?MacOSHighSierra@QOperatingSystemVersion@@2V1@B" PURGE="-1" COMMENT="" />
    <EXPORT ORDINAL="1865" NAME="?MacOSMojave@QOperatingSystemVersion@@2V1@B" PURGE="-1" COMMENT="" />
    <EXPORT ORDINAL="1866" NAME="?MacOSMonterey@QOperatingSystemVersion@@2V1@B" PURGE="-1" COMMENT="" />
    <EXPORT ORDINAL="1867" NAME="?MacOSSierra@QOperatingSystemVersion@@2V1@B" PURGE="-1" COMMENT="" />
    <EXPORT ORDINAL="1868" NAME="?MacOSVentura@QOperatingSystemVersion@@2VQOperatingSystemVersionBase@@B" PURGE="-1" COMMENT="" />
    <EXPORT ORDINAL="1869" NAME="?MaxUtcOffsetSecs@QTimeZone@@2HB" PURGE="-1" COMMENT="" />
    <EXPORT ORDINAL="1870" NAME="?MinUtcOffsetSecs@QTimeZone@@2HB" PURGE="-1" COMMENT="" />
    <EXPORT ORDINAL="1871" NAME="?NullCode@QDataStream@@0IB" PURGE="-1" COMMENT="" />
    <EXPORT ORDINAL="1872" NAME="?OSXElCapitan@QOperatingSystemVersion@@2V1@B" PURGE="-1" COMMENT="" />
    <EXPORT ORDINAL="1873" NAME="?OSXMavericks@QOperatingSystemVersion@@2V1@B" PURGE="-1" COMMENT="" />
    <EXPORT ORDINAL="1874" NAME="?OSXYosemite@QOperatingSystemVersion@@2V1@B" PURGE="-1" COMMENT="" />
    <EXPORT ORDINAL="1875" NAME="?QByteArrayList_join@QtPrivate@@YA?AVQByteArray@@PEBV?$QList@VQByteArray@@@@PEBDH@Z" PURGE="0" COMMENT="" />
    <EXPORT ORDINAL="1876" NAME="?QByteArrayList_join@QtPrivate@@YA?AVQByteArray@@PEBV?$QList@VQByteArray@@@@PEBD_J@Z" PURGE="0" COMMENT="" />
    <EXPORT ORDINAL="1877" NAME="?QStringList_contains@QtPrivate@@YA_NPEBV?$QList@VQString@@@@VQLatin1String@@W4CaseSensitivity@Qt@@@Z" PURGE="0" COMMENT="" />
    <EXPORT ORDINAL="1878" NAME="?QStringList_contains@QtPrivate@@YA_NPEBV?$QList@VQString@@@@VQStringView@@W4CaseSensitivity@Qt@@@Z" PURGE="0" COMMENT="" />
    <EXPORT ORDINAL="1879" NAME="?QStringList_filter@QtPrivate@@YA?AV?$QList@VQString@@@@AEBV2@AEBVQStringMatcher@@@Z" PURGE="0" COMMENT="" />
    <EXPORT ORDINAL="1880" NAME="?QStringList_filter@QtPrivate@@YA?AV?$QList@VQString@@@@AEBV2@VQLatin1String@@W4CaseSensitivity@Qt@@@Z" PURGE="0" COMMENT="" />
    <EXPORT ORDINAL="1881" NAME="?QStringList_filter@QtPrivate@@YA?AV?$QList@VQString@@@@PEBV2@AEBVQRegularExpression@@@Z" PURGE="0" COMMENT="" />
    <EXPORT ORDINAL="1882" NAME="?QStringList_filter@QtPrivate@@YA?AV?$QList@VQString@@@@PEBV2@VQStringView@@W4CaseSensitivity@Qt@@@Z" PURGE="0" COMMENT="" />
    <EXPORT ORDINAL="1883" NAME="?QStringList_indexOf@QtPrivate@@YA_JAEBV?$QList@VQString@@@@VQLatin1String@@_JW4CaseSensitivity@Qt@@@Z" PURGE="0" COMMENT="" />
    <EXPORT ORDINAL="1884" NAME="?QStringList_indexOf@QtPrivate@@YA_JAEBV?$QList@VQString@@@@VQStringView@@_JW4CaseSensitivity@Qt@@@Z" PURGE="0" COMMENT="" />
    <EXPORT ORDINAL="1885" NAME="?QStringList_indexOf@QtPrivate@@YA_JPEBV?$QList@VQString@@@@AEBVQRegularExpression@@_J@Z" PURGE="0" COMMENT="" />
    <EXPORT ORDINAL="1886" NAME="?QStringList_join@QtPrivate@@YA?AVQString@@AEBV?$QList@VQString@@@@VQLatin1String@@@Z" PURGE="0" COMMENT="" />
    <EXPORT ORDINAL="1887" NAME="?QStringList_join@QtPrivate@@YA?AVQString@@PEBV?$QList@VQString@@@@PEBVQChar@@_J@Z" PURGE="0" COMMENT="" />
    <EXPORT ORDINAL="1888" NAME="?QStringList_join@QtPrivate@@YA?AVQString@@PEBV?$QList@VQString@@@@VQStringView@@@Z" PURGE="0" COMMENT="" />
    <EXPORT ORDINAL="1889" NAME="?QStringList_lastIndexOf@QtPrivate@@YA_JAEBV?$QList@VQString@@@@VQLatin1String@@_JW4CaseSensitivity@Qt@@@Z" PURGE="0" COMMENT="" />
    <EXPORT ORDINAL="1890" NAME="?QStringList_lastIndexOf@QtPrivate@@YA_JAEBV?$QList@VQString@@@@VQStringView@@_JW4CaseSensitivity@Qt@@@Z" PURGE="0" COMMENT="" />
    <EXPORT ORDINAL="1891" NAME="?QStringList_lastIndexOf@QtPrivate@@YA_JPEBV?$QList@VQString@@@@AEBVQRegularExpression@@_J@Z" PURGE="0" COMMENT="" />
    <EXPORT ORDINAL="1892" NAME="?QStringList_removeDuplicates@QtPrivate@@YA_JPEAV?$QList@VQString@@@@@Z" PURGE="0" COMMENT="" />
    <EXPORT ORDINAL="1893" NAME="?QStringList_replaceInStrings@QtPrivate@@YAXPEAV?$QList@VQString@@@@AEBVQRegularExpression@@AEBVQString@@@Z" PURGE="0" COMMENT="" />
    <EXPORT ORDINAL="1894" NAME="?QStringList_replaceInStrings@QtPrivate@@YAXPEAV?$QList@VQString@@@@VQStringView@@1W4CaseSensitivity@Qt@@@Z" PURGE="0" COMMENT="" />
    <EXPORT ORDINAL="1895" NAME="?QStringList_sort@QtPrivate@@YAXPEAV?$QList@VQString@@@@W4CaseSensitivity@Qt@@@Z" PURGE="0" COMMENT="" />
    <EXPORT ORDINAL="1896" NAME="?Windows10@QOperatingSystemVersion@@2V1@B" PURGE="-1" COMMENT="" />
    <EXPORT ORDINAL="1897" NAME="?Windows10_1809@QOperatingSystemVersion@@2VQOperatingSystemVersionBase@@B" PURGE="-1" COMMENT="" />
    <EXPORT ORDINAL="1898" NAME="?Windows10_1903@QOperatingSystemVersion@@2VQOperatingSystemVersionBase@@B" PURGE="-1" COMMENT="" />
    <EXPORT ORDINAL="1899" NAME="?Windows10_1909@QOperatingSystemVersion@@2VQOperatingSystemVersionBase@@B" PURGE="-1" COMMENT="" />
    <EXPORT ORDINAL="1900" NAME="?Windows10_2004@QOperatingSystemVersion@@2VQOperatingSystemVersionBase@@B" PURGE="-1" COMMENT="" />
    <EXPORT ORDINAL="1901" NAME="?Windows10_20H2@QOperatingSystemVersion@@2VQOperatingSystemVersionBase@@B" PURGE="-1" COMMENT="" />
    <EXPORT ORDINAL="1902" NAME="?Windows10_21H1@QOperatingSystemVersion@@2VQOperatingSystemVersionBase@@B" PURGE="-1" COMMENT="" />
    <EXPORT ORDINAL="1903" NAME="?Windows10_21H2@QOperatingSystemVersion@@2VQOperatingSystemVersionBase@@B" PURGE="-1" COMMENT="" />
    <EXPORT ORDINAL="1904" NAME="?Windows10_22H2@QOperatingSystemVersion@@2VQOperatingSystemVersionBase@@B" PURGE="-1" COMMENT="" />
    <EXPORT ORDINAL="1905" NAME="?Windows11@QOperatingSystemVersion@@2VQOperatingSystemVersionBase@@B" PURGE="-1" COMMENT="" />
    <EXPORT ORDINAL="1906" NAME="?Windows11_21H2@QOperatingSystemVersion@@2VQOperatingSystemVersionBase@@B" PURGE="-1" COMMENT="" />
    <EXPORT ORDINAL="1907" NAME="?Windows11_22H2@QOperatingSystemVersion@@2VQOperatingSystemVersionBase@@B" PURGE="-1" COMMENT="" />
    <EXPORT ORDINAL="1908" NAME="?Windows7@QOperatingSystemVersion@@2V1@B" PURGE="-1" COMMENT="" />
    <EXPORT ORDINAL="1909" NAME="?Windows8@QOperatingSystemVersion@@2V1@B" PURGE="-1" COMMENT="" />
    <EXPORT ORDINAL="1910" NAME="?Windows8_1@QOperatingSystemVersion@@2V1@B" PURGE="-1" COMMENT="" />
    <EXPORT ORDINAL="1911" NAME="?_currentStringChunkSize@QCborStreamReader@@AEBA_JXZ" PURGE="0" COMMENT="" />
    <EXPORT ORDINAL="1912" NAME="?_empty@QByteArray@@0DB" PURGE="-1" COMMENT="" />
    <EXPORT ORDINAL="1913" NAME="?_empty@QString@@0_SB" PURGE="-1" COMMENT="" />
    <EXPORT ORDINAL="1914" NAME="?_enterContainer_helper@QCborStreamReader@@AEAA_NXZ" PURGE="0" COMMENT="" />
    <EXPORT ORDINAL="1915" NAME="?_fillRange@QRandomGenerator@@AEAA_KPEAX_J@Z" PURGE="0" COMMENT="" />
    <EXPORT ORDINAL="1916" NAME="?_q_sourceColumnsAboutToBeInserted@QIdentityProxyModelPrivate@@QEAAXAEBVQModelIndex@@HH@Z" PURGE="0" COMMENT="" />
    <EXPORT ORDINAL="1917" NAME="?_q_sourceColumnsAboutToBeMoved@QIdentityProxyModelPrivate@@QEAAXAEBVQModelIndex@@HH0H@Z" PURGE="0" COMMENT="" />
    <EXPORT ORDINAL="1918" NAME="?_q_sourceColumnsAboutToBeRemoved@QIdentityProxyModelPrivate@@QEAAXAEBVQModelIndex@@HH@Z" PURGE="0" COMMENT="" />
    <EXPORT ORDINAL="1919" NAME="?_q_sourceColumnsInserted@QIdentityProxyModelPrivate@@QEAAXAEBVQModelIndex@@HH@Z" PURGE="0" COMMENT="" />
    <EXPORT ORDINAL="1920" NAME="?_q_sourceColumnsMoved@QIdentityProxyModelPrivate@@QEAAXAEBVQModelIndex@@HH0H@Z" PURGE="0" COMMENT="" />
    <EXPORT ORDINAL="1921" NAME="?_q_sourceColumnsRemoved@QIdentityProxyModelPrivate@@QEAAXAEBVQModelIndex@@HH@Z" PURGE="0" COMMENT="" />
    <EXPORT ORDINAL="1922" NAME="?_q_sourceDataChanged@QIdentityProxyModelPrivate@@QEAAXAEBVQModelIndex@@0AEBV?$QList@H@@@Z" PURGE="0" COMMENT="" />
    <EXPORT ORDINAL="1923" NAME="?_q_sourceHeaderDataChanged@QIdentityProxyModelPrivate@@QEAAXW4Orientation@Qt@@HH@Z" PURGE="0" COMMENT="" />
    <EXPORT ORDINAL="1924" NAME="?_q_sourceLayoutAboutToBeChanged@QIdentityProxyModelPrivate@@QEAAXAEBV?$QList@VQPersistentModelIndex@@@@W4LayoutChangeHint@QAbstractItemModel@@@Z" PURGE="0" COMMENT="" />
    <EXPORT ORDINAL="1925" NAME="?_q_sourceLayoutChanged@QIdentityProxyModelPrivate@@QEAAXAEBV?$QList@VQPersistentModelIndex@@@@W4LayoutChangeHint@QAbstractItemModel@@@Z" PURGE="0" COMMENT="" />
    <EXPORT ORDINAL="1926" NAME="?_q_sourceModelAboutToBeReset@QIdentityProxyModelPrivate@@QEAAXXZ" PURGE="0" COMMENT="" />
    <EXPORT ORDINAL="1927" NAME="?_q_sourceModelColumnsAboutToBeInserted@QAbstractProxyModelPrivate@@QEAAXAEBVQModelIndex@@HH@Z" PURGE="0" COMMENT="" />
    <EXPORT ORDINAL="1928" NAME="?_q_sourceModelColumnsInserted@QAbstractProxyModelPrivate@@QEAAXAEBVQModelIndex@@HH@Z" PURGE="0" COMMENT="" />
    <EXPORT ORDINAL="1929" NAME="?_q_sourceModelColumnsRemoved@QAbstractProxyModelPrivate@@QEAAXAEBVQModelIndex@@HH@Z" PURGE="0" COMMENT="" />
    <EXPORT ORDINAL="1930" NAME="?_q_sourceModelDestroyed@QAbstractProxyModelPrivate@@UEAAXXZ" PURGE="0" COMMENT="" />
    <EXPORT ORDINAL="1931" NAME="?_q_sourceModelReset@QIdentityProxyModelPrivate@@QEAAXXZ" PURGE="0" COMMENT="" />
    <EXPORT ORDINAL="1932" NAME="?_q_sourceModelRowsAboutToBeInserted@QAbstractProxyModelPrivate@@QEAAXAEBVQModelIndex@@HH@Z" PURGE="0" COMMENT="" />
    <EXPORT ORDINAL="1933" NAME="?_q_sourceModelRowsInserted@QAbstractProxyModelPrivate@@QEAAXAEBVQModelIndex@@HH@Z" PURGE="0" COMMENT="" />
    <EXPORT ORDINAL="1934" NAME="?_q_sourceModelRowsRemoved@QAbstractProxyModelPrivate@@QEAAXAEBVQModelIndex@@HH@Z" PURGE="0" COMMENT="" />
    <EXPORT ORDINAL="1935" NAME="?_q_sourceRowsAboutToBeInserted@QIdentityProxyModelPrivate@@QEAAXAEBVQModelIndex@@HH@Z" PURGE="0" COMMENT="" />
    <EXPORT ORDINAL="1936" NAME="?_q_sourceRowsAboutToBeMoved@QIdentityProxyModelPrivate@@QEAAXAEBVQModelIndex@@HH0H@Z" PURGE="0" COMMENT="" />
    <EXPORT ORDINAL="1937" NAME="?_q_sourceRowsAboutToBeRemoved@QIdentityProxyModelPrivate@@QEAAXAEBVQModelIndex@@HH@Z" PURGE="0" COMMENT="" />
    <EXPORT ORDINAL="1938" NAME="?_q_sourceRowsInserted@QIdentityProxyModelPrivate@@QEAAXAEBVQModelIndex@@HH@Z" PURGE="0" COMMENT="" />
    <EXPORT ORDINAL="1939" NAME="?_q_sourceRowsMoved@QIdentityProxyModelPrivate@@QEAAXAEBVQModelIndex@@HH0H@Z" PURGE="0" COMMENT="" />
    <EXPORT ORDINAL="1940" NAME="?_q_sourceRowsRemoved@QIdentityProxyModelPrivate@@QEAAXAEBVQModelIndex@@HH@Z" PURGE="0" COMMENT="" />
    <EXPORT ORDINAL="1941" NAME="?_qt_property_currentLoop_offset@QAbstractAnimationPrivate@@SA_KXZ" PURGE="0" COMMENT="" />
    <EXPORT ORDINAL="1942" NAME="?_qt_property_direction_offset@QAbstractAnimationPrivate@@SA_KXZ" PURGE="0" COMMENT="" />
    <EXPORT ORDINAL="1943" NAME="?_qt_property_loopCount_offset@QAbstractAnimationPrivate@@SA_KXZ" PURGE="0" COMMENT="" />
    <EXPORT ORDINAL="1944" NAME="?_qt_property_model_offset@QAbstractProxyModelPrivate@@SA_KXZ" PURGE="0" COMMENT="" />
    <EXPORT ORDINAL="1945" NAME="?_qt_property_state_offset@QAbstractAnimationPrivate@@SA_KXZ" PURGE="0" COMMENT="" />
    <EXPORT ORDINAL="1946" NAME="?_qt_property_totalCurrentTime_offset@QAbstractAnimationPrivate@@SA_KXZ" PURGE="0" COMMENT="" />
    <EXPORT ORDINAL="1947" NAME="?_readAndAppendToByteArray_helper@QCborStreamReader@@AEAA_NAEAVQByteArray@@@Z" PURGE="0" COMMENT="" />
    <EXPORT ORDINAL="1948" NAME="?_readAndAppendToString_helper@QCborStreamReader@@AEAA_NAEAVQString@@@Z" PURGE="0" COMMENT="" />
    <EXPORT ORDINAL="1949" NAME="?_readAndAppendToUtf8String_helper@QCborStreamReader@@AEAA_NAEAVQByteArray@@@Z" PURGE="0" COMMENT="" />
    <EXPORT ORDINAL="1950" NAME="?_readByteArray_helper@QCborStreamReader@@AEAA?AU?$StringResult@VQByteArray@@@1@XZ" PURGE="0" COMMENT="" />
    <EXPORT ORDINAL="1951" NAME="?_readString_helper@QCborStreamReader@@AEAA?AU?$StringResult@VQString@@@1@XZ" PURGE="0" COMMENT="" />
    <EXPORT ORDINAL="1952" NAME="?_readUtf8String_helper@QCborStreamReader@@AEAA?AU?$StringResult@VQByteArray@@@1@XZ" PURGE="0" COMMENT="" />
    <EXPORT ORDINAL="1953" NAME="?abbreviation@QTimeZone@@QEBA?AVQString@@AEBVQDateTime@@@Z" PURGE="0" COMMENT="" />
    <EXPORT ORDINAL="1954" NAME="?abortTransaction@QDataStream@@QEAAXXZ" PURGE="0" COMMENT="" />
    <EXPORT ORDINAL="1955" NAME="?aboutToBlock@QAbstractEventDispatcher@@QEAAXXZ" PURGE="0" COMMENT="" />
    <EXPORT ORDINAL="1956" NAME="?aboutToClose@QIODevice@@QEAAXXZ" PURGE="0" COMMENT="" />
    <EXPORT ORDINAL="1957" NAME="?aboutToQuit@QCoreApplication@@QEAAXUQPrivateSignal@1@@Z" PURGE="0" COMMENT="" />
    <EXPORT ORDINAL="1958" NAME="?absoluteDir@QFileInfo@@QEBA?AVQDir@@XZ" PURGE="0" COMMENT="" />
    <EXPORT ORDINAL="1959" NAME="?absoluteFilePath@QDir@@QEBA?AVQString@@AEBV2@@Z" PURGE="0" COMMENT="" />
    <EXPORT ORDINAL="1960" NAME="?absoluteFilePath@QFileInfo@@QEBA?AVQString@@XZ" PURGE="0" COMMENT="" />
    <EXPORT ORDINAL="1961" NAME="?absoluteFilePath@QResource@@QEBA?AVQString@@XZ" PURGE="0" COMMENT="" />
    <EXPORT ORDINAL="1962" NAME="?absoluteMax@QDateTimeParser@@IEBAHHAEBVQDateTime@@@Z" PURGE="0" COMMENT="" />
    <EXPORT ORDINAL="1963" NAME="?absoluteMin@QDateTimeParser@@IEBAHH@Z" PURGE="0" COMMENT="" />
    <EXPORT ORDINAL="1964" NAME="?absolutePath@QDir@@QEBA?AVQString@@XZ" PURGE="0" COMMENT="" />
    <EXPORT ORDINAL="1965" NAME="?absolutePath@QFileInfo@@QEBA?AVQString@@XZ" PURGE="0" COMMENT="" />
    <EXPORT ORDINAL="1966" NAME="?absoluteSignalCount@QMetaObjectPrivate@@SAHPEBUQMetaObject@@@Z" PURGE="0" COMMENT="" />
    <EXPORT ORDINAL="1967" NAME="?accept@QEvent@@QEAAXXZ" PURGE="0" COMMENT="" />
    <EXPORT ORDINAL="1968" NAME="?access@QMetaMethod@@QEBA?AW4Access@1@XZ" PURGE="0" COMMENT="" />
    <EXPORT ORDINAL="1969" NAME="?access@QMetaMethodBuilder@@QEBA?AW4Access@QMetaMethod@@XZ" PURGE="0" COMMENT="" />
    <EXPORT ORDINAL="1970" NAME="?accessMode@QCalendarPermission@@QEBA?AW4AccessMode@1@XZ" PURGE="0" COMMENT="" />
    <EXPORT ORDINAL="1971" NAME="?accessMode@QContactsPermission@@QEBA?AW4AccessMode@1@XZ" PURGE="0" COMMENT="" />
    <EXPORT ORDINAL="1972" NAME="?accuracy@QLocationPermission@@QEBA?AW4Accuracy@1@XZ" PURGE="0" COMMENT="" />
    <EXPORT ORDINAL="1973" NAME="?acquire@QSemaphore@@QEAAXH@Z" PURGE="0" COMMENT="" />
    <EXPORT ORDINAL="1974" NAME="?acquire@QSystemSemaphore@@QEAA_NXZ" PURGE="0" COMMENT="" />
    <EXPORT ORDINAL="1975" NAME="?activate@QMetaObject@@SAXPEAVQObject@@HHPEAPEAX@Z" PURGE="0" COMMENT="" />
    <EXPORT ORDINAL="1976" NAME="?activate@QMetaObject@@SAXPEAVQObject@@HPEAPEAX@Z" PURGE="0" COMMENT="" />
    <EXPORT ORDINAL="1977" NAME="?activate@QMetaObject@@SAXPEAVQObject@@PEBU1@HPEAPEAX@Z" PURGE="0" COMMENT="" />
    <EXPORT ORDINAL="1978" NAME="?activateCallbacks@QInternal@@SA_NW4Callback@1@PEAPEAX@Z" PURGE="0" COMMENT="" />
    <EXPORT ORDINAL="1979" NAME="?activated@QSocketNotifier@@QEAAXHUQPrivateSignal@1@@Z" PURGE="0" COMMENT="" />
    <EXPORT ORDINAL="1980" NAME="?activated@QSocketNotifier@@QEAAXVQSocketDescriptor@@W4Type@1@UQPrivateSignal@1@@Z" PURGE="0" COMMENT="" />
    <EXPORT ORDINAL="1981" NAME="?activated@QWinEventNotifier@@QEAAXPEAXUQPrivateSignal@1@@Z" PURGE="0" COMMENT="" />
    <EXPORT ORDINAL="1982" NAME="?activeThreadCount@QThreadPool@@QEBAHXZ" PURGE="0" COMMENT="" />
    <EXPORT ORDINAL="1983" NAME="?activeThreadCount@QThreadPoolPrivate@@QEBAHXZ" PURGE="0" COMMENT="" />
    <EXPORT ORDINAL="1984" NAME="?add@QObjectCleanupHandler@@QEAAPEAVQObject@@PEAV2@@Z" PURGE="0" COMMENT="" />
    <EXPORT ORDINAL="1985" NAME="?addAnimation@QAnimationGroup@@QEAAXPEAVQAbstractAnimation@@@Z" PURGE="0" COMMENT="" />
    <EXPORT ORDINAL="1986" NAME="?addCanceledResult@ResultStoreBase@QtPrivate@@QEAAHH@Z" PURGE="0" COMMENT="" />
    <EXPORT ORDINAL="1987" NAME="?addClassInfo@QMetaObjectBuilder@@QEAAHAEBVQByteArray@@0@Z" PURGE="0" COMMENT="" />
    <EXPORT ORDINAL="1988" NAME="?addConnection@QObjectPrivate@@QEAAXHPEAUConnection@1@@Z" PURGE="0" COMMENT="" />
    <EXPORT ORDINAL="1989" NAME="?addConstructor@QMetaObjectBuilder@@QEAA?AVQMetaMethodBuilder@@AEBVQByteArray@@@Z" PURGE="0" COMMENT="" />
    <EXPORT ORDINAL="1990" NAME="?addConstructor@QMetaObjectBuilder@@QEAA?AVQMetaMethodBuilder@@AEBVQMetaMethod@@@Z" PURGE="0" COMMENT="" />
    <EXPORT ORDINAL="1991" NAME="?addCubicBezierSegment@QEasingCurve@@QEAAXAEBVQPointF@@00@Z" PURGE="0" COMMENT="" />
    <EXPORT ORDINAL="1992" NAME="?addData@QCborStreamReader@@QEAAXAEBVQByteArray@@@Z" PURGE="0" COMMENT="" />
    <EXPORT ORDINAL="1993" NAME="?addData@QCborStreamReader@@QEAAXPEBD_J@Z" PURGE="0" COMMENT="" />
    <EXPORT ORDINAL="1994" NAME="?addData@QCborStreamReader@@QEAAXPEBE_J@Z" PURGE="0" COMMENT="" />
    <EXPORT ORDINAL="1995" NAME="?addData@QCryptographicHash@@QEAAXAEBVQByteArray@@@Z" PURGE="0" COMMENT="" />
    <EXPORT ORDINAL="1996" NAME="?addData@QCryptographicHash@@QEAAXPEBD_J@Z" PURGE="0" COMMENT="" />
    <EXPORT ORDINAL="1997" NAME="?addData@QCryptographicHash@@QEAAXVQByteArrayView@@@Z" PURGE="0" COMMENT="" />
    <EXPORT ORDINAL="1998" NAME="?addData@QCryptographicHash@@QEAA_NPEAVQIODevice@@@Z" PURGE="0" COMMENT="" />
    <EXPORT ORDINAL="1999" NAME="?addData@QMessageAuthenticationCode@@QEAAXAEBVQByteArray@@@Z" PURGE="0" COMMENT="" />
    <EXPORT ORDINAL="2000" NAME="?addData@QMessageAuthenticationCode@@QEAAXPEBD_J@Z" PURGE="0" COMMENT="" />
    <EXPORT ORDINAL="2001" NAME="?addData@QMessageAuthenticationCode@@QEAAXVQByteArrayView@@@Z" PURGE="0" COMMENT="" />
    <EXPORT ORDINAL="2002" NAME="?addData@QMessageAuthenticationCode@@QEAA_NPEAVQIODevice@@@Z" PURGE="0" COMMENT="" />
    <EXPORT ORDINAL="2003" NAME="?addData@QXmlStreamReader@@QEAAXAEBVQByteArray@@@Z" PURGE="0" COMMENT="" />
    <EXPORT ORDINAL="2004" NAME="?addData@QXmlStreamReader@@QEAAXAEBVQString@@@Z" PURGE="0" COMMENT="" />
    <EXPORT ORDINAL="2005" NAME="?addData@QXmlStreamReader@@QEAAXPEBD@Z" PURGE="0" COMMENT="" />
    <EXPORT ORDINAL="2006" NAME="?addData@QXmlStreamReader@@QEAAXVQAnyStringView@@@Z" PURGE="0" COMMENT="" />
    <EXPORT ORDINAL="2007" NAME="?addDataImpl@QXmlStreamReader@@AEAAXAEBVQByteArray@@@Z" PURGE="0" COMMENT="" />
    <EXPORT ORDINAL="2008" NAME="?addDays@QDate@@QEBA?AV1@_J@Z" PURGE="0" COMMENT="" />
    <EXPORT ORDINAL="2009" NAME="?addDays@QDateTime@@QEBA?AV1@_J@Z" PURGE="0" COMMENT="" />
    <EXPORT ORDINAL="2010" NAME="?addDirectory@QZipWriter@@QEAAXAEBVQString@@@Z" PURGE="0" COMMENT="" />
    <EXPORT ORDINAL="2011" NAME="?addDuration@QDateTime@@QEBA?AV1@V?$duration@_JU?$ratio@$00$0DOI@@std@@@chrono@std@@@Z" PURGE="0" COMMENT="" />
    <EXPORT ORDINAL="2012" NAME="?addEnumerator@QMetaObjectBuilder@@QEAA?AVQMetaEnumBuilder@@AEBVQByteArray@@@Z" PURGE="0" COMMENT="" />
    <EXPORT ORDINAL="2013" NAME="?addEnumerator@QMetaObjectBuilder@@QEAA?AVQMetaEnumBuilder@@AEBVQMetaEnum@@@Z" PURGE="0" COMMENT="" />
    <EXPORT ORDINAL="2014" NAME="?addExtraNamespaceDeclaration@QXmlStreamReader@@QEAAXAEBVQXmlStreamNamespaceDeclaration@@@Z" PURGE="0" COMMENT="" />
    <EXPORT ORDINAL="2015" NAME="?addExtraNamespaceDeclarations@QXmlStreamReader@@QEAAXAEBV?$QList@VQXmlStreamNamespaceDeclaration@@@@@Z" PURGE="0" COMMENT="" />
    <EXPORT ORDINAL="2016" NAME="?addFile@QZipWriter@@QEAAXAEBVQString@@AEBVQByteArray@@@Z" PURGE="0" COMMENT="" />
    <EXPORT ORDINAL="2017" NAME="?addFile@QZipWriter@@QEAAXAEBVQString@@PEAVQIODevice@@@Z" PURGE="0" COMMENT="" />
    <EXPORT ORDINAL="2018" NAME="?addHelpOption@QCommandLineParser@@QEAA?AVQCommandLineOption@@XZ" PURGE="0" COMMENT="" />
    <EXPORT ORDINAL="2019" NAME="?addKey@QMetaEnumBuilder@@QEAAHAEBVQByteArray@@H@Z" PURGE="0" COMMENT="" />
    <EXPORT ORDINAL="2020" NAME="?addLibraryPath@QCoreApplication@@SAXAEBVQString@@@Z" PURGE="0" COMMENT="" />
    <EXPORT ORDINAL="2021" NAME="?addMSecs@QDateTime@@QEBA?AV1@_J@Z" PURGE="0" COMMENT="" />
    <EXPORT ORDINAL="2022" NAME="?addMSecs@QTime@@QEBA?AV1@H@Z" PURGE="0" COMMENT="" />
    <EXPORT ORDINAL="2023" NAME="?addMetaObject@QMetaObjectBuilder@@QEAAXPEBUQMetaObject@@V?$QFlags@W4AddMember@QMetaObjectBuilder@@@@@Z" PURGE="0" COMMENT="" />
    <EXPORT ORDINAL="2024" NAME="?addMethod@QMetaObjectBuilder@@QEAA?AVQMetaMethodBuilder@@AEBVQByteArray@@0@Z" PURGE="0" COMMENT="" />
    <EXPORT ORDINAL="2025" NAME="?addMethod@QMetaObjectBuilder@@QEAA?AVQMetaMethodBuilder@@AEBVQByteArray@@@Z" PURGE="0" COMMENT="" />
    <EXPORT ORDINAL="2026" NAME="?addMethod@QMetaObjectBuilder@@QEAA?AVQMetaMethodBuilder@@AEBVQMetaMethod@@@Z" PURGE="0" COMMENT="" />
    <EXPORT ORDINAL="2027" NAME="?addMonths@QDate@@QEBA?AV1@H@Z" PURGE="0" COMMENT="" />
    <EXPORT ORDINAL="2028" NAME="?addMonths@QDate@@QEBA?AV1@HVQCalendar@@@Z" PURGE="0" COMMENT="" />
    <EXPORT ORDINAL="2029" NAME="?addMonths@QDateTime@@QEBA?AV1@H@Z" PURGE="0" COMMENT="" />
    <EXPORT ORDINAL="2030" NAME="?addNSecs@QDeadlineTimer@@SA?AV1@V1@_J@Z" PURGE="0" COMMENT="" />
    <EXPORT ORDINAL="2031" NAME="?addOption@QCommandLineParser@@QEAA_NAEBVQCommandLineOption@@@Z" PURGE="0" COMMENT="" />
    <EXPORT ORDINAL="2032" NAME="?addOptions@QCommandLineParser@@QEAA_NAEBV?$QList@VQCommandLineOption@@@@@Z" PURGE="0" COMMENT="" />
    <EXPORT ORDINAL="2033" NAME="?addPath@QFileSystemWatcher@@QEAA_NAEBVQString@@@Z" PURGE="0" COMMENT="" />
    <EXPORT ORDINAL="2034" NAME="?addPaths@QFileSystemWatcher@@QEAA?AV?$QList@VQString@@@@AEBV2@@Z" PURGE="0" COMMENT="" />
    <EXPORT ORDINAL="2035" NAME="?addPause@QSequentialAnimationGroup@@QEAAPEAVQPauseAnimation@@H@Z" PURGE="0" COMMENT="" />
    <EXPORT ORDINAL="2036" NAME="?addPositionalArgument@QCommandLineParser@@QEAAXAEBVQString@@00@Z" PURGE="0" COMMENT="" />
    <EXPORT ORDINAL="2037" NAME="?addProperty@QMetaObjectBuilder@@QEAA?AVQMetaPropertyBuilder@@AEBVQByteArray@@0H@Z" PURGE="0" COMMENT="" />
    <EXPORT ORDINAL="2038" NAME="?addProperty@QMetaObjectBuilder@@QEAA?AVQMetaPropertyBuilder@@AEBVQByteArray@@0VQMetaType@@H@Z" PURGE="0" COMMENT="" />
    <EXPORT ORDINAL="2039" NAME="?addProperty@QMetaObjectBuilder@@QEAA?AVQMetaPropertyBuilder@@AEBVQMetaProperty@@@Z" PURGE="0" COMMENT="" />
    <EXPORT ORDINAL="2040" NAME="?addQtOptions@QCoreApplicationPrivate@@UEAAXPEAV?$QList@VQCommandLineOption@@@@@Z" PURGE="0" COMMENT="" />
    <EXPORT ORDINAL="2041" NAME="?addQueryItem@QUrlQuery@@QEAAXAEBVQString@@0@Z" PURGE="0" COMMENT="" />
    <EXPORT ORDINAL="2042" NAME="?addRelatedMetaObject@QMetaObjectBuilder@@QEAAHPEBUQMetaObject@@@Z" PURGE="0" COMMENT="" />
    <EXPORT ORDINAL="2043" NAME="?addResult@ResultStoreBase@QtPrivate@@QEAAHHPEBX@Z" PURGE="0" COMMENT="" />
    <EXPORT ORDINAL="2044" NAME="?addResults@ResultStoreBase@QtPrivate@@QEAAHHPEBXHH@Z" PURGE="0" COMMENT="" />
    <EXPORT ORDINAL="2045" NAME="?addSearchPath@QDir@@SAXAEBVQString@@0@Z" PURGE="0" COMMENT="" />
    <EXPORT ORDINAL="2046" NAME="?addSecs@QDateTime@@QEBA?AV1@_J@Z" PURGE="0" COMMENT="" />
    <EXPORT ORDINAL="2047" NAME="?addSecs@QTime@@QEBA?AV1@H@Z" PURGE="0" COMMENT="" />
    <EXPORT ORDINAL="2048" NAME="?addSignal@QMetaObjectBuilder@@QEAA?AVQMetaMethodBuilder@@AEBVQByteArray@@@Z" PURGE="0" COMMENT="" />
    <EXPORT ORDINAL="2049" NAME="?addSlot@QMetaObjectBuilder@@QEAA?AVQMetaMethodBuilder@@AEBVQByteArray@@@Z" PURGE="0" COMMENT="" />
    <EXPORT ORDINAL="2050" NAME="?addSourceModel@QConcatenateTablesProxyModel@@QEAAXPEAVQAbstractItemModel@@@Z" PURGE="0" COMMENT="" />
    <EXPORT ORDINAL="2051" NAME="?addStatics@QFileSelectorPrivate@@SAXAEBV?$QList@VQString@@@@@Z" PURGE="0" COMMENT="" />
    <EXPORT ORDINAL="2052" NAME="?addSymLink@QZipWriter@@QEAAXAEBVQString@@0@Z" PURGE="0" COMMENT="" />
    <EXPORT ORDINAL="2053" NAME="?addTCBSegment@QEasingCurve@@QEAAXAEBVQPointF@@NNN@Z" PURGE="0" COMMENT="" />
    <EXPORT ORDINAL="2054" NAME="?addValue@QMetaSequence@@QEBAXPEAXPEBX@Z" PURGE="0" COMMENT="" />
    <EXPORT ORDINAL="2055" NAME="?addValue@QSequentialIterable@@QEAAXAEBVQVariant@@W4Position@1@@Z" PURGE="0" COMMENT="" />
    <EXPORT ORDINAL="2056" NAME="?addValueAtBegin@QMetaSequence@@QEBAXPEAXPEBX@Z" PURGE="0" COMMENT="" />
    <EXPORT ORDINAL="2057" NAME="?addValueAtEnd@QMetaSequence@@QEBAXPEAXPEBX@Z" PURGE="0" COMMENT="" />
    <EXPORT ORDINAL="2058" NAME="?addVersionOption@QCommandLineParser@@QEAA?AVQCommandLineOption@@XZ" PURGE="0" COMMENT="" />
    <EXPORT ORDINAL="2059" NAME="?addYears@QDate@@QEBA?AV1@H@Z" PURGE="0" COMMENT="" />
    <EXPORT ORDINAL="2060" NAME="?addYears@QDate@@QEBA?AV1@HVQCalendar@@@Z" PURGE="0" COMMENT="" />
    <EXPORT ORDINAL="2061" NAME="?addYears@QDateTime@@QEBA?AV1@H@Z" PURGE="0" COMMENT="" />
    <EXPORT ORDINAL="2062" NAME="?added@QChildEvent@@QEBA_NXZ" PURGE="0" COMMENT="" />
    <EXPORT ORDINAL="2063" NAME="?adjust@QRect@@QEAAXHHHH@Z" PURGE="0" COMMENT="" />
    <EXPORT ORDINAL="2064" NAME="?adjust@QRectF@@QEAAXNNNN@Z" PURGE="0" COMMENT="" />
    <EXPORT ORDINAL="2065" NAME="?adjusted@QRect@@QEBA?AV1@HHHH@Z" PURGE="0" COMMENT="" />
    <EXPORT ORDINAL="2066" NAME="?adjusted@QRectF@@QEBA?AV1@NNNN@Z" PURGE="0" COMMENT="" />
    <EXPORT ORDINAL="2067" NAME="?adjusted@QUrl@@QEBA?AV1@V?$QUrlTwoFlags@W4UrlFormattingOption@QUrl@@W4ComponentFormattingOption@2@@@@Z" PURGE="0" COMMENT="" />
    <EXPORT ORDINAL="2068" NAME="?advance@QAnimationDriver@@UEAAXXZ" PURGE="0" COMMENT="" />
    <EXPORT ORDINAL="2069" NAME="?advanceAnimation@QAnimationDriver@@IEAAXXZ" PURGE="0" COMMENT="" />
    <EXPORT ORDINAL="2070" NAME="?advanceConstIterator@QMetaContainer@@QEBAXPEAX_J@Z" PURGE="0" COMMENT="" />
    <EXPORT ORDINAL="2071" NAME="?advanceIterator@QMetaContainer@@QEBAXPEAX_J@Z" PURGE="0" COMMENT="" />
    <EXPORT ORDINAL="2072" NAME="?algorithm@QCryptographicHash@@QEBA?AW4Algorithm@1@XZ" PURGE="0" COMMENT="" />
    <EXPORT ORDINAL="2073" NAME="?aliasedProperty@QPropertyObserver@@IEBAPEAVQUntypedPropertyData@@XZ" PURGE="0" COMMENT="" />
    <EXPORT ORDINAL="2074" NAME="?aliases@QMimeType@@QEBA?AV?$QList@VQString@@@@XZ" PURGE="0" COMMENT="" />
    <EXPORT ORDINAL="2075" NAME="?alignOf@QMetaType@@QEBA_JXZ" PURGE="0" COMMENT="" />
    <EXPORT ORDINAL="2076" NAME="?allAncestors@QMimeType@@QEBA?AV?$QList@VQString@@@@XZ" PURGE="0" COMMENT="" />
    <EXPORT ORDINAL="2077" NAME="?allKeys@QSettings@@QEBA?AV?$QList@VQString@@@@XZ" PURGE="0" COMMENT="" />
    <EXPORT ORDINAL="2078" NAME="?allMimeTypes@QMimeDatabase@@QEBA?AV?$QList@VQMimeType@@@@XZ" PURGE="0" COMMENT="" />
    <EXPORT ORDINAL="2079" NAME="?allQueryItemValues@QUrlQuery@@QEBA?AV?$QList@VQString@@@@AEBVQString@@V?$QFlags@W4ComponentFormattingOption@QUrl@@@@@Z" PURGE="0" COMMENT="" />
    <EXPORT ORDINAL="2080" NAME="?allSelectors@QFileSelector@@QEBA?AV?$QList@VQString@@@@XZ" PURGE="0" COMMENT="" />
    <EXPORT ORDINAL="2081" NAME="?allWriteBuffersEmpty@QIODevicePrivate@@QEBA_NXZ" PURGE="0" COMMENT="" />
    <EXPORT ORDINAL="2082" NAME="?allocArgs@QMetaCallEvent@@AEAAXXZ" PURGE="0" COMMENT="" />
    <EXPORT ORDINAL="2083" NAME="?allocate1@QArrayData@@SAPEAXPEAPEAU1@_JW4AllocationOption@1@@Z" PURGE="0" COMMENT="" />
    <EXPORT ORDINAL="2084" NAME="?allocate2@QArrayData@@SAPEAXPEAPEAU1@_JW4AllocationOption@1@@Z" PURGE="0" COMMENT="" />
    <EXPORT ORDINAL="2085" NAME="?allocate@QArrayData@@SAPEAXPEAPEAU1@_J11W4AllocationOption@1@@Z" PURGE="0" COMMENT="" />
    <EXPORT ORDINAL="2086" NAME="?allocateData@QContiguousCacheData@@SAPEAU1@_J0@Z" PURGE="0" COMMENT="" />
    <EXPORT ORDINAL="2087" NAME="?allocateDependencyObserver@QPropertyBindingPrivate@@QEAA?AUQPropertyObserverPointer@@XZ" PURGE="0" COMMENT="" />
    <EXPORT ORDINAL="2088" NAME="?allocateDependencyObserver_slow@QPropertyBindingPrivate@@QEAA?AUQPropertyObserverPointer@@XZ" PURGE="0" COMMENT="" />
    <EXPORT ORDINAL="2089" NAME="?allocateTimerId@QAbstractEventDispatcherPrivate@@SAHXZ" PURGE="0" COMMENT="" />
    <EXPORT ORDINAL="2090" NAME="?allowMove@QAbstractItemModelPrivate@@QEAA_NAEBVQModelIndex@@HH0HW4Orientation@Qt@@@Z" PURGE="0" COMMENT="" />
    <EXPORT ORDINAL="2091" NAME="?amText@QLocale@@QEBA?AVQString@@XZ" PURGE="0" COMMENT="" />
    <EXPORT ORDINAL="2092" NAME="?amplitude@QEasingCurve@@QEBANXZ" PURGE="0" COMMENT="" />
    <EXPORT ORDINAL="2093" NAME="?anchoredPattern@QRegularExpression@@SA?AVQString@@AEBV2@@Z" PURGE="0" COMMENT="" />
    <EXPORT ORDINAL="2094" NAME="?anchoredPattern@QRegularExpression@@SA?AVQString@@VQStringView@@@Z" PURGE="0" COMMENT="" />
    <EXPORT ORDINAL="2095" NAME="?angle@QLineF@@QEBANXZ" PURGE="0" COMMENT="" />
    <EXPORT ORDINAL="2096" NAME="?angleTo@QLineF@@QEBANAEBV1@@Z" PURGE="0" COMMENT="" />
    <EXPORT ORDINAL="2097" NAME="?animationAt@QAnimationGroup@@QEBAPEAVQAbstractAnimation@@H@Z" PURGE="0" COMMENT="" />
    <EXPORT ORDINAL="2098" NAME="?animationCount@QAnimationGroup@@QEBAHXZ" PURGE="0" COMMENT="" />
    <EXPORT ORDINAL="2099" NAME="?appName@QCoreApplicationPrivate@@QEBA?AVQString@@XZ" PURGE="0" COMMENT="" />
    <EXPORT ORDINAL="2100" NAME="?appVersion@QCoreApplicationPrivate@@QEBA?AVQString@@XZ" PURGE="0" COMMENT="" />
    <EXPORT ORDINAL="2101" NAME="?append@QByteArray@@QEAAAEAV1@AEBV1@@Z" PURGE="0" COMMENT="" />
    <EXPORT ORDINAL="2102" NAME="?append@QByteArray@@QEAAAEAV1@D@Z" PURGE="0" COMMENT="" />
    <EXPORT ORDINAL="2103" NAME="?append@QByteArray@@QEAAAEAV1@PEBD@Z" PURGE="0" COMMENT="" />
    <EXPORT ORDINAL="2104" NAME="?append@QByteArray@@QEAAAEAV1@PEBD_J@Z" PURGE="0" COMMENT="" />
    <EXPORT ORDINAL="2105" NAME="?append@QByteArray@@QEAAAEAV1@VQByteArrayView@@@Z" PURGE="0" COMMENT="" />
    <EXPORT ORDINAL="2106" NAME="?append@QByteArray@@QEAAAEAV1@_JD@Z" PURGE="0" COMMENT="" />
    <EXPORT ORDINAL="2107" NAME="?append@QCborArray@@QEAAX$$QEAVQCborValue@@@Z" PURGE="0" COMMENT="" />
    <EXPORT ORDINAL="2108" NAME="?append@QCborArray@@QEAAXAEBVQCborValue@@@Z" PURGE="0" COMMENT="" />
    <EXPORT ORDINAL="2109" NAME="?append@QCborStreamWriter@@QEAAX$$T@Z" PURGE="0" COMMENT="" />
    <EXPORT ORDINAL="2110" NAME="?append@QCborStreamWriter@@QEAAXAEBVQByteArray@@@Z" PURGE="0" COMMENT="" />
    <EXPORT ORDINAL="2111" NAME="?append@QCborStreamWriter@@QEAAXH@Z" PURGE="0" COMMENT="" />
    <EXPORT ORDINAL="2112" NAME="?append@QCborStreamWriter@@QEAAXI@Z" PURGE="0" COMMENT="" />
    <EXPORT ORDINAL="2113" NAME="?append@QCborStreamWriter@@QEAAXM@Z" PURGE="0" COMMENT="" />
    <EXPORT ORDINAL="2114" NAME="?append@QCborStreamWriter@@QEAAXN@Z" PURGE="0" COMMENT="" />
    <EXPORT ORDINAL="2115" NAME="?append@QCborStreamWriter@@QEAAXPEBD_J@Z" PURGE="0" COMMENT="" />
    <EXPORT ORDINAL="2116" NAME="?append@QCborStreamWriter@@QEAAXVQLatin1String@@@Z" PURGE="0" COMMENT="" />
    <EXPORT ORDINAL="2117" NAME="?append@QCborStreamWriter@@QEAAXVQStringView@@@Z" PURGE="0" COMMENT="" />
    <EXPORT ORDINAL="2118" NAME="?append@QCborStreamWriter@@QEAAXVqfloat16@@@Z" PURGE="0" COMMENT="" />
    <EXPORT ORDINAL="2119" NAME="?append@QCborStreamWriter@@QEAAXW4QCborKnownTags@@@Z" PURGE="0" COMMENT="" />
    <EXPORT ORDINAL="2120" NAME="?append@QCborStreamWriter@@QEAAXW4QCborNegativeInteger@@@Z" PURGE="0" COMMENT="" />
    <EXPORT ORDINAL="2121" NAME="?append@QCborStreamWriter@@QEAAXW4QCborSimpleType@@@Z" PURGE="0" COMMENT="" />
    <EXPORT ORDINAL="2122" NAME="?append@QCborStreamWriter@@QEAAXW4QCborTag@@@Z" PURGE="0" COMMENT="" />
    <EXPORT ORDINAL="2123" NAME="?append@QCborStreamWriter@@QEAAX_J@Z" PURGE="0" COMMENT="" />
    <EXPORT ORDINAL="2124" NAME="?append@QCborStreamWriter@@QEAAX_K@Z" PURGE="0" COMMENT="" />
    <EXPORT ORDINAL="2125" NAME="?append@QCborStreamWriter@@QEAAX_N@Z" PURGE="0" COMMENT="" />
    <EXPORT ORDINAL="2126" NAME="?append@QJsonArray@@QEAAXAEBVQJsonValue@@@Z" PURGE="0" COMMENT="" />
    <EXPORT ORDINAL="2127" NAME="?append@QRingBuffer@@QEAAX$$QEAVQByteArray@@@Z" PURGE="0" COMMENT="" />
    <EXPORT ORDINAL="2128" NAME="?append@QRingBuffer@@QEAAXAEBVQByteArray@@@Z" PURGE="0" COMMENT="" />
    <EXPORT ORDINAL="2129" NAME="?append@QRingBuffer@@QEAAXPEBD_J@Z" PURGE="0" COMMENT="" />
    <EXPORT ORDINAL="2130" NAME="?append@QString@@QEAAAEAV1@AEBV1@@Z" PURGE="0" COMMENT="" />
    <EXPORT ORDINAL="2131" NAME="?append@QString@@QEAAAEAV1@AEBVQByteArray@@@Z" PURGE="0" COMMENT="" />
    <EXPORT ORDINAL="2132" NAME="?append@QString@@QEAAAEAV1@PEBD@Z" PURGE="0" COMMENT="" />
    <EXPORT ORDINAL="2133" NAME="?append@QString@@QEAAAEAV1@PEBVQChar@@_J@Z" PURGE="0" COMMENT="" />
    <EXPORT ORDINAL="2134" NAME="?append@QString@@QEAAAEAV1@V?$QBasicUtf8StringView@$0A@@@@Z" PURGE="0" COMMENT="" />
    <EXPORT ORDINAL="2135" NAME="?append@QString@@QEAAAEAV1@VQChar@@@Z" PURGE="0" COMMENT="" />
    <EXPORT ORDINAL="2136" NAME="?append@QString@@QEAAAEAV1@VQLatin1String@@@Z" PURGE="0" COMMENT="" />
    <EXPORT ORDINAL="2137" NAME="?append@QString@@QEAAAEAV1@VQStringView@@@Z" PURGE="0" COMMENT="" />
    <EXPORT ORDINAL="2138" NAME="?append@QXmlStreamAttributes@@QEAAXAEBVQString@@00@Z" PURGE="0" COMMENT="" />
    <EXPORT ORDINAL="2139" NAME="?append@QXmlStreamAttributes@@QEAAXAEBVQString@@0@Z" PURGE="0" COMMENT="" />
    <EXPORT ORDINAL="2140" NAME="?appendApplicationPathToLibraryPaths@QCoreApplicationPrivate@@QEAAXXZ" PURGE="0" COMMENT="" />
    <EXPORT ORDINAL="2141" NAME="?appendByteString@QCborStreamWriter@@QEAAXPEBD_J@Z" PURGE="0" COMMENT="" />
    <EXPORT ORDINAL="2142" NAME="?appendLatin1To@QAbstractConcatenable@@KAXVQLatin1String@@PEAVQChar@@@Z" PURGE="0" COMMENT="" />
    <EXPORT ORDINAL="2143" NAME="?appendNull@QCborStreamWriter@@QEAAXXZ" PURGE="0" COMMENT="" />
    <EXPORT ORDINAL="2144" NAME="?appendTextString@QCborStreamWriter@@QEAAXPEBD_J@Z" PURGE="0" COMMENT="" />
    <EXPORT ORDINAL="2145" NAME="?appendUndefined@QCborStreamWriter@@QEAAXXZ" PURGE="0" COMMENT="" />
    <EXPORT ORDINAL="2146" NAME="?applicationDescription@QCommandLineParser@@QEBA?AVQString@@XZ" PURGE="0" COMMENT="" />
    <EXPORT ORDINAL="2147" NAME="?applicationDirPath@QCoreApplication@@SA?AVQString@@XZ" PURGE="0" COMMENT="" />
    <EXPORT ORDINAL="2148" NAME="?applicationFilePath@QCoreApplication@@SA?AVQString@@XZ" PURGE="0" COMMENT="" />
    <EXPORT ORDINAL="2149" NAME="?applicationName@QCoreApplication@@SA?AVQString@@XZ" PURGE="0" COMMENT="" />
    <EXPORT ORDINAL="2150" NAME="?applicationName@QSettings@@QEBA?AVQString@@XZ" PURGE="0" COMMENT="" />
    <EXPORT ORDINAL="2151" NAME="?applicationNameChanged@QCoreApplication@@QEAAXXZ" PURGE="0" COMMENT="" />
    <EXPORT ORDINAL="2152" NAME="?applicationPid@QCoreApplication@@SA_JXZ" PURGE="0" COMMENT="" />
    <EXPORT ORDINAL="2153" NAME="?applicationVersion@QCoreApplication@@SA?AVQString@@XZ" PURGE="0" COMMENT="" />
    <EXPORT ORDINAL="2154" NAME="?applicationVersionChanged@QCoreApplication@@QEAAXXZ" PURGE="0" COMMENT="" />
    <EXPORT ORDINAL="2155" NAME="?areAllThreadsActive@QThreadPoolPrivate@@QEBA_NXZ" PURGE="0" COMMENT="" />
    <EXPORT ORDINAL="2156" NAME="?arg@QString@@QEBA?AV1@AEBV1@HVQChar@@@Z" PURGE="0" COMMENT="" />
    <EXPORT ORDINAL="2157" NAME="?arg@QString@@QEBA?AV1@DHVQChar@@@Z" PURGE="0" COMMENT="" />
    <EXPORT ORDINAL="2158" NAME="?arg@QString@@QEBA?AV1@FHHVQChar@@@Z" PURGE="0" COMMENT="" />
    <EXPORT ORDINAL="2159" NAME="?arg@QString@@QEBA?AV1@GHHVQChar@@@Z" PURGE="0" COMMENT="" />
    <EXPORT ORDINAL="2160" NAME="?arg@QString@@QEBA?AV1@HHHVQChar@@@Z" PURGE="0" COMMENT="" />
    <EXPORT ORDINAL="2161" NAME="?arg@QString@@QEBA?AV1@IHHVQChar@@@Z" PURGE="0" COMMENT="" />
    <EXPORT ORDINAL="2162" NAME="?arg@QString@@QEBA?AV1@JHHVQChar@@@Z" PURGE="0" COMMENT="" />
    <EXPORT ORDINAL="2163" NAME="?arg@QString@@QEBA?AV1@KHHVQChar@@@Z" PURGE="0" COMMENT="" />
    <EXPORT ORDINAL="2164" NAME="?arg@QString@@QEBA?AV1@NHDHVQChar@@@Z" PURGE="0" COMMENT="" />
    <EXPORT ORDINAL="2165" NAME="?arg@QString@@QEBA?AV1@VQChar@@H0@Z" PURGE="0" COMMENT="" />
    <EXPORT ORDINAL="2166" NAME="?arg@QString@@QEBA?AV1@VQLatin1String@@HVQChar@@@Z" PURGE="0" COMMENT="" />
    <EXPORT ORDINAL="2167" NAME="?arg@QString@@QEBA?AV1@VQStringView@@HVQChar@@@Z" PURGE="0" COMMENT="" />
    <EXPORT ORDINAL="2168" NAME="?arg@QString@@QEBA?AV1@_JHHVQChar@@@Z" PURGE="0" COMMENT="" />
    <EXPORT ORDINAL="2169" NAME="?arg@QString@@QEBA?AV1@_KHHVQChar@@@Z" PURGE="0" COMMENT="" />
    <EXPORT ORDINAL="2170" NAME="?argToQString@QtPrivate@@YA?AVQString@@VQLatin1String@@_KPEAPEBUArgBase@1@@Z" PURGE="0" COMMENT="" />
    <EXPORT ORDINAL="2171" NAME="?argToQString@QtPrivate@@YA?AVQString@@VQStringView@@_KPEAPEBUArgBase@1@@Z" PURGE="0" COMMENT="" />
    <EXPORT ORDINAL="2172" NAME="?args@QMetaCallEvent@@QEAAPEAPEAXXZ" PURGE="0" COMMENT="" />
    <EXPORT ORDINAL="2173" NAME="?args@QMetaCallEvent@@QEBAPEBQEBXXZ" PURGE="0" COMMENT="" />
    <EXPORT ORDINAL="2174" NAME="?arguments@QCoreApplication@@SA?AV?$QList@VQString@@@@XZ" PURGE="0" COMMENT="" />
    <EXPORT ORDINAL="2175" NAME="?arguments@QProcess@@QEBA?AV?$QList@VQString@@@@XZ" PURGE="0" COMMENT="" />
    <EXPORT ORDINAL="2176" NAME="?array@QJsonDocument@@QEBA?AVQJsonArray@@XZ" PURGE="0" COMMENT="" />
    <EXPORT ORDINAL="2177" NAME="?asBackendZone@QTimeZone@@QEBA?AV1@XZ" PURGE="0" COMMENT="" />
    <EXPORT ORDINAL="2178" NAME="?asprintf@QString@@SA?AV1@PEBDZZ" PURGE="0" COMMENT="" />
    <EXPORT ORDINAL="2179" NAME="?assign@QByteArray@@QEAAAEAV1@VQByteArrayView@@@Z" PURGE="0" COMMENT="" />
    <EXPORT ORDINAL="2180" NAME="?assign@QByteArray@@QEAAAEAV1@_JD@Z" PURGE="0" COMMENT="" />
    <EXPORT ORDINAL="2181" NAME="?assign@QCborValueRef@@CAXV1@$$QEAVQCborValue@@@Z" PURGE="0" COMMENT="" />
    <EXPORT ORDINAL="2182" NAME="?assign@QCborValueRef@@CAXV1@AEBVQCborValue@@@Z" PURGE="0" COMMENT="" />
    <EXPORT ORDINAL="2183" NAME="?assign@QCborValueRef@@CAXV1@V1@@Z" PURGE="0" COMMENT="" />
    <EXPORT ORDINAL="2184" NAME="?assign@QString@@QEAAAEAV1@VQAnyStringView@@@Z" PURGE="0" COMMENT="" />
    <EXPORT ORDINAL="2185" NAME="?assign@QString@@QEAAAEAV1@_JVQChar@@@Z" PURGE="0" COMMENT="" />
    <EXPORT ORDINAL="2186" NAME="?assign_helper@QString@@AEAAAEAV1@PEB_U_J@Z" PURGE="0" COMMENT="" />
    <EXPORT ORDINAL="2187" NAME="?assign_internal@QNativeIpcKey@@AEAAAEAV1@AEBV1@@Z" PURGE="0" COMMENT="" />
    <EXPORT ORDINAL="2188" NAME="?at@QBitArray@@QEBA_N_J@Z" PURGE="0" COMMENT="" />
    <EXPORT ORDINAL="2189" NAME="?at@QByteArray@@QEBAD_J@Z" PURGE="0" COMMENT="" />
    <EXPORT ORDINAL="2190" NAME="?at@QByteArrayView@@QEBAD_J@Z" PURGE="0" COMMENT="" />
    <EXPORT ORDINAL="2191" NAME="?at@QCborArray@@QEBA?AVQCborValue@@_J@Z" PURGE="0" COMMENT="" />
    <EXPORT ORDINAL="2192" NAME="?at@QJsonArray@@QEBA?AVQJsonValue@@_J@Z" PURGE="0" COMMENT="" />
    <EXPORT ORDINAL="2193" NAME="?at@QSequentialIterable@@QEBA?AVQVariant@@_J@Z" PURGE="0" COMMENT="" />
    <EXPORT ORDINAL="2194" NAME="?at@QString@@QEBA?BVQChar@@_J@Z" PURGE="0" COMMENT="" />
    <EXPORT ORDINAL="2195" NAME="?atEnd@QAbstractFileEngine@@QEBA_NXZ" PURGE="0" COMMENT="" />
    <EXPORT ORDINAL="2196" NAME="?atEnd@QBuffer@@UEBA_NXZ" PURGE="0" COMMENT="" />
    <EXPORT ORDINAL="2197" NAME="?atEnd@QDataStream@@QEBA_NXZ" PURGE="0" COMMENT="" />
    <EXPORT ORDINAL="2198" NAME="?atEnd@QFileDevice@@UEBA_NXZ" PURGE="0" COMMENT="" />
    <EXPORT ORDINAL="2199" NAME="?atEnd@QIODevice@@UEBA_NXZ" PURGE="0" COMMENT="" />
    <EXPORT ORDINAL="2200" NAME="?atEnd@QTextStream@@QEBA_NXZ" PURGE="0" COMMENT="" />
    <EXPORT ORDINAL="2201" NAME="?atEnd@QXmlStreamReader@@QEBA_NXZ" PURGE="0" COMMENT="" />
    <EXPORT ORDINAL="2202" NAME="?attach@QSharedMemory@@QEAA_NW4AccessMode@1@@Z" PURGE="0" COMMENT="" />
    <EXPORT ORDINAL="2203" NAME="?attribs@QCoreApplicationPrivate@@2IA" PURGE="-1" COMMENT="" />
    <EXPORT ORDINAL="2204" NAME="?attributes@QMetaMethod@@QEBAHXZ" PURGE="0" COMMENT="" />
    <EXPORT ORDINAL="2205" NAME="?attributes@QMetaMethodBuilder@@QEBAHXZ" PURGE="0" COMMENT="" />
    <EXPORT ORDINAL="2206" NAME="?attributes@QXmlStreamReader@@QEBA?AVQXmlStreamAttributes@@XZ" PURGE="0" COMMENT="" />
    <EXPORT ORDINAL="2207" NAME="?authority@QUrl@@QEBA?AVQString@@V?$QFlags@W4ComponentFormattingOption@QUrl@@@@@Z" PURGE="0" COMMENT="" />
    <EXPORT ORDINAL="2208" NAME="?autoAcceptChildRows@QSortFilterProxyModel@@QEBA_NXZ" PURGE="0" COMMENT="" />
    <EXPORT ORDINAL="2209" NAME="?autoAcceptChildRowsChanged@QSortFilterProxyModel@@QEAAX_N@Z" PURGE="0" COMMENT="" />
    <EXPORT ORDINAL="2210" NAME="?autoDelete@QRunnable@@QEBA_NXZ" PURGE="0" COMMENT="" />
    <EXPORT ORDINAL="2211" NAME="?autoDetectUnicode@QTextStream@@QEBA_NXZ" PURGE="0" COMMENT="" />
    <EXPORT ORDINAL="2212" NAME="?autoFormatting@QXmlStreamWriter@@QEBA_NXZ" PURGE="0" COMMENT="" />
    <EXPORT ORDINAL="2213" NAME="?autoFormattingIndent@QXmlStreamWriter@@QEBAHXZ" PURGE="0" COMMENT="" />
    <EXPORT ORDINAL="2214" NAME="?autoInsertSpaces@QDebug@@QEBA_NXZ" PURGE="0" COMMENT="" />
    <EXPORT ORDINAL="2215" NAME="?autoRemove@QTemporaryDir@@QEBA_NXZ" PURGE="0" COMMENT="" />
    <EXPORT ORDINAL="2216" NAME="?autoRemove@QTemporaryFile@@QEBA_NXZ" PURGE="0" COMMENT="" />
    <EXPORT ORDINAL="2217" NAME="?availability@QLocationPermission@@QEBA?AW4Availability@1@XZ" PURGE="0" COMMENT="" />
    <EXPORT ORDINAL="2218" NAME="?available@QSemaphore@@QEBAHXZ" PURGE="0" COMMENT="" />
    <EXPORT ORDINAL="2219" NAME="?availableCalendars@QCalendar@@SA?AV?$QList@VQString@@@@XZ" PURGE="0" COMMENT="" />
    <EXPORT ORDINAL="2220" NAME="?availableCalendars@QCalendarBackend@@SA?AV?$QList@VQString@@@@XZ" PURGE="0" COMMENT="" />
    <EXPORT ORDINAL="2221" NAME="?availableCodecs@QStringConverter@@SA?AV?$QList@VQString@@@@XZ" PURGE="0" COMMENT="" />
    <EXPORT ORDINAL="2222" NAME="?availableTimeZoneIds@QTimeZone@@SA?AV?$QList@VQByteArray@@@@H@Z" PURGE="0" COMMENT="" />
    <EXPORT ORDINAL="2223" NAME="?availableTimeZoneIds@QTimeZone@@SA?AV?$QList@VQByteArray@@@@W4Country@QLocale@@@Z" PURGE="0" COMMENT="" />
    <EXPORT ORDINAL="2224" NAME="?availableTimeZoneIds@QTimeZone@@SA?AV?$QList@VQByteArray@@@@XZ" PURGE="0" COMMENT="" />
    <EXPORT ORDINAL="2225" NAME="?awake@QAbstractEventDispatcher@@QEAAXXZ" PURGE="0" COMMENT="" />
    <EXPORT ORDINAL="2226" NAME="?back@QByteArray@@QEAAAEADXZ" PURGE="0" COMMENT="" />
    <EXPORT ORDINAL="2227" NAME="?back@QByteArray@@QEBADXZ" PURGE="0" COMMENT="" />
    <EXPORT ORDINAL="2228" NAME="?back@QByteArrayView@@QEBADXZ" PURGE="0" COMMENT="" />
    <EXPORT ORDINAL="2229" NAME="?back@QString@@QEAAAEAVQChar@@XZ" PURGE="0" COMMENT="" />
    <EXPORT ORDINAL="2230" NAME="?back@QString@@QEBA?AVQChar@@XZ" PURGE="0" COMMENT="" />
    <EXPORT ORDINAL="2231" NAME="?baseDate@QDateTimeParser@@AEBA?AVQDateTime@@AEBVQTimeZone@@@Z" PURGE="0" COMMENT="" />
    <EXPORT ORDINAL="2232" NAME="?baseName@QFileInfo@@QEBA?AVQString@@XZ" PURGE="0" COMMENT="" />
    <EXPORT ORDINAL="2233" NAME="?basetable@qfloat16@@0QBGB" PURGE="-1" COMMENT="" />
    <EXPORT ORDINAL="2234" NAME="?batchSize@ResultIteratorBase@QtPrivate@@QEBAHXZ" PURGE="0" COMMENT="" />
    <EXPORT ORDINAL="2235" NAME="?batchedAdvance@ResultIteratorBase@QtPrivate@@QEAAXXZ" PURGE="0" COMMENT="" />
    <EXPORT ORDINAL="2236" NAME="?bcp47Name@QLocale@@QEBA?AVQString@@W4TagSeparator@1@@Z" PURGE="0" COMMENT="" />
    <EXPORT ORDINAL="2237" NAME="?bcp47Name@QLocale@@QEBA?AVQString@@XZ" PURGE="0" COMMENT="" />
    <EXPORT ORDINAL="2238" NAME="?begin@@YA?AVQRegularExpressionMatchIteratorRangeBasedForIterator@QtPrivate@@AEBVQRegularExpressionMatchIterator@@@Z" PURGE="0" COMMENT="" />
    <EXPORT ORDINAL="2239" NAME="?begin@QAssociativeIterable@@QEBA?AV?$QTaggedIterator@VQAssociativeConstIterator@@X@@XZ" PURGE="0" COMMENT="" />
    <EXPORT ORDINAL="2240" NAME="?begin@QByteArray@@QEAAPEADXZ" PURGE="0" COMMENT="" />
    <EXPORT ORDINAL="2241" NAME="?begin@QByteArray@@QEBAPEBDXZ" PURGE="0" COMMENT="" />
    <EXPORT ORDINAL="2242" NAME="?begin@QByteArrayView@@QEBAPEBDXZ" PURGE="0" COMMENT="" />
    <EXPORT ORDINAL="2243" NAME="?begin@QCborArray@@QEAA?AVIterator@1@XZ" PURGE="0" COMMENT="" />
    <EXPORT ORDINAL="2244" NAME="?begin@QCborArray@@QEBA?AVConstIterator@1@XZ" PURGE="0" COMMENT="" />
    <EXPORT ORDINAL="2245" NAME="?begin@QCborMap@@QEAA?AVIterator@1@XZ" PURGE="0" COMMENT="" />
    <EXPORT ORDINAL="2246" NAME="?begin@QCborMap@@QEBA?AVConstIterator@1@XZ" PURGE="0" COMMENT="" />
    <EXPORT ORDINAL="2247" NAME="?begin@QJsonArray@@QEAA?AViterator@1@XZ" PURGE="0" COMMENT="" />
    <EXPORT ORDINAL="2248" NAME="?begin@QJsonArray@@QEBA?AVconst_iterator@1@XZ" PURGE="0" COMMENT="" />
    <EXPORT ORDINAL="2249" NAME="?begin@QJsonObject@@QEAA?AViterator@1@XZ" PURGE="0" COMMENT="" />
    <EXPORT ORDINAL="2250" NAME="?begin@QJsonObject@@QEBA?AVconst_iterator@1@XZ" PURGE="0" COMMENT="" />
    <EXPORT ORDINAL="2251" NAME="?begin@QMetaContainer@@QEBAPEAXPEAX@Z" PURGE="0" COMMENT="" />
    <EXPORT ORDINAL="2252" NAME="?begin@QSequentialIterable@@QEBA?AV?$QTaggedIterator@VQSequentialConstIterator@@X@@XZ" PURGE="0" COMMENT="" />
    <EXPORT ORDINAL="2253" NAME="?begin@QString@@QEAAPEAVQChar@@XZ" PURGE="0" COMMENT="" />
    <EXPORT ORDINAL="2254" NAME="?begin@QString@@QEBAPEBVQChar@@XZ" PURGE="0" COMMENT="" />
    <EXPORT ORDINAL="2255" NAME="?begin@ResultStoreBase@QtPrivate@@QEBA?AVResultIteratorBase@2@XZ" PURGE="0" COMMENT="" />
    <EXPORT ORDINAL="2256" NAME="?beginEntryList@QAbstractFileEngine@@UEAAPEAVQAbstractFileEngineIterator@@V?$QFlags@W4Filter@QDir@@@@AEBV?$QList@VQString@@@@@Z" PURGE="0" COMMENT="" />
    <EXPORT ORDINAL="2257" NAME="?beginEntryList@QFSFileEngine@@UEAAPEAVQAbstractFileEngineIterator@@V?$QFlags@W4Filter@QDir@@@@AEBV?$QList@VQString@@@@@Z" PURGE="0" COMMENT="" />
    <EXPORT ORDINAL="2258" NAME="?beginGroup@QSettings@@QEAAXAEBVQString@@@Z" PURGE="0" COMMENT="" />
    <EXPORT ORDINAL="2259" NAME="?beginGroup@QSettings@@QEAAXVQAnyStringView@@@Z" PURGE="0" COMMENT="" />
    <EXPORT ORDINAL="2260" NAME="?beginInsertColumns@QAbstractItemModel@@IEAAXAEBVQModelIndex@@HH@Z" PURGE="0" COMMENT="" />
    <EXPORT ORDINAL="2261" NAME="?beginInsertRows@QAbstractItemModel@@IEAAXAEBVQModelIndex@@HH@Z" PURGE="0" COMMENT="" />
    <EXPORT ORDINAL="2262" NAME="?beginMoveColumns@QAbstractItemModel@@IEAA_NAEBVQModelIndex@@HH0H@Z" PURGE="0" COMMENT="" />
    <EXPORT ORDINAL="2263" NAME="?beginMoveRows@QAbstractItemModel@@IEAA_NAEBVQModelIndex@@HH0H@Z" PURGE="0" COMMENT="" />
    <EXPORT ORDINAL="2264" NAME="?beginPropertyUpdateGroup@Qt@@YAXXZ" PURGE="0" COMMENT="" />
    <EXPORT ORDINAL="2265" NAME="?beginReadArray@QSettings@@QEAAHAEBVQString@@@Z" PURGE="0" COMMENT="" />
    <EXPORT ORDINAL="2266" NAME="?beginReadArray@QSettings@@QEAAHVQAnyStringView@@@Z" PURGE="0" COMMENT="" />
    <EXPORT ORDINAL="2267" NAME="?beginRemoveColumns@QAbstractItemModel@@IEAAXAEBVQModelIndex@@HH@Z" PURGE="0" COMMENT="" />
    <EXPORT ORDINAL="2268" NAME="?beginRemoveRows@QAbstractItemModel@@IEAAXAEBVQModelIndex@@HH@Z" PURGE="0" COMMENT="" />
    <EXPORT ORDINAL="2269" NAME="?beginResetModel@QAbstractItemModel@@IEAAXXZ" PURGE="0" COMMENT="" />
    <EXPORT ORDINAL="2270" NAME="?beginWriteArray@QSettings@@QEAAXAEBVQString@@H@Z" PURGE="0" COMMENT="" />
    <EXPORT ORDINAL="2271" NAME="?beginWriteArray@QSettings@@QEAAXVQAnyStringView@@H@Z" PURGE="0" COMMENT="" />
    <EXPORT ORDINAL="2272" NAME="?bin@Qt@@YAAEAVQTextStream@@AEAV2@@Z" PURGE="0" COMMENT="" />
    <EXPORT ORDINAL="2273" NAME="?bindable@QMetaProperty@@QEBA?AVQUntypedBindable@@PEAVQObject@@@Z" PURGE="0" COMMENT="" />
    <EXPORT ORDINAL="2274" NAME="?bindableActive@QTimer@@QEAA?AV?$QBindable@_N@@XZ" PURGE="0" COMMENT="" />
    <EXPORT ORDINAL="2275" NAME="?bindableAutoAcceptChildRows@QSortFilterProxyModel@@QEAA?AV?$QBindable@_N@@XZ" PURGE="0" COMMENT="" />
    <EXPORT ORDINAL="2276" NAME="?bindableCurrentAnimation@QSequentialAnimationGroup@@QEBA?AV?$QBindable@PEAVQAbstractAnimation@@@@XZ" PURGE="0" COMMENT="" />
    <EXPORT ORDINAL="2277" NAME="?bindableCurrentLoop@QAbstractAnimation@@QEBA?AV?$QBindable@H@@XZ" PURGE="0" COMMENT="" />
    <EXPORT ORDINAL="2278" NAME="?bindableCurrentTime@QAbstractAnimation@@QEAA?AV?$QBindable@H@@XZ" PURGE="0" COMMENT="" />
    <EXPORT ORDINAL="2279" NAME="?bindableCurrentTime@QTimeLine@@QEAA?AV?$QBindable@H@@XZ" PURGE="0" COMMENT="" />
    <EXPORT ORDINAL="2280" NAME="?bindableDirection@QAbstractAnimation@@QEAA?AV?$QBindable@W4Direction@QAbstractAnimation@@@@XZ" PURGE="0" COMMENT="" />
    <EXPORT ORDINAL="2281" NAME="?bindableDirection@QTimeLine@@QEAA?AV?$QBindable@W4Direction@QTimeLine@@@@XZ" PURGE="0" COMMENT="" />
    <EXPORT ORDINAL="2282" NAME="?bindableDuration@QPauseAnimation@@QEAA?AV?$QBindable@H@@XZ" PURGE="0" COMMENT="" />
    <EXPORT ORDINAL="2283" NAME="?bindableDuration@QTimeLine@@QEAA?AV?$QBindable@H@@XZ" PURGE="0" COMMENT="" />
    <EXPORT ORDINAL="2284" NAME="?bindableDuration@QVariantAnimation@@QEAA?AV?$QBindable@H@@XZ" PURGE="0" COMMENT="" />
    <EXPORT ORDINAL="2285" NAME="?bindableDynamicSortFilter@QSortFilterProxyModel@@QEAA?AV?$QBindable@_N@@XZ" PURGE="0" COMMENT="" />
    <EXPORT ORDINAL="2286" NAME="?bindableEasingCurve@QTimeLine@@QEAA?AV?$QBindable@VQEasingCurve@@@@XZ" PURGE="0" COMMENT="" />
    <EXPORT ORDINAL="2287" NAME="?bindableEasingCurve@QVariantAnimation@@QEAA?AV?$QBindable@VQEasingCurve@@@@XZ" PURGE="0" COMMENT="" />
    <EXPORT ORDINAL="2288" NAME="?bindableFilterCaseSensitivity@QSortFilterProxyModel@@QEAA?AV?$QBindable@W4CaseSensitivity@Qt@@@@XZ" PURGE="0" COMMENT="" />
    <EXPORT ORDINAL="2289" NAME="?bindableFilterKeyColumn@QSortFilterProxyModel@@QEAA?AV?$QBindable@H@@XZ" PURGE="0" COMMENT="" />
    <EXPORT ORDINAL="2290" NAME="?bindableFilterRegularExpression@QSortFilterProxyModel@@QEAA?AV?$QBindable@VQRegularExpression@@@@XZ" PURGE="0" COMMENT="" />
    <EXPORT ORDINAL="2291" NAME="?bindableFilterRole@QSortFilterProxyModel@@QEAA?AV?$QBindable@H@@XZ" PURGE="0" COMMENT="" />
    <EXPORT ORDINAL="2292" NAME="?bindableInterval@QTimer@@QEAA?AV?$QBindable@H@@XZ" PURGE="0" COMMENT="" />
    <EXPORT ORDINAL="2293" NAME="?bindableIsSortLocaleAware@QSortFilterProxyModel@@QEAA?AV?$QBindable@_N@@XZ" PURGE="0" COMMENT="" />
    <EXPORT ORDINAL="2294" NAME="?bindableLoopCount@QAbstractAnimation@@QEAA?AV?$QBindable@H@@XZ" PURGE="0" COMMENT="" />
    <EXPORT ORDINAL="2295" NAME="?bindableLoopCount@QTimeLine@@QEAA?AV?$QBindable@H@@XZ" PURGE="0" COMMENT="" />
    <EXPORT ORDINAL="2296" NAME="?bindableModel@QItemSelectionModel@@QEAA?AV?$QBindable@PEAVQAbstractItemModel@@@@XZ" PURGE="0" COMMENT="" />
    <EXPORT ORDINAL="2297" NAME="?bindableObjectName@QObject@@QEAA?AV?$QBindable@VQString@@@@XZ" PURGE="0" COMMENT="" />
    <EXPORT ORDINAL="2298" NAME="?bindablePropertyName@QPropertyAnimation@@QEAA?AV?$QBindable@VQByteArray@@@@XZ" PURGE="0" COMMENT="" />
    <EXPORT ORDINAL="2299" NAME="?bindableRecursiveFilteringEnabled@QSortFilterProxyModel@@QEAA?AV?$QBindable@_N@@XZ" PURGE="0" COMMENT="" />
    <EXPORT ORDINAL="2300" NAME="?bindableSingleShot@QTimer@@QEAA?AV?$QBindable@_N@@XZ" PURGE="0" COMMENT="" />
    <EXPORT ORDINAL="2301" NAME="?bindableSortCaseSensitivity@QSortFilterProxyModel@@QEAA?AV?$QBindable@W4CaseSensitivity@Qt@@@@XZ" PURGE="0" COMMENT="" />
    <EXPORT ORDINAL="2302" NAME="?bindableSortRole@QSortFilterProxyModel@@QEAA?AV?$QBindable@H@@XZ" PURGE="0" COMMENT="" />
    <EXPORT ORDINAL="2303" NAME="?bindableSourceModel@QAbstractProxyModel@@QEAA?AV?$QBindable@PEAVQAbstractItemModel@@@@XZ" PURGE="0" COMMENT="" />
    <EXPORT ORDINAL="2304" NAME="?bindableState@QAbstractAnimation@@QEBA?AV?$QBindable@W4State@QAbstractAnimation@@@@XZ" PURGE="0" COMMENT="" />
    <EXPORT ORDINAL="2305" NAME="?bindableTargetObject@QPropertyAnimation@@QEAA?AV?$QBindable@PEAVQObject@@@@XZ" PURGE="0" COMMENT="" />
    <EXPORT ORDINAL="2306" NAME="?bindableTimerType@QTimer@@QEAA?AV?$QBindable@W4TimerType@Qt@@@@XZ" PURGE="0" COMMENT="" />
    <EXPORT ORDINAL="2307" NAME="?bindableUpdateInterval@QTimeLine@@QEAA?AV?$QBindable@H@@XZ" PURGE="0" COMMENT="" />
    <EXPORT ORDINAL="2308" NAME="?binding@QPropertyBindingData@QtPrivate@@QEBAPEAVQPropertyBindingPrivate@@XZ" PURGE="0" COMMENT="" />
    <EXPORT ORDINAL="2309" NAME="?bindingData@QBindingStorage@@QEAAPEAVQPropertyBindingData@QtPrivate@@PEAVQUntypedPropertyData@@_N@Z" PURGE="0" COMMENT="" />
    <EXPORT ORDINAL="2310" NAME="?bindingData@QBindingStorage@@QEBAPEAVQPropertyBindingData@QtPrivate@@PEBVQUntypedPropertyData@@@Z" PURGE="0" COMMENT="" />
    <EXPORT ORDINAL="2311" NAME="?bindingData_helper@QBindingStorage@@AEAAPEAVQPropertyBindingData@QtPrivate@@PEAVQUntypedPropertyData@@_N@Z" PURGE="0" COMMENT="" />
    <EXPORT ORDINAL="2312" NAME="?bindingData_helper@QBindingStorage@@AEBAPEAVQPropertyBindingData@QtPrivate@@PEBVQUntypedPropertyData@@@Z" PURGE="0" COMMENT="" />
    <EXPORT ORDINAL="2313" NAME="?bindingError@QPropertyBindingPrivate@@QEBA?AVQPropertyBindingError@@XZ" PURGE="0" COMMENT="" />
    <EXPORT ORDINAL="2314" NAME="?bindingStorage@QObject@@QEAAPEAVQBindingStorage@@XZ" PURGE="0" COMMENT="" />
    <EXPORT ORDINAL="2315" NAME="?bindingStorage@QObject@@QEBAPEBVQBindingStorage@@XZ" PURGE="0" COMMENT="" />
    <EXPORT ORDINAL="2316" NAME="?bindingWrapper@PropertyAdaptorSlotObjectHelpers@QtPrivate@@YA_NVQMetaType@@PEAVQUntypedPropertyData@@UQPropertyBindingFunction@2@1PEAX@Z" PURGE="0" COMMENT="" />
    <EXPORT ORDINAL="2317" NAME="?birthTime@QFileInfo@@QEBA?AVQDateTime@@AEBVQTimeZone@@@Z" PURGE="0" COMMENT="" />
    <EXPORT ORDINAL="2318" NAME="?birthTime@QFileInfo@@QEBA?AVQDateTime@@XZ" PURGE="0" COMMENT="" />
    <EXPORT ORDINAL="2319" NAME="?bits@QBitArray@@QEBAPEBDXZ" PURGE="0" COMMENT="" />
    <EXPORT ORDINAL="2320" NAME="?blobSize@QMetaStringTable@@QEBAHXZ" PURGE="0" COMMENT="" />
    <EXPORT ORDINAL="2321" NAME="?blockSignals@QObject@@QEAA_N_N@Z" PURGE="0" COMMENT="" />
    <EXPORT ORDINAL="2322" NAME="?blockSize@QStorageInfo@@QEBAHXZ" PURGE="0" COMMENT="" />
    <EXPORT ORDINAL="2323" NAME="?bom@Qt@@YAAEAVQTextStream@@AEAV2@@Z" PURGE="0" COMMENT="" />
    <EXPORT ORDINAL="2324" NAME="?bootUniqueId@QSysInfo@@SA?AVQByteArray@@XZ" PURGE="0" COMMENT="" />
    <EXPORT ORDINAL="2325" NAME="?bottom@QItemSelectionRange@@QEBAHXZ" PURGE="0" COMMENT="" />
    <EXPORT ORDINAL="2326" NAME="?bottom@QRect@@QEBAHXZ" PURGE="0" COMMENT="" />
    <EXPORT ORDINAL="2327" NAME="?bottom@QRectF@@QEBANXZ" PURGE="0" COMMENT="" />
    <EXPORT ORDINAL="2328" NAME="?bottomLeft@QRect@@QEBA?AVQPoint@@XZ" PURGE="0" COMMENT="" />
    <EXPORT ORDINAL="2329" NAME="?bottomLeft@QRectF@@QEBA?AVQPointF@@XZ" PURGE="0" COMMENT="" />
    <EXPORT ORDINAL="2330" NAME="?bottomRight@QItemSelectionRange@@QEBAAEBVQPersistentModelIndex@@XZ" PURGE="0" COMMENT="" />
    <EXPORT ORDINAL="2331" NAME="?bottomRight@QRect@@QEBA?AVQPoint@@XZ" PURGE="0" COMMENT="" />
    <EXPORT ORDINAL="2332" NAME="?bottomRight@QRectF@@QEBA?AVQPointF@@XZ" PURGE="0" COMMENT="" />
    <EXPORT ORDINAL="2333" NAME="?boundaryReasons@QTextBoundaryFinder@@QEBA?AV?$QFlags@W4BoundaryReason@QTextBoundaryFinder@@@@XZ" PURGE="0" COMMENT="" />
    <EXPORT ORDINAL="2334" NAME="?boundedTo@QSize@@QEBA?AV1@AEBV1@@Z" PURGE="0" COMMENT="" />
    <EXPORT ORDINAL="2335" NAME="?boundedTo@QSizeF@@QEBA?AV1@AEBV1@@Z" PURGE="0" COMMENT="" />
    <EXPORT ORDINAL="2336" NAME="?buddy@QAbstractItemModel@@UEBA?AVQModelIndex@@AEBV2@@Z" PURGE="0" COMMENT="" />
    <EXPORT ORDINAL="2337" NAME="?buddy@QAbstractProxyModel@@UEBA?AVQModelIndex@@AEBV2@@Z" PURGE="0" COMMENT="" />
    <EXPORT ORDINAL="2338" NAME="?buddy@QSortFilterProxyModel@@UEBA?AVQModelIndex@@AEBV2@@Z" PURGE="0" COMMENT="" />
    <EXPORT ORDINAL="2339" NAME="?buffer@QBuffer@@QEAAAEAVQByteArray@@XZ" PURGE="0" COMMENT="" />
    <EXPORT ORDINAL="2340" NAME="?buffer@QBuffer@@QEBAAEBVQByteArray@@XZ" PURGE="0" COMMENT="" />
    <EXPORT ORDINAL="2341" NAME="?build@QLibraryInfo@@SAPEBDXZ" PURGE="0" COMMENT="" />
    <EXPORT ORDINAL="2342" NAME="?buildAbi@QSysInfo@@SA?AVQString@@XZ" PURGE="0" COMMENT="" />
    <EXPORT ORDINAL="2343" NAME="?buildCpuArchitecture@QSysInfo@@SA?AVQString@@XZ" PURGE="0" COMMENT="" />
    <EXPORT ORDINAL="2344" NAME="?bundleName@QFileInfo@@QEBA?AVQString@@XZ" PURGE="0" COMMENT="" />
    <EXPORT ORDINAL="2345" NAME="?byteOrder@QDataStream@@QEBA?AW4ByteOrder@1@XZ" PURGE="0" COMMENT="" />
    <EXPORT ORDINAL="2346" NAME="?bytearrayToLongLong@QLocaleData@@SA?AU?$QSimpleParsedNumber@_J@@VQByteArrayView@@H@Z" PURGE="0" COMMENT="" />
    <EXPORT ORDINAL="2347" NAME="?bytesAvailable@QIODevice@@UEBA_JXZ" PURGE="0" COMMENT="" />
    <EXPORT ORDINAL="2348" NAME="?bytesAvailable@QStorageInfo@@QEBA_JXZ" PURGE="0" COMMENT="" />
    <EXPORT ORDINAL="2349" NAME="?bytesAvailable@QWindowsPipeReader@@QEBA_JXZ" PURGE="0" COMMENT="" />
    <EXPORT ORDINAL="2350" NAME="?bytesFree@QStorageInfo@@QEBA_JXZ" PURGE="0" COMMENT="" />
    <EXPORT ORDINAL="2351" NAME="?bytesToWrite@QIODevice@@UEBA_JXZ" PURGE="0" COMMENT="" />
    <EXPORT ORDINAL="2352" NAME="?bytesToWrite@QProcess@@UEBA_JXZ" PURGE="0" COMMENT="" />
    <EXPORT ORDINAL="2353" NAME="?bytesToWrite@QWindowsPipeWriter@@QEBA_JXZ" PURGE="0" COMMENT="" />
    <EXPORT ORDINAL="2354" NAME="?bytesTotal@QStorageInfo@@QEBA_JXZ" PURGE="0" COMMENT="" />
    <EXPORT ORDINAL="2355" NAME="?bytesWritten@QIODevice@@QEAAX_J@Z" PURGE="0" COMMENT="" />
    <EXPORT ORDINAL="2356" NAME="?bytesWritten@QWindowsPipeWriter@@QEAAX_J@Z" PURGE="0" COMMENT="" />
    <EXPORT ORDINAL="2357" NAME="?c@QLocale@@SA?AV1@XZ" PURGE="0" COMMENT="" />
    <EXPORT ORDINAL="2358" NAME="?cachedApplicationFilePath@QCoreApplicationPrivate@@2PEAVQString@@EA" PURGE="-1" COMMENT="" />
    <EXPORT ORDINAL="2359" NAME="?caching@QFileInfo@@QEBA_NXZ" PURGE="0" COMMENT="" />
    <EXPORT ORDINAL="2360" NAME="?calendarId@QCalendarBackend@@QEBA?AVSystemId@QCalendar@@XZ" PURGE="0" COMMENT="" />
    <EXPORT ORDINAL="2361" NAME="?calendarSystem@QCalendarBackend@@QEBA?AW4System@QCalendar@@XZ" PURGE="0" COMMENT="" />
    <EXPORT ORDINAL="2362" NAME="?canAddValue@QMetaSequence@@QEBA_NXZ" PURGE="0" COMMENT="" />
    <EXPORT ORDINAL="2363" NAME="?canAddValueAtBegin@QMetaSequence@@QEBA_NXZ" PURGE="0" COMMENT="" />
    <EXPORT ORDINAL="2364" NAME="?canAddValueAtEnd@QMetaSequence@@QEBA_NXZ" PURGE="0" COMMENT="" />
    <EXPORT ORDINAL="2365" NAME="?canClear@QMetaContainer@@QEBA_NXZ" PURGE="0" COMMENT="" />
    <EXPORT ORDINAL="2366" NAME="?canContainsKey@QMetaAssociation@@QEBA_NXZ" PURGE="0" COMMENT="" />
    <EXPORT ORDINAL="2367" NAME="?canConvert@QMetaType@@SA_NV1@0@Z" PURGE="0" COMMENT="" />
    <EXPORT ORDINAL="2368" NAME="?canConvert@QVariant@@QEBA_NH@Z" PURGE="0" COMMENT="" />
    <EXPORT ORDINAL="2369" NAME="?canConvert@QVariant@@QEBA_NVQMetaType@@@Z" PURGE="0" COMMENT="" />
    <EXPORT ORDINAL="2370" NAME="?canCreateConstIteratorAtKey@QMetaAssociation@@QEBA_NXZ" PURGE="0" COMMENT="" />
    <EXPORT ORDINAL="2371" NAME="?canCreateIteratorAtKey@QMetaAssociation@@QEBA_NXZ" PURGE="0" COMMENT="" />
    <EXPORT ORDINAL="2372" NAME="?canDropMimeData@QAbstractItemModel@@UEBA_NPEBVQMimeData@@W4DropAction@Qt@@HHAEBVQModelIndex@@@Z" PURGE="0" COMMENT="" />
    <EXPORT ORDINAL="2373" NAME="?canDropMimeData@QAbstractProxyModel@@UEBA_NPEBVQMimeData@@W4DropAction@Qt@@HHAEBVQModelIndex@@@Z" PURGE="0" COMMENT="" />
    <EXPORT ORDINAL="2374" NAME="?canDropMimeData@QConcatenateTablesProxyModel@@UEBA_NPEBVQMimeData@@W4DropAction@Qt@@HHAEBVQModelIndex@@@Z" PURGE="0" COMMENT="" />
    <EXPORT ORDINAL="2375" NAME="?canEraseRangeAtIterator@QMetaSequence@@QEBA_NXZ" PURGE="0" COMMENT="" />
    <EXPORT ORDINAL="2376" NAME="?canEraseValueAtIterator@QMetaSequence@@QEBA_NXZ" PURGE="0" COMMENT="" />
    <EXPORT ORDINAL="2377" NAME="?canFetchMore@QAbstractItemModel@@UEBA_NAEBVQModelIndex@@@Z" PURGE="0" COMMENT="" />
    <EXPORT ORDINAL="2378" NAME="?canFetchMore@QAbstractProxyModel@@UEBA_NAEBVQModelIndex@@@Z" PURGE="0" COMMENT="" />
    <EXPORT ORDINAL="2379" NAME="?canFetchMore@QSortFilterProxyModel@@UEBA_NAEBVQModelIndex@@@Z" PURGE="0" COMMENT="" />
    <EXPORT ORDINAL="2380" NAME="?canForwardIterate@?$QIterable@VQMetaAssociation@@@@QEBA_NXZ" PURGE="0" COMMENT="" />
    <EXPORT ORDINAL="2381" NAME="?canForwardIterate@?$QIterable@VQMetaSequence@@@@QEBA_NXZ" PURGE="0" COMMENT="" />
    <EXPORT ORDINAL="2382" NAME="?canGetKeyAtConstIterator@QMetaAssociation@@QEBA_NXZ" PURGE="0" COMMENT="" />
    <EXPORT ORDINAL="2383" NAME="?canGetKeyAtIterator@QMetaAssociation@@QEBA_NXZ" PURGE="0" COMMENT="" />
    <EXPORT ORDINAL="2384" NAME="?canGetMappedAtConstIterator@QMetaAssociation@@QEBA_NXZ" PURGE="0" COMMENT="" />
    <EXPORT ORDINAL="2385" NAME="?canGetMappedAtIterator@QMetaAssociation@@QEBA_NXZ" PURGE="0" COMMENT="" />
    <EXPORT ORDINAL="2386" NAME="?canGetMappedAtKey@QMetaAssociation@@QEBA_NXZ" PURGE="0" COMMENT="" />
    <EXPORT ORDINAL="2387" NAME="?canGetValueAtConstIterator@QMetaSequence@@QEBA_NXZ" PURGE="0" COMMENT="" />
    <EXPORT ORDINAL="2388" NAME="?canGetValueAtIndex@QMetaSequence@@QEBA_NXZ" PURGE="0" COMMENT="" />
    <EXPORT ORDINAL="2389" NAME="?canGetValueAtIterator@QMetaSequence@@QEBA_NXZ" PURGE="0" COMMENT="" />
    <EXPORT ORDINAL="2390" NAME="?canIncrementVectorIndex@ResultIteratorBase@QtPrivate@@QEBA_NXZ" PURGE="0" COMMENT="" />
    <EXPORT ORDINAL="2391" NAME="?canInputIterate@?$QIterable@VQMetaAssociation@@@@QEBA_NXZ" PURGE="0" COMMENT="" />
    <EXPORT ORDINAL="2392" NAME="?canInputIterate@?$QIterable@VQMetaSequence@@@@QEBA_NXZ" PURGE="0" COMMENT="" />
    <EXPORT ORDINAL="2393" NAME="?canInsertKey@QMetaAssociation@@QEBA_NXZ" PURGE="0" COMMENT="" />
    <EXPORT ORDINAL="2394" NAME="?canInsertValueAtIterator@QMetaSequence@@QEBA_NXZ" PURGE="0" COMMENT="" />
    <EXPORT ORDINAL="2395" NAME="?canQuitAutomatically@QCoreApplicationPrivate@@UEAA_NXZ" PURGE="0" COMMENT="" />
    <EXPORT ORDINAL="2396" NAME="?canRandomAccessIterate@?$QIterable@VQMetaAssociation@@@@QEBA_NXZ" PURGE="0" COMMENT="" />
    <EXPORT ORDINAL="2397" NAME="?canRandomAccessIterate@?$QIterable@VQMetaSequence@@@@QEBA_NXZ" PURGE="0" COMMENT="" />
    <EXPORT ORDINAL="2398" NAME="?canReadLine@QBuffer@@UEBA_NXZ" PURGE="0" COMMENT="" />
    <EXPORT ORDINAL="2399" NAME="?canReadLine@QIODevice@@UEBA_NXZ" PURGE="0" COMMENT="" />
    <EXPORT ORDINAL="2400" NAME="?canReadLine@QWindowsPipeReader@@QEBA_NXZ" PURGE="0" COMMENT="" />
    <EXPORT ORDINAL="2401" NAME="?canRemoveKey@QMetaAssociation@@QEBA_NXZ" PURGE="0" COMMENT="" />
    <EXPORT ORDINAL="2402" NAME="?canRemoveValue@QMetaSequence@@QEBA_NXZ" PURGE="0" COMMENT="" />
    <EXPORT ORDINAL="2403" NAME="?canRemoveValueAtBegin@QMetaSequence@@QEBA_NXZ" PURGE="0" COMMENT="" />
    <EXPORT ORDINAL="2404" NAME="?canRemoveValueAtEnd@QMetaSequence@@QEBA_NXZ" PURGE="0" COMMENT="" />
    <EXPORT ORDINAL="2405" NAME="?canReverseIterate@?$QIterable@VQMetaAssociation@@@@QEBA_NXZ" PURGE="0" COMMENT="" />
    <EXPORT ORDINAL="2406" NAME="?canReverseIterate@?$QIterable@VQMetaSequence@@@@QEBA_NXZ" PURGE="0" COMMENT="" />
    <EXPORT ORDINAL="2407" NAME="?canSetMappedAtIterator@QMetaAssociation@@QEBA_NXZ" PURGE="0" COMMENT="" />
    <EXPORT ORDINAL="2408" NAME="?canSetMappedAtKey@QMetaAssociation@@QEBA_NXZ" PURGE="0" COMMENT="" />
    <EXPORT ORDINAL="2409" NAME="?canSetValueAtIndex@QMetaSequence@@QEBA_NXZ" PURGE="0" COMMENT="" />
    <EXPORT ORDINAL="2410" NAME="?canSetValueAtIterator@QMetaSequence@@QEBA_NXZ" PURGE="0" COMMENT="" />
    <EXPORT ORDINAL="2411" NAME="?canUninstallAnimationDriver@QUnifiedTimer@@QEAA_NPEAVQAnimationDriver@@@Z" PURGE="0" COMMENT="" />
    <EXPORT ORDINAL="2412" NAME="?canView@QMetaType@@SA_NV1@0@Z" PURGE="0" COMMENT="" />
    <EXPORT ORDINAL="2413" NAME="?canView@QVariant@@QEBA_NVQMetaType@@@Z" PURGE="0" COMMENT="" />
    <EXPORT ORDINAL="2414" NAME="?cancel@QFutureInterfaceBase@@IEAAXW4CancelMode@1@@Z" PURGE="0" COMMENT="" />
    <EXPORT ORDINAL="2415" NAME="?cancel@QFutureInterfaceBase@@QEAAXXZ" PURGE="0" COMMENT="" />
    <EXPORT ORDINAL="2416" NAME="?cancel@QFutureWatcherBase@@QEAAXXZ" PURGE="0" COMMENT="" />
    <EXPORT ORDINAL="2417" NAME="?cancelAndFinish@QFutureInterfaceBase@@QEAAXXZ" PURGE="0" COMMENT="" />
    <EXPORT ORDINAL="2418" NAME="?cancelAsyncRead@QWindowsPipeReader@@AEAAXW4State@1@@Z" PURGE="0" COMMENT="" />
    <EXPORT ORDINAL="2419" NAME="?cancelWriting@QSaveFile@@QEAAXXZ" PURGE="0" COMMENT="" />
    <EXPORT ORDINAL="2420" NAME="?canceled@QFutureWatcherBase@@QEAAXXZ" PURGE="0" COMMENT="" />
    <EXPORT ORDINAL="2421" NAME="?canonicalFilePath@QFileInfo@@QEBA?AVQString@@XZ" PURGE="0" COMMENT="" />
    <EXPORT ORDINAL="2422" NAME="?canonicalPath@QDir@@QEBA?AVQString@@XZ" PURGE="0" COMMENT="" />
    <EXPORT ORDINAL="2423" NAME="?canonicalPath@QFileInfo@@QEBA?AVQString@@XZ" PURGE="0" COMMENT="" />
    <EXPORT ORDINAL="2424" NAME="?capacity@QByteArray@@QEBA_JXZ" PURGE="0" COMMENT="" />
    <EXPORT ORDINAL="2425" NAME="?capacity@QString@@QEBA_JXZ" PURGE="0" COMMENT="" />
    <EXPORT ORDINAL="2426" NAME="?captureCount@QRegularExpression@@QEBAHXZ" PURGE="0" COMMENT="" />
    <EXPORT ORDINAL="2427" NAME="?captured@QRegularExpressionMatch@@QEBA?AVQString@@AEBV2@@Z" PURGE="0" COMMENT="" />
    <EXPORT ORDINAL="2428" NAME="?captured@QRegularExpressionMatch@@QEBA?AVQString@@H@Z" PURGE="0" COMMENT="" />
    <EXPORT ORDINAL="2429" NAME="?captured@QRegularExpressionMatch@@QEBA?AVQString@@VQStringView@@@Z" PURGE="0" COMMENT="" />
    <EXPORT ORDINAL="2430" NAME="?capturedEnd@QRegularExpressionMatch@@QEBA_JAEBVQString@@@Z" PURGE="0" COMMENT="" />
    <EXPORT ORDINAL="2431" NAME="?capturedEnd@QRegularExpressionMatch@@QEBA_JH@Z" PURGE="0" COMMENT="" />
    <EXPORT ORDINAL="2432" NAME="?capturedEnd@QRegularExpressionMatch@@QEBA_JVQStringView@@@Z" PURGE="0" COMMENT="" />
    <EXPORT ORDINAL="2433" NAME="?capturedLength@QRegularExpressionMatch@@QEBA_JAEBVQString@@@Z" PURGE="0" COMMENT="" />
    <EXPORT ORDINAL="2434" NAME="?capturedLength@QRegularExpressionMatch@@QEBA_JH@Z" PURGE="0" COMMENT="" />
    <EXPORT ORDINAL="2435" NAME="?capturedLength@QRegularExpressionMatch@@QEBA_JVQStringView@@@Z" PURGE="0" COMMENT="" />
    <EXPORT ORDINAL="2436" NAME="?capturedStart@QRegularExpressionMatch@@QEBA_JAEBVQString@@@Z" PURGE="0" COMMENT="" />
    <EXPORT ORDINAL="2437" NAME="?capturedStart@QRegularExpressionMatch@@QEBA_JH@Z" PURGE="0" COMMENT="" />
    <EXPORT ORDINAL="2438" NAME="?capturedStart@QRegularExpressionMatch@@QEBA_JVQStringView@@@Z" PURGE="0" COMMENT="" />
    <EXPORT ORDINAL="2439" NAME="?capturedTexts@QRegularExpressionMatch@@QEBA?AV?$QList@VQString@@@@XZ" PURGE="0" COMMENT="" />
    <EXPORT ORDINAL="2440" NAME="?capturedView@QRegularExpressionMatch@@QEBA?AVQStringView@@H@Z" PURGE="0" COMMENT="" />
    <EXPORT ORDINAL="2441" NAME="?capturedView@QRegularExpressionMatch@@QEBA?AVQStringView@@V2@@Z" PURGE="0" COMMENT="" />
    <EXPORT ORDINAL="2442" NAME="?caseSensitive@QAbstractFileEngine@@UEBA_NXZ" PURGE="0" COMMENT="" />
    <EXPORT ORDINAL="2443" NAME="?caseSensitive@QFSFileEngine@@UEBA_NXZ" PURGE="0" COMMENT="" />
    <EXPORT ORDINAL="2444" NAME="?caseSensitivity@QCollator@@QEBA?AW4CaseSensitivity@Qt@@XZ" PURGE="0" COMMENT="" />
    <EXPORT ORDINAL="2445" NAME="?caseSensitivity@QLatin1StringMatcher@@QEBA?AW4CaseSensitivity@Qt@@XZ" PURGE="0" COMMENT="" />
    <EXPORT ORDINAL="2446" NAME="?caseSensitivity@QStringMatcher@@QEBA?AW4CaseSensitivity@Qt@@XZ" PURGE="0" COMMENT="" />
    <EXPORT ORDINAL="2447" NAME="?cast@QMetaObject@@QEBAPEAVQObject@@PEAV2@@Z" PURGE="0" COMMENT="" />
    <EXPORT ORDINAL="2448" NAME="?cast@QMetaObject@@QEBAPEBVQObject@@PEBV2@@Z" PURGE="0" COMMENT="" />
    <EXPORT ORDINAL="2449" NAME="?castHelper@QByteArrayView@@CAPEBDPEBD@Z" PURGE="0" COMMENT="" />
    <EXPORT ORDINAL="2450" NAME="?category@QChar@@QEBA?AW4Category@1@XZ" PURGE="0" COMMENT="" />
    <EXPORT ORDINAL="2451" NAME="?category@QChar@@SA?AW4Category@1@_U@Z" PURGE="0" COMMENT="" />
    <EXPORT ORDINAL="2452" NAME="?categoryName@QLoggingCategory@@QEBAPEBDXZ" PURGE="0" COMMENT="" />
    <EXPORT ORDINAL="2453" NAME="?cbegin@QByteArray@@QEBAPEBDXZ" PURGE="0" COMMENT="" />
    <EXPORT ORDINAL="2454" NAME="?cbegin@QByteArrayView@@QEBAPEBDXZ" PURGE="0" COMMENT="" />
    <EXPORT ORDINAL="2455" NAME="?cbegin@QCborArray@@QEBA?AVConstIterator@1@XZ" PURGE="0" COMMENT="" />
    <EXPORT ORDINAL="2456" NAME="?cbegin@QCborMap@@QEBA?AVConstIterator@1@XZ" PURGE="0" COMMENT="" />
    <EXPORT ORDINAL="2457" NAME="?cbegin@QJsonArray@@QEBA?AVconst_iterator@1@XZ" PURGE="0" COMMENT="" />
    <EXPORT ORDINAL="2458" NAME="?cbegin@QString@@QEBAPEBVQChar@@XZ" PURGE="0" COMMENT="" />
    <EXPORT ORDINAL="2459" NAME="?cd@QDir@@QEAA_NAEBVQString@@@Z" PURGE="0" COMMENT="" />
    <EXPORT ORDINAL="2460" NAME="?cdUp@QDir@@QEAA_NXZ" PURGE="0" COMMENT="" />
    <EXPORT ORDINAL="2461" NAME="?cell@QChar@@QEBAEXZ" PURGE="0" COMMENT="" />
    <EXPORT ORDINAL="2462" NAME="?cend@QByteArray@@QEBAPEBDXZ" PURGE="0" COMMENT="" />
    <EXPORT ORDINAL="2463" NAME="?cend@QByteArrayView@@QEBAPEBDXZ" PURGE="0" COMMENT="" />
    <EXPORT ORDINAL="2464" NAME="?cend@QCborArray@@QEBA?AVConstIterator@1@XZ" PURGE="0" COMMENT="" />
    <EXPORT ORDINAL="2465" NAME="?cend@QCborMap@@QEBA?AVConstIterator@1@XZ" PURGE="0" COMMENT="" />
    <EXPORT ORDINAL="2466" NAME="?cend@QJsonArray@@QEBA?AVconst_iterator@1@XZ" PURGE="0" COMMENT="" />
    <EXPORT ORDINAL="2467" NAME="?cend@QString@@QEBAPEBVQChar@@XZ" PURGE="0" COMMENT="" />
    <EXPORT ORDINAL="2468" NAME="?center@QLine@@QEBA?AVQPoint@@XZ" PURGE="0" COMMENT="" />
    <EXPORT ORDINAL="2469" NAME="?center@QLineF@@QEBA?AVQPointF@@XZ" PURGE="0" COMMENT="" />
    <EXPORT ORDINAL="2470" NAME="?center@QRect@@QEBA?AVQPoint@@XZ" PURGE="0" COMMENT="" />
    <EXPORT ORDINAL="2471" NAME="?center@QRectF@@QEBA?AVQPointF@@XZ" PURGE="0" COMMENT="" />
    <EXPORT ORDINAL="2472" NAME="?center@Qt@@YAAEAVQTextStream@@AEAV2@@Z" PURGE="0" COMMENT="" />
    <EXPORT ORDINAL="2473" NAME="?changePersistentIndex@QAbstractItemModel@@IEAAXAEBVQModelIndex@@0@Z" PURGE="0" COMMENT="" />
    <EXPORT ORDINAL="2474" NAME="?changePersistentIndexList@QAbstractItemModel@@IEAAXAEBV?$QList@VQModelIndex@@@@0@Z" PURGE="0" COMMENT="" />
    <EXPORT ORDINAL="2475" NAME="?channelBytesWritten@QIODevice@@QEAAXH_J@Z" PURGE="0" COMMENT="" />
    <EXPORT ORDINAL="2476" NAME="?channelReadyRead@QIODevice@@QEAAXH@Z" PURGE="0" COMMENT="" />
    <EXPORT ORDINAL="2477" NAME="?characterOffset@QXmlStreamReader@@QEBA_JXZ" PURGE="0" COMMENT="" />
    <EXPORT ORDINAL="2478" NAME="?checkConnectArgs@QMetaObject@@SA_NAEBVQMetaMethod@@0@Z" PURGE="0" COMMENT="" />
    <EXPORT ORDINAL="2479" NAME="?checkConnectArgs@QMetaObject@@SA_NPEBD0@Z" PURGE="0" COMMENT="" />
    <EXPORT ORDINAL="2480" NAME="?checkForIncompatibleLibraryVersion@QObjectPrivate@@QEBAXH@Z" PURGE="0" COMMENT="" />
    <EXPORT ORDINAL="2481" NAME="?checkForReadyRead@QWindowsPipeReader@@QEAA_NXZ" PURGE="0" COMMENT="" />
    <EXPORT ORDINAL="2482" NAME="?checkForWrite@QWindowsPipeWriter@@QEAA_NXZ" PURGE="0" COMMENT="" />
    <EXPORT ORDINAL="2483" NAME="?checkIndex@QAbstractItemModel@@QEBA_NAEBVQModelIndex@@V?$QFlags@W4CheckIndexOption@QAbstractItemModel@@@@@Z" PURGE="0" COMMENT="" />
    <EXPORT ORDINAL="2484" NAME="?checkInstance@QCoreApplicationPrivate@@SA_NPEBD@Z" PURGE="0" COMMENT="" />
    <EXPORT ORDINAL="2485" NAME="?checkPermission@QCoreApplication@@QEAA?AW4PermissionStatus@Qt@@AEBVQPermission@@@Z" PURGE="0" COMMENT="" />
    <EXPORT ORDINAL="2486" NAME="?checkPipeState@QWindowsPipeReader@@QEAAKXZ" PURGE="0" COMMENT="" />
    <EXPORT ORDINAL="2487" NAME="?checkQObjectShared@ExternalRefCountData@QtSharedPointer@@QEAAXPEBVQObject@@@Z" PURGE="0" COMMENT="" />
    <EXPORT ORDINAL="2488" NAME="?checkReceiverThread@QCoreApplicationPrivate@@SAXPEAVQObject@@@Z" PURGE="0" COMMENT="" />
    <EXPORT ORDINAL="2489" NAME="?checkUtf8@QLocal8Bit@@SAHXZ" PURGE="0" COMMENT="" />
    <EXPORT ORDINAL="2490" NAME="?child@QChildEvent@@QEBAPEAVQObject@@XZ" PURGE="0" COMMENT="" />
    <EXPORT ORDINAL="2491" NAME="?childEvent@QObject@@MEAAXPEAVQChildEvent@@@Z" PURGE="0" COMMENT="" />
    <EXPORT ORDINAL="2492" NAME="?childGroups@QSettings@@QEBA?AV?$QList@VQString@@@@XZ" PURGE="0" COMMENT="" />
    <EXPORT ORDINAL="2493" NAME="?childKeys@QSettings@@QEBA?AV?$QList@VQString@@@@XZ" PURGE="0" COMMENT="" />
    <EXPORT ORDINAL="2494" NAME="?children@QObject@@QEBAAEBV?$QList@PEAVQObject@@@@XZ" PURGE="0" COMMENT="" />
    <EXPORT ORDINAL="2495" NAME="?children@QResource@@IEBA?AV?$QList@VQString@@@@XZ" PURGE="0" COMMENT="" />
    <EXPORT ORDINAL="2496" NAME="?chop@QByteArray@@QEAAX_J@Z" PURGE="0" COMMENT="" />
    <EXPORT ORDINAL="2497" NAME="?chop@QByteArrayView@@QEAAX_J@Z" PURGE="0" COMMENT="" />
    <EXPORT ORDINAL="2498" NAME="?chop@QRingBuffer@@QEAAX_J@Z" PURGE="0" COMMENT="" />
    <EXPORT ORDINAL="2499" NAME="?chop@QString@@QEAAX_J@Z" PURGE="0" COMMENT="" />
    <EXPORT ORDINAL="2500" NAME="?chopped@QByteArray@@QEBA?AV1@_J@Z" PURGE="0" COMMENT="" />
    <EXPORT ORDINAL="2501" NAME="?chopped@QByteArray@@QEGBA?AV1@_J@Z" PURGE="0" COMMENT="" />
    <EXPORT ORDINAL="2502" NAME="?chopped@QByteArray@@QEHAA?AV1@_J@Z" PURGE="0" COMMENT="" />
    <EXPORT ORDINAL="2503" NAME="?chopped@QByteArrayView@@QEBA?AV1@_J@Z" PURGE="0" COMMENT="" />
    <EXPORT ORDINAL="2504" NAME="?chopped@QString@@QEBA?AV1@_J@Z" PURGE="0" COMMENT="" />
    <EXPORT ORDINAL="2505" NAME="?chopped@QString@@QEGBA?AV1@_J@Z" PURGE="0" COMMENT="" />
    <EXPORT ORDINAL="2506" NAME="?chopped@QString@@QEHAA?AV1@_J@Z" PURGE="0" COMMENT="" />
    <EXPORT ORDINAL="2507" NAME="?classInfo@QMetaObject@@QEBA?AVQMetaClassInfo@@H@Z" PURGE="0" COMMENT="" />
    <EXPORT ORDINAL="2508" NAME="?classInfoCount@QMetaObject@@QEBAHXZ" PURGE="0" COMMENT="" />
    <EXPORT ORDINAL="2509" NAME="?classInfoCount@QMetaObjectBuilder@@QEBAHXZ" PURGE="0" COMMENT="" />
    <EXPORT ORDINAL="2510" NAME="?classInfoName@QMetaObjectBuilder@@QEBA?AVQByteArray@@H@Z" PURGE="0" COMMENT="" />
    <EXPORT ORDINAL="2511" NAME="?classInfoOffset@QMetaObject@@QEBAHXZ" PURGE="0" COMMENT="" />
    <EXPORT ORDINAL="2512" NAME="?classInfoValue@QMetaObjectBuilder@@QEBA?AVQByteArray@@H@Z" PURGE="0" COMMENT="" />
    <EXPORT ORDINAL="2513" NAME="?className@QMetaObject@@QEBAPEBDXZ" PURGE="0" COMMENT="" />
    <EXPORT ORDINAL="2514" NAME="?className@QMetaObjectBuilder@@QEBA?AVQByteArray@@XZ" PURGE="0" COMMENT="" />
    <EXPORT ORDINAL="2515" NAME="?cleanContinuation@QFutureInterfaceBase@@IEAAXXZ" PURGE="0" COMMENT="" />
    <EXPORT ORDINAL="2516" NAME="?cleanPath@QDir@@SA?AVQString@@AEBV2@@Z" PURGE="0" COMMENT="" />
    <EXPORT ORDINAL="2517" NAME="?cleanupThreadData@QCoreApplicationPrivate@@QEAAXXZ" PURGE="0" COMMENT="" />
    <EXPORT ORDINAL="2518" NAME="?clear@QAnimationGroup@@QEAAXXZ" PURGE="0" COMMENT="" />
    <EXPORT ORDINAL="2519" NAME="?clear@QBindingStorage@@AEAAXXZ" PURGE="0" COMMENT="" />
    <EXPORT ORDINAL="2520" NAME="?clear@QBitArray@@QEAAXXZ" PURGE="0" COMMENT="" />
    <EXPORT ORDINAL="2521" NAME="?clear@QByteArray@@QEAAXXZ" PURGE="0" COMMENT="" />
    <EXPORT ORDINAL="2522" NAME="?clear@QCborArray@@QEAAXXZ" PURGE="0" COMMENT="" />
    <EXPORT ORDINAL="2523" NAME="?clear@QCborMap@@QEAAXXZ" PURGE="0" COMMENT="" />
    <EXPORT ORDINAL="2524" NAME="?clear@QCborStreamReader@@QEAAXXZ" PURGE="0" COMMENT="" />
    <EXPORT ORDINAL="2525" NAME="?clear@QItemSelectionModel@@UEAAXXZ" PURGE="2147483647" COMMENT="" />
    <EXPORT ORDINAL="2526" NAME="?clear@QMetaContainer@@QEBAXPEAX@Z" PURGE="0" COMMENT="" />
    <EXPORT ORDINAL="2527" NAME="?clear@QMimeData@@QEAAXXZ" PURGE="0" COMMENT="" />
    <EXPORT ORDINAL="2528" NAME="?clear@QObjectCleanupHandler@@QEAAXXZ" PURGE="0" COMMENT="" />
    <EXPORT ORDINAL="2529" NAME="?clear@QProcessEnvironment@@QEAAXXZ" PURGE="0" COMMENT="" />
    <EXPORT ORDINAL="2530" NAME="?clear@QRingBuffer@@QEAAXXZ" PURGE="0" COMMENT="" />
    <EXPORT ORDINAL="2531" NAME="?clear@QSettings@@QEAAXXZ" PURGE="0" COMMENT="" />
    <EXPORT ORDINAL="2532" NAME="?clear@QString@@QEAAXXZ" PURGE="0" COMMENT="" />
    <EXPORT ORDINAL="2533" NAME="?clear@QThreadPool@@QEAAXXZ" PURGE="0" COMMENT="" />
    <EXPORT ORDINAL="2534" NAME="?clear@QThreadPoolPrivate@@QEAAXXZ" PURGE="0" COMMENT="" />
    <EXPORT ORDINAL="2535" NAME="?clear@QUrl@@QEAAXXZ" PURGE="0" COMMENT="" />
    <EXPORT ORDINAL="2536" NAME="?clear@QUrlQuery@@QEAAXXZ" PURGE="0" COMMENT="" />
    <EXPORT ORDINAL="2537" NAME="?clear@QVariant@@QEAAXXZ" PURGE="0" COMMENT="" />
    <EXPORT ORDINAL="2538" NAME="?clear@QXmlStreamReader@@QEAAXXZ" PURGE="0" COMMENT="" />
    <EXPORT ORDINAL="2539" NAME="?clear@State@QStringConverterBase@@QEAAXXZ" PURGE="0" COMMENT="" />
    <EXPORT ORDINAL="2540" NAME="?clearAllCaches@QWinRTFactoryCacheRegistration@detail@@SAXXZ" PURGE="0" COMMENT="" />
    <EXPORT ORDINAL="2541" NAME="?clearApplicationFilePath@QCoreApplicationPrivate@@SAXXZ" PURGE="0" COMMENT="" />
    <EXPORT ORDINAL="2542" NAME="?clearBindingStorage@QObjectPrivate@@QEAAXXZ" PURGE="0" COMMENT="" />
    <EXPORT ORDINAL="2543" NAME="?clearBit@QBitArray@@QEAAX_J@Z" PURGE="0" COMMENT="" />
    <EXPORT ORDINAL="2544" NAME="?clearCurrentIndex@QItemSelectionModel@@UEAAXXZ" PURGE="0" COMMENT="" />
    <EXPORT ORDINAL="2545" NAME="?clearDependencyObservers@QPropertyBindingPrivate@@QEAAXXZ" PURGE="0" COMMENT="" />
    <EXPORT ORDINAL="2546" NAME="?clearItemData@QAbstractItemModel@@UEAA_NAEBVQModelIndex@@@Z" PURGE="0" COMMENT="" />
    <EXPORT ORDINAL="2547" NAME="?clearItemData@QAbstractProxyModel@@UEAA_NAEBVQModelIndex@@@Z" PURGE="0" COMMENT="" />
    <EXPORT ORDINAL="2548" NAME="?clearItemData@QStringListModel@@UEAA_NAEBVQModelIndex@@@Z" PURGE="0" COMMENT="" />
    <EXPORT ORDINAL="2549" NAME="?clearIterator@?$QBaseIterator@VQMetaAssociation@@@@IEAAXXZ" PURGE="0" COMMENT="" />
    <EXPORT ORDINAL="2550" NAME="?clearIterator@?$QBaseIterator@VQMetaSequence@@@@IEAAXXZ" PURGE="0" COMMENT="" />
    <EXPORT ORDINAL="2551" NAME="?clearPositionalArguments@QCommandLineParser@@QEAAXXZ" PURGE="0" COMMENT="" />
    <EXPORT ORDINAL="2552" NAME="?clearSelection@QItemSelectionModel@@QEAAXXZ" PURGE="0" COMMENT="" />
    <EXPORT ORDINAL="2553" NAME="?clockType@QElapsedTimer@@SA?AW4ClockType@1@XZ" PURGE="0" COMMENT="" />
    <EXPORT ORDINAL="2554" NAME="?clone@QChildEvent@@UEBAPEAV1@XZ" PURGE="0" COMMENT="" />
    <EXPORT ORDINAL="2555" NAME="?clone@QDynamicPropertyChangeEvent@@UEBAPEAV1@XZ" PURGE="0" COMMENT="" />
    <EXPORT ORDINAL="2556" NAME="?clone@QEvent@@UEBAPEAV1@XZ" PURGE="0" COMMENT="" />
    <EXPORT ORDINAL="2557" NAME="?clone@QException@@UEBAPEAV1@XZ" PURGE="0" COMMENT="" />
    <EXPORT ORDINAL="2558" NAME="?clone@QFutureCallOutEvent@@UEBAPEAV1@XZ" PURGE="0" COMMENT="" />
    <EXPORT ORDINAL="2559" NAME="?clone@QTimerEvent@@UEBAPEAV1@XZ" PURGE="0" COMMENT="" />
    <EXPORT ORDINAL="2560" NAME="?clone@QUnhandledException@@UEBAPEAV1@XZ" PURGE="0" COMMENT="" />
    <EXPORT ORDINAL="2561" NAME="?cloneTo@QAbstractFileEngine@@UEAA_NPEAV1@@Z" PURGE="0" COMMENT="" />
    <EXPORT ORDINAL="2562" NAME="?cloneTo@QFSFileEngine@@UEAA_NPEAVQAbstractFileEngine@@@Z" PURGE="0" COMMENT="" />
    <EXPORT ORDINAL="2563" NAME="?close@QAbstractFileEngine@@UEAA_NXZ" PURGE="0" COMMENT="" />
    <EXPORT ORDINAL="2564" NAME="?close@QBuffer@@UEAAXXZ" PURGE="0" COMMENT="" />
    <EXPORT ORDINAL="2565" NAME="?close@QFSFileEngine@@UEAA_NXZ" PURGE="0" COMMENT="" />
    <EXPORT ORDINAL="2566" NAME="?close@QFileDevice@@UEAAXXZ" PURGE="0" COMMENT="" />
    <EXPORT ORDINAL="2567" NAME="?close@QIODevice@@UEAAXXZ" PURGE="0" COMMENT="" />
    <EXPORT ORDINAL="2568" NAME="?close@QProcess@@UEAAXXZ" PURGE="0" COMMENT="" />
    <EXPORT ORDINAL="2569" NAME="?close@QSaveFile@@EEAAXXZ" PURGE="0" COMMENT="" />
    <EXPORT ORDINAL="2570" NAME="?close@QWinRegistryKey@@QEAAXXZ" PURGE="0" COMMENT="" />
    <EXPORT ORDINAL="2571" NAME="?close@QZipReader@@QEAAXXZ" PURGE="2147483647" COMMENT="" />
    <EXPORT ORDINAL="2572" NAME="?close@QZipWriter@@QEAAXXZ" PURGE="0" COMMENT="" />
    <EXPORT ORDINAL="2573" NAME="?closeReadChannel@QProcess@@QEAAXW4ProcessChannel@1@@Z" PURGE="0" COMMENT="" />
    <EXPORT ORDINAL="2574" NAME="?closeWriteChannel@QProcess@@QEAAXXZ" PURGE="0" COMMENT="" />
    <EXPORT ORDINAL="2575" NAME="?closestPausedAnimationTimerTimeToFinish@QUnifiedTimer@@AEAAHXZ" PURGE="0" COMMENT="" />
    <EXPORT ORDINAL="2576" NAME="?closingDown@QAbstractEventDispatcher@@UEAAXXZ" PURGE="0" COMMENT="" />
    <EXPORT ORDINAL="2577" NAME="?closingDown@QCoreApplication@@SA_NXZ" PURGE="0" COMMENT="" />
    <EXPORT ORDINAL="2578" NAME="?closingDown@QEventDispatcherWin32@@UEAAXXZ" PURGE="0" COMMENT="" />
    <EXPORT ORDINAL="2579" NAME="?codeToCountry@QLocale@@SA?AW4Country@1@VQStringView@@@Z" PURGE="0" COMMENT="" />
    <EXPORT ORDINAL="2580" NAME="?codeToLanguage@QLocale@@SA?AW4Language@1@VQStringView@@@Z" PURGE="0" COMMENT="" />
    <EXPORT ORDINAL="2581" NAME="?codeToLanguage@QLocale@@SA?AW4Language@1@VQStringView@@V?$QFlags@W4LanguageCodeType@QLocale@@@@@Z" PURGE="0" COMMENT="" />
    <EXPORT ORDINAL="2582" NAME="?codeToScript@QLocale@@SA?AW4Script@1@VQStringView@@@Z" PURGE="0" COMMENT="" />
    <EXPORT ORDINAL="2583" NAME="?codeToTerritory@QLocale@@SA?AW4Country@1@VQStringView@@@Z" PURGE="0" COMMENT="" />
    <EXPORT ORDINAL="2584" NAME="?coerce@QVariantTypeCoercer@QtPrivate@@QEAAPEBXAEBVQVariant@@AEBVQMetaType@@@Z" PURGE="0" COMMENT="" />
    <EXPORT ORDINAL="2585" NAME="?collation@QLocale@@QEBA?AV1@XZ" PURGE="0" COMMENT="" />
    <EXPORT ORDINAL="2586" NAME="?colorData@QMimeData@@QEBA?AVQVariant@@XZ" PURGE="0" COMMENT="" />
    <EXPORT ORDINAL="2587" NAME="?column@QPersistentModelIndex@@QEBAHXZ" PURGE="0" COMMENT="" />
    <EXPORT ORDINAL="2588" NAME="?columnCount@QAbstractListModel@@EEBAHAEBVQModelIndex@@@Z" PURGE="0" COMMENT="" />
    <EXPORT ORDINAL="2589" NAME="?columnCount@QConcatenateTablesProxyModel@@UEBAHAEBVQModelIndex@@@Z" PURGE="0" COMMENT="" />
    <EXPORT ORDINAL="2590" NAME="?columnCount@QIdentityProxyModel@@UEBAHAEBVQModelIndex@@@Z" PURGE="0" COMMENT="" />
    <EXPORT ORDINAL="2591" NAME="?columnCount@QSortFilterProxyModel@@UEBAHAEBVQModelIndex@@@Z" PURGE="0" COMMENT="" />
    <EXPORT ORDINAL="2592" NAME="?columnCount@QTransposeProxyModel@@UEBAHAEBVQModelIndex@@@Z" PURGE="0" COMMENT="" />
    <EXPORT ORDINAL="2593" NAME="?columnIntersectsSelection@QItemSelectionModel@@QEBA_NHAEBVQModelIndex@@@Z" PURGE="0" COMMENT="" />
    <EXPORT ORDINAL="2594" NAME="?columnNumber@QXmlStreamReader@@QEBA_JXZ" PURGE="0" COMMENT="" />
    <EXPORT ORDINAL="2595" NAME="?columnsAboutToBeInserted@QAbstractItemModel@@QEAAXAEBVQModelIndex@@HHUQPrivateSignal@1@@Z" PURGE="0" COMMENT="" />
    <EXPORT ORDINAL="2596" NAME="?columnsAboutToBeInserted@QAbstractItemModelPrivate@@QEAAXAEBVQModelIndex@@HH@Z" PURGE="0" COMMENT="" />
    <EXPORT ORDINAL="2597" NAME="?columnsAboutToBeMoved@QAbstractItemModel@@QEAAXAEBVQModelIndex@@HH0HUQPrivateSignal@1@@Z" PURGE="0" COMMENT="" />
    <EXPORT ORDINAL="2598" NAME="?columnsAboutToBeRemoved@QAbstractItemModel@@QEAAXAEBVQModelIndex@@HHUQPrivateSignal@1@@Z" PURGE="0" COMMENT="" />
    <EXPORT ORDINAL="2599" NAME="?columnsAboutToBeRemoved@QAbstractItemModelPrivate@@QEAAXAEBVQModelIndex@@HH@Z" PURGE="0" COMMENT="" />
    <EXPORT ORDINAL="2600" NAME="?columnsInserted@QAbstractItemModel@@QEAAXAEBVQModelIndex@@HHUQPrivateSignal@1@@Z" PURGE="0" COMMENT="" />
    <EXPORT ORDINAL="2601" NAME="?columnsInserted@QAbstractItemModelPrivate@@QEAAXAEBVQModelIndex@@HH@Z" PURGE="0" COMMENT="" />
    <EXPORT ORDINAL="2602" NAME="?columnsMoved@QAbstractItemModel@@QEAAXAEBVQModelIndex@@HH0HUQPrivateSignal@1@@Z" PURGE="0" COMMENT="" />
    <EXPORT ORDINAL="2603" NAME="?columnsRemoved@QAbstractItemModel@@QEAAXAEBVQModelIndex@@HHUQPrivateSignal@1@@Z" PURGE="0" COMMENT="" />
    <EXPORT ORDINAL="2604" NAME="?columnsRemoved@QAbstractItemModelPrivate@@QEAAXAEBVQModelIndex@@HH@Z" PURGE="0" COMMENT="" />
    <EXPORT ORDINAL="2605" NAME="?combiningClass@QChar@@QEBAEXZ" PURGE="0" COMMENT="" />
    <EXPORT ORDINAL="2606" NAME="?combiningClass@QChar@@SAE_U@Z" PURGE="0" COMMENT="" />
    <EXPORT ORDINAL="2607" NAME="?comment@QMimeType@@QEBA?AVQString@@XZ" PURGE="0" COMMENT="" />
    <EXPORT ORDINAL="2608" NAME="?comment@QTimeZone@@QEBA?AVQString@@XZ" PURGE="0" COMMENT="" />
    <EXPORT ORDINAL="2609" NAME="?commit@QSaveFile@@QEAA_NXZ" PURGE="0" COMMENT="" />
    <EXPORT ORDINAL="2610" NAME="?commitTransaction@QDataStream@@QEAA_NXZ" PURGE="0" COMMENT="" />
    <EXPORT ORDINAL="2611" NAME="?commitTransaction@QIODevice@@QEAAXXZ" PURGE="0" COMMENT="" />
    <EXPORT ORDINAL="2612" NAME="?commonPrefix@QVersionNumber@@SA?AV1@AEBV1@0@Z" PURGE="0" COMMENT="" />
    <EXPORT ORDINAL="2613" NAME="?communicationModes@QBluetoothPermission@@QEBA?AV?$QFlags@W4CommunicationMode@QBluetoothPermission@@@@XZ" PURGE="0" COMMENT="" />
    <EXPORT ORDINAL="2614" NAME="?compare@QAnyStringView@@SAHV1@0W4CaseSensitivity@Qt@@@Z" PURGE="0" COMMENT="" />
    <EXPORT ORDINAL="2615" NAME="?compare@QByteArray@@QEBAHVQByteArrayView@@W4CaseSensitivity@Qt@@@Z" PURGE="0" COMMENT="" />
    <EXPORT ORDINAL="2616" NAME="?compare@QByteArrayView@@QEBAHV1@W4CaseSensitivity@Qt@@@Z" PURGE="0" COMMENT="" />
    <EXPORT ORDINAL="2617" NAME="?compare@QCborArray@@QEBAHAEBV1@@Z" PURGE="0" COMMENT="" />
    <EXPORT ORDINAL="2618" NAME="?compare@QCborMap@@QEBAHAEBV1@@Z" PURGE="0" COMMENT="" />
    <EXPORT ORDINAL="2619" NAME="?compare@QCborValue@@QEBAHAEBV1@@Z" PURGE="0" COMMENT="" />
    <EXPORT ORDINAL="2620" NAME="?compare@QCborValueRef@@QEBAHAEBVQCborValue@@@Z" PURGE="0" COMMENT="" />
    <EXPORT ORDINAL="2621" NAME="?compare@QCollator@@QEBAHAEBVQString@@0@Z" PURGE="0" COMMENT="" />
    <EXPORT ORDINAL="2622" NAME="?compare@QCollator@@QEBAHPEBVQChar@@H0H@Z" PURGE="0" COMMENT="" />
    <EXPORT ORDINAL="2623" NAME="?compare@QCollator@@QEBAHPEBVQChar@@_J01@Z" PURGE="0" COMMENT="" />
    <EXPORT ORDINAL="2624" NAME="?compare@QCollator@@QEBAHVQStringView@@0@Z" PURGE="0" COMMENT="" />
    <EXPORT ORDINAL="2625" NAME="?compare@QCollatorSortKey@@QEBAHAEBV1@@Z" PURGE="0" COMMENT="" />
    <EXPORT ORDINAL="2626" NAME="?compare@QMetaType@@QEBA?AVQPartialOrdering@@PEBX0@Z" PURGE="0" COMMENT="" />
    <EXPORT ORDINAL="2627" NAME="?compare@QMetaType@@SA_NPEBX0HPEAH@Z" PURGE="0" COMMENT="" />
    <EXPORT ORDINAL="2628" NAME="?compare@QOperatingSystemVersion@@CAHAEBV1@0@Z" PURGE="0" COMMENT="" />
    <EXPORT ORDINAL="2629" NAME="?compare@QOperatingSystemVersionBase@@KAHV1@0@Z" PURGE="0" COMMENT="" />
    <EXPORT ORDINAL="2630" NAME="?compare@QString@@QEBAHAEBV1@W4CaseSensitivity@Qt@@@Z" PURGE="0" COMMENT="" />
    <EXPORT ORDINAL="2631" NAME="?compare@QString@@QEBAHVQChar@@W4CaseSensitivity@Qt@@@Z" PURGE="0" COMMENT="" />
    <EXPORT ORDINAL="2632" NAME="?compare@QString@@QEBAHVQLatin1String@@W4CaseSensitivity@Qt@@@Z" PURGE="0" COMMENT="" />
    <EXPORT ORDINAL="2633" NAME="?compare@QString@@QEBAHVQStringView@@W4CaseSensitivity@Qt@@@Z" PURGE="0" COMMENT="" />
    <EXPORT ORDINAL="2634" NAME="?compare@QString@@SAHAEBV1@0W4CaseSensitivity@Qt@@@Z" PURGE="0" COMMENT="" />
    <EXPORT ORDINAL="2635" NAME="?compare@QString@@SAHAEBV1@VQLatin1String@@W4CaseSensitivity@Qt@@@Z" PURGE="0" COMMENT="" />
    <EXPORT ORDINAL="2636" NAME="?compare@QString@@SAHAEBV1@VQStringView@@W4CaseSensitivity@Qt@@@Z" PURGE="0" COMMENT="" />
    <EXPORT ORDINAL="2637" NAME="?compare@QString@@SAHVQLatin1String@@AEBV1@W4CaseSensitivity@Qt@@@Z" PURGE="0" COMMENT="" />
    <EXPORT ORDINAL="2638" NAME="?compare@QString@@SAHVQStringView@@AEBV1@W4CaseSensitivity@Qt@@@Z" PURGE="0" COMMENT="" />
    <EXPORT ORDINAL="2639" NAME="?compare@QVariant@@SA?AVQPartialOrdering@@AEBV1@0@Z" PURGE="0" COMMENT="" />
    <EXPORT ORDINAL="2640" NAME="?compare@QVersionNumber@@SAHAEBV1@0@Z" PURGE="0" COMMENT="" />
    <EXPORT ORDINAL="2641" NAME="?compareConstIterator@QMetaContainer@@QEBA_NPEBX0@Z" PURGE="0" COMMENT="" />
    <EXPORT ORDINAL="2642" NAME="?compareIterator@QMetaContainer@@QEBA_NPEBX0@Z" PURGE="0" COMMENT="" />
    <EXPORT ORDINAL="2643" NAME="?compareMemory@QtPrivate@@YAHVQByteArrayView@@0@Z" PURGE="0" COMMENT="" />
    <EXPORT ORDINAL="2644" NAME="?compareStrings@QtPrivate@@YAHV?$QBasicUtf8StringView@$0A@@@0W4CaseSensitivity@Qt@@@Z" PURGE="0" COMMENT="" />
    <EXPORT ORDINAL="2645" NAME="?compareStrings@QtPrivate@@YAHV?$QBasicUtf8StringView@$0A@@@VQLatin1String@@W4CaseSensitivity@Qt@@@Z" PURGE="0" COMMENT="" />
    <EXPORT ORDINAL="2646" NAME="?compareStrings@QtPrivate@@YAHV?$QBasicUtf8StringView@$0A@@@VQStringView@@W4CaseSensitivity@Qt@@@Z" PURGE="0" COMMENT="" />
    <EXPORT ORDINAL="2647" NAME="?compareStrings@QtPrivate@@YAHVQLatin1String@@0W4CaseSensitivity@Qt@@@Z" PURGE="0" COMMENT="" />
    <EXPORT ORDINAL="2648" NAME="?compareStrings@QtPrivate@@YAHVQLatin1String@@V?$QBasicUtf8StringView@$0A@@@W4CaseSensitivity@Qt@@@Z" PURGE="0" COMMENT="" />
    <EXPORT ORDINAL="2649" NAME="?compareStrings@QtPrivate@@YAHVQLatin1String@@VQStringView@@W4CaseSensitivity@Qt@@@Z" PURGE="0" COMMENT="" />
    <EXPORT ORDINAL="2650" NAME="?compareStrings@QtPrivate@@YAHVQStringView@@0W4CaseSensitivity@Qt@@@Z" PURGE="0" COMMENT="" />
    <EXPORT ORDINAL="2651" NAME="?compareStrings@QtPrivate@@YAHVQStringView@@V?$QBasicUtf8StringView@$0A@@@W4CaseSensitivity@Qt@@@Z" PURGE="0" COMMENT="" />
    <EXPORT ORDINAL="2652" NAME="?compareStrings@QtPrivate@@YAHVQStringView@@VQLatin1String@@W4CaseSensitivity@Qt@@@Z" PURGE="0" COMMENT="" />
    <EXPORT ORDINAL="2653" NAME="?compareThreeWay@@YA?AVweak_ordering@Qt@@AEBVQDateTime@@0@Z" PURGE="0" COMMENT="" />
    <EXPORT ORDINAL="2654" NAME="?compare_helper@QLatin1String@@CAHAEBV1@PEBD_J@Z" PURGE="0" COMMENT="" />
    <EXPORT ORDINAL="2655" NAME="?compare_helper@QLatin1String@@CAHPEBVQChar@@_JV1@W4CaseSensitivity@Qt@@@Z" PURGE="0" COMMENT="" />
    <EXPORT ORDINAL="2656" NAME="?compare_helper@QString@@CAHPEBVQChar@@_J01W4CaseSensitivity@Qt@@@Z" PURGE="0" COMMENT="" />
    <EXPORT ORDINAL="2657" NAME="?compare_helper@QString@@CAHPEBVQChar@@_JPEBD1W4CaseSensitivity@Qt@@@Z" PURGE="0" COMMENT="" />
    <EXPORT ORDINAL="2658" NAME="?compare_internal@QNativeIpcKey@@CAHAEBV1@0@Z" PURGE="0" COMMENT="" />
    <EXPORT ORDINAL="2659" NAME="?comparesEqual@@YA_NAEBVQTimeZone@@0@Z" PURGE="0" COMMENT="" />
    <EXPORT ORDINAL="2660" NAME="?completeBaseName@QFileInfo@@QEBA?AVQString@@XZ" PURGE="0" COMMENT="" />
    <EXPORT ORDINAL="2661" NAME="?completeSuffix@QFileInfo@@QEBA?AVQString@@XZ" PURGE="0" COMMENT="" />
    <EXPORT ORDINAL="2662" NAME="?compressEvent@QCoreApplication@@MEAA_NPEAVQEvent@@PEAVQObject@@PEAVQPostEventList@@@Z" PURGE="0" COMMENT="" />
    <EXPORT ORDINAL="2663" NAME="?compressionAlgorithm@QResource@@QEBA?AW4Compression@1@XZ" PURGE="0" COMMENT="" />
    <EXPORT ORDINAL="2664" NAME="?compressionPolicy@QZipWriter@@QEBA?AW4CompressionPolicy@1@XZ" PURGE="0" COMMENT="" />
    <EXPORT ORDINAL="2665" NAME="?concrete@QCborValueConstRef@@KA?AVQCborValue@@V1@@Z" PURGE="0" COMMENT="" />
    <EXPORT ORDINAL="2666" NAME="?concrete@QCborValueRef@@AEBA?AVQCborValue@@XZ" PURGE="0" COMMENT="" />
    <EXPORT ORDINAL="2667" NAME="?concrete@QCborValueRef@@CA?AVQCborValue@@V1@@Z" PURGE="0" COMMENT="" />
    <EXPORT ORDINAL="2668" NAME="?concrete@QJsonValueConstRef@@KA?AVQJsonValue@@V1@@Z" PURGE="0" COMMENT="" />
    <EXPORT ORDINAL="2669" NAME="?concreteBool@QJsonValueConstRef@@KA_NV1@_N@Z" PURGE="0" COMMENT="" />
    <EXPORT ORDINAL="2670" NAME="?concreteBoolean@QCborValueConstRef@@KA_NV1@_N@Z" PURGE="0" COMMENT="" />
    <EXPORT ORDINAL="2671" NAME="?concreteByteArray@QCborValueConstRef@@KA?AVQByteArray@@V1@AEBV2@@Z" PURGE="0" COMMENT="" />
    <EXPORT ORDINAL="2672" NAME="?concreteDouble@QCborValueConstRef@@KANV1@N@Z" PURGE="0" COMMENT="" />
    <EXPORT ORDINAL="2673" NAME="?concreteDouble@QJsonValueConstRef@@KANV1@N@Z" PURGE="0" COMMENT="" />
    <EXPORT ORDINAL="2674" NAME="?concreteInt@QJsonValueConstRef@@KA_JV1@_J_N@Z" PURGE="0" COMMENT="" />
    <EXPORT ORDINAL="2675" NAME="?concreteIntegral@QCborValueConstRef@@KA_JV1@_J@Z" PURGE="0" COMMENT="" />
    <EXPORT ORDINAL="2676" NAME="?concreteString@QCborValueConstRef@@KA?AVQString@@V1@AEBV2@@Z" PURGE="0" COMMENT="" />
    <EXPORT ORDINAL="2677" NAME="?concreteString@QJsonValueConstRef@@KA?AVQString@@V1@AEBV2@@Z" PURGE="0" COMMENT="" />
    <EXPORT ORDINAL="2678" NAME="?concreteType@QCborValueConstRef@@KA?AW4Type@QCborValue@@V1@@Z" PURGE="0" COMMENT="" />
    <EXPORT ORDINAL="2679" NAME="?concreteType@QCborValueRef@@AEBA?AW4Type@QCborValue@@XZ" PURGE="0" COMMENT="" />
    <EXPORT ORDINAL="2680" NAME="?concreteType@QCborValueRef@@CA?AW4Type@QCborValue@@V1@@Z" PURGE="0" COMMENT="" />
    <EXPORT ORDINAL="2681" NAME="?concreteType@QJsonValueConstRef@@KA?AW4Type@QJsonValue@@V1@@Z" PURGE="0" COMMENT="" />
    <EXPORT ORDINAL="2682" NAME="?configuration@QLibraryInfoPrivate@@SAPEAVQSettings@@XZ" PURGE="0" COMMENT="" />
    <EXPORT ORDINAL="2683" NAME="?connect@QMetaObject@@SA?AVConnection@1@PEBVQObject@@H0HHPEAH@Z" PURGE="0" COMMENT="" />
    <EXPORT ORDINAL="2684" NAME="?connect@QObject@@QEBA?AVConnection@QMetaObject@@PEBV1@PEBD1W4ConnectionType@Qt@@@Z" PURGE="0" COMMENT="" />
    <EXPORT ORDINAL="2685" NAME="?connect@QObject@@SA?AVConnection@QMetaObject@@PEBV1@AEBVQMetaMethod@@01W4ConnectionType@Qt@@@Z" PURGE="0" COMMENT="" />
    <EXPORT ORDINAL="2686" NAME="?connect@QObject@@SA?AVConnection@QMetaObject@@PEBV1@PEBD01W4ConnectionType@Qt@@@Z" PURGE="0" COMMENT="" />
    <EXPORT ORDINAL="2687" NAME="?connect@QObjectPrivate@@SA?AVConnection@QMetaObject@@PEBVQObject@@H0PEAVQSlotObjectBase@QtPrivate@@W4ConnectionType@Qt@@@Z" PURGE="0" COMMENT="" />
    <EXPORT ORDINAL="2688" NAME="?connect@QObjectPrivate@@SA?AVConnection@QMetaObject@@PEBVQObject@@HPEAVQSlotObjectBase@QtPrivate@@W4ConnectionType@Qt@@@Z" PURGE="0" COMMENT="" />
    <EXPORT ORDINAL="2689" NAME="?connectImpl@QObject@@CA?AVConnection@QMetaObject@@PEBV1@PEAPEAX01PEAVQSlotObjectBase@QtPrivate@@W4ConnectionType@Qt@@PEBHPEBU3@@Z" PURGE="0" COMMENT="" />
    <EXPORT ORDINAL="2690" NAME="?connectImpl@QObjectPrivate@@SA?AVConnection@QMetaObject@@PEBVQObject@@H0PEAPEAXPEAVQSlotObjectBase@QtPrivate@@HPEBHPEBU3@@Z" PURGE="0" COMMENT="" />
    <EXPORT ORDINAL="2691" NAME="?connectNotify@QBuffer@@MEAAXAEBVQMetaMethod@@@Z" PURGE="0" COMMENT="" />
    <EXPORT ORDINAL="2692" NAME="?connectNotify@QFutureWatcherBase@@MEAAXAEBVQMetaMethod@@@Z" PURGE="0" COMMENT="" />
    <EXPORT ORDINAL="2693" NAME="?connectNotify@QObject@@MEAAXAEBVQMetaMethod@@@Z" PURGE="0" COMMENT="" />
    <EXPORT ORDINAL="2694" NAME="?connectNotify@QObjectPrivate@@QEAAXAEBVQMetaMethod@@@Z" PURGE="2147483647" COMMENT="" />
    <EXPORT ORDINAL="2695" NAME="?connectOutputInterface@QFutureWatcherBase@@IEAAXXZ" PURGE="0" COMMENT="" />
    <EXPORT ORDINAL="2696" NAME="?connectSlotsByName@QMetaObject@@SAXPEAVQObject@@@Z" PURGE="0" COMMENT="" />
    <EXPORT ORDINAL="2697" NAME="?constBegin@?$QIterable@VQMetaAssociation@@@@QEBA?AU?$QConstIterator@VQMetaAssociation@@@@XZ" PURGE="0" COMMENT="" />
    <EXPORT ORDINAL="2698" NAME="?constBegin@?$QIterable@VQMetaSequence@@@@QEBA?AU?$QConstIterator@VQMetaSequence@@@@XZ" PURGE="0" COMMENT="" />
    <EXPORT ORDINAL="2699" NAME="?constBegin@QAssociativeIterable@@QEBA?AV?$QTaggedIterator@VQAssociativeConstIterator@@X@@XZ" PURGE="0" COMMENT="" />
    <EXPORT ORDINAL="2700" NAME="?constBegin@QByteArray@@QEBAPEBDXZ" PURGE="0" COMMENT="" />
    <EXPORT ORDINAL="2701" NAME="?constBegin@QCborArray@@QEBA?AVConstIterator@1@XZ" PURGE="0" COMMENT="" />
    <EXPORT ORDINAL="2702" NAME="?constBegin@QCborMap@@QEBA?AVConstIterator@1@XZ" PURGE="0" COMMENT="" />
    <EXPORT ORDINAL="2703" NAME="?constBegin@QJsonArray@@QEBA?AVconst_iterator@1@XZ" PURGE="0" COMMENT="" />
    <EXPORT ORDINAL="2704" NAME="?constBegin@QJsonObject@@QEBA?AVconst_iterator@1@XZ" PURGE="0" COMMENT="" />
    <EXPORT ORDINAL="2705" NAME="?constBegin@QMetaContainer@@QEBAPEAXPEBX@Z" PURGE="0" COMMENT="" />
    <EXPORT ORDINAL="2706" NAME="?constBegin@QSequentialIterable@@QEBA?AV?$QTaggedIterator@VQSequentialConstIterator@@X@@XZ" PURGE="0" COMMENT="" />
    <EXPORT ORDINAL="2707" NAME="?constBegin@QString@@QEBAPEBVQChar@@XZ" PURGE="0" COMMENT="" />
    <EXPORT ORDINAL="2708" NAME="?constData@QByteArray@@QEBAPEBDXZ" PURGE="0" COMMENT="" />
    <EXPORT ORDINAL="2709" NAME="?constData@QByteArrayView@@QEBAPEBDXZ" PURGE="0" COMMENT="" />
    <EXPORT ORDINAL="2710" NAME="?constData@QSharedMemory@@QEBAPEBXXZ" PURGE="0" COMMENT="" />
    <EXPORT ORDINAL="2711" NAME="?constData@QString@@QEBAPEBVQChar@@XZ" PURGE="0" COMMENT="" />
    <EXPORT ORDINAL="2712" NAME="?constData@QVariant@@QEBAPEBXXZ" PURGE="0" COMMENT="" />
    <EXPORT ORDINAL="2713" NAME="?constEnd@?$QIterable@VQMetaAssociation@@@@QEBA?AU?$QConstIterator@VQMetaAssociation@@@@XZ" PURGE="0" COMMENT="" />
    <EXPORT ORDINAL="2714" NAME="?constEnd@?$QIterable@VQMetaSequence@@@@QEBA?AU?$QConstIterator@VQMetaSequence@@@@XZ" PURGE="0" COMMENT="" />
    <EXPORT ORDINAL="2715" NAME="?constEnd@QAssociativeIterable@@QEBA?AV?$QTaggedIterator@VQAssociativeConstIterator@@X@@XZ" PURGE="0" COMMENT="" />
    <EXPORT ORDINAL="2716" NAME="?constEnd@QByteArray@@QEBAPEBDXZ" PURGE="0" COMMENT="" />
    <EXPORT ORDINAL="2717" NAME="?constEnd@QCborArray@@QEBA?AVConstIterator@1@XZ" PURGE="0" COMMENT="" />
    <EXPORT ORDINAL="2718" NAME="?constEnd@QCborMap@@QEBA?AVConstIterator@1@XZ" PURGE="0" COMMENT="" />
    <EXPORT ORDINAL="2719" NAME="?constEnd@QJsonArray@@QEBA?AVconst_iterator@1@XZ" PURGE="0" COMMENT="" />
    <EXPORT ORDINAL="2720" NAME="?constEnd@QJsonObject@@QEBA?AVconst_iterator@1@XZ" PURGE="0" COMMENT="" />
    <EXPORT ORDINAL="2721" NAME="?constEnd@QMetaContainer@@QEBAPEAXPEBX@Z" PURGE="0" COMMENT="" />
    <EXPORT ORDINAL="2722" NAME="?constEnd@QSequentialIterable@@QEBA?AV?$QTaggedIterator@VQSequentialConstIterator@@X@@XZ" PURGE="0" COMMENT="" />
    <EXPORT ORDINAL="2723" NAME="?constEnd@QString@@QEBAPEBVQChar@@XZ" PURGE="0" COMMENT="" />
    <EXPORT ORDINAL="2724" NAME="?constFind@QAssociativeIterable@@QEBA?AV?$QTaggedIterator@VQAssociativeConstIterator@@X@@AEBVQVariant@@@Z" PURGE="0" COMMENT="" />
    <EXPORT ORDINAL="2725" NAME="?constFind@QCborMap@@QEBA?AVConstIterator@1@AEBVQCborValue@@@Z" PURGE="0" COMMENT="" />
    <EXPORT ORDINAL="2726" NAME="?constFind@QCborMap@@QEBA?AVConstIterator@1@AEBVQString@@@Z" PURGE="0" COMMENT="" />
    <EXPORT ORDINAL="2727" NAME="?constFind@QCborMap@@QEBA?AVConstIterator@1@VQLatin1String@@@Z" PURGE="0" COMMENT="" />
    <EXPORT ORDINAL="2728" NAME="?constFind@QCborMap@@QEBA?AVConstIterator@1@_J@Z" PURGE="0" COMMENT="" />
    <EXPORT ORDINAL="2729" NAME="?constFind@QJsonObject@@QEBA?AVconst_iterator@1@AEBVQString@@@Z" PURGE="0" COMMENT="" />
    <EXPORT ORDINAL="2730" NAME="?constFind@QJsonObject@@QEBA?AVconst_iterator@1@VQLatin1String@@@Z" PURGE="0" COMMENT="" />
    <EXPORT ORDINAL="2731" NAME="?constFind@QJsonObject@@QEBA?AVconst_iterator@1@VQStringView@@@Z" PURGE="0" COMMENT="" />
    <EXPORT ORDINAL="2732" NAME="?constInternalPointer@QPersistentModelIndex@@QEBAPEBXXZ" PURGE="0" COMMENT="" />
    <EXPORT ORDINAL="2733" NAME="?constIterable@?$QBaseIterator@VQMetaAssociation@@@@IEBAPEBV?$QIterable@VQMetaAssociation@@@@XZ" PURGE="0" COMMENT="" />
    <EXPORT ORDINAL="2734" NAME="?constIterable@?$QBaseIterator@VQMetaSequence@@@@IEBAPEBV?$QIterable@VQMetaSequence@@@@XZ" PURGE="0" COMMENT="" />
    <EXPORT ORDINAL="2735" NAME="?constIterable@?$QIterable@VQMetaAssociation@@@@QEBAPEBXXZ" PURGE="0" COMMENT="" />
    <EXPORT ORDINAL="2736" NAME="?constIterable@?$QIterable@VQMetaSequence@@@@QEBAPEBXXZ" PURGE="0" COMMENT="" />
    <EXPORT ORDINAL="2737" NAME="?constIterator@?$QBaseIterator@VQMetaAssociation@@@@QEBAPEBXXZ" PURGE="0" COMMENT="" />
    <EXPORT ORDINAL="2738" NAME="?constIterator@?$QBaseIterator@VQMetaSequence@@@@QEBAPEBXXZ" PURGE="0" COMMENT="" />
    <EXPORT ORDINAL="2739" NAME="?construct@QMetaType@@QEBAPEAXPEAXPEBX@Z" PURGE="0" COMMENT="" />
    <EXPORT ORDINAL="2740" NAME="?construct@QMetaType@@SAPEAXHPEAXPEBX@Z" PURGE="0" COMMENT="" />
    <EXPORT ORDINAL="2741" NAME="?constructor@QMetaObject@@QEBA?AVQMetaMethod@@H@Z" PURGE="0" COMMENT="" />
    <EXPORT ORDINAL="2742" NAME="?constructor@QMetaObjectBuilder@@QEBA?AVQMetaMethodBuilder@@H@Z" PURGE="0" COMMENT="" />
    <EXPORT ORDINAL="2743" NAME="?constructorCount@QMetaObject@@QEBAHXZ" PURGE="0" COMMENT="" />
    <EXPORT ORDINAL="2744" NAME="?constructorCount@QMetaObjectBuilder@@QEBAHXZ" PURGE="0" COMMENT="" />
    <EXPORT ORDINAL="2745" NAME="?consumePending@QWindowsPipeReader@@AEAA_NXZ" PURGE="0" COMMENT="" />
    <EXPORT ORDINAL="2746" NAME="?consumePendingAndEmit@QWindowsPipeReader@@AEAA_N_N@Z" PURGE="0" COMMENT="" />
    <EXPORT ORDINAL="2747" NAME="?consumePendingAndEmit@QWindowsPipeWriter@@AEAA_N_N@Z" PURGE="0" COMMENT="" />
    <EXPORT ORDINAL="2748" NAME="?containerDepth@QCborStreamReader@@QEBAHXZ" PURGE="0" COMMENT="" />
    <EXPORT ORDINAL="2749" NAME="?contains@QByteArray@@QEBA_ND@Z" PURGE="0" COMMENT="" />
    <EXPORT ORDINAL="2750" NAME="?contains@QByteArray@@QEBA_NVQByteArrayView@@@Z" PURGE="0" COMMENT="" />
    <EXPORT ORDINAL="2751" NAME="?contains@QByteArrayView@@QEBA_ND@Z" PURGE="0" COMMENT="" />
    <EXPORT ORDINAL="2752" NAME="?contains@QByteArrayView@@QEBA_NV1@@Z" PURGE="0" COMMENT="" />
    <EXPORT ORDINAL="2753" NAME="?contains@QCborArray@@QEBA_NAEBVQCborValue@@@Z" PURGE="0" COMMENT="" />
    <EXPORT ORDINAL="2754" NAME="?contains@QCborMap@@QEBA_NAEBVQCborValue@@@Z" PURGE="0" COMMENT="" />
    <EXPORT ORDINAL="2755" NAME="?contains@QCborMap@@QEBA_NAEBVQString@@@Z" PURGE="0" COMMENT="" />
    <EXPORT ORDINAL="2756" NAME="?contains@QCborMap@@QEBA_NVQLatin1String@@@Z" PURGE="0" COMMENT="" />
    <EXPORT ORDINAL="2757" NAME="?contains@QCborMap@@QEBA_N_J@Z" PURGE="0" COMMENT="" />
    <EXPORT ORDINAL="2758" NAME="?contains@QItemSelection@@QEBA_NAEBVQModelIndex@@@Z" PURGE="0" COMMENT="" />
    <EXPORT ORDINAL="2759" NAME="?contains@QItemSelectionRange@@QEBA_NAEBVQModelIndex@@@Z" PURGE="0" COMMENT="" />
    <EXPORT ORDINAL="2760" NAME="?contains@QItemSelectionRange@@QEBA_NHHAEBVQModelIndex@@@Z" PURGE="0" COMMENT="" />
    <EXPORT ORDINAL="2761" NAME="?contains@QJsonArray@@QEBA_NAEBVQJsonValue@@@Z" PURGE="0" COMMENT="" />
    <EXPORT ORDINAL="2762" NAME="?contains@QJsonObject@@QEBA_NAEBVQString@@@Z" PURGE="0" COMMENT="" />
    <EXPORT ORDINAL="2763" NAME="?contains@QJsonObject@@QEBA_NVQLatin1String@@@Z" PURGE="0" COMMENT="" />
    <EXPORT ORDINAL="2764" NAME="?contains@QJsonObject@@QEBA_NVQStringView@@@Z" PURGE="0" COMMENT="" />
    <EXPORT ORDINAL="2765" NAME="?contains@QProcessEnvironment@@QEBA_NAEBVQString@@@Z" PURGE="0" COMMENT="" />
    <EXPORT ORDINAL="2766" NAME="?contains@QRect@@QEBA_NAEBV1@_N@Z" PURGE="0" COMMENT="" />
    <EXPORT ORDINAL="2767" NAME="?contains@QRect@@QEBA_NAEBVQPoint@@_N@Z" PURGE="0" COMMENT="" />
    <EXPORT ORDINAL="2768" NAME="?contains@QRect@@QEBA_NHH@Z" PURGE="0" COMMENT="" />
    <EXPORT ORDINAL="2769" NAME="?contains@QRect@@QEBA_NHH_N@Z" PURGE="0" COMMENT="" />
    <EXPORT ORDINAL="2770" NAME="?contains@QRectF@@QEBA_NAEBV1@@Z" PURGE="0" COMMENT="" />
    <EXPORT ORDINAL="2771" NAME="?contains@QRectF@@QEBA_NAEBVQPointF@@@Z" PURGE="0" COMMENT="" />
    <EXPORT ORDINAL="2772" NAME="?contains@QRectF@@QEBA_NNN@Z" PURGE="0" COMMENT="" />
    <EXPORT ORDINAL="2773" NAME="?contains@QSettings@@QEBA_NAEBVQString@@@Z" PURGE="0" COMMENT="" />
    <EXPORT ORDINAL="2774" NAME="?contains@QSettings@@QEBA_NVQAnyStringView@@@Z" PURGE="0" COMMENT="" />
    <EXPORT ORDINAL="2775" NAME="?contains@QString@@QEBA_NAEBV1@W4CaseSensitivity@Qt@@@Z" PURGE="0" COMMENT="" />
    <EXPORT ORDINAL="2776" NAME="?contains@QString@@QEBA_NAEBVQRegularExpression@@PEAVQRegularExpressionMatch@@@Z" PURGE="0" COMMENT="" />
    <EXPORT ORDINAL="2777" NAME="?contains@QString@@QEBA_NVQChar@@W4CaseSensitivity@Qt@@@Z" PURGE="0" COMMENT="" />
    <EXPORT ORDINAL="2778" NAME="?contains@QString@@QEBA_NVQLatin1String@@W4CaseSensitivity@Qt@@@Z" PURGE="0" COMMENT="" />
    <EXPORT ORDINAL="2779" NAME="?contains@QString@@QEBA_NVQStringView@@W4CaseSensitivity@Qt@@@Z" PURGE="0" COMMENT="" />
    <EXPORT ORDINAL="2780" NAME="?contains@QThreadPool@@QEBA_NPEBVQThread@@@Z" PURGE="0" COMMENT="" />
    <EXPORT ORDINAL="2781" NAME="?contains@QtPrivate@@YA_NVQStringView@@AEBVQRegularExpression@@PEAVQRegularExpressionMatch@@@Z" PURGE="0" COMMENT="" />
    <EXPORT ORDINAL="2782" NAME="?contains@ResultStoreBase@QtPrivate@@QEBA_NH@Z" PURGE="0" COMMENT="" />
    <EXPORT ORDINAL="2783" NAME="?containsKey@QAssociativeIterable@@QEAA_NAEBVQVariant@@@Z" PURGE="0" COMMENT="" />
    <EXPORT ORDINAL="2784" NAME="?containsKey@QMetaAssociation@@QEBA_NPEBX0@Z" PURGE="0" COMMENT="" />
    <EXPORT ORDINAL="2785" NAME="?containsValidResultItem@ResultStoreBase@QtPrivate@@IEBA_NH@Z" PURGE="0" COMMENT="" />
    <EXPORT ORDINAL="2786" NAME="?convert@QMetaType@@SA_NPEBXHPEAXH@Z" PURGE="0" COMMENT="" />
    <EXPORT ORDINAL="2787" NAME="?convert@QMetaType@@SA_NV1@PEBX0PEAX@Z" PURGE="0" COMMENT="" />
    <EXPORT ORDINAL="2788" NAME="?convert@QMetaTypeModuleHelper@@UEBA_NPEBXHPEAXH@Z" PURGE="0" COMMENT="" />
    <EXPORT ORDINAL="2789" NAME="?convert@QVariant@@IEBA_NHPEAX@Z" PURGE="0" COMMENT="" />
    <EXPORT ORDINAL="2790" NAME="?convert@QVariant@@QEAA_NH@Z" PURGE="0" COMMENT="" />
    <EXPORT ORDINAL="2791" NAME="?convert@QVariant@@QEAA_NVQMetaType@@@Z" PURGE="0" COMMENT="" />
    <EXPORT ORDINAL="2792" NAME="?convert@QVariantTypeCoercer@QtPrivate@@QEAAPEBXAEBVQVariant@@AEBVQMetaType@@@Z" PURGE="0" COMMENT="" />
    <EXPORT ORDINAL="2793" NAME="?convertFromAscii@QAbstractConcatenable@@KAXDAEAPEAVQChar@@@Z" PURGE="0" COMMENT="" />
    <EXPORT ORDINAL="2794" NAME="?convertFromLatin1@QUtf8@@SAPEADPEADVQLatin1String@@@Z" PURGE="0" COMMENT="" />
    <EXPORT ORDINAL="2795" NAME="?convertFromUnicode@QLocal8Bit@@SA?AVQByteArray@@VQStringView@@PEAUState@QStringConverterBase@@@Z" PURGE="0" COMMENT="" />
    <EXPORT ORDINAL="2796" NAME="?convertFromUnicode@QUtf16@@SA?AVQByteArray@@VQStringView@@PEAUState@QStringConverterBase@@W4DataEndianness@@@Z" PURGE="0" COMMENT="" />
    <EXPORT ORDINAL="2797" NAME="?convertFromUnicode@QUtf32@@SA?AVQByteArray@@VQStringView@@PEAUState@QStringConverterBase@@W4DataEndianness@@@Z" PURGE="0" COMMENT="" />
    <EXPORT ORDINAL="2798" NAME="?convertFromUnicode@QUtf8@@SA?AVQByteArray@@VQStringView@@@Z" PURGE="0" COMMENT="" />
    <EXPORT ORDINAL="2799" NAME="?convertFromUnicode@QUtf8@@SA?AVQByteArray@@VQStringView@@PEAUState@QStringConverterBase@@@Z" PURGE="0" COMMENT="" />
    <EXPORT ORDINAL="2800" NAME="?convertFromUnicode_sys@QLocal8Bit@@SA?AVQByteArray@@VQStringView@@IPEAUState@QStringConverterBase@@@Z" PURGE="0" COMMENT="" />
    <EXPORT ORDINAL="2801" NAME="?convertFromUnicode_sys@QLocal8Bit@@SA?AVQByteArray@@VQStringView@@PEAUState@QStringConverterBase@@@Z" PURGE="0" COMMENT="" />
    <EXPORT ORDINAL="2802" NAME="?convertFromUtf8@QAbstractConcatenable@@KAXVQByteArrayView@@AEAPEAVQChar@@@Z" PURGE="0" COMMENT="" />
    <EXPORT ORDINAL="2803" NAME="?convertToLatin1@QtPrivate@@YA?AVQByteArray@@VQStringView@@@Z" PURGE="0" COMMENT="" />
    <EXPORT ORDINAL="2804" NAME="?convertToLocal8Bit@QtPrivate@@YA?AVQByteArray@@VQStringView@@@Z" PURGE="0" COMMENT="" />
    <EXPORT ORDINAL="2805" NAME="?convertToQString@QtPrivate@@YA?AVQString@@VQAnyStringView@@@Z" PURGE="0" COMMENT="" />
    <EXPORT ORDINAL="2806" NAME="?convertToUcs4@QtPrivate@@YA?AV?$QList@I@@VQStringView@@@Z" PURGE="0" COMMENT="" />
    <EXPORT ORDINAL="2807" NAME="?convertToUnicode@QLocal8Bit@@SA?AVQString@@VQByteArrayView@@PEAUState@QStringConverterBase@@@Z" PURGE="0" COMMENT="" />
    <EXPORT ORDINAL="2808" NAME="?convertToUnicode@QUtf16@@SA?AVQString@@VQByteArrayView@@PEAUState@QStringConverterBase@@W4DataEndianness@@@Z" PURGE="0" COMMENT="" />
    <EXPORT ORDINAL="2809" NAME="?convertToUnicode@QUtf32@@SA?AVQString@@VQByteArrayView@@PEAUState@QStringConverterBase@@W4DataEndianness@@@Z" PURGE="0" COMMENT="" />
    <EXPORT ORDINAL="2810" NAME="?convertToUnicode@QUtf8@@SA?AVQString@@VQByteArrayView@@PEAUState@QStringConverterBase@@@Z" PURGE="0" COMMENT="" />
    <EXPORT ORDINAL="2811" NAME="?convertToUnicode@QUtf8@@SAPEA_SPEA_SVQByteArrayView@@@Z" PURGE="0" COMMENT="" />
    <EXPORT ORDINAL="2812" NAME="?convertToUnicode_sys@QLocal8Bit@@SA?AVQString@@VQByteArrayView@@IPEAUState@QStringConverterBase@@@Z" PURGE="0" COMMENT="" />
    <EXPORT ORDINAL="2813" NAME="?convertToUnicode_sys@QLocal8Bit@@SA?AVQString@@VQByteArrayView@@PEAUState@QStringConverterBase@@@Z" PURGE="0" COMMENT="" />
    <EXPORT ORDINAL="2814" NAME="?convertToUtf8@QtPrivate@@YA?AVQByteArray@@VQStringView@@@Z" PURGE="0" COMMENT="" />
    <EXPORT ORDINAL="2815" NAME="?copy@QAbstractFileEngine@@UEAA_NAEBVQString@@@Z" PURGE="0" COMMENT="" />
    <EXPORT ORDINAL="2816" NAME="?copy@QFSFileEngine@@UEAA_NAEBVQString@@@Z" PURGE="0" COMMENT="" />
    <EXPORT ORDINAL="2817" NAME="?copy@QFile@@QEAA_NAEBVQString@@@Z" PURGE="0" COMMENT="" />
    <EXPORT ORDINAL="2818" NAME="?copy@QFile@@SA_NAEBVQString@@0@Z" PURGE="0" COMMENT="" />
    <EXPORT ORDINAL="2819" NAME="?copyConstIterator@QMetaContainer@@QEBAXPEAXPEBX@Z" PURGE="0" COMMENT="" />
    <EXPORT ORDINAL="2820" NAME="?copyConstruct@QVariant@@CA?AV1@VQMetaType@@PEBX@Z" PURGE="0" COMMENT="" />
    <EXPORT ORDINAL="2821" NAME="?copyIterator@QMetaContainer@@QEBAXPEAXPEBX@Z" PURGE="0" COMMENT="" />
    <EXPORT ORDINAL="2822" NAME="?copy_internal@QNativeIpcKey@@AEAAXAEBV1@@Z" PURGE="0" COMMENT="" />
    <EXPORT ORDINAL="2823" NAME="?count@QBitArray@@QEBA_JXZ" PURGE="0" COMMENT="" />
    <EXPORT ORDINAL="2824" NAME="?count@QBitArray@@QEBA_J_N@Z" PURGE="0" COMMENT="" />
    <EXPORT ORDINAL="2825" NAME="?count@QByteArray@@QEBA_JD@Z" PURGE="0" COMMENT="" />
    <EXPORT ORDINAL="2826" NAME="?count@QByteArray@@QEBA_JVQByteArrayView@@@Z" PURGE="0" COMMENT="" />
    <EXPORT ORDINAL="2827" NAME="?count@QByteArray@@QEBA_JXZ" PURGE="0" COMMENT="" />
    <EXPORT ORDINAL="2828" NAME="?count@QByteArrayView@@QEBA_JD@Z" PURGE="0" COMMENT="" />
    <EXPORT ORDINAL="2829" NAME="?count@QByteArrayView@@QEBA_JV1@@Z" PURGE="0" COMMENT="" />
    <EXPORT ORDINAL="2830" NAME="?count@QDir@@QEBAIXZ" PURGE="0" COMMENT="" />
    <EXPORT ORDINAL="2831" NAME="?count@QDir@@QEBA_JUDisambiguated_t@Qt@@@Z" PURGE="0" COMMENT="" />
    <EXPORT ORDINAL="2832" NAME="?count@QJsonArray@@QEBA_JXZ" PURGE="0" COMMENT="" />
    <EXPORT ORDINAL="2833" NAME="?count@QJsonObject@@QEBA_JXZ" PURGE="0" COMMENT="" />
    <EXPORT ORDINAL="2834" NAME="?count@QString@@QEBA_JAEBV1@W4CaseSensitivity@Qt@@@Z" PURGE="0" COMMENT="" />
    <EXPORT ORDINAL="2835" NAME="?count@QString@@QEBA_JAEBVQRegularExpression@@@Z" PURGE="0" COMMENT="" />
    <EXPORT ORDINAL="2836" NAME="?count@QString@@QEBA_JVQChar@@W4CaseSensitivity@Qt@@@Z" PURGE="0" COMMENT="" />
    <EXPORT ORDINAL="2837" NAME="?count@QString@@QEBA_JVQStringView@@W4CaseSensitivity@Qt@@@Z" PURGE="0" COMMENT="" />
    <EXPORT ORDINAL="2838" NAME="?count@QString@@QEBA_JXZ" PURGE="0" COMMENT="" />
    <EXPORT ORDINAL="2839" NAME="?count@QZipReader@@QEBAHXZ" PURGE="0" COMMENT="" />
    <EXPORT ORDINAL="2840" NAME="?count@QtPrivate@@YA_JVQByteArrayView@@0@Z" PURGE="0" COMMENT="" />
    <EXPORT ORDINAL="2841" NAME="?count@QtPrivate@@YA_JVQLatin1String@@0W4CaseSensitivity@Qt@@@Z" PURGE="0" COMMENT="" />
    <EXPORT ORDINAL="2842" NAME="?count@QtPrivate@@YA_JVQLatin1String@@VQChar@@W4CaseSensitivity@Qt@@@Z" PURGE="0" COMMENT="" />
    <EXPORT ORDINAL="2843" NAME="?count@QtPrivate@@YA_JVQLatin1String@@VQStringView@@W4CaseSensitivity@Qt@@@Z" PURGE="0" COMMENT="" />
    <EXPORT ORDINAL="2844" NAME="?count@QtPrivate@@YA_JVQStringView@@0W4CaseSensitivity@Qt@@@Z" PURGE="0" COMMENT="" />
    <EXPORT ORDINAL="2845" NAME="?count@QtPrivate@@YA_JVQStringView@@AEBVQRegularExpression@@@Z" PURGE="0" COMMENT="" />
    <EXPORT ORDINAL="2846" NAME="?count@QtPrivate@@YA_JVQStringView@@VQChar@@W4CaseSensitivity@Qt@@@Z" PURGE="0" COMMENT="" />
    <EXPORT ORDINAL="2847" NAME="?count@QtPrivate@@YA_JVQStringView@@VQLatin1String@@W4CaseSensitivity@Qt@@@Z" PURGE="0" COMMENT="" />
    <EXPORT ORDINAL="2848" NAME="?count@ResultStoreBase@QtPrivate@@QEBAHXZ" PURGE="0" COMMENT="" />
    <EXPORT ORDINAL="2849" NAME="?countriesForLanguage@QLocale@@SA?AV?$QList@W4Country@QLocale@@@@W4Language@1@@Z" PURGE="0" COMMENT="" />
    <EXPORT ORDINAL="2850" NAME="?country@QLocale@@QEBA?AW4Country@1@XZ" PURGE="0" COMMENT="" />
    <EXPORT ORDINAL="2851" NAME="?country@QTimeZone@@QEBA?AW4Country@QLocale@@XZ" PURGE="0" COMMENT="" />
    <EXPORT ORDINAL="2852" NAME="?countryToCode@QLocale@@SA?AVQString@@W4Country@1@@Z" PURGE="0" COMMENT="" />
    <EXPORT ORDINAL="2853" NAME="?countryToString@QLocale@@SA?AVQString@@W4Country@1@@Z" PURGE="0" COMMENT="" />
    <EXPORT ORDINAL="2854" NAME="?crbegin@QByteArray@@QEBA?AV?$reverse_iterator@PEBD@std@@XZ" PURGE="0" COMMENT="" />
    <EXPORT ORDINAL="2855" NAME="?crbegin@QByteArrayView@@QEBA?AV?$reverse_iterator@PEBD@std@@XZ" PURGE="0" COMMENT="" />
    <EXPORT ORDINAL="2856" NAME="?crbegin@QString@@QEBA?AV?$reverse_iterator@PEBVQChar@@@std@@XZ" PURGE="0" COMMENT="" />
    <EXPORT ORDINAL="2857" NAME="?create@QAbstractFileEngine@@SAPEAV1@AEBVQString@@@Z" PURGE="0" COMMENT="" />
    <EXPORT ORDINAL="2858" NAME="?create@QMetaType@@QEBAPEAXPEBX@Z" PURGE="0" COMMENT="" />
    <EXPORT ORDINAL="2859" NAME="?create@QMetaType@@SAPEAXHPEBX@Z" PURGE="0" COMMENT="" />
    <EXPORT ORDINAL="2860" NAME="?create@QNonContiguousByteDeviceFactory@@SAPEAVQNonContiguousByteDevice@@PEAVQByteArray@@@Z" PURGE="0" COMMENT="" />
    <EXPORT ORDINAL="2861" NAME="?create@QNonContiguousByteDeviceFactory@@SAPEAVQNonContiguousByteDevice@@PEAVQIODevice@@@Z" PURGE="0" COMMENT="" />
    <EXPORT ORDINAL="2862" NAME="?create@QNonContiguousByteDeviceFactory@@SAPEAVQNonContiguousByteDevice@@V?$shared_ptr@VQRingBuffer@@@std@@@Z" PURGE="0" COMMENT="" />
    <EXPORT ORDINAL="2863" NAME="?create@QRunnable@@SAPEAV1@V?$function@$$A6AXXZ@std@@@Z" PURGE="0" COMMENT="" />
    <EXPORT ORDINAL="2864" NAME="?create@QSharedMemory@@QEAA_N_JW4AccessMode@1@@Z" PURGE="0" COMMENT="" />
    <EXPORT ORDINAL="2865" NAME="?create@QVariant@@IEAAXHPEBX@Z" PURGE="0" COMMENT="" />
    <EXPORT ORDINAL="2866" NAME="?create@QVariant@@IEAAXVQMetaType@@PEBX@Z" PURGE="0" COMMENT="" />
    <EXPORT ORDINAL="2867" NAME="?createConstIteratorAtKey@QMetaAssociation@@QEBAPEAXPEBX0@Z" PURGE="0" COMMENT="" />
    <EXPORT ORDINAL="2868" NAME="?createEventDispatcher@QCoreApplicationPrivate@@UEAAXXZ" PURGE="0" COMMENT="" />
    <EXPORT ORDINAL="2869" NAME="?createIndex@QAbstractItemModel@@IEBA?AVQModelIndex@@HHPEBX@Z" PURGE="0" COMMENT="" />
    <EXPORT ORDINAL="2870" NAME="?createIndex@QAbstractItemModel@@IEBA?AVQModelIndex@@HH_K@Z" PURGE="0" COMMENT="" />
    <EXPORT ORDINAL="2871" NAME="?createIndex@QAbstractItemModelPrivate@@QEBA?AVQModelIndex@@HHH@Z" PURGE="0" COMMENT="" />
    <EXPORT ORDINAL="2872" NAME="?createIndex@QAbstractItemModelPrivate@@QEBA?AVQModelIndex@@HHPEAX@Z" PURGE="0" COMMENT="" />
    <EXPORT ORDINAL="2873" NAME="?createIteratorAtKey@QMetaAssociation@@QEBAPEAXPEAXPEBX@Z" PURGE="0" COMMENT="" />
    <EXPORT ORDINAL="2874" NAME="?createNativeFile@QTemporaryFile@@SAPEAV1@AEAVQFile@@@Z" PURGE="0" COMMENT="" />
    <EXPORT ORDINAL="2875" NAME="?createNativeFile@QTemporaryFile@@SAPEAV1@AEBVQString@@@Z" PURGE="0" COMMENT="" />
    <EXPORT ORDINAL="2876" NAME="?createProcessArgumentsModifier@QProcess@@QEBA?AV?$function@$$A6AXPEAUCreateProcessArguments@QProcess@@@Z@std@@XZ" PURGE="0" COMMENT="" />
    <EXPORT ORDINAL="2877" NAME="?createProperty@QAbstractDynamicMetaObject@@UEAAHPEBD0@Z" PURGE="0" COMMENT="" />
    <EXPORT ORDINAL="2878" NAME="?createSeparatedList@QLocale@@QEBA?AVQString@@AEBV?$QList@VQString@@@@@Z" PURGE="0" COMMENT="" />
    <EXPORT ORDINAL="2879" NAME="?createShared@QNonContiguousByteDeviceFactory@@SA?AV?$shared_ptr@VQNonContiguousByteDevice@@@std@@PEAVQByteArray@@@Z" PURGE="0" COMMENT="" />
    <EXPORT ORDINAL="2880" NAME="?createShared@QNonContiguousByteDeviceFactory@@SA?AV?$shared_ptr@VQNonContiguousByteDevice@@@std@@PEAVQIODevice@@@Z" PURGE="0" COMMENT="" />
    <EXPORT ORDINAL="2881" NAME="?createShared@QNonContiguousByteDeviceFactory@@SA?AV?$shared_ptr@VQNonContiguousByteDevice@@@std@@V?$shared_ptr@VQRingBuffer@@@3@@Z" PURGE="0" COMMENT="" />
    <EXPORT ORDINAL="2882" NAME="?createSourceIndex@QAbstractProxyModel@@IEBA?AVQModelIndex@@HHPEAX@Z" PURGE="0" COMMENT="" />
    <EXPORT ORDINAL="2883" NAME="?createThreadImpl@QThread@@CAPEAV1@$$QEAV?$future@X@std@@@Z" PURGE="0" COMMENT="" />
    <EXPORT ORDINAL="2884" NAME="?createUuid@QUuid@@SA?AV1@XZ" PURGE="0" COMMENT="" />
    <EXPORT ORDINAL="2885" NAME="?createUuidV3@QUuid@@SA?AV1@AEBV1@AEBVQByteArray@@@Z" PURGE="0" COMMENT="" />
    <EXPORT ORDINAL="2886" NAME="?createUuidV3@QUuid@@SA?AV1@AEBV1@AEBVQString@@@Z" PURGE="0" COMMENT="" />
    <EXPORT ORDINAL="2887" NAME="?createUuidV5@QUuid@@SA?AV1@AEBV1@AEBVQByteArray@@@Z" PURGE="0" COMMENT="" />
    <EXPORT ORDINAL="2888" NAME="?createUuidV5@QUuid@@SA?AV1@AEBV1@AEBVQString@@@Z" PURGE="0" COMMENT="" />
    <EXPORT ORDINAL="2889" NAME="?create_impl@QMetaCallEvent@@CAPEAV1@PEAVQSlotObjectBase@QtPrivate@@PEBVQObject@@H_KQEBQEBXQEBVQMetaType@@@Z" PURGE="0" COMMENT="" />
    <EXPORT ORDINAL="2890" NAME="?create_impl@QMetaCallEvent@@CAPEAV1@V?$unique_ptr@VQSlotObjectBase@QtPrivate@@UDeleter@12@@std@@PEBVQObject@@H_KQEBQEBXQEBVQMetaType@@@Z" PURGE="0" COMMENT="" />
    <EXPORT ORDINAL="2891" NAME="?creationPermissions@QZipWriter@@QEBA?AV?$QFlags@W4Permission@QFileDevice@@@@XZ" PURGE="0" COMMENT="" />
    <EXPORT ORDINAL="2892" NAME="?crend@QByteArray@@QEBA?AV?$reverse_iterator@PEBD@std@@XZ" PURGE="0" COMMENT="" />
    <EXPORT ORDINAL="2893" NAME="?crend@QByteArrayView@@QEBA?AV?$reverse_iterator@PEBD@std@@XZ" PURGE="0" COMMENT="" />
    <EXPORT ORDINAL="2894" NAME="?crend@QString@@QEBA?AV?$reverse_iterator@PEBVQChar@@@std@@XZ" PURGE="0" COMMENT="" />
    <EXPORT ORDINAL="2895" NAME="?critical@QMessageLogger@@QEBA?AVQDebug@@AEBVQLoggingCategory@@@Z" PURGE="0" COMMENT="" />
    <EXPORT ORDINAL="2896" NAME="?critical@QMessageLogger@@QEBA?AVQDebug@@P6AAEBVQLoggingCategory@@XZ@Z" PURGE="0" COMMENT="" />
    <EXPORT ORDINAL="2897" NAME="?critical@QMessageLogger@@QEBA?AVQDebug@@XZ" PURGE="0" COMMENT="" />
    <EXPORT ORDINAL="2898" NAME="?critical@QMessageLogger@@QEBAXAEBVQLoggingCategory@@PEBDZZ" PURGE="0" COMMENT="" />
    <EXPORT ORDINAL="2899" NAME="?critical@QMessageLogger@@QEBAXP6AAEBVQLoggingCategory@@XZPEBDZZ" PURGE="0" COMMENT="" />
    <EXPORT ORDINAL="2900" NAME="?critical@QMessageLogger@@QEBAXPEBDZZ" PURGE="0" COMMENT="" />
    <EXPORT ORDINAL="2901" NAME="?currencySymbol@QLocale@@QEBA?AVQString@@W4CurrencySymbolFormat@1@@Z" PURGE="0" COMMENT="" />
    <EXPORT ORDINAL="2902" NAME="?current@QDeadlineTimer@@SA?AV1@W4TimerType@Qt@@@Z" PURGE="0" COMMENT="" />
    <EXPORT ORDINAL="2903" NAME="?current@QDir@@SA?AV1@XZ" PURGE="0" COMMENT="" />
    <EXPORT ORDINAL="2904" NAME="?current@QOperatingSystemVersion@@SA?AV1@XZ" PURGE="0" COMMENT="" />
    <EXPORT ORDINAL="2905" NAME="?current@QOperatingSystemVersionBase@@SA?AV1@XZ" PURGE="0" COMMENT="" />
    <EXPORT ORDINAL="2906" NAME="?currentAnimation@QSequentialAnimationGroup@@QEBAPEAVQAbstractAnimation@@XZ" PURGE="0" COMMENT="" />
    <EXPORT ORDINAL="2907" NAME="?currentAnimationChanged@QSequentialAnimationGroup@@QEAAXPEAVQAbstractAnimation@@@Z" PURGE="0" COMMENT="" />
    <EXPORT ORDINAL="2908" NAME="?currentChanged@QItemSelectionModel@@QEAAXAEBVQModelIndex@@0@Z" PURGE="0" COMMENT="" />
    <EXPORT ORDINAL="2909" NAME="?currentColumnChanged@QItemSelectionModel@@QEAAXAEBVQModelIndex@@0@Z" PURGE="0" COMMENT="" />
    <EXPORT ORDINAL="2910" NAME="?currentCpuArchitecture@QSysInfo@@SA?AVQString@@XZ" PURGE="0" COMMENT="" />
    <EXPORT ORDINAL="2911" NAME="?currentDate@QDate@@SA?AV1@XZ" PURGE="0" COMMENT="" />
    <EXPORT ORDINAL="2912" NAME="?currentDateTime@QDateTime@@SA?AV1@AEBVQTimeZone@@@Z" PURGE="0" COMMENT="" />
    <EXPORT ORDINAL="2913" NAME="?currentDateTime@QDateTime@@SA?AV1@XZ" PURGE="0" COMMENT="" />
    <EXPORT ORDINAL="2914" NAME="?currentDateTimeUtc@QDateTime@@SA?AV1@XZ" PURGE="0" COMMENT="" />
    <EXPORT ORDINAL="2915" NAME="?currentFileInfo@QAbstractFileEngineIterator@@UEBA?AVQFileInfo@@XZ" PURGE="0" COMMENT="" />
    <EXPORT ORDINAL="2916" NAME="?currentFilePath@QAbstractFileEngineIterator@@UEBA?AVQString@@XZ" PURGE="0" COMMENT="" />
    <EXPORT ORDINAL="2917" NAME="?currentFrame@QTimeLine@@QEBAHXZ" PURGE="0" COMMENT="" />
    <EXPORT ORDINAL="2918" NAME="?currentIndex@QItemSelectionModel@@QEBA?AVQModelIndex@@XZ" PURGE="0" COMMENT="" />
    <EXPORT ORDINAL="2919" NAME="?currentLoop@QAbstractAnimation@@QEBAHXZ" PURGE="0" COMMENT="" />
    <EXPORT ORDINAL="2920" NAME="?currentLoopChanged@QAbstractAnimation@@QEAAXH@Z" PURGE="0" COMMENT="" />
    <EXPORT ORDINAL="2921" NAME="?currentLoopTime@QAbstractAnimation@@QEBAHXZ" PURGE="0" COMMENT="" />
    <EXPORT ORDINAL="2922" NAME="?currentMSecsSinceEpoch@QDateTime@@SA_JXZ" PURGE="0" COMMENT="" />
    <EXPORT ORDINAL="2923" NAME="?currentOffset@QCborStreamReader@@QEBA_JXZ" PURGE="0" COMMENT="" />
    <EXPORT ORDINAL="2924" NAME="?currentPath@QDir@@SA?AVQString@@XZ" PURGE="0" COMMENT="" />
    <EXPORT ORDINAL="2925" NAME="?currentPath@QFSFileEngine@@SA?AVQString@@AEBV2@@Z" PURGE="0" COMMENT="" />
    <EXPORT ORDINAL="2926" NAME="?currentReadChannel@QIODevice@@QEBAHXZ" PURGE="0" COMMENT="" />
    <EXPORT ORDINAL="2927" NAME="?currentRowChanged@QItemSelectionModel@@QEAAXAEBVQModelIndex@@0@Z" PURGE="0" COMMENT="" />
    <EXPORT ORDINAL="2928" NAME="?currentSecsSinceEpoch@QDateTime@@SA_JXZ" PURGE="0" COMMENT="" />
    <EXPORT ORDINAL="2929" NAME="?currentStringChunkSize@QCborStreamReader@@QEBA_JXZ" PURGE="0" COMMENT="" />
    <EXPORT ORDINAL="2930" NAME="?currentThread@QThread@@SAPEAV1@XZ" PURGE="0" COMMENT="" />
    <EXPORT ORDINAL="2931" NAME="?currentThreadId@QThread@@SAPEAXXZ" PURGE="0" COMMENT="" />
    <EXPORT ORDINAL="2932" NAME="?currentThreadIdImpl@QThread@@CAPEAXXZ" PURGE="0" COMMENT="" />
    <EXPORT ORDINAL="2933" NAME="?currentTime@QAbstractAnimation@@QEBAHXZ" PURGE="0" COMMENT="" />
    <EXPORT ORDINAL="2934" NAME="?currentTime@QTime@@SA?AV1@XZ" PURGE="0" COMMENT="" />
    <EXPORT ORDINAL="2935" NAME="?currentTime@QTimeLine@@QEBAHXZ" PURGE="0" COMMENT="" />
    <EXPORT ORDINAL="2936" NAME="?currentType@QOperatingSystemVersion@@SA?AW4OSType@1@XZ" PURGE="0" COMMENT="" />
    <EXPORT ORDINAL="2937" NAME="?currentUnicodeVersion@QChar@@SA?AW4UnicodeVersion@1@XZ" PURGE="0" COMMENT="" />
    <EXPORT ORDINAL="2938" NAME="?currentValue@QTimeLine@@QEBANXZ" PURGE="2147483647" COMMENT="" />
    <EXPORT ORDINAL="2939" NAME="?currentValue@QVariantAnimation@@QEBA?AVQVariant@@XZ" PURGE="0" COMMENT="" />
    <EXPORT ORDINAL="2940" NAME="?currentWriteChannel@QIODevice@@QEBAHXZ" PURGE="0" COMMENT="" />
    <EXPORT ORDINAL="2941" NAME="?currentlyEvaluatingBinding@QPropertyBindingPrivate@@SAPEAV1@XZ" PURGE="0" COMMENT="" />
    <EXPORT ORDINAL="2942" NAME="?cursorPosition@QDateTimeParser@@MEBAHXZ" PURGE="0" COMMENT="" />
    <EXPORT ORDINAL="2943" NAME="?customEvent@QObject@@MEAAXPEAVQEvent@@@Z" PURGE="0" COMMENT="" />
    <EXPORT ORDINAL="2944" NAME="?customType@QEasingCurve@@QEBAP6ANN@ZXZ" PURGE="0" COMMENT="" />
    <EXPORT ORDINAL="2945" NAME="?d@QMetaAssociation@@AEBAPEBVQMetaAssociationInterface@QtMetaContainerPrivate@@XZ" PURGE="0" COMMENT="" />
    <EXPORT ORDINAL="2946" NAME="?d@QMetaSequence@@AEBAPEBVQMetaSequenceInterface@QtMetaContainerPrivate@@XZ" PURGE="0" COMMENT="" />
    <EXPORT ORDINAL="2947" NAME="?d@QPropertyBindingData@QtPrivate@@AEBA_KXZ" PURGE="0" COMMENT="" />
    <EXPORT ORDINAL="2948" NAME="?d_func@QAbstractAnimation@@AEAAPEAVQAbstractAnimationPrivate@@XZ" PURGE="0" COMMENT="" />
    <EXPORT ORDINAL="2949" NAME="?d_func@QAbstractAnimation@@AEBAPEBVQAbstractAnimationPrivate@@XZ" PURGE="0" COMMENT="" />
    <EXPORT ORDINAL="2950" NAME="?d_func@QAbstractEventDispatcher@@AEAAPEAVQAbstractEventDispatcherPrivate@@XZ" PURGE="0" COMMENT="" />
    <EXPORT ORDINAL="2951" NAME="?d_func@QAbstractEventDispatcher@@AEBAPEBVQAbstractEventDispatcherPrivate@@XZ" PURGE="0" COMMENT="" />
    <EXPORT ORDINAL="2952" NAME="?d_func@QAbstractFileEngine@@AEAAPEAVQAbstractFileEnginePrivate@@XZ" PURGE="0" COMMENT="" />
    <EXPORT ORDINAL="2953" NAME="?d_func@QAbstractFileEngine@@AEBAPEBVQAbstractFileEnginePrivate@@XZ" PURGE="0" COMMENT="" />
    <EXPORT ORDINAL="2954" NAME="?d_func@QAbstractItemModel@@AEAAPEAVQAbstractItemModelPrivate@@XZ" PURGE="0" COMMENT="" />
    <EXPORT ORDINAL="2955" NAME="?d_func@QAbstractItemModel@@AEBAPEBVQAbstractItemModelPrivate@@XZ" PURGE="0" COMMENT="" />
    <EXPORT ORDINAL="2956" NAME="?d_func@QAbstractProxyModel@@AEAAPEAVQAbstractProxyModelPrivate@@XZ" PURGE="0" COMMENT="" />
    <EXPORT ORDINAL="2957" NAME="?d_func@QAbstractProxyModel@@AEBAPEBVQAbstractProxyModelPrivate@@XZ" PURGE="0" COMMENT="" />
    <EXPORT ORDINAL="2958" NAME="?d_func@QAnimationDriver@@AEAAPEAVQAnimationDriverPrivate@@XZ" PURGE="0" COMMENT="" />
    <EXPORT ORDINAL="2959" NAME="?d_func@QAnimationDriver@@AEBAPEBVQAnimationDriverPrivate@@XZ" PURGE="0" COMMENT="" />
    <EXPORT ORDINAL="2960" NAME="?d_func@QAnimationGroup@@AEAAPEAVQAnimationGroupPrivate@@XZ" PURGE="0" COMMENT="" />
    <EXPORT ORDINAL="2961" NAME="?d_func@QAnimationGroup@@AEBAPEBVQAnimationGroupPrivate@@XZ" PURGE="0" COMMENT="" />
    <EXPORT ORDINAL="2962" NAME="?d_func@QBuffer@@AEAAPEAVQBufferPrivate@@XZ" PURGE="0" COMMENT="" />
    <EXPORT ORDINAL="2963" NAME="?d_func@QBuffer@@AEBAPEBVQBufferPrivate@@XZ" PURGE="0" COMMENT="" />
    <EXPORT ORDINAL="2964" NAME="?d_func@QConcatenateTablesProxyModel@@AEAAPEAVQConcatenateTablesProxyModelPrivate@@XZ" PURGE="0" COMMENT="" />
    <EXPORT ORDINAL="2965" NAME="?d_func@QConcatenateTablesProxyModel@@AEBAPEBVQConcatenateTablesProxyModelPrivate@@XZ" PURGE="0" COMMENT="" />
    <EXPORT ORDINAL="2966" NAME="?d_func@QCoreApplication@@AEAAPEAVQCoreApplicationPrivate@@XZ" PURGE="0" COMMENT="" />
    <EXPORT ORDINAL="2967" NAME="?d_func@QCoreApplication@@AEBAPEBVQCoreApplicationPrivate@@XZ" PURGE="0" COMMENT="" />
    <EXPORT ORDINAL="2968" NAME="?d_func@QDir@@AEAAPEAVQDirPrivate@@XZ" PURGE="0" COMMENT="" />
    <EXPORT ORDINAL="2969" NAME="?d_func@QDir@@AEBAPEBVQDirPrivate@@XZ" PURGE="0" COMMENT="" />
    <EXPORT ORDINAL="2970" NAME="?d_func@QEventDispatcherWin32@@AEAAPEAVQEventDispatcherWin32Private@@XZ" PURGE="0" COMMENT="" />
    <EXPORT ORDINAL="2971" NAME="?d_func@QEventDispatcherWin32@@AEBAPEBVQEventDispatcherWin32Private@@XZ" PURGE="0" COMMENT="" />
    <EXPORT ORDINAL="2972" NAME="?d_func@QEventLoop@@AEAAPEAVQEventLoopPrivate@@XZ" PURGE="0" COMMENT="" />
    <EXPORT ORDINAL="2973" NAME="?d_func@QEventLoop@@AEBAPEBVQEventLoopPrivate@@XZ" PURGE="0" COMMENT="" />
    <EXPORT ORDINAL="2974" NAME="?d_func@QFSFileEngine@@AEAAPEAVQFSFileEnginePrivate@@XZ" PURGE="0" COMMENT="" />
    <EXPORT ORDINAL="2975" NAME="?d_func@QFSFileEngine@@AEBAPEBVQFSFileEnginePrivate@@XZ" PURGE="0" COMMENT="" />
    <EXPORT ORDINAL="2976" NAME="?d_func@QFactoryLoader@@AEAAPEAVQFactoryLoaderPrivate@@XZ" PURGE="0" COMMENT="" />
    <EXPORT ORDINAL="2977" NAME="?d_func@QFactoryLoader@@AEBAPEBVQFactoryLoaderPrivate@@XZ" PURGE="0" COMMENT="" />
    <EXPORT ORDINAL="2978" NAME="?d_func@QFile@@AEAAPEAVQFilePrivate@@XZ" PURGE="0" COMMENT="" />
    <EXPORT ORDINAL="2979" NAME="?d_func@QFile@@AEBAPEBVQFilePrivate@@XZ" PURGE="0" COMMENT="" />
    <EXPORT ORDINAL="2980" NAME="?d_func@QFileDevice@@AEAAPEAVQFileDevicePrivate@@XZ" PURGE="0" COMMENT="" />
    <EXPORT ORDINAL="2981" NAME="?d_func@QFileDevice@@AEBAPEBVQFileDevicePrivate@@XZ" PURGE="0" COMMENT="" />
    <EXPORT ORDINAL="2982" NAME="?d_func@QFileInfo@@AEAAPEAVQFileInfoPrivate@@XZ" PURGE="0" COMMENT="" />
    <EXPORT ORDINAL="2983" NAME="?d_func@QFileInfo@@AEBAPEBVQFileInfoPrivate@@XZ" PURGE="0" COMMENT="" />
    <EXPORT ORDINAL="2984" NAME="?d_func@QFileSelector@@AEAAPEAVQFileSelectorPrivate@@XZ" PURGE="0" COMMENT="" />
    <EXPORT ORDINAL="2985" NAME="?d_func@QFileSelector@@AEBAPEBVQFileSelectorPrivate@@XZ" PURGE="0" COMMENT="" />
    <EXPORT ORDINAL="2986" NAME="?d_func@QFileSystemWatcher@@AEAAPEAVQFileSystemWatcherPrivate@@XZ" PURGE="0" COMMENT="" />
    <EXPORT ORDINAL="2987" NAME="?d_func@QFileSystemWatcher@@AEBAPEBVQFileSystemWatcherPrivate@@XZ" PURGE="0" COMMENT="" />
    <EXPORT ORDINAL="2988" NAME="?d_func@QFutureWatcherBase@@AEAAPEAVQFutureWatcherBasePrivate@@XZ" PURGE="0" COMMENT="" />
    <EXPORT ORDINAL="2989" NAME="?d_func@QFutureWatcherBase@@AEBAPEBVQFutureWatcherBasePrivate@@XZ" PURGE="0" COMMENT="" />
    <EXPORT ORDINAL="2990" NAME="?d_func@QIODevice@@AEAAPEAVQIODevicePrivate@@XZ" PURGE="0" COMMENT="" />
    <EXPORT ORDINAL="2991" NAME="?d_func@QIODevice@@AEBAPEBVQIODevicePrivate@@XZ" PURGE="0" COMMENT="" />
    <EXPORT ORDINAL="2992" NAME="?d_func@QIdentityProxyModel@@AEAAPEAVQIdentityProxyModelPrivate@@XZ" PURGE="0" COMMENT="" />
    <EXPORT ORDINAL="2993" NAME="?d_func@QIdentityProxyModel@@AEBAPEBVQIdentityProxyModelPrivate@@XZ" PURGE="0" COMMENT="" />
    <EXPORT ORDINAL="2994" NAME="?d_func@QItemSelectionModel@@AEAAPEAVQItemSelectionModelPrivate@@XZ" PURGE="0" COMMENT="" />
    <EXPORT ORDINAL="2995" NAME="?d_func@QItemSelectionModel@@AEBAPEBVQItemSelectionModelPrivate@@XZ" PURGE="0" COMMENT="" />
    <EXPORT ORDINAL="2996" NAME="?d_func@QLockFile@@AEAAPEAVQLockFilePrivate@@XZ" PURGE="0" COMMENT="" />
    <EXPORT ORDINAL="2997" NAME="?d_func@QLockFile@@AEBAPEBVQLockFilePrivate@@XZ" PURGE="0" COMMENT="" />
    <EXPORT ORDINAL="2998" NAME="?d_func@QMetaEnumBuilder@@AEBAPEAVQMetaEnumBuilderPrivate@@XZ" PURGE="0" COMMENT="" />
    <EXPORT ORDINAL="2999" NAME="?d_func@QMetaMethodBuilder@@AEBAPEAVQMetaMethodBuilderPrivate@@XZ" PURGE="0" COMMENT="" />
    <EXPORT ORDINAL="3000" NAME="?d_func@QMetaPropertyBuilder@@AEBAPEAVQMetaPropertyBuilderPrivate@@XZ" PURGE="0" COMMENT="" />
    <EXPORT ORDINAL="3001" NAME="?d_func@QMimeData@@AEAAPEAVQMimeDataPrivate@@XZ" PURGE="0" COMMENT="" />
    <EXPORT ORDINAL="3002" NAME="?d_func@QMimeData@@AEBAPEBVQMimeDataPrivate@@XZ" PURGE="0" COMMENT="" />
    <EXPORT ORDINAL="3003" NAME="?d_func@QObject@@AEAAPEAVQObjectPrivate@@XZ" PURGE="0" COMMENT="" />
    <EXPORT ORDINAL="3004" NAME="?d_func@QObject@@AEBAPEBVQObjectPrivate@@XZ" PURGE="0" COMMENT="" />
    <EXPORT ORDINAL="3005" NAME="?d_func@QParallelAnimationGroup@@AEAAPEAVQParallelAnimationGroupPrivate@@XZ" PURGE="0" COMMENT="" />
    <EXPORT ORDINAL="3006" NAME="?d_func@QParallelAnimationGroup@@AEBAPEBVQParallelAnimationGroupPrivate@@XZ" PURGE="0" COMMENT="" />
    <EXPORT ORDINAL="3007" NAME="?d_func@QPauseAnimation@@AEAAPEAVQPauseAnimationPrivate@@XZ" PURGE="0" COMMENT="" />
    <EXPORT ORDINAL="3008" NAME="?d_func@QPauseAnimation@@AEBAPEBVQPauseAnimationPrivate@@XZ" PURGE="0" COMMENT="" />
    <EXPORT ORDINAL="3009" NAME="?d_func@QProcess@@AEAAPEAVQProcessPrivate@@XZ" PURGE="0" COMMENT="" />
    <EXPORT ORDINAL="3010" NAME="?d_func@QProcess@@AEBAPEBVQProcessPrivate@@XZ" PURGE="0" COMMENT="" />
    <EXPORT ORDINAL="3011" NAME="?d_func@QPropertyAnimation@@AEAAPEAVQPropertyAnimationPrivate@@XZ" PURGE="0" COMMENT="" />
    <EXPORT ORDINAL="3012" NAME="?d_func@QPropertyAnimation@@AEBAPEBVQPropertyAnimationPrivate@@XZ" PURGE="0" COMMENT="" />
    <EXPORT ORDINAL="3013" NAME="?d_func@QResource@@AEAAPEAVQResourcePrivate@@XZ" PURGE="0" COMMENT="" />
    <EXPORT ORDINAL="3014" NAME="?d_func@QResource@@AEBAPEBVQResourcePrivate@@XZ" PURGE="0" COMMENT="" />
    <EXPORT ORDINAL="3015" NAME="?d_func@QSaveFile@@AEAAPEAVQSaveFilePrivate@@XZ" PURGE="0" COMMENT="" />
    <EXPORT ORDINAL="3016" NAME="?d_func@QSaveFile@@AEBAPEBVQSaveFilePrivate@@XZ" PURGE="0" COMMENT="" />
    <EXPORT ORDINAL="3017" NAME="?d_func@QSequentialAnimationGroup@@AEAAPEAVQSequentialAnimationGroupPrivate@@XZ" PURGE="0" COMMENT="" />
    <EXPORT ORDINAL="3018" NAME="?d_func@QSequentialAnimationGroup@@AEBAPEBVQSequentialAnimationGroupPrivate@@XZ" PURGE="0" COMMENT="" />
    <EXPORT ORDINAL="3019" NAME="?d_func@QSettings@@AEAAPEAVQSettingsPrivate@@XZ" PURGE="0" COMMENT="" />
    <EXPORT ORDINAL="3020" NAME="?d_func@QSettings@@AEBAPEBVQSettingsPrivate@@XZ" PURGE="0" COMMENT="" />
    <EXPORT ORDINAL="3021" NAME="?d_func@QSharedMemory@@AEAAPEAVQSharedMemoryPrivate@@XZ" PURGE="0" COMMENT="" />
    <EXPORT ORDINAL="3022" NAME="?d_func@QSharedMemory@@AEBAPEBVQSharedMemoryPrivate@@XZ" PURGE="0" COMMENT="" />
    <EXPORT ORDINAL="3023" NAME="?d_func@QSignalMapper@@AEAAPEAVQSignalMapperPrivate@@XZ" PURGE="0" COMMENT="" />
    <EXPORT ORDINAL="3024" NAME="?d_func@QSignalMapper@@AEBAPEBVQSignalMapperPrivate@@XZ" PURGE="0" COMMENT="" />
    <EXPORT ORDINAL="3025" NAME="?d_func@QSocketNotifier@@AEAAPEAVQSocketNotifierPrivate@@XZ" PURGE="0" COMMENT="" />
    <EXPORT ORDINAL="3026" NAME="?d_func@QSocketNotifier@@AEBAPEBVQSocketNotifierPrivate@@XZ" PURGE="0" COMMENT="" />
    <EXPORT ORDINAL="3027" NAME="?d_func@QSortFilterProxyModel@@AEAAPEAVQSortFilterProxyModelPrivate@@XZ" PURGE="0" COMMENT="" />
    <EXPORT ORDINAL="3028" NAME="?d_func@QSortFilterProxyModel@@AEBAPEBVQSortFilterProxyModelPrivate@@XZ" PURGE="0" COMMENT="" />
    <EXPORT ORDINAL="3029" NAME="?d_func@QTemporaryFile@@AEAAPEAVQTemporaryFilePrivate@@XZ" PURGE="0" COMMENT="" />
    <EXPORT ORDINAL="3030" NAME="?d_func@QTemporaryFile@@AEBAPEBVQTemporaryFilePrivate@@XZ" PURGE="0" COMMENT="" />
    <EXPORT ORDINAL="3031" NAME="?d_func@QTextStream@@AEAAPEAVQTextStreamPrivate@@XZ" PURGE="0" COMMENT="" />
    <EXPORT ORDINAL="3032" NAME="?d_func@QTextStream@@AEBAPEBVQTextStreamPrivate@@XZ" PURGE="0" COMMENT="" />
    <EXPORT ORDINAL="3033" NAME="?d_func@QThread@@AEAAPEAVQThreadPrivate@@XZ" PURGE="0" COMMENT="" />
    <EXPORT ORDINAL="3034" NAME="?d_func@QThread@@AEBAPEBVQThreadPrivate@@XZ" PURGE="0" COMMENT="" />
    <EXPORT ORDINAL="3035" NAME="?d_func@QThreadPool@@AEAAPEAVQThreadPoolPrivate@@XZ" PURGE="0" COMMENT="" />
    <EXPORT ORDINAL="3036" NAME="?d_func@QThreadPool@@AEBAPEBVQThreadPoolPrivate@@XZ" PURGE="0" COMMENT="" />
    <EXPORT ORDINAL="3037" NAME="?d_func@QTimeLine@@AEAAPEAVQTimeLinePrivate@@XZ" PURGE="0" COMMENT="" />
    <EXPORT ORDINAL="3038" NAME="?d_func@QTimeLine@@AEBAPEBVQTimeLinePrivate@@XZ" PURGE="0" COMMENT="" />
    <EXPORT ORDINAL="3039" NAME="?d_func@QTimer@@AEAAPEAVQTimerPrivate@@XZ" PURGE="0" COMMENT="" />
    <EXPORT ORDINAL="3040" NAME="?d_func@QTimer@@AEBAPEBVQTimerPrivate@@XZ" PURGE="0" COMMENT="" />
    <EXPORT ORDINAL="3041" NAME="?d_func@QTranslator@@AEAAPEAVQTranslatorPrivate@@XZ" PURGE="0" COMMENT="" />
    <EXPORT ORDINAL="3042" NAME="?d_func@QTranslator@@AEBAPEBVQTranslatorPrivate@@XZ" PURGE="0" COMMENT="" />
    <EXPORT ORDINAL="3043" NAME="?d_func@QTransposeProxyModel@@AEAAPEAVQTransposeProxyModelPrivate@@XZ" PURGE="0" COMMENT="" />
    <EXPORT ORDINAL="3044" NAME="?d_func@QTransposeProxyModel@@AEBAPEBVQTransposeProxyModelPrivate@@XZ" PURGE="0" COMMENT="" />
    <EXPORT ORDINAL="3045" NAME="?d_func@QVariantAnimation@@AEAAPEAVQVariantAnimationPrivate@@XZ" PURGE="0" COMMENT="" />
    <EXPORT ORDINAL="3046" NAME="?d_func@QVariantAnimation@@AEBAPEBVQVariantAnimationPrivate@@XZ" PURGE="0" COMMENT="" />
    <EXPORT ORDINAL="3047" NAME="?d_func@QWinEventNotifier@@AEAAPEAVQWinEventNotifierPrivate@@XZ" PURGE="0" COMMENT="" />
    <EXPORT ORDINAL="3048" NAME="?d_func@QWinEventNotifier@@AEBAPEBVQWinEventNotifierPrivate@@XZ" PURGE="0" COMMENT="" />
    <EXPORT ORDINAL="3049" NAME="?d_func@QXmlStreamReader@@AEAAPEAVQXmlStreamReaderPrivate@@XZ" PURGE="0" COMMENT="" />
    <EXPORT ORDINAL="3050" NAME="?d_func@QXmlStreamReader@@AEBAPEBVQXmlStreamReaderPrivate@@XZ" PURGE="0" COMMENT="" />
    <EXPORT ORDINAL="3051" NAME="?d_func@QXmlStreamWriter@@AEAAPEAVQXmlStreamWriterPrivate@@XZ" PURGE="0" COMMENT="" />
    <EXPORT ORDINAL="3052" NAME="?d_func@QXmlStreamWriter@@AEBAPEBVQXmlStreamWriterPrivate@@XZ" PURGE="0" COMMENT="" />
    <EXPORT ORDINAL="3053" NAME="?d_ref@QPropertyBindingData@QtPrivate@@AEBAAEA_KXZ" PURGE="0" COMMENT="" />
    <EXPORT ORDINAL="3054" NAME="?data@QAbstractProxyModel@@UEBA?AVQVariant@@AEBVQModelIndex@@H@Z" PURGE="0" COMMENT="" />
    <EXPORT ORDINAL="3055" NAME="?data@QBuffer@@QEBAAEBVQByteArray@@XZ" PURGE="0" COMMENT="" />
    <EXPORT ORDINAL="3056" NAME="?data@QByteArray@@QEAAPEADXZ" PURGE="0" COMMENT="" />
    <EXPORT ORDINAL="3057" NAME="?data@QByteArray@@QEBAPEBDXZ" PURGE="0" COMMENT="" />
    <EXPORT ORDINAL="3058" NAME="?data@QByteArrayView@@QEBAPEBDXZ" PURGE="0" COMMENT="" />
    <EXPORT ORDINAL="3059" NAME="?data@QConcatenateTablesProxyModel@@UEBA?AVQVariant@@AEBVQModelIndex@@H@Z" PURGE="0" COMMENT="" />
    <EXPORT ORDINAL="3060" NAME="?data@QGenericArgument@@QEBAPEAXXZ" PURGE="0" COMMENT="" />
    <EXPORT ORDINAL="3061" NAME="?data@QMimeData@@QEBA?AVQByteArray@@AEBVQString@@@Z" PURGE="0" COMMENT="" />
    <EXPORT ORDINAL="3062" NAME="?data@QPermission@@AEBAPEBXVQMetaType@@@Z" PURGE="0" COMMENT="" />
    <EXPORT ORDINAL="3063" NAME="?data@QPersistentModelIndex@@QEBA?AVQVariant@@H@Z" PURGE="0" COMMENT="" />
    <EXPORT ORDINAL="3064" NAME="?data@QResource@@QEBAPEBEXZ" PURGE="0" COMMENT="" />
    <EXPORT ORDINAL="3065" NAME="?data@QSharedMemory@@QEAAPEAXXZ" PURGE="0" COMMENT="" />
    <EXPORT ORDINAL="3066" NAME="?data@QSharedMemory@@QEBAPEBXXZ" PURGE="0" COMMENT="" />
    <EXPORT ORDINAL="3067" NAME="?data@QSortFilterProxyModel@@UEBA?AVQVariant@@AEBVQModelIndex@@H@Z" PURGE="0" COMMENT="" />
    <EXPORT ORDINAL="3068" NAME="?data@QString@@QEAAPEAVQChar@@XZ" PURGE="0" COMMENT="" />
    <EXPORT ORDINAL="3069" NAME="?data@QString@@QEBAPEBVQChar@@XZ" PURGE="0" COMMENT="" />
    <EXPORT ORDINAL="3070" NAME="?data@QStringListModel@@UEBA?AVQVariant@@AEBVQModelIndex@@H@Z" PURGE="0" COMMENT="" />
    <EXPORT ORDINAL="3071" NAME="?data@QVariant@@QEAAPEAXXZ" PURGE="0" COMMENT="" />
    <EXPORT ORDINAL="3072" NAME="?data@QVariant@@QEBAPEBXXZ" PURGE="0" COMMENT="" />
    <EXPORT ORDINAL="3073" NAME="?dataChanged@QAbstractItemModel@@QEAAXAEBVQModelIndex@@0AEBV?$QList@H@@@Z" PURGE="0" COMMENT="" />
    <EXPORT ORDINAL="3074" NAME="?data_ptr@QBitArray@@QEAAAEAU?$QArrayDataPointer@D@@XZ" PURGE="0" COMMENT="" />
    <EXPORT ORDINAL="3075" NAME="?data_ptr@QBitArray@@QEBAAEBU?$QArrayDataPointer@D@@XZ" PURGE="0" COMMENT="" />
    <EXPORT ORDINAL="3076" NAME="?data_ptr@QByteArray@@QEAAAEAU?$QArrayDataPointer@D@@XZ" PURGE="0" COMMENT="" />
    <EXPORT ORDINAL="3077" NAME="?data_ptr@QByteArray@@QEBAAEBU?$QArrayDataPointer@D@@XZ" PURGE="0" COMMENT="" />
    <EXPORT ORDINAL="3078" NAME="?data_ptr@QString@@QEAAAEAU?$QArrayDataPointer@_S@@XZ" PURGE="0" COMMENT="" />
    <EXPORT ORDINAL="3079" NAME="?data_ptr@QString@@QEBAAEBU?$QArrayDataPointer@_S@@XZ" PURGE="0" COMMENT="" />
    <EXPORT ORDINAL="3080" NAME="?data_ptr@QUrl@@QEAAAEAPEAVQUrlPrivate@@XZ" PURGE="0" COMMENT="" />
    <EXPORT ORDINAL="3081" NAME="?data_ptr@QUrlQuery@@QEAAAEAV?$QSharedDataPointer@VQUrlQueryPrivate@@@@XZ" PURGE="0" COMMENT="" />
    <EXPORT ORDINAL="3082" NAME="?data_ptr@QVariant@@QEAAAEAUPrivate@1@XZ" PURGE="0" COMMENT="" />
    <EXPORT ORDINAL="3083" NAME="?data_ptr@QVariant@@QEBAAEBUPrivate@1@XZ" PURGE="0" COMMENT="" />
    <EXPORT ORDINAL="3084" NAME="?date@QDateTime@@QEBA?AVQDate@@XZ" PURGE="0" COMMENT="" />
    <EXPORT ORDINAL="3085" NAME="?dateFormat@QLocale@@QEBA?AVQString@@W4FormatType@1@@Z" PURGE="0" COMMENT="" />
    <EXPORT ORDINAL="3086" NAME="?dateFromParts@QCalendar@@QEBA?AVQDate@@AEBUYearMonthDay@1@@Z" PURGE="0" COMMENT="" />
    <EXPORT ORDINAL="3087" NAME="?dateFromParts@QCalendar@@QEBA?AVQDate@@HHH@Z" PURGE="0" COMMENT="" />
    <EXPORT ORDINAL="3088" NAME="?dateTimeFormat@QLocale@@QEBA?AVQString@@W4FormatType@1@@Z" PURGE="0" COMMENT="" />
    <EXPORT ORDINAL="3089" NAME="?dateTimeToString@QCalendar@@QEBA?AVQString@@VQStringView@@AEBVQDateTime@@VQDate@@VQTime@@AEBVQLocale@@@Z" PURGE="0" COMMENT="" />
    <EXPORT ORDINAL="3090" NAME="?dateTimeToString@QCalendarBackend@@UEBA?AVQString@@VQStringView@@AEBVQDateTime@@VQDate@@VQTime@@AEBVQLocale@@@Z" PURGE="0" COMMENT="" />
    <EXPORT ORDINAL="3091" NAME="?dateToJulianDay@QGregorianCalendar@@UEBA_NHHHPEA_J@Z" PURGE="0" COMMENT="" />
    <EXPORT ORDINAL="3092" NAME="?dateToJulianDay@QIslamicCivilCalendar@@UEBA_NHHHPEA_J@Z" PURGE="0" COMMENT="" />
    <EXPORT ORDINAL="3093" NAME="?dateToJulianDay@QJalaliCalendar@@UEBA_NHHHPEA_J@Z" PURGE="0" COMMENT="" />
    <EXPORT ORDINAL="3094" NAME="?dateToJulianDay@QJulianCalendar@@UEBA_NHHHPEA_J@Z" PURGE="0" COMMENT="" />
    <EXPORT ORDINAL="3095" NAME="?dateToJulianDay@QMilankovicCalendar@@UEBA_NHHHPEA_J@Z" PURGE="0" COMMENT="" />
    <EXPORT ORDINAL="3096" NAME="?day@QDate@@QEBAHVQCalendar@@@Z" PURGE="0" COMMENT="" />
    <EXPORT ORDINAL="3097" NAME="?day@QDate@@QEBAHXZ" PURGE="0" COMMENT="" />
    <EXPORT ORDINAL="3098" NAME="?dayName@QLocale@@QEBA?AVQString@@HW4FormatType@1@@Z" PURGE="0" COMMENT="" />
    <EXPORT ORDINAL="3099" NAME="?dayOfWeek@QCalendar@@QEBAHVQDate@@@Z" PURGE="0" COMMENT="" />
    <EXPORT ORDINAL="3100" NAME="?dayOfWeek@QCalendarBackend@@UEBAH_J@Z" PURGE="0" COMMENT="" />
    <EXPORT ORDINAL="3101" NAME="?dayOfWeek@QDate@@QEBAHVQCalendar@@@Z" PURGE="0" COMMENT="" />
    <EXPORT ORDINAL="3102" NAME="?dayOfWeek@QDate@@QEBAHXZ" PURGE="0" COMMENT="" />
    <EXPORT ORDINAL="3103" NAME="?dayOfYear@QDate@@QEBAHVQCalendar@@@Z" PURGE="0" COMMENT="" />
    <EXPORT ORDINAL="3104" NAME="?dayOfYear@QDate@@QEBAHXZ" PURGE="0" COMMENT="" />
    <EXPORT ORDINAL="3105" NAME="?daylightTimeOffset@QTimeZone@@QEBAHAEBVQDateTime@@@Z" PURGE="0" COMMENT="" />
    <EXPORT ORDINAL="3106" NAME="?daysInMonth@QCalendar@@QEBAHHH@Z" PURGE="0" COMMENT="" />
    <EXPORT ORDINAL="3107" NAME="?daysInMonth@QDate@@QEBAHVQCalendar@@@Z" PURGE="0" COMMENT="" />
    <EXPORT ORDINAL="3108" NAME="?daysInMonth@QDate@@QEBAHXZ" PURGE="0" COMMENT="" />
    <EXPORT ORDINAL="3109" NAME="?daysInMonth@QHijriCalendar@@UEBAHHH@Z" PURGE="0" COMMENT="" />
    <EXPORT ORDINAL="3110" NAME="?daysInMonth@QJalaliCalendar@@UEBAHHH@Z" PURGE="0" COMMENT="" />
    <EXPORT ORDINAL="3111" NAME="?daysInMonth@QRomanCalendar@@UEBAHHH@Z" PURGE="0" COMMENT="" />
    <EXPORT ORDINAL="3112" NAME="?daysInYear@QCalendar@@QEBAHH@Z" PURGE="0" COMMENT="" />
    <EXPORT ORDINAL="3113" NAME="?daysInYear@QCalendarBackend@@UEBAHH@Z" PURGE="0" COMMENT="" />
    <EXPORT ORDINAL="3114" NAME="?daysInYear@QDate@@QEBAHVQCalendar@@@Z" PURGE="0" COMMENT="" />
    <EXPORT ORDINAL="3115" NAME="?daysInYear@QDate@@QEBAHXZ" PURGE="0" COMMENT="" />
    <EXPORT ORDINAL="3116" NAME="?daysInYear@QHijriCalendar@@UEBAHH@Z" PURGE="0" COMMENT="" />
    <EXPORT ORDINAL="3117" NAME="?daysTo@QDate@@QEBA_JV1@@Z" PURGE="0" COMMENT="" />
    <EXPORT ORDINAL="3118" NAME="?daysTo@QDateTime@@QEBA_JAEBV1@@Z" PURGE="0" COMMENT="" />
    <EXPORT ORDINAL="3119" NAME="?deadline@QDeadlineTimer@@QEBA_JXZ" PURGE="0" COMMENT="" />
    <EXPORT ORDINAL="3120" NAME="?deadlineNSecs@QDeadlineTimer@@QEBA_JXZ" PURGE="0" COMMENT="" />
    <EXPORT ORDINAL="3121" NAME="?deallocate@QArrayData@@SAXPEAU1@_J1@Z" PURGE="2147483647" COMMENT="" />
    <EXPORT ORDINAL="3122" NAME="?debug@QMessageLogger@@QEBA?AVQDebug@@AEBVQLoggingCategory@@@Z" PURGE="0" COMMENT="" />
    <EXPORT ORDINAL="3123" NAME="?debug@QMessageLogger@@QEBA?AVQDebug@@P6AAEBVQLoggingCategory@@XZ@Z" PURGE="0" COMMENT="" />
    <EXPORT ORDINAL="3124" NAME="?debug@QMessageLogger@@QEBA?AVQDebug@@XZ" PURGE="0" COMMENT="" />
    <EXPORT ORDINAL="3125" NAME="?debug@QMessageLogger@@QEBAXAEBVQLoggingCategory@@PEBDZZ" PURGE="0" COMMENT="" />
    <EXPORT ORDINAL="3126" NAME="?debug@QMessageLogger@@QEBAXP6AAEBVQLoggingCategory@@XZPEBDZZ" PURGE="0" COMMENT="" />
    <EXPORT ORDINAL="3127" NAME="?debug@QMessageLogger@@QEBAXPEBDZZ" PURGE="0" COMMENT="" />
    <EXPORT ORDINAL="3128" NAME="?debugStream@QMetaType@@QEAA_NAEAVQDebug@@PEBX@Z" PURGE="0" COMMENT="" />
    <EXPORT ORDINAL="3129" NAME="?debugStream@QMetaType@@SA_NAEAVQDebug@@PEBXH@Z" PURGE="0" COMMENT="" />
    <EXPORT ORDINAL="3130" NAME="?dec@Qt@@YAAEAVQTextStream@@AEAV2@@Z" PURGE="0" COMMENT="" />
    <EXPORT ORDINAL="3131" NAME="?decimalPoint@QLocale@@QEBA?AVQString@@XZ" PURGE="0" COMMENT="" />
    <EXPORT ORDINAL="3132" NAME="?decodeData@QAbstractItemModel@@IEAA_NHHAEBVQModelIndex@@AEAVQDataStream@@@Z" PURGE="0" COMMENT="" />
    <EXPORT ORDINAL="3133" NAME="?decodeMSG@@YA?AVQString@@AEBUtagMSG@@@Z" PURGE="0" COMMENT="" />
    <EXPORT ORDINAL="3134" NAME="?decodeName@QFile@@SA?AVQString@@AEBVQByteArray@@@Z" PURGE="0" COMMENT="" />
    <EXPORT ORDINAL="3135" NAME="?decodeName@QFile@@SA?AVQString@@PEBD@Z" PURGE="0" COMMENT="" />
    <EXPORT ORDINAL="3136" NAME="?decoderForHtml@QStringDecoder@@SA?AV1@VQByteArrayView@@@Z" PURGE="0" COMMENT="" />
    <EXPORT ORDINAL="3137" NAME="?decomposition@QChar@@QEBA?AVQString@@XZ" PURGE="0" COMMENT="" />
    <EXPORT ORDINAL="3138" NAME="?decomposition@QChar@@SA?AVQString@@_U@Z" PURGE="0" COMMENT="" />
    <EXPORT ORDINAL="3139" NAME="?decompositionTag@QChar@@QEBA?AW4Decomposition@1@XZ" PURGE="0" COMMENT="" />
    <EXPORT ORDINAL="3140" NAME="?decompositionTag@QChar@@SA?AW4Decomposition@1@_U@Z" PURGE="0" COMMENT="" />
    <EXPORT ORDINAL="3141" NAME="?defaultCategory@QLoggingCategory@@SAPEAV1@XZ" PURGE="0" COMMENT="" />
    <EXPORT ORDINAL="3142" NAME="?defaultCompare@QCollator@@SAHVQStringView@@0@Z" PURGE="0" COMMENT="" />
    <EXPORT ORDINAL="3143" NAME="?defaultFormat@QSettings@@SA?AW4Format@1@XZ" PURGE="0" COMMENT="" />
    <EXPORT ORDINAL="3144" NAME="?defaultQueryPairDelimiter@QUrlQuery@@SA_SXZ" PURGE="0" COMMENT="" />
    <EXPORT ORDINAL="3145" NAME="?defaultQueryValueDelimiter@QUrlQuery@@SA_SXZ" PURGE="0" COMMENT="" />
    <EXPORT ORDINAL="3146" NAME="?defaultRoleNames@QAbstractItemModelPrivate@@SAAEBV?$QHash@HVQByteArray@@@@XZ" PURGE="0" COMMENT="" />
    <EXPORT ORDINAL="3147" NAME="?defaultSortKey@QCollator@@SA?AVQCollatorSortKey@@VQStringView@@@Z" PURGE="0" COMMENT="" />
    <EXPORT ORDINAL="3148" NAME="?defaultTypeFor@QTimer@@CA?AW4TimerType@Qt@@H@Z" PURGE="0" COMMENT="" />
    <EXPORT ORDINAL="3149" NAME="?defaultTypeFor@QTimer@@CA?AW4TimerType@Qt@@V?$duration@_JU?$ratio@$00$0DOI@@std@@@chrono@std@@@Z" PURGE="0" COMMENT="" />
    <EXPORT ORDINAL="3150" NAME="?defaultValues@QCommandLineOption@@QEBA?AV?$QList@VQString@@@@XZ" PURGE="0" COMMENT="" />
    <EXPORT ORDINAL="3151" NAME="?deleteChildren@QObjectPrivate@@QEAAXXZ" PURGE="0" COMMENT="" />
    <EXPORT ORDINAL="3152" NAME="?deleteLater@QObject@@QEAAXXZ" PURGE="0" COMMENT="" />
    <EXPORT ORDINAL="3153" NAME="?deref@QCoreApplicationPrivate@@QEAAXXZ" PURGE="0" COMMENT="" />
    <EXPORT ORDINAL="3154" NAME="?derefT@QFutureInterfaceBase@@IEBA_NXZ" PURGE="0" COMMENT="" />
    <EXPORT ORDINAL="3155" NAME="?description@QCommandLineOption@@QEBA?AVQString@@XZ" PURGE="0" COMMENT="" />
    <EXPORT ORDINAL="3156" NAME="?description@QPropertyBindingError@@QEBA?AVQString@@XZ" PURGE="0" COMMENT="" />
    <EXPORT ORDINAL="3157" NAME="?destroy@QMetaType@@QEBAXPEAX@Z" PURGE="0" COMMENT="" />
    <EXPORT ORDINAL="3158" NAME="?destroy@QMetaType@@SAXHPEAX@Z" PURGE="0" COMMENT="" />
    <EXPORT ORDINAL="3159" NAME="?destroyAndFreeMemory@QPropertyBindingPrivate@@SAXPEAV1@@Z" PURGE="2147483647" COMMENT="" />
    <EXPORT ORDINAL="3160" NAME="?destroyAndFreeMemory@QPropertyBindingPrivatePtr@@QEAAXXZ" PURGE="2147483647" COMMENT="" />
    <EXPORT ORDINAL="3161" NAME="?destroyConstIterator@QMetaContainer@@QEBAXPEBX@Z" PURGE="0" COMMENT="" />
    <EXPORT ORDINAL="3162" NAME="?destroyInternal@QBasicMutex@@AEAAXPEAVQMutexPrivate@@@Z" PURGE="0" COMMENT="" />
    <EXPORT ORDINAL="3163" NAME="?destroyIterator@QMetaContainer@@QEBAXPEBX@Z" PURGE="0" COMMENT="" />
    <EXPORT ORDINAL="3164" NAME="?destroyRecursive@QReadWriteLock@@CAXPEAVQReadWriteLockPrivate@@@Z" PURGE="0" COMMENT="" />
    <EXPORT ORDINAL="3165" NAME="?destroy_internal@QNativeIpcKey@@AEAAXXZ" PURGE="0" COMMENT="" />
    <EXPORT ORDINAL="3166" NAME="?destroyed@QAbstractDeclarativeData@@2P6AXPEAV1@PEAVQObject@@@ZEA" PURGE="-1" COMMENT="" />
    <EXPORT ORDINAL="3167" NAME="?destroyed@QObject@@QEAAXPEAV1@@Z" PURGE="0" COMMENT="" />
    <EXPORT ORDINAL="3168" NAME="?destruct@QMetaType@@QEBAXPEAX@Z" PURGE="0" COMMENT="" />
    <EXPORT ORDINAL="3169" NAME="?destruct@QMetaType@@SAXHPEAX@Z" PURGE="0" COMMENT="" />
    <EXPORT ORDINAL="3170" NAME="?detach@QBitArray@@QEAAXXZ" PURGE="0" COMMENT="" />
    <EXPORT ORDINAL="3171" NAME="?detach@QByteArray@@QEAAXXZ" PURGE="0" COMMENT="" />
    <EXPORT ORDINAL="3172" NAME="?detach@QCborArray@@AEAAX_J@Z" PURGE="0" COMMENT="" />
    <EXPORT ORDINAL="3173" NAME="?detach@QCborMap@@AEAAX_J@Z" PURGE="0" COMMENT="" />
    <EXPORT ORDINAL="3174" NAME="?detach@QCollator@@AEAAXXZ" PURGE="0" COMMENT="" />
    <EXPORT ORDINAL="3175" NAME="?detach@QJsonArray@@AEAA_N_J@Z" PURGE="0" COMMENT="" />
    <EXPORT ORDINAL="3176" NAME="?detach@QJsonObject@@AEAA_N_J@Z" PURGE="0" COMMENT="" />
    <EXPORT ORDINAL="3177" NAME="?detach@QJsonValueRef@@AEAAXXZ" PURGE="0" COMMENT="" />
    <EXPORT ORDINAL="3178" NAME="?detach@QRingChunk@@QEAAXXZ" PURGE="0" COMMENT="" />
    <EXPORT ORDINAL="3179" NAME="?detach@QSharedMemory@@QEAA_NXZ" PURGE="0" COMMENT="" />
    <EXPORT ORDINAL="3180" NAME="?detach@QString@@QEAAXXZ" PURGE="0" COMMENT="" />
    <EXPORT ORDINAL="3181" NAME="?detach@QUrl@@QEAAXXZ" PURGE="0" COMMENT="" />
    <EXPORT ORDINAL="3182" NAME="?detach@QVariant@@QEAAXXZ" PURGE="0" COMMENT="" />
    <EXPORT ORDINAL="3183" NAME="?detachFromProperty@QPropertyBindingPrivate@@QEAAXXZ" PURGE="0" COMMENT="" />
    <EXPORT ORDINAL="3184" NAME="?device@QCborStreamReader@@QEBAPEAVQIODevice@@XZ" PURGE="0" COMMENT="" />
    <EXPORT ORDINAL="3185" NAME="?device@QCborStreamWriter@@QEBAPEAVQIODevice@@XZ" PURGE="0" COMMENT="" />
    <EXPORT ORDINAL="3186" NAME="?device@QDataStream@@QEBAPEAVQIODevice@@XZ" PURGE="0" COMMENT="" />
    <EXPORT ORDINAL="3187" NAME="?device@QStorageInfo@@QEBA?AVQByteArray@@XZ" PURGE="0" COMMENT="" />
    <EXPORT ORDINAL="3188" NAME="?device@QTextStream@@QEBAPEAVQIODevice@@XZ" PURGE="0" COMMENT="" />
    <EXPORT ORDINAL="3189" NAME="?device@QXmlStreamReader@@QEBAPEAVQIODevice@@XZ" PURGE="0" COMMENT="" />
    <EXPORT ORDINAL="3190" NAME="?device@QXmlStreamWriter@@QEBAPEAVQIODevice@@XZ" PURGE="0" COMMENT="" />
    <EXPORT ORDINAL="3191" NAME="?device@QZipReader@@QEBAPEAVQIODevice@@XZ" PURGE="0" COMMENT="" />
    <EXPORT ORDINAL="3192" NAME="?device@QZipWriter@@QEBAPEAVQIODevice@@XZ" PURGE="0" COMMENT="" />
    <EXPORT ORDINAL="3193" NAME="?diffConstIterator@QMetaContainer@@QEBA_JPEBX0@Z" PURGE="0" COMMENT="" />
    <EXPORT ORDINAL="3194" NAME="?diffIterator@QMetaContainer@@QEBA_JPEBX0@Z" PURGE="0" COMMENT="" />
    <EXPORT ORDINAL="3195" NAME="?digitValue@QChar@@QEBAHXZ" PURGE="0" COMMENT="" />
    <EXPORT ORDINAL="3196" NAME="?digitValue@QChar@@SAH_U@Z" PURGE="0" COMMENT="" />
    <EXPORT ORDINAL="3197" NAME="?dir@QFileInfo@@QEBA?AVQDir@@XZ" PURGE="0" COMMENT="" />
    <EXPORT ORDINAL="3198" NAME="?dirName@QDir@@QEBA?AVQString@@XZ" PURGE="0" COMMENT="" />
    <EXPORT ORDINAL="3199" NAME="?directWriteFallback@QSaveFile@@QEBA_NXZ" PURGE="0" COMMENT="" />
    <EXPORT ORDINAL="3200" NAME="?direction@QAbstractAnimation@@QEBA?AW4Direction@1@XZ" PURGE="0" COMMENT="" />
    <EXPORT ORDINAL="3201" NAME="?direction@QChar@@QEBA?AW4Direction@1@XZ" PURGE="0" COMMENT="" />
    <EXPORT ORDINAL="3202" NAME="?direction@QChar@@SA?AW4Direction@1@_U@Z" PURGE="0" COMMENT="" />
    <EXPORT ORDINAL="3203" NAME="?direction@QTimeLine@@QEBA?AW4Direction@1@XZ" PURGE="0" COMMENT="" />
    <EXPORT ORDINAL="3204" NAME="?directionChanged@QAbstractAnimation@@QEAAXW4Direction@1@@Z" PURGE="0" COMMENT="" />
    <EXPORT ORDINAL="3205" NAME="?directories@QFileSystemWatcher@@QEBA?AV?$QList@VQString@@@@XZ" PURGE="0" COMMENT="" />
    <EXPORT ORDINAL="3206" NAME="?directoryChanged@QFileSystemWatcher@@QEAAXAEBVQString@@UQPrivateSignal@1@@Z" PURGE="0" COMMENT="" />
    <EXPORT ORDINAL="3207" NAME="?discard@QRandomGenerator@@QEAAX_K@Z" PURGE="0" COMMENT="" />
    <EXPORT ORDINAL="3208" NAME="?disconnect@QMetaObject@@SA_NPEBVQObject@@H0H@Z" PURGE="0" COMMENT="" />
    <EXPORT ORDINAL="3209" NAME="?disconnect@QObject@@QEBA_NPEBDPEBV1@0@Z" PURGE="0" COMMENT="" />
    <EXPORT ORDINAL="3210" NAME="?disconnect@QObject@@QEBA_NPEBV1@PEBD@Z" PURGE="0" COMMENT="" />
    <EXPORT ORDINAL="3211" NAME="?disconnect@QObject@@SA_NAEBVConnection@QMetaObject@@@Z" PURGE="0" COMMENT="" />
    <EXPORT ORDINAL="3212" NAME="?disconnect@QObject@@SA_NPEBV1@AEBVQMetaMethod@@01@Z" PURGE="0" COMMENT="" />
    <EXPORT ORDINAL="3213" NAME="?disconnect@QObject@@SA_NPEBV1@PEBD01@Z" PURGE="0" COMMENT="" />
    <EXPORT ORDINAL="3214" NAME="?disconnect@QObjectPrivate@@SA_NPEBVQObject@@H0PEAPEAX@Z" PURGE="0" COMMENT="" />
    <EXPORT ORDINAL="3215" NAME="?disconnect@QObjectPrivate@@SA_NPEBVQObject@@HPEAPEAX@Z" PURGE="0" COMMENT="" />
    <EXPORT ORDINAL="3216" NAME="?disconnectImpl@QObject@@CA_NPEBV1@PEAPEAX01PEBUQMetaObject@@@Z" PURGE="0" COMMENT="" />
    <EXPORT ORDINAL="3217" NAME="?disconnectNotify@QBuffer@@MEAAXAEBVQMetaMethod@@@Z" PURGE="0" COMMENT="" />
    <EXPORT ORDINAL="3218" NAME="?disconnectNotify@QFutureWatcherBase@@MEAAXAEBVQMetaMethod@@@Z" PURGE="0" COMMENT="" />
    <EXPORT ORDINAL="3219" NAME="?disconnectNotify@QObject@@MEAAXAEBVQMetaMethod@@@Z" PURGE="0" COMMENT="" />
    <EXPORT ORDINAL="3220" NAME="?disconnectNotify@QObjectPrivate@@QEAAXAEBVQMetaMethod@@@Z" PURGE="2147483647" COMMENT="" />
    <EXPORT ORDINAL="3221" NAME="?disconnectOne@QMetaObject@@SA_NPEBVQObject@@H0H@Z" PURGE="0" COMMENT="" />
    <EXPORT ORDINAL="3222" NAME="?disconnectOutputInterface@QFutureWatcherBase@@IEAAX_N@Z" PURGE="0" COMMENT="" />
    <EXPORT ORDINAL="3223" NAME="?displayName@QStandardPaths@@SA?AVQString@@W4StandardLocation@1@@Z" PURGE="0" COMMENT="" />
    <EXPORT ORDINAL="3224" NAME="?displayName@QStorageInfo@@QEBA?AVQString@@XZ" PURGE="0" COMMENT="" />
    <EXPORT ORDINAL="3225" NAME="?displayName@QTimeZone@@QEBA?AVQString@@AEBVQDateTime@@W4NameType@1@AEBVQLocale@@@Z" PURGE="0" COMMENT="" />
    <EXPORT ORDINAL="3226" NAME="?displayName@QTimeZone@@QEBA?AVQString@@W4TimeType@1@W4NameType@1@AEBVQLocale@@@Z" PURGE="0" COMMENT="" />
    <EXPORT ORDINAL="3227" NAME="?displayText@QDateTimeParser@@UEBA?AVQString@@XZ" PURGE="0" COMMENT="" />
    <EXPORT ORDINAL="3228" NAME="?dispose@QCborValue@@AEAAXXZ" PURGE="0" COMMENT="" />
    <EXPORT ORDINAL="3229" NAME="?doSetObjectName@QObject@@AEAAXAEBVQString@@@Z" PURGE="0" COMMENT="" />
    <EXPORT ORDINAL="3230" NAME="?doSetProperty@QObject@@AEAA_NPEBDPEBVQVariant@@PEAV2@@Z" PURGE="0" COMMENT="" />
    <EXPORT ORDINAL="3231" NAME="?doUnregisterSocketNotifier@QEventDispatcherWin32@@IEAAXPEAVQSocketNotifier@@@Z" PURGE="0" COMMENT="" />
    <EXPORT ORDINAL="3232" NAME="?doWsaAsyncSelect@QEventDispatcherWin32Private@@QEAAX_JJ@Z" PURGE="2147483647" COMMENT="" />
    <EXPORT ORDINAL="3233" NAME="?documentEncoding@QXmlStreamReader@@QEBA?AVQStringView@@XZ" PURGE="0" COMMENT="" />
    <EXPORT ORDINAL="3234" NAME="?documentVersion@QXmlStreamReader@@QEBA?AVQStringView@@XZ" PURGE="0" COMMENT="" />
    <EXPORT ORDINAL="3235" NAME="?drainAndStop@QWindowsPipeReader@@QEAAXXZ" PURGE="0" COMMENT="" />
    <EXPORT ORDINAL="3236" NAME="?drives@QDir@@SA?AV?$QList@VQFileInfo@@@@XZ" PURGE="0" COMMENT="" />
    <EXPORT ORDINAL="3237" NAME="?drives@QFSFileEngine@@SA?AV?$QList@VQFileInfo@@@@XZ" PURGE="0" COMMENT="" />
    <EXPORT ORDINAL="3238" NAME="?dropMimeData@QAbstractItemModel@@UEAA_NPEBVQMimeData@@W4DropAction@Qt@@HHAEBVQModelIndex@@@Z" PURGE="0" COMMENT="" />
    <EXPORT ORDINAL="3239" NAME="?dropMimeData@QAbstractListModel@@UEAA_NPEBVQMimeData@@W4DropAction@Qt@@HHAEBVQModelIndex@@@Z" PURGE="0" COMMENT="" />
    <EXPORT ORDINAL="3240" NAME="?dropMimeData@QAbstractProxyModel@@UEAA_NPEBVQMimeData@@W4DropAction@Qt@@HHAEBVQModelIndex@@@Z" PURGE="0" COMMENT="" />
    <EXPORT ORDINAL="3241" NAME="?dropMimeData@QAbstractTableModel@@UEAA_NPEBVQMimeData@@W4DropAction@Qt@@HHAEBVQModelIndex@@@Z" PURGE="0" COMMENT="" />
    <EXPORT ORDINAL="3242" NAME="?dropMimeData@QConcatenateTablesProxyModel@@UEAA_NPEBVQMimeData@@W4DropAction@Qt@@HHAEBVQModelIndex@@@Z" PURGE="0" COMMENT="" />
    <EXPORT ORDINAL="3243" NAME="?dropMimeData@QIdentityProxyModel@@UEAA_NPEBVQMimeData@@W4DropAction@Qt@@HHAEBVQModelIndex@@@Z" PURGE="0" COMMENT="" />
    <EXPORT ORDINAL="3244" NAME="?dropMimeData@QSortFilterProxyModel@@UEAA_NPEBVQMimeData@@W4DropAction@Qt@@HHAEBVQModelIndex@@@Z" PURGE="0" COMMENT="" />
    <EXPORT ORDINAL="3245" NAME="?ds@QTime@@AEBAHXZ" PURGE="0" COMMENT="" />
    <EXPORT ORDINAL="3246" NAME="?dtdName@QXmlStreamReader@@QEBA?AVQStringView@@XZ" PURGE="0" COMMENT="" />
    <EXPORT ORDINAL="3247" NAME="?dtdPublicId@QXmlStreamReader@@QEBA?AVQStringView@@XZ" PURGE="0" COMMENT="" />
    <EXPORT ORDINAL="3248" NAME="?dtdSystemId@QXmlStreamReader@@QEBA?AVQStringView@@XZ" PURGE="0" COMMENT="" />
    <EXPORT ORDINAL="3249" NAME="?dummyLocked@QBasicMutex@@CAPEAVQMutexPrivate@@XZ" PURGE="0" COMMENT="" />
    <EXPORT ORDINAL="3250" NAME="?dumpObjectInfo@QObject@@QEBAXXZ" PURGE="0" COMMENT="" />
    <EXPORT ORDINAL="3251" NAME="?dumpObjectTree@QObject@@QEBAXXZ" PURGE="0" COMMENT="" />
    <EXPORT ORDINAL="3252" NAME="?duration@QParallelAnimationGroup@@UEBAHXZ" PURGE="0" COMMENT="" />
    <EXPORT ORDINAL="3253" NAME="?duration@QPauseAnimation@@UEBAHXZ" PURGE="0" COMMENT="" />
    <EXPORT ORDINAL="3254" NAME="?duration@QSequentialAnimationGroup@@UEBAHXZ" PURGE="0" COMMENT="" />
    <EXPORT ORDINAL="3255" NAME="?duration@QTimeLine@@QEBAHXZ" PURGE="0" COMMENT="" />
    <EXPORT ORDINAL="3256" NAME="?duration@QVariantAnimation@@UEBAHXZ" PURGE="0" COMMENT="" />
    <EXPORT ORDINAL="3257" NAME="?durationElapsed@QElapsedTimer@@QEBA?AV?$duration@_JU?$ratio@$00$0DLJKMKAA@@std@@@chrono@std@@XZ" PURGE="0" COMMENT="" />
    <EXPORT ORDINAL="3258" NAME="?durationTo@QElapsedTimer@@QEBA?AV?$duration@_JU?$ratio@$00$0DLJKMKAA@@std@@@chrono@std@@AEBV1@@Z" PURGE="0" COMMENT="" />
    <EXPORT ORDINAL="3259" NAME="?dwordValue@QWinRegistryKey@@QEBA?AU?$pair@K_N@std@@VQStringView@@@Z" PURGE="0" COMMENT="" />
    <EXPORT ORDINAL="3260" NAME="?dx@QLine@@QEBAHXZ" PURGE="0" COMMENT="" />
    <EXPORT ORDINAL="3261" NAME="?dx@QLineF@@QEBANXZ" PURGE="0" COMMENT="" />
    <EXPORT ORDINAL="3262" NAME="?dy@QLine@@QEBAHXZ" PURGE="0" COMMENT="" />
    <EXPORT ORDINAL="3263" NAME="?dy@QLineF@@QEBANXZ" PURGE="0" COMMENT="" />
    <EXPORT ORDINAL="3264" NAME="?dynamicMetaObject@QObjectData@@QEBAPEAUQMetaObject@@XZ" PURGE="2147483647" COMMENT="" />
    <EXPORT ORDINAL="3265" NAME="?dynamicPropertyNames@QObject@@QEBA?AV?$QList@VQByteArray@@@@XZ" PURGE="0" COMMENT="" />
    <EXPORT ORDINAL="3266" NAME="?dynamicSortFilter@QSortFilterProxyModel@@QEBA_NXZ" PURGE="0" COMMENT="" />
    <EXPORT ORDINAL="3267" NAME="?dynamicSortFilterChanged@QSortFilterProxyModel@@QEAAX_N@Z" PURGE="0" COMMENT="" />
    <EXPORT ORDINAL="3268" NAME="?easingCurve@QTimeLine@@QEBA?AVQEasingCurve@@XZ" PURGE="0" COMMENT="" />
    <EXPORT ORDINAL="3269" NAME="?easingCurve@QVariantAnimation@@QEBA?AVQEasingCurve@@XZ" PURGE="0" COMMENT="" />
    <EXPORT ORDINAL="3270" NAME="?eastAsianWidth@QUnicodeTables@@YA?AW4EastAsianWidth@1@_U@Z" PURGE="0" COMMENT="" />
    <EXPORT ORDINAL="3271" NAME="?elapsed@QAnimationDriver@@UEBA_JXZ" PURGE="0" COMMENT="" />
    <EXPORT ORDINAL="3272" NAME="?elapsed@QElapsedTimer@@QEBA_JXZ" PURGE="0" COMMENT="" />
    <EXPORT ORDINAL="3273" NAME="?elapsed@QUnifiedTimer@@QEBA_JXZ" PURGE="0" COMMENT="" />
    <EXPORT ORDINAL="3274" NAME="?emitCurrentLoopChanged@QAbstractAnimationPrivate@@QEAAXXZ" PURGE="0" COMMENT="" />
    <EXPORT ORDINAL="3275" NAME="?emitDirectionChanged@QAbstractAnimationPrivate@@QEAAXXZ" PURGE="0" COMMENT="" />
    <EXPORT ORDINAL="3276" NAME="?emitHeaderDataChanged@QAbstractProxyModelPrivate@@QEAAXXZ" PURGE="0" COMMENT="" />
    <EXPORT ORDINAL="3277" NAME="?emitSelectionChanged@QItemSelectionModel@@IEAAXAEBVQItemSelection@@0@Z" PURGE="0" COMMENT="" />
    <EXPORT ORDINAL="3278" NAME="?empty@QByteArrayView@@QEBA_NXZ" PURGE="0" COMMENT="" />
    <EXPORT ORDINAL="3279" NAME="?empty@QCborArray@@QEBA_NXZ" PURGE="0" COMMENT="" />
    <EXPORT ORDINAL="3280" NAME="?empty@QCborMap@@QEBA_NXZ" PURGE="0" COMMENT="" />
    <EXPORT ORDINAL="3281" NAME="?empty@QJsonArray@@QEBA_NXZ" PURGE="0" COMMENT="" />
    <EXPORT ORDINAL="3282" NAME="?empty@QJsonObject@@QEBA_NXZ" PURGE="0" COMMENT="" />
    <EXPORT ORDINAL="3283" NAME="?enclosingMetaObject@QMetaClassInfo@@QEBAPEBUQMetaObject@@XZ" PURGE="0" COMMENT="" />
    <EXPORT ORDINAL="3284" NAME="?enclosingMetaObject@QMetaEnum@@QEBAPEBUQMetaObject@@XZ" PURGE="0" COMMENT="" />
    <EXPORT ORDINAL="3285" NAME="?enclosingMetaObject@QMetaMethod@@QEBAPEBUQMetaObject@@XZ" PURGE="0" COMMENT="" />
    <EXPORT ORDINAL="3286" NAME="?enclosingMetaObject@QMetaProperty@@QEBAPEBUQMetaObject@@XZ" PURGE="0" COMMENT="" />
    <EXPORT ORDINAL="3287" NAME="?encodeData@QAbstractItemModel@@IEBAXAEBV?$QList@VQModelIndex@@@@AEAVQDataStream@@@Z" PURGE="0" COMMENT="" />
    <EXPORT ORDINAL="3288" NAME="?encodeName@QFile@@SA?AVQByteArray@@AEBVQString@@@Z" PURGE="0" COMMENT="" />
    <EXPORT ORDINAL="3289" NAME="?encoding@QTextStream@@QEBA?AW4Encoding@QStringConverter@@XZ" PURGE="0" COMMENT="" />
    <EXPORT ORDINAL="3290" NAME="?encodingForData@QStringConverter@@SA?AV?$optional@W4Encoding@QStringConverter@@@std@@VQByteArrayView@@_S@Z" PURGE="0" COMMENT="" />
    <EXPORT ORDINAL="3291" NAME="?encodingForHtml@QStringConverter@@SA?AV?$optional@W4Encoding@QStringConverter@@@std@@VQByteArrayView@@@Z" PURGE="0" COMMENT="" />
    <EXPORT ORDINAL="3292" NAME="?encodingForName@QStringConverter@@SA?AV?$optional@W4Encoding@QStringConverter@@@std@@PEBD@Z" PURGE="0" COMMENT="" />
    <EXPORT ORDINAL="3293" NAME="?encodingInterfaces@QStringConverter@@0QBUInterface@1@B" PURGE="-1" COMMENT="" />
    <EXPORT ORDINAL="3294" NAME="?end@QAssociativeIterable@@QEBA?AV?$QTaggedIterator@VQAssociativeConstIterator@@X@@XZ" PURGE="0" COMMENT="" />
    <EXPORT ORDINAL="3295" NAME="?end@QByteArray@@QEAAPEADXZ" PURGE="0" COMMENT="" />
    <EXPORT ORDINAL="3296" NAME="?end@QByteArray@@QEBAPEBDXZ" PURGE="0" COMMENT="" />
    <EXPORT ORDINAL="3297" NAME="?end@QByteArrayView@@QEBAPEBDXZ" PURGE="0" COMMENT="" />
    <EXPORT ORDINAL="3298" NAME="?end@QCborArray@@QEAA?AVIterator@1@XZ" PURGE="0" COMMENT="" />
    <EXPORT ORDINAL="3299" NAME="?end@QCborArray@@QEBA?AVConstIterator@1@XZ" PURGE="0" COMMENT="" />
    <EXPORT ORDINAL="3300" NAME="?end@QCborMap@@QEAA?AVIterator@1@XZ" PURGE="0" COMMENT="" />
    <EXPORT ORDINAL="3301" NAME="?end@QCborMap@@QEBA?AVConstIterator@1@XZ" PURGE="0" COMMENT="" />
    <EXPORT ORDINAL="3302" NAME="?end@QJsonArray@@QEAA?AViterator@1@XZ" PURGE="0" COMMENT="" />
    <EXPORT ORDINAL="3303" NAME="?end@QJsonArray@@QEBA?AVconst_iterator@1@XZ" PURGE="0" COMMENT="" />
    <EXPORT ORDINAL="3304" NAME="?end@QJsonObject@@QEAA?AViterator@1@XZ" PURGE="0" COMMENT="" />
    <EXPORT ORDINAL="3305" NAME="?end@QJsonObject@@QEBA?AVconst_iterator@1@XZ" PURGE="0" COMMENT="" />
    <EXPORT ORDINAL="3306" NAME="?end@QMetaContainer@@QEBAPEAXPEAX@Z" PURGE="0" COMMENT="" />
    <EXPORT ORDINAL="3307" NAME="?end@QSequentialIterable@@QEBA?AV?$QTaggedIterator@VQSequentialConstIterator@@X@@XZ" PURGE="0" COMMENT="" />
    <EXPORT ORDINAL="3308" NAME="?end@QString@@QEAAPEAVQChar@@XZ" PURGE="0" COMMENT="" />
    <EXPORT ORDINAL="3309" NAME="?end@QString@@QEBAPEBVQChar@@XZ" PURGE="0" COMMENT="" />
    <EXPORT ORDINAL="3310" NAME="?end@ResultStoreBase@QtPrivate@@QEBA?AVResultIteratorBase@2@XZ" PURGE="0" COMMENT="" />
    <EXPORT ORDINAL="3311" NAME="?endArray@QCborStreamWriter@@QEAA_NXZ" PURGE="0" COMMENT="" />
    <EXPORT ORDINAL="3312" NAME="?endArray@QSettings@@QEAAXXZ" PURGE="0" COMMENT="" />
    <EXPORT ORDINAL="3313" NAME="?endEntryList@QAbstractFileEngine@@UEAAPEAVQAbstractFileEngineIterator@@XZ" PURGE="0" COMMENT="" />
    <EXPORT ORDINAL="3314" NAME="?endEntryList@QFSFileEngine@@UEAAPEAVQAbstractFileEngineIterator@@XZ" PURGE="0" COMMENT="" />
    <EXPORT ORDINAL="3315" NAME="?endFrame@QTimeLine@@QEBAHXZ" PURGE="0" COMMENT="" />
    <EXPORT ORDINAL="3316" NAME="?endGroup@QSettings@@QEAAXXZ" PURGE="0" COMMENT="" />
    <EXPORT ORDINAL="3317" NAME="?endInsertColumns@QAbstractItemModel@@IEAAXXZ" PURGE="0" COMMENT="" />
    <EXPORT ORDINAL="3318" NAME="?endInsertRows@QAbstractItemModel@@IEAAXXZ" PURGE="0" COMMENT="" />
    <EXPORT ORDINAL="3319" NAME="?endMap@QCborStreamWriter@@QEAA_NXZ" PURGE="0" COMMENT="" />
    <EXPORT ORDINAL="3320" NAME="?endMoveColumns@QAbstractItemModel@@IEAAXXZ" PURGE="0" COMMENT="" />
    <EXPORT ORDINAL="3321" NAME="?endMoveRows@QAbstractItemModel@@IEAAXXZ" PURGE="0" COMMENT="" />
    <EXPORT ORDINAL="3322" NAME="?endOfDay@QDate@@QEBA?AVQDateTime@@AEBVQTimeZone@@@Z" PURGE="0" COMMENT="" />
    <EXPORT ORDINAL="3323" NAME="?endOfDay@QDate@@QEBA?AVQDateTime@@W4TimeSpec@Qt@@H@Z" PURGE="0" COMMENT="" />
    <EXPORT ORDINAL="3324" NAME="?endOfDay@QDate@@QEBA?AVQDateTime@@XZ" PURGE="0" COMMENT="" />
    <EXPORT ORDINAL="3325" NAME="?endPropertyUpdateGroup@Qt@@YAXXZ" PURGE="0" COMMENT="" />
    <EXPORT ORDINAL="3326" NAME="?endRemoveColumns@QAbstractItemModel@@IEAAXXZ" PURGE="0" COMMENT="" />
    <EXPORT ORDINAL="3327" NAME="?endRemoveRows@QAbstractItemModel@@IEAAXXZ" PURGE="0" COMMENT="" />
    <EXPORT ORDINAL="3328" NAME="?endResetModel@QAbstractItemModel@@IEAAXXZ" PURGE="0" COMMENT="" />
    <EXPORT ORDINAL="3329" NAME="?endValue@QVariantAnimation@@QEBA?AVQVariant@@XZ" PURGE="0" COMMENT="" />
    <EXPORT ORDINAL="3330" NAME="?endl@Qt@@YAAEAVQTextStream@@AEAV2@@Z" PURGE="0" COMMENT="" />
    <EXPORT ORDINAL="3331" NAME="?endsWith@QByteArray@@QEBA_ND@Z" PURGE="0" COMMENT="" />
    <EXPORT ORDINAL="3332" NAME="?endsWith@QByteArray@@QEBA_NVQByteArrayView@@@Z" PURGE="0" COMMENT="" />
    <EXPORT ORDINAL="3333" NAME="?endsWith@QByteArrayView@@QEBA_ND@Z" PURGE="0" COMMENT="" />
    <EXPORT ORDINAL="3334" NAME="?endsWith@QByteArrayView@@QEBA_NV1@@Z" PURGE="0" COMMENT="" />
    <EXPORT ORDINAL="3335" NAME="?endsWith@QString@@QEBA_NAEBV1@W4CaseSensitivity@Qt@@@Z" PURGE="0" COMMENT="" />
    <EXPORT ORDINAL="3336" NAME="?endsWith@QString@@QEBA_NVQChar@@W4CaseSensitivity@Qt@@@Z" PURGE="0" COMMENT="" />
    <EXPORT ORDINAL="3337" NAME="?endsWith@QString@@QEBA_NVQLatin1String@@W4CaseSensitivity@Qt@@@Z" PURGE="0" COMMENT="" />
    <EXPORT ORDINAL="3338" NAME="?endsWith@QString@@QEBA_NVQStringView@@W4CaseSensitivity@Qt@@@Z" PURGE="0" COMMENT="" />
    <EXPORT ORDINAL="3339" NAME="?endsWith@QtPrivate@@YA_NVQByteArrayView@@0@Z" PURGE="0" COMMENT="" />
    <EXPORT ORDINAL="3340" NAME="?endsWith@QtPrivate@@YA_NVQLatin1String@@0W4CaseSensitivity@Qt@@@Z" PURGE="0" COMMENT="" />
    <EXPORT ORDINAL="3341" NAME="?endsWith@QtPrivate@@YA_NVQLatin1String@@VQStringView@@W4CaseSensitivity@Qt@@@Z" PURGE="0" COMMENT="" />
    <EXPORT ORDINAL="3342" NAME="?endsWith@QtPrivate@@YA_NVQStringView@@0W4CaseSensitivity@Qt@@@Z" PURGE="0" COMMENT="" />
    <EXPORT ORDINAL="3343" NAME="?endsWith@QtPrivate@@YA_NVQStringView@@VQLatin1String@@W4CaseSensitivity@Qt@@@Z" PURGE="0" COMMENT="" />
    <EXPORT ORDINAL="3344" NAME="?enqueueTask@QThreadPoolPrivate@@QEAAXPEAVQRunnable@@H@Z" PURGE="0" COMMENT="" />
    <EXPORT ORDINAL="3345" NAME="?ensureConnectionData@QObjectPrivate@@QEAAXXZ" PURGE="0" COMMENT="" />
    <EXPORT ORDINAL="3346" NAME="?ensureExtraData@QObjectPrivate@@QEAAXXZ" PURGE="0" COMMENT="" />
    <EXPORT ORDINAL="3347" NAME="?enter@QMetaStringTable@@QEAAHAEBVQByteArray@@@Z" PURGE="0" COMMENT="" />
    <EXPORT ORDINAL="3348" NAME="?enterContainer@QCborStreamReader@@QEAA_NXZ" PURGE="0" COMMENT="" />
    <EXPORT ORDINAL="3349" NAME="?entityDeclarations@QXmlStreamReader@@QEBA?AV?$QList@VQXmlStreamEntityDeclaration@@@@XZ" PURGE="0" COMMENT="" />
    <EXPORT ORDINAL="3350" NAME="?entityExpansionLimit@QXmlStreamReader@@QEBAHXZ" PURGE="0" COMMENT="" />
    <EXPORT ORDINAL="3351" NAME="?entityResolver@QXmlStreamReader@@QEBAPEAVQXmlStreamEntityResolver@@XZ" PURGE="0" COMMENT="" />
    <EXPORT ORDINAL="3352" NAME="?entryInfo@QAbstractFileEngineIterator@@MEBA?AVQVariant@@W4EntryInfoType@1@@Z" PURGE="0" COMMENT="" />
    <EXPORT ORDINAL="3353" NAME="?entryInfoAt@QZipReader@@QEBA?AUFileInfo@1@H@Z" PURGE="0" COMMENT="" />
    <EXPORT ORDINAL="3354" NAME="?entryInfoList@QDir@@QEBA?AV?$QList@VQFileInfo@@@@AEBV?$QList@VQString@@@@V?$QFlags@W4Filter@QDir@@@@V?$QFlags@W4SortFlag@QDir@@@@@Z" PURGE="0" COMMENT="" />
    <EXPORT ORDINAL="3355" NAME="?entryInfoList@QDir@@QEBA?AV?$QList@VQFileInfo@@@@V?$QFlags@W4Filter@QDir@@@@V?$QFlags@W4SortFlag@QDir@@@@@Z" PURGE="0" COMMENT="" />
    <EXPORT ORDINAL="3356" NAME="?entryList@QAbstractFileEngine@@UEBA?AV?$QList@VQString@@@@V?$QFlags@W4Filter@QDir@@@@AEBV2@@Z" PURGE="0" COMMENT="" />
    <EXPORT ORDINAL="3357" NAME="?entryList@QDir@@QEBA?AV?$QList@VQString@@@@AEBV2@V?$QFlags@W4Filter@QDir@@@@V?$QFlags@W4SortFlag@QDir@@@@@Z" PURGE="0" COMMENT="" />
    <EXPORT ORDINAL="3358" NAME="?entryList@QDir@@QEBA?AV?$QList@VQString@@@@V?$QFlags@W4Filter@QDir@@@@V?$QFlags@W4SortFlag@QDir@@@@@Z" PURGE="0" COMMENT="" />
    <EXPORT ORDINAL="3359" NAME="?entryList@QFSFileEngine@@UEBA?AV?$QList@VQString@@@@V?$QFlags@W4Filter@QDir@@@@AEBV2@@Z" PURGE="0" COMMENT="" />
    <EXPORT ORDINAL="3360" NAME="?enumName@QMetaEnum@@QEBAPEBDXZ" PURGE="0" COMMENT="" />
    <EXPORT ORDINAL="3361" NAME="?enumName@QMetaEnumBuilder@@QEBA?AVQByteArray@@XZ" PURGE="0" COMMENT="" />
    <EXPORT ORDINAL="3362" NAME="?enumerator@QMetaObject@@QEBA?AVQMetaEnum@@H@Z" PURGE="0" COMMENT="" />
    <EXPORT ORDINAL="3363" NAME="?enumerator@QMetaObjectBuilder@@QEBA?AVQMetaEnumBuilder@@H@Z" PURGE="0" COMMENT="" />
    <EXPORT ORDINAL="3364" NAME="?enumerator@QMetaProperty@@QEBA?AVQMetaEnum@@XZ" PURGE="0" COMMENT="" />
    <EXPORT ORDINAL="3365" NAME="?enumeratorCount@QMetaObject@@QEBAHXZ" PURGE="0" COMMENT="" />
    <EXPORT ORDINAL="3366" NAME="?enumeratorCount@QMetaObjectBuilder@@QEBAHXZ" PURGE="0" COMMENT="" />
    <EXPORT ORDINAL="3367" NAME="?enumeratorOffset@QMetaObject@@QEBAHXZ" PURGE="0" COMMENT="" />
    <EXPORT ORDINAL="3368" NAME="?environment@QProcess@@QEBA?AV?$QList@VQString@@@@XZ" PURGE="0" COMMENT="" />
    <EXPORT ORDINAL="3369" NAME="?equal@QAnyStringView@@SA_NV1@0@Z" PURGE="0" COMMENT="" />
    <EXPORT ORDINAL="3370" NAME="?equalStrings@QtPrivate@@YA_NV?$QBasicUtf8StringView@$0A@@@0@Z" PURGE="0" COMMENT="" />
    <EXPORT ORDINAL="3371" NAME="?equalStrings@QtPrivate@@YA_NV?$QBasicUtf8StringView@$0A@@@VQLatin1String@@@Z" PURGE="0" COMMENT="" />
    <EXPORT ORDINAL="3372" NAME="?equalStrings@QtPrivate@@YA_NV?$QBasicUtf8StringView@$0A@@@VQStringView@@@Z" PURGE="0" COMMENT="" />
    <EXPORT ORDINAL="3373" NAME="?equalStrings@QtPrivate@@YA_NVQLatin1String@@0@Z" PURGE="0" COMMENT="" />
    <EXPORT ORDINAL="3374" NAME="?equalStrings@QtPrivate@@YA_NVQLatin1String@@V?$QBasicUtf8StringView@$0A@@@@Z" PURGE="0" COMMENT="" />
    <EXPORT ORDINAL="3375" NAME="?equalStrings@QtPrivate@@YA_NVQLatin1String@@VQStringView@@@Z" PURGE="0" COMMENT="" />
    <EXPORT ORDINAL="3376" NAME="?equalStrings@QtPrivate@@YA_NVQStringView@@0@Z" PURGE="0" COMMENT="" />
    <EXPORT ORDINAL="3377" NAME="?equalStrings@QtPrivate@@YA_NVQStringView@@V?$QBasicUtf8StringView@$0A@@@@Z" PURGE="0" COMMENT="" />
    <EXPORT ORDINAL="3378" NAME="?equalStrings@QtPrivate@@YA_NVQStringView@@VQLatin1String@@@Z" PURGE="0" COMMENT="" />
    <EXPORT ORDINAL="3379" NAME="?equals@QDateTime@@AEBA_NAEBV1@@Z" PURGE="0" COMMENT="" />
    <EXPORT ORDINAL="3380" NAME="?equals@QLocale@@AEBA_NAEBV1@@Z" PURGE="0" COMMENT="" />
    <EXPORT ORDINAL="3381" NAME="?equals@QMetaType@@QEBA_NPEBX0@Z" PURGE="0" COMMENT="" />
    <EXPORT ORDINAL="3382" NAME="?equals@QMetaType@@SA_NPEBX0HPEAH@Z" PURGE="0" COMMENT="" />
    <EXPORT ORDINAL="3383" NAME="?equals@QVariant@@IEBA_NAEBV1@@Z" PURGE="0" COMMENT="" />
    <EXPORT ORDINAL="3384" NAME="?erase@QByteArray@@QEAAPEADPEBD0@Z" PURGE="0" COMMENT="" />
    <EXPORT ORDINAL="3385" NAME="?erase@QByteArray@@QEAAPEADPEBD@Z" PURGE="0" COMMENT="" />
    <EXPORT ORDINAL="3386" NAME="?erase@QCborArray@@QEAA?AVIterator@1@V21@@Z" PURGE="0" COMMENT="" />
    <EXPORT ORDINAL="3387" NAME="?erase@QCborArray@@QEAA?AVIterator@1@VConstIterator@1@@Z" PURGE="0" COMMENT="" />
    <EXPORT ORDINAL="3388" NAME="?erase@QCborMap@@QEAA?AVIterator@1@V21@@Z" PURGE="0" COMMENT="" />
    <EXPORT ORDINAL="3389" NAME="?erase@QCborMap@@QEAA?AVIterator@1@VConstIterator@1@@Z" PURGE="0" COMMENT="" />
    <EXPORT ORDINAL="3390" NAME="?erase@QJsonArray@@QEAA?AViterator@1@V21@@Z" PURGE="0" COMMENT="" />
    <EXPORT ORDINAL="3391" NAME="?erase@QJsonObject@@QEAA?AViterator@1@V21@@Z" PURGE="0" COMMENT="" />
    <EXPORT ORDINAL="3392" NAME="?erase@QString@@QEAAPEAVQChar@@PEBV2@0@Z" PURGE="0" COMMENT="" />
    <EXPORT ORDINAL="3393" NAME="?erase@QString@@QEAAPEAVQChar@@PEBV2@@Z" PURGE="0" COMMENT="" />
    <EXPORT ORDINAL="3394" NAME="?eraseRangeAtIterator@QMetaSequence@@QEBAXPEAXPEBX1@Z" PURGE="0" COMMENT="" />
    <EXPORT ORDINAL="3395" NAME="?eraseValueAtIterator@QMetaSequence@@QEBAXPEAXPEBX@Z" PURGE="0" COMMENT="" />
    <EXPORT ORDINAL="3396" NAME="?error@QAbstractFileEngine@@QEBA?AW4FileError@QFileDevice@@XZ" PURGE="0" COMMENT="" />
    <EXPORT ORDINAL="3397" NAME="?error@QFileDevice@@QEBA?AW4FileError@1@XZ" PURGE="0" COMMENT="" />
    <EXPORT ORDINAL="3398" NAME="?error@QLockFile@@QEBA?AW4LockError@1@XZ" PURGE="0" COMMENT="" />
    <EXPORT ORDINAL="3399" NAME="?error@QProcess@@QEBA?AW4ProcessError@1@XZ" PURGE="0" COMMENT="" />
    <EXPORT ORDINAL="3400" NAME="?error@QSharedMemory@@QEBA?AW4SharedMemoryError@1@XZ" PURGE="0" COMMENT="" />
    <EXPORT ORDINAL="3401" NAME="?error@QSystemSemaphore@@QEBA?AW4SystemSemaphoreError@1@XZ" PURGE="0" COMMENT="" />
    <EXPORT ORDINAL="3402" NAME="?error@QUntypedPropertyBinding@@QEBA?AVQPropertyBindingError@@XZ" PURGE="0" COMMENT="" />
    <EXPORT ORDINAL="3403" NAME="?error@QXmlStreamReader@@QEBA?AW4Error@1@XZ" PURGE="0" COMMENT="" />
    <EXPORT ORDINAL="3404" NAME="?errorOccurred@QProcess@@QEAAXW4ProcessError@1@@Z" PURGE="0" COMMENT="" />
    <EXPORT ORDINAL="3405" NAME="?errorString@QAbstractFileEngine@@QEBA?AVQString@@XZ" PURGE="0" COMMENT="" />
    <EXPORT ORDINAL="3406" NAME="?errorString@QIODevice@@QEBA?AVQString@@XZ" PURGE="0" COMMENT="" />
    <EXPORT ORDINAL="3407" NAME="?errorString@QJsonParseError@@QEBA?AVQString@@XZ" PURGE="0" COMMENT="" />
    <EXPORT ORDINAL="3408" NAME="?errorString@QLibrary@@QEBA?AVQString@@XZ" PURGE="0" COMMENT="" />
    <EXPORT ORDINAL="3409" NAME="?errorString@QPluginLoader@@QEBA?AVQString@@XZ" PURGE="0" COMMENT="" />
    <EXPORT ORDINAL="3410" NAME="?errorString@QRegularExpression@@QEBA?AVQString@@XZ" PURGE="0" COMMENT="" />
    <EXPORT ORDINAL="3411" NAME="?errorString@QSharedMemory@@QEBA?AVQString@@XZ" PURGE="0" COMMENT="" />
    <EXPORT ORDINAL="3412" NAME="?errorString@QSystemSemaphore@@QEBA?AVQString@@XZ" PURGE="0" COMMENT="" />
    <EXPORT ORDINAL="3413" NAME="?errorString@QTemporaryDir@@QEBA?AVQString@@XZ" PURGE="0" COMMENT="" />
    <EXPORT ORDINAL="3414" NAME="?errorString@QUrl@@QEBA?AVQString@@XZ" PURGE="0" COMMENT="" />
    <EXPORT ORDINAL="3415" NAME="?errorString@QXmlStreamReader@@QEBA?AVQString@@XZ" PURGE="0" COMMENT="" />
    <EXPORT ORDINAL="3416" NAME="?errorText@QCommandLineParser@@QEBA?AVQString@@XZ" PURGE="0" COMMENT="" />
    <EXPORT ORDINAL="3417" NAME="?escape@QRegularExpression@@SA?AVQString@@AEBV2@@Z" PURGE="0" COMMENT="" />
    <EXPORT ORDINAL="3418" NAME="?escape@QRegularExpression@@SA?AVQString@@VQStringView@@@Z" PURGE="0" COMMENT="" />
    <EXPORT ORDINAL="3419" NAME="?evaluateIfDirty@QPropertyBindingData@QtPrivate@@QEBAXPEBVQUntypedPropertyData@@@Z" PURGE="0" COMMENT="" />
    <EXPORT ORDINAL="3420" NAME="?evaluateRecursive@QPropertyBindingPrivate@@QEAA_NAEAV?$QVarLengthArray@UQBindingObserverPtr@@$0BAA@@@PEAUQBindingStatus@@@Z" PURGE="0" COMMENT="" />
    <EXPORT ORDINAL="3421" NAME="?evaluateRecursive_inline@QPropertyBindingPrivate@@QEAA_NAEAV?$QVarLengthArray@UQBindingObserverPtr@@$0BAA@@@PEAUQBindingStatus@@@Z" PURGE="0" COMMENT="" />
    <EXPORT ORDINAL="3422" NAME="?event@QAbstractAnimation@@MEAA_NPEAVQEvent@@@Z" PURGE="0" COMMENT="" />
    <EXPORT ORDINAL="3423" NAME="?event@QAnimationGroup@@MEAA_NPEAVQEvent@@@Z" PURGE="0" COMMENT="" />
    <EXPORT ORDINAL="3424" NAME="?event@QCoreApplication@@MEAA_NPEAVQEvent@@@Z" PURGE="0" COMMENT="" />
    <EXPORT ORDINAL="3425" NAME="?event@QEventDispatcherWin32@@UEAA_NPEAVQEvent@@@Z" PURGE="0" COMMENT="" />
    <EXPORT ORDINAL="3426" NAME="?event@QEventLoop@@UEAA_NPEAVQEvent@@@Z" PURGE="0" COMMENT="" />
    <EXPORT ORDINAL="3427" NAME="?event@QFutureWatcherBase@@UEAA_NPEAVQEvent@@@Z" PURGE="0" COMMENT="" />
    <EXPORT ORDINAL="3428" NAME="?event@QObject@@UEAA_NPEAVQEvent@@@Z" PURGE="0" COMMENT="" />
    <EXPORT ORDINAL="3429" NAME="?event@QParallelAnimationGroup@@MEAA_NPEAVQEvent@@@Z" PURGE="0" COMMENT="" />
    <EXPORT ORDINAL="3430" NAME="?event@QPauseAnimation@@MEAA_NPEAVQEvent@@@Z" PURGE="0" COMMENT="" />
    <EXPORT ORDINAL="3431" NAME="?event@QPropertyAnimation@@MEAA_NPEAVQEvent@@@Z" PURGE="0" COMMENT="" />
    <EXPORT ORDINAL="3432" NAME="?event@QSequentialAnimationGroup@@MEAA_NPEAVQEvent@@@Z" PURGE="0" COMMENT="" />
    <EXPORT ORDINAL="3433" NAME="?event@QSettings@@MEAA_NPEAVQEvent@@@Z" PURGE="0" COMMENT="" />
    <EXPORT ORDINAL="3434" NAME="?event@QSocketNotifier@@MEAA_NPEAVQEvent@@@Z" PURGE="0" COMMENT="" />
    <EXPORT ORDINAL="3435" NAME="?event@QThread@@UEAA_NPEAVQEvent@@@Z" PURGE="0" COMMENT="" />
    <EXPORT ORDINAL="3436" NAME="?event@QVariantAnimation@@MEAA_NPEAVQEvent@@@Z" PURGE="0" COMMENT="" />
    <EXPORT ORDINAL="3437" NAME="?event@QWinEventNotifier@@MEAA_NPEAVQEvent@@@Z" PURGE="0" COMMENT="" />
    <EXPORT ORDINAL="3438" NAME="?event@QWindowsPipeReader@@MEAA_NPEAVQEvent@@@Z" PURGE="0" COMMENT="" />
    <EXPORT ORDINAL="3439" NAME="?event@QWindowsPipeWriter@@MEAA_NPEAVQEvent@@@Z" PURGE="0" COMMENT="" />
    <EXPORT ORDINAL="3440" NAME="?eventDispatcher@QCoreApplication@@SAPEAVQAbstractEventDispatcher@@XZ" PURGE="0" COMMENT="" />
    <EXPORT ORDINAL="3441" NAME="?eventDispatcher@QCoreApplicationPrivate@@2PEAVQAbstractEventDispatcher@@EA" PURGE="-1" COMMENT="" />
    <EXPORT ORDINAL="3442" NAME="?eventDispatcher@QThread@@QEBAPEAVQAbstractEventDispatcher@@XZ" PURGE="0" COMMENT="" />
    <EXPORT ORDINAL="3443" NAME="?eventDispatcherReady@QCoreApplicationPrivate@@UEAAXXZ" PURGE="0" COMMENT="" />
    <EXPORT ORDINAL="3444" NAME="?eventFilter@QObject@@UEAA_NPEAV1@PEAVQEvent@@@Z" PURGE="0" COMMENT="" />
    <EXPORT ORDINAL="3445" NAME="?exception@ExceptionStore@QtPrivate@@QEBA?AVexception_ptr@std@@XZ" PURGE="0" COMMENT="" />
    <EXPORT ORDINAL="3446" NAME="?exception@QUnhandledException@@QEBA?AVexception_ptr@std@@XZ" PURGE="0" COMMENT="" />
    <EXPORT ORDINAL="3447" NAME="?exceptionStore@QFutureInterfaceBase@@QEAAAEAVExceptionStore@QtPrivate@@XZ" PURGE="0" COMMENT="" />
    <EXPORT ORDINAL="3448" NAME="?exec@QCoreApplication@@SAHXZ" PURGE="0" COMMENT="" />
    <EXPORT ORDINAL="3449" NAME="?exec@QEventLoop@@QEAAHV?$QFlags@W4ProcessEventsFlag@QEventLoop@@@@@Z" PURGE="0" COMMENT="" />
    <EXPORT ORDINAL="3450" NAME="?exec@QTextStreamManipulator@@QEAAXAEAVQTextStream@@@Z" PURGE="2147483647" COMMENT="" />
    <EXPORT ORDINAL="3451" NAME="?exec@QThread@@IEAAHXZ" PURGE="0" COMMENT="" />
    <EXPORT ORDINAL="3452" NAME="?execCleanup@QCoreApplicationPrivate@@QEAAXXZ" PURGE="0" COMMENT="" />
    <EXPORT ORDINAL="3453" NAME="?execute@QProcess@@SAHAEBVQString@@AEBV?$QList@VQString@@@@@Z" PURGE="0" COMMENT="" />
    <EXPORT ORDINAL="3454" NAME="?executePendingOperations@QAbstractItemModelPrivate@@UEBAXXZ" PURGE="0" COMMENT="" />
    <EXPORT ORDINAL="3455" NAME="?exists@QDir@@QEBA_NAEBVQString@@@Z" PURGE="0" COMMENT="" />
    <EXPORT ORDINAL="3456" NAME="?exists@QDir@@QEBA_NXZ" PURGE="0" COMMENT="" />
    <EXPORT ORDINAL="3457" NAME="?exists@QFile@@QEBA_NXZ" PURGE="0" COMMENT="" />
    <EXPORT ORDINAL="3458" NAME="?exists@QFile@@SA_NAEBVQString@@@Z" PURGE="0" COMMENT="" />
    <EXPORT ORDINAL="3459" NAME="?exists@QFileInfo@@QEBA_NXZ" PURGE="0" COMMENT="" />
    <EXPORT ORDINAL="3460" NAME="?exists@QFileInfo@@SA_NAEBVQString@@@Z" PURGE="0" COMMENT="" />
    <EXPORT ORDINAL="3461" NAME="?exists@QZipReader@@QEBA_NXZ" PURGE="0" COMMENT="" />
    <EXPORT ORDINAL="3462" NAME="?exists@QZipWriter@@QEBA_NXZ" PURGE="0" COMMENT="" />
    <EXPORT ORDINAL="3463" NAME="?exit@QCoreApplication@@SAXH@Z" PURGE="0" COMMENT="" />
    <EXPORT ORDINAL="3464" NAME="?exit@QEventLoop@@QEAAXH@Z" PURGE="0" COMMENT="" />
    <EXPORT ORDINAL="3465" NAME="?exit@QThread@@QEAAXH@Z" PURGE="0" COMMENT="" />
    <EXPORT ORDINAL="3466" NAME="?exitCode@QProcess@@QEBAHXZ" PURGE="0" COMMENT="" />
    <EXPORT ORDINAL="3467" NAME="?exitStatus@QProcess@@QEBA?AW4ExitStatus@1@XZ" PURGE="0" COMMENT="" />
    <EXPORT ORDINAL="3468" NAME="?expand@QByteArray@@AEAAX_J@Z" PURGE="0" COMMENT="" />
    <EXPORT ORDINAL="3469" NAME="?expandedTo@QSize@@QEBA?AV1@AEBV1@@Z" PURGE="0" COMMENT="" />
    <EXPORT ORDINAL="3470" NAME="?expandedTo@QSizeF@@QEBA?AV1@AEBV1@@Z" PURGE="0" COMMENT="" />
    <EXPORT ORDINAL="3471" NAME="?expectedResultCount@QFutureInterfaceBase@@QEAAHXZ" PURGE="0" COMMENT="" />
    <EXPORT ORDINAL="3472" NAME="?expiryTimeout@QThreadPool@@QEBAHXZ" PURGE="0" COMMENT="" />
    <EXPORT ORDINAL="3473" NAME="?exponential@QLocale@@QEBA?AVQString@@XZ" PURGE="0" COMMENT="" />
    <EXPORT ORDINAL="3474" NAME="?exponenttable@qfloat16@@0QBIB" PURGE="-1" COMMENT="" />
    <EXPORT ORDINAL="3475" NAME="?extension@QAbstractFileEngine@@UEAA_NW4Extension@1@PEBVExtensionOption@1@PEAVExtensionReturn@1@@Z" PURGE="0" COMMENT="" />
    <EXPORT ORDINAL="3476" NAME="?extension@QFSFileEngine@@UEAA_NW4Extension@QAbstractFileEngine@@PEBVExtensionOption@3@PEAVExtensionReturn@3@@Z" PURGE="0" COMMENT="" />
    <EXPORT ORDINAL="3477" NAME="?extraSelectors@QFileSelector@@QEBA?AV?$QList@VQString@@@@XZ" PURGE="0" COMMENT="" />
    <EXPORT ORDINAL="3478" NAME="?extract@QCborArray@@QEAA?AVQCborValue@@VConstIterator@1@@Z" PURGE="0" COMMENT="" />
    <EXPORT ORDINAL="3479" NAME="?extract@QCborArray@@QEAA?AVQCborValue@@VIterator@1@@Z" PURGE="0" COMMENT="" />
    <EXPORT ORDINAL="3480" NAME="?extract@QCborMap@@QEAA?AVQCborValue@@VConstIterator@1@@Z" PURGE="0" COMMENT="" />
    <EXPORT ORDINAL="3481" NAME="?extract@QCborMap@@QEAA?AVQCborValue@@VIterator@1@@Z" PURGE="0" COMMENT="" />
    <EXPORT ORDINAL="3482" NAME="?extractAll@QZipReader@@QEBA_NAEBVQString@@@Z" PURGE="0" COMMENT="" />
    <EXPORT ORDINAL="3483" NAME="?fallbackLocale@QSystemLocale@@UEBA?AVQLocale@@XZ" PURGE="0" COMMENT="" />
    <EXPORT ORDINAL="3484" NAME="?fallbackLocaleIndex@QSystemLocale@@QEBA_JXZ" PURGE="0" COMMENT="" />
    <EXPORT ORDINAL="3485" NAME="?fallbacksEnabled@QSettings@@QEBA_NXZ" PURGE="0" COMMENT="" />
    <EXPORT ORDINAL="3486" NAME="?fastTryLock@QBasicMutex@@AEAA_NXZ" PURGE="0" COMMENT="" />
    <EXPORT ORDINAL="3487" NAME="?fastTryUnlock@QBasicMutex@@AEAA_NXZ" PURGE="0" COMMENT="" />
    <EXPORT ORDINAL="3488" NAME="?fatal@QMessageLogger@@QEBA?AVQDebug@@AEBVQLoggingCategory@@@Z" PURGE="0" COMMENT="" />
    <EXPORT ORDINAL="3489" NAME="?fatal@QMessageLogger@@QEBA?AVQDebug@@P6AAEBVQLoggingCategory@@XZ@Z" PURGE="0" COMMENT="" />
    <EXPORT ORDINAL="3490" NAME="?fatal@QMessageLogger@@QEBA?AVQDebug@@XZ" PURGE="0" COMMENT="" />
    <EXPORT ORDINAL="3491" NAME="?fatal@QMessageLogger@@QEBAXAEBVQLoggingCategory@@PEBDZZ" PURGE="0" COMMENT="" />
    <EXPORT ORDINAL="3492" NAME="?fatal@QMessageLogger@@QEBAXP6AAEBVQLoggingCategory@@XZPEBDZZ" PURGE="0" COMMENT="" />
    <EXPORT ORDINAL="3493" NAME="?fatal@QMessageLogger@@QEBAXPEBDZZ" PURGE="0" COMMENT="" />
    <EXPORT ORDINAL="3494" NAME="?fetchMore@QAbstractItemModel@@UEAAXAEBVQModelIndex@@@Z" PURGE="0" COMMENT="" />
    <EXPORT ORDINAL="3495" NAME="?fetchMore@QAbstractProxyModel@@UEAAXAEBVQModelIndex@@@Z" PURGE="0" COMMENT="" />
    <EXPORT ORDINAL="3496" NAME="?fetchMore@QSortFilterProxyModel@@UEAAXAEBVQModelIndex@@@Z" PURGE="0" COMMENT="" />
    <EXPORT ORDINAL="3497" NAME="?fieldAlignment@QTextStream@@QEBA?AW4FieldAlignment@1@XZ" PURGE="0" COMMENT="" />
    <EXPORT ORDINAL="3498" NAME="?fieldInfo@QDateTimeParser@@QEBA?AV?$QFlags@W4FieldInfoFlag@QDateTimeParser@@@@H@Z" PURGE="0" COMMENT="" />
    <EXPORT ORDINAL="3499" NAME="?fieldWidth@QTextStream@@QEBAHXZ" PURGE="0" COMMENT="" />
    <EXPORT ORDINAL="3500" NAME="?fileChanged@QFileSystemWatcher@@QEAAXAEBVQString@@UQPrivateSignal@1@@Z" PURGE="0" COMMENT="" />
    <EXPORT ORDINAL="3501" NAME="?fileData@QZipReader@@QEBA?AVQByteArray@@AEBVQString@@@Z" PURGE="0" COMMENT="" />
    <EXPORT ORDINAL="3502" NAME="?fileFlags@QAbstractFileEngine@@UEBA?AV?$QFlags@W4FileFlag@QAbstractFileEngine@@@@V2@@Z" PURGE="0" COMMENT="" />
    <EXPORT ORDINAL="3503" NAME="?fileFlags@QFSFileEngine@@UEBA?AV?$QFlags@W4FileFlag@QAbstractFileEngine@@@@V2@@Z" PURGE="0" COMMENT="" />
    <EXPORT ORDINAL="3504" NAME="?fileInfo@QDirIterator@@QEBA?AVQFileInfo@@XZ" PURGE="0" COMMENT="" />
    <EXPORT ORDINAL="3505" NAME="?fileInfoList@QZipReader@@QEBA?AV?$QList@UFileInfo@QZipReader@@@@XZ" PURGE="0" COMMENT="" />
    <EXPORT ORDINAL="3506" NAME="?fileName@QAbstractFileEngine@@UEBA?AVQString@@W4FileName@1@@Z" PURGE="0" COMMENT="" />
    <EXPORT ORDINAL="3507" NAME="?fileName@QDirIterator@@QEBA?AVQString@@XZ" PURGE="0" COMMENT="" />
    <EXPORT ORDINAL="3508" NAME="?fileName@QFSFileEngine@@UEBA?AVQString@@W4FileName@QAbstractFileEngine@@@Z" PURGE="0" COMMENT="" />
    <EXPORT ORDINAL="3509" NAME="?fileName@QFile@@UEBA?AVQString@@XZ" PURGE="0" COMMENT="" />
    <EXPORT ORDINAL="3510" NAME="?fileName@QFileDevice@@UEBA?AVQString@@XZ" PURGE="0" COMMENT="" />
    <EXPORT ORDINAL="3511" NAME="?fileName@QFileInfo@@QEBA?AVQString@@XZ" PURGE="0" COMMENT="" />
    <EXPORT ORDINAL="3512" NAME="?fileName@QLibrary@@QEBA?AVQString@@XZ" PURGE="0" COMMENT="" />
    <EXPORT ORDINAL="3513" NAME="?fileName@QLockFile@@QEBA?AVQString@@XZ" PURGE="0" COMMENT="" />
    <EXPORT ORDINAL="3514" NAME="?fileName@QPluginLoader@@QEBA?AVQString@@XZ" PURGE="0" COMMENT="" />
    <EXPORT ORDINAL="3515" NAME="?fileName@QResource@@QEBA?AVQString@@XZ" PURGE="0" COMMENT="" />
    <EXPORT ORDINAL="3516" NAME="?fileName@QSaveFile@@UEBA?AVQString@@XZ" PURGE="0" COMMENT="" />
    <EXPORT ORDINAL="3517" NAME="?fileName@QSettings@@QEBA?AVQString@@XZ" PURGE="0" COMMENT="" />
    <EXPORT ORDINAL="3518" NAME="?fileName@QTemporaryFile@@UEBA?AVQString@@XZ" PURGE="0" COMMENT="" />
    <EXPORT ORDINAL="3519" NAME="?fileName@QUrl@@QEBA?AVQString@@V?$QFlags@W4ComponentFormattingOption@QUrl@@@@@Z" PURGE="0" COMMENT="" />
    <EXPORT ORDINAL="3520" NAME="?filePath@QDir@@QEBA?AVQString@@AEBV2@@Z" PURGE="0" COMMENT="" />
    <EXPORT ORDINAL="3521" NAME="?filePath@QDirIterator@@QEBA?AVQString@@XZ" PURGE="0" COMMENT="" />
    <EXPORT ORDINAL="3522" NAME="?filePath@QFileInfo@@QEBA?AVQString@@XZ" PURGE="0" COMMENT="" />
    <EXPORT ORDINAL="3523" NAME="?filePath@QTemporaryDir@@QEBA?AVQString@@AEBV2@@Z" PURGE="0" COMMENT="" />
    <EXPORT ORDINAL="3524" NAME="?filePath@QTranslator@@QEBA?AVQString@@XZ" PURGE="0" COMMENT="" />
    <EXPORT ORDINAL="3525" NAME="?fileSystemType@QStorageInfo@@QEBA?AVQByteArray@@XZ" PURGE="0" COMMENT="" />
    <EXPORT ORDINAL="3526" NAME="?fileTemplate@QTemporaryFile@@QEBA?AVQString@@XZ" PURGE="0" COMMENT="" />
    <EXPORT ORDINAL="3527" NAME="?fileTime@QAbstractFileEngine@@UEBA?AVQDateTime@@W4FileTime@1@@Z" PURGE="0" COMMENT="" />
    <EXPORT ORDINAL="3528" NAME="?fileTime@QFSFileEngine@@UEBA?AVQDateTime@@W4FileTime@QAbstractFileEngine@@@Z" PURGE="0" COMMENT="" />
    <EXPORT ORDINAL="3529" NAME="?fileTime@QFileDevice@@QEBA?AVQDateTime@@W4FileTime@1@@Z" PURGE="0" COMMENT="" />
    <EXPORT ORDINAL="3530" NAME="?fileTime@QFileInfo@@QEBA?AVQDateTime@@W4FileTime@QFileDevice@@@Z" PURGE="0" COMMENT="" />
    <EXPORT ORDINAL="3531" NAME="?fileTime@QFileInfo@@QEBA?AVQDateTime@@W4FileTime@QFileDevice@@AEBVQTimeZone@@@Z" PURGE="0" COMMENT="" />
    <EXPORT ORDINAL="3532" NAME="?files@QFileSystemWatcher@@QEBA?AV?$QList@VQString@@@@XZ" PURGE="0" COMMENT="" />
    <EXPORT ORDINAL="3533" NAME="?filesystemAbsoluteFilePath@QFileInfo@@QEBA?AVpath@filesystem@std@@XZ" PURGE="0" COMMENT="" />
    <EXPORT ORDINAL="3534" NAME="?filesystemAbsolutePath@QDir@@QEBA?AVpath@filesystem@std@@XZ" PURGE="0" COMMENT="" />
    <EXPORT ORDINAL="3535" NAME="?filesystemAbsolutePath@QFileInfo@@QEBA?AVpath@filesystem@std@@XZ" PURGE="0" COMMENT="" />
    <EXPORT ORDINAL="3536" NAME="?filesystemCanonicalFilePath@QFileInfo@@QEBA?AVpath@filesystem@std@@XZ" PURGE="0" COMMENT="" />
    <EXPORT ORDINAL="3537" NAME="?filesystemCanonicalPath@QDir@@QEBA?AVpath@filesystem@std@@XZ" PURGE="0" COMMENT="" />
    <EXPORT ORDINAL="3538" NAME="?filesystemCanonicalPath@QFileInfo@@QEBA?AVpath@filesystem@std@@XZ" PURGE="0" COMMENT="" />
    <EXPORT ORDINAL="3539" NAME="?filesystemFileName@QFile@@QEBA?AVpath@filesystem@std@@XZ" PURGE="0" COMMENT="" />
    <EXPORT ORDINAL="3540" NAME="?filesystemFilePath@QFileInfo@@QEBA?AVpath@filesystem@std@@XZ" PURGE="0" COMMENT="" />
    <EXPORT ORDINAL="3541" NAME="?filesystemJunctionTarget@QFileInfo@@QEBA?AVpath@filesystem@std@@XZ" PURGE="0" COMMENT="" />
    <EXPORT ORDINAL="3542" NAME="?filesystemPath@QDir@@QEBA?AVpath@filesystem@std@@XZ" PURGE="0" COMMENT="" />
    <EXPORT ORDINAL="3543" NAME="?filesystemPath@QFileInfo@@QEBA?AVpath@filesystem@std@@XZ" PURGE="0" COMMENT="" />
    <EXPORT ORDINAL="3544" NAME="?filesystemReadSymLink@QFileInfo@@QEBA?AVpath@filesystem@std@@XZ" PURGE="0" COMMENT="" />
    <EXPORT ORDINAL="3545" NAME="?filesystemSymLinkTarget@QFile@@QEBA?AVpath@filesystem@std@@XZ" PURGE="0" COMMENT="" />
    <EXPORT ORDINAL="3546" NAME="?filesystemSymLinkTarget@QFileInfo@@QEBA?AVpath@filesystem@std@@XZ" PURGE="0" COMMENT="" />
    <EXPORT ORDINAL="3547" NAME="?fill@QBitArray@@QEAAX_N_J1@Z" PURGE="0" COMMENT="" />
    <EXPORT ORDINAL="3548" NAME="?fill@QBitArray@@QEAA_N_N_J@Z" PURGE="0" COMMENT="" />
    <EXPORT ORDINAL="3549" NAME="?fill@QByteArray@@QEAAAEAV1@D_J@Z" PURGE="0" COMMENT="" />
    <EXPORT ORDINAL="3550" NAME="?fill@QString@@QEAAAEAV1@VQChar@@_J@Z" PURGE="0" COMMENT="" />
    <EXPORT ORDINAL="3551" NAME="?filter@QDir@@QEBA?AV?$QFlags@W4Filter@QDir@@@@XZ" PURGE="0" COMMENT="" />
    <EXPORT ORDINAL="3552" NAME="?filterAcceptsColumn@QSortFilterProxyModel@@MEBA_NHAEBVQModelIndex@@@Z" PURGE="0" COMMENT="" />
    <EXPORT ORDINAL="3553" NAME="?filterAcceptsRow@QSortFilterProxyModel@@MEBA_NHAEBVQModelIndex@@@Z" PURGE="0" COMMENT="" />
    <EXPORT ORDINAL="3554" NAME="?filterCaseSensitivity@QSortFilterProxyModel@@QEBA?AW4CaseSensitivity@Qt@@XZ" PURGE="0" COMMENT="" />
    <EXPORT ORDINAL="3555" NAME="?filterCaseSensitivityChanged@QSortFilterProxyModel@@QEAAXW4CaseSensitivity@Qt@@@Z" PURGE="0" COMMENT="" />
    <EXPORT ORDINAL="3556" NAME="?filterKeyColumn@QSortFilterProxyModel@@QEBAHXZ" PURGE="0" COMMENT="" />
    <EXPORT ORDINAL="3557" NAME="?filterMode@ResultStoreBase@QtPrivate@@QEBA_NXZ" PURGE="0" COMMENT="" />
    <EXPORT ORDINAL="3558" NAME="?filterNativeEvent@QAbstractEventDispatcher@@QEAA_NAEBVQByteArray@@PEAXPEA_J@Z" PURGE="0" COMMENT="" />
    <EXPORT ORDINAL="3559" NAME="?filterRegularExpression@QSortFilterProxyModel@@QEBA?AVQRegularExpression@@XZ" PURGE="0" COMMENT="" />
    <EXPORT ORDINAL="3560" NAME="?filterRole@QSortFilterProxyModel@@QEBAHXZ" PURGE="0" COMMENT="" />
    <EXPORT ORDINAL="3561" NAME="?filterRoleChanged@QSortFilterProxyModel@@QEAAXH@Z" PURGE="0" COMMENT="" />
    <EXPORT ORDINAL="3562" NAME="?filterString@QMimeType@@QEBA?AVQString@@XZ" PURGE="0" COMMENT="" />
    <EXPORT ORDINAL="3563" NAME="?filters@QAbstractFileEngineIterator@@QEBA?AV?$QFlags@W4Filter@QDir@@@@XZ" PURGE="0" COMMENT="" />
    <EXPORT ORDINAL="3564" NAME="?find@QAssociativeIterable@@QEBA?AV?$QTaggedIterator@VQAssociativeConstIterator@@X@@AEBVQVariant@@@Z" PURGE="0" COMMENT="" />
    <EXPORT ORDINAL="3565" NAME="?find@QCborMap@@QEAA?AVIterator@1@AEBVQCborValue@@@Z" PURGE="0" COMMENT="" />
    <EXPORT ORDINAL="3566" NAME="?find@QCborMap@@QEAA?AVIterator@1@AEBVQString@@@Z" PURGE="0" COMMENT="" />
    <EXPORT ORDINAL="3567" NAME="?find@QCborMap@@QEAA?AVIterator@1@VQLatin1String@@@Z" PURGE="0" COMMENT="" />
    <EXPORT ORDINAL="3568" NAME="?find@QCborMap@@QEAA?AVIterator@1@_J@Z" PURGE="0" COMMENT="" />
    <EXPORT ORDINAL="3569" NAME="?find@QCborMap@@QEBA?AVConstIterator@1@AEBVQCborValue@@@Z" PURGE="0" COMMENT="" />
    <EXPORT ORDINAL="3570" NAME="?find@QCborMap@@QEBA?AVConstIterator@1@AEBVQString@@@Z" PURGE="0" COMMENT="" />
    <EXPORT ORDINAL="3571" NAME="?find@QCborMap@@QEBA?AVConstIterator@1@VQLatin1String@@@Z" PURGE="0" COMMENT="" />
    <EXPORT ORDINAL="3572" NAME="?find@QCborMap@@QEBA?AVConstIterator@1@_J@Z" PURGE="0" COMMENT="" />
    <EXPORT ORDINAL="3573" NAME="?find@QJsonObject@@QEAA?AViterator@1@AEBVQString@@@Z" PURGE="0" COMMENT="" />
    <EXPORT ORDINAL="3574" NAME="?find@QJsonObject@@QEAA?AViterator@1@VQLatin1String@@@Z" PURGE="0" COMMENT="" />
    <EXPORT ORDINAL="3575" NAME="?find@QJsonObject@@QEAA?AViterator@1@VQStringView@@@Z" PURGE="0" COMMENT="" />
    <EXPORT ORDINAL="3576" NAME="?find@QJsonObject@@QEBA?AVconst_iterator@1@AEBVQString@@@Z" PURGE="0" COMMENT="" />
    <EXPORT ORDINAL="3577" NAME="?find@QJsonObject@@QEBA?AVconst_iterator@1@VQLatin1String@@@Z" PURGE="0" COMMENT="" />
    <EXPORT ORDINAL="3578" NAME="?find@QJsonObject@@QEBA?AVconst_iterator@1@VQStringView@@@Z" PURGE="0" COMMENT="" />
    <EXPORT ORDINAL="3579" NAME="?findAmPm@QDateTimeParser@@AEBA?AW4AmPmFinder@1@AEAVQString@@HPEAH@Z" PURGE="0" COMMENT="" />
    <EXPORT ORDINAL="3580" NAME="?findByteArray@QtPrivate@@YA_JVQByteArrayView@@_J0@Z" PURGE="0" COMMENT="" />
    <EXPORT ORDINAL="3581" NAME="?findDay@QDateTimeParser@@AEBAHAEBVQString@@HHPEAV2@PEAH@Z" PURGE="0" COMMENT="" />
    <EXPORT ORDINAL="3582" NAME="?findExecutable@QStandardPaths@@SA?AVQString@@AEBV2@AEBV?$QList@VQString@@@@@Z" PURGE="0" COMMENT="" />
    <EXPORT ORDINAL="3583" NAME="?findMonth@QDateTimeParser@@AEBAHAEBVQString@@HHHPEAV2@PEAH@Z" PURGE="0" COMMENT="" />
    <EXPORT ORDINAL="3584" NAME="?findString@QtPrivate@@YA_JVQLatin1String@@_J0W4CaseSensitivity@Qt@@@Z" PURGE="0" COMMENT="" />
    <EXPORT ORDINAL="3585" NAME="?findString@QtPrivate@@YA_JVQLatin1String@@_JVQStringView@@W4CaseSensitivity@Qt@@@Z" PURGE="0" COMMENT="" />
    <EXPORT ORDINAL="3586" NAME="?findString@QtPrivate@@YA_JVQStringView@@_J0W4CaseSensitivity@Qt@@@Z" PURGE="0" COMMENT="" />
    <EXPORT ORDINAL="3587" NAME="?findString@QtPrivate@@YA_JVQStringView@@_JVQLatin1String@@W4CaseSensitivity@Qt@@@Z" PURGE="0" COMMENT="" />
    <EXPORT ORDINAL="3588" NAME="?findTimeZone@QDateTimeParser@@AEBA?AUParsedSection@1@VQStringView@@AEBVQDateTime@@HHH@Z" PURGE="0" COMMENT="" />
    <EXPORT ORDINAL="3589" NAME="?findTimeZoneName@QDateTimeParser@@AEBA?AUParsedSection@1@VQStringView@@AEBVQDateTime@@@Z" PURGE="0" COMMENT="" />
    <EXPORT ORDINAL="3590" NAME="?findUtcOffset@QDateTimeParser@@AEBA?AUParsedSection@1@VQStringView@@H@Z" PURGE="0" COMMENT="" />
    <EXPORT ORDINAL="3591" NAME="?finish@QThreadStorageData@@SAXPEAPEAX@Z" PURGE="0" COMMENT="" />
    <EXPORT ORDINAL="3592" NAME="?finished@QAbstractAnimation@@QEAAXXZ" PURGE="0" COMMENT="" />
    <EXPORT ORDINAL="3593" NAME="?finished@QFutureWatcherBase@@QEAAXXZ" PURGE="0" COMMENT="" />
    <EXPORT ORDINAL="3594" NAME="?finished@QProcess@@QEAAXHW4ExitStatus@1@@Z" PURGE="0" COMMENT="" />
    <EXPORT ORDINAL="3595" NAME="?finished@QThread@@QEAAXUQPrivateSignal@1@@Z" PURGE="0" COMMENT="" />
    <EXPORT ORDINAL="3596" NAME="?finished@QTimeLine@@QEAAXUQPrivateSignal@1@@Z" PURGE="0" COMMENT="" />
    <EXPORT ORDINAL="3597" NAME="?first@QByteArray@@QEBA?AV1@_J@Z" PURGE="0" COMMENT="" />
    <EXPORT ORDINAL="3598" NAME="?first@QByteArray@@QEGBA?AV1@_J@Z" PURGE="0" COMMENT="" />
    <EXPORT ORDINAL="3599" NAME="?first@QByteArray@@QEHAA?AV1@_J@Z" PURGE="0" COMMENT="" />
    <EXPORT ORDINAL="3600" NAME="?first@QByteArrayView@@QEBA?AV1@_J@Z" PURGE="0" COMMENT="" />
    <EXPORT ORDINAL="3601" NAME="?first@QByteArrayView@@QEBADXZ" PURGE="0" COMMENT="" />
    <EXPORT ORDINAL="3602" NAME="?first@QCborArray@@QEAA?AVQCborValueRef@@XZ" PURGE="0" COMMENT="" />
    <EXPORT ORDINAL="3603" NAME="?first@QCborArray@@QEBA?AVQCborValue@@XZ" PURGE="0" COMMENT="" />
    <EXPORT ORDINAL="3604" NAME="?first@QJsonArray@@QEBA?AVQJsonValue@@XZ" PURGE="0" COMMENT="" />
    <EXPORT ORDINAL="3605" NAME="?first@QString@@QEBA?AV1@_J@Z" PURGE="0" COMMENT="" />
    <EXPORT ORDINAL="3606" NAME="?first@QString@@QEGBA?AV1@_J@Z" PURGE="0" COMMENT="" />
    <EXPORT ORDINAL="3607" NAME="?first@QString@@QEHAA?AV1@_J@Z" PURGE="0" COMMENT="" />
    <EXPORT ORDINAL="3608" NAME="?firstDayOfWeek@QLocale@@QEBA?AW4DayOfWeek@Qt@@XZ" PURGE="0" COMMENT="" />
    <EXPORT ORDINAL="3609" NAME="?firstMethod@QMetaObjectPrivate@@SA?AVQMetaMethod@@PEBUQMetaObject@@VQByteArrayView@@@Z" PURGE="0" COMMENT="" />
    <EXPORT ORDINAL="3610" NAME="?fixed@Qt@@YAAEAVQTextStream@@AEAV2@@Z" PURGE="0" COMMENT="" />
    <EXPORT ORDINAL="3611" NAME="?fixedSecondsAheadOfUtc@QTimeZone@@QEBAHXZ" PURGE="0" COMMENT="" />
    <EXPORT ORDINAL="3612" NAME="?flags@QAbstractItemModel@@UEBA?AV?$QFlags@W4ItemFlag@Qt@@@@AEBVQModelIndex@@@Z" PURGE="0" COMMENT="" />
    <EXPORT ORDINAL="3613" NAME="?flags@QAbstractListModel@@UEBA?AV?$QFlags@W4ItemFlag@Qt@@@@AEBVQModelIndex@@@Z" PURGE="0" COMMENT="" />
    <EXPORT ORDINAL="3614" NAME="?flags@QAbstractProxyModel@@UEBA?AV?$QFlags@W4ItemFlag@Qt@@@@AEBVQModelIndex@@@Z" PURGE="0" COMMENT="" />
    <EXPORT ORDINAL="3615" NAME="?flags@QAbstractTableModel@@UEBA?AV?$QFlags@W4ItemFlag@Qt@@@@AEBVQModelIndex@@@Z" PURGE="0" COMMENT="" />
    <EXPORT ORDINAL="3616" NAME="?flags@QCommandLineOption@@QEBA?AV?$QFlags@W4Flag@QCommandLineOption@@@@XZ" PURGE="0" COMMENT="" />
    <EXPORT ORDINAL="3617" NAME="?flags@QConcatenateTablesProxyModel@@UEBA?AV?$QFlags@W4ItemFlag@Qt@@@@AEBVQModelIndex@@@Z" PURGE="0" COMMENT="" />
    <EXPORT ORDINAL="3618" NAME="?flags@QMetaObjectBuilder@@QEBA?AV?$QFlags@W4MetaObjectFlag@@@@XZ" PURGE="0" COMMENT="" />
    <EXPORT ORDINAL="3619" NAME="?flags@QMetaType@@QEBA?AV?$QFlags@W4TypeFlag@QMetaType@@@@XZ" PURGE="0" COMMENT="" />
    <EXPORT ORDINAL="3620" NAME="?flags@QPersistentModelIndex@@QEBA?AV?$QFlags@W4ItemFlag@Qt@@@@XZ" PURGE="0" COMMENT="" />
    <EXPORT ORDINAL="3621" NAME="?flags@QSortFilterProxyModel@@UEBA?AV?$QFlags@W4ItemFlag@Qt@@@@AEBVQModelIndex@@@Z" PURGE="0" COMMENT="" />
    <EXPORT ORDINAL="3622" NAME="?flags@QStringListModel@@UEBA?AV?$QFlags@W4ItemFlag@Qt@@@@AEBVQModelIndex@@@Z" PURGE="0" COMMENT="" />
    <EXPORT ORDINAL="3623" NAME="?flagsForDumping@QObjectPrivate@@UEBA?AV?$basic_string@DU?$char_traits@D@std@@V?$allocator@D@2@@std@@XZ" PURGE="0" COMMENT="" />
    <EXPORT ORDINAL="3624" NAME="?floatingPointPrecision@QDataStream@@QEBA?AW4FloatingPointPrecision@1@XZ" PURGE="0" COMMENT="" />
    <EXPORT ORDINAL="3625" NAME="?flush@QAbstractFileEngine@@UEAA_NXZ" PURGE="0" COMMENT="" />
    <EXPORT ORDINAL="3626" NAME="?flush@QFSFileEngine@@UEAA_NXZ" PURGE="0" COMMENT="" />
    <EXPORT ORDINAL="3627" NAME="?flush@QFileDevice@@QEAA_NXZ" PURGE="0" COMMENT="" />
    <EXPORT ORDINAL="3628" NAME="?flush@QTextStream@@QEAAXXZ" PURGE="0" COMMENT="" />
    <EXPORT ORDINAL="3629" NAME="?flush@Qt@@YAAEAVQTextStream@@AEAV2@@Z" PURGE="0" COMMENT="" />
    <EXPORT ORDINAL="3630" NAME="?forcepoint@Qt@@YAAEAVQTextStream@@AEAV2@@Z" PURGE="0" COMMENT="" />
    <EXPORT ORDINAL="3631" NAME="?forcesign@Qt@@YAAEAVQTextStream@@AEAV2@@Z" PURGE="0" COMMENT="" />
    <EXPORT ORDINAL="3632" NAME="?format@QSettings@@QEBA?AW4Format@1@XZ" PURGE="0" COMMENT="" />
    <EXPORT ORDINAL="3633" NAME="?format@SectionNode@QDateTimeParser@@QEBA?AVQString@@XZ" PURGE="0" COMMENT="" />
    <EXPORT ORDINAL="3634" NAME="?formats@QMimeData@@UEBA?AV?$QList@VQString@@@@XZ" PURGE="0" COMMENT="" />
    <EXPORT ORDINAL="3635" NAME="?formattedDataSize@QLocale@@QEBA?AVQString@@_JHV?$QFlags@W4DataSizeFormat@QLocale@@@@@Z" PURGE="0" COMMENT="" />
    <EXPORT ORDINAL="3636" NAME="?forwardEvent@QCoreApplication@@CA_NPEAVQObject@@PEAVQEvent@@1@Z" PURGE="0" COMMENT="" />
    <EXPORT ORDINAL="3637" NAME="?fpClassify@qfloat16@@QEBAHXZ" PURGE="0" COMMENT="" />
    <EXPORT ORDINAL="3638" NAME="?fp_helper@QCborValue@@AEBANXZ" PURGE="0" COMMENT="" />
    <EXPORT ORDINAL="3639" NAME="?fragment@QUrl@@QEBA?AVQString@@V?$QFlags@W4ComponentFormattingOption@QUrl@@@@@Z" PURGE="0" COMMENT="" />
    <EXPORT ORDINAL="3640" NAME="?frameChanged@QTimeLine@@QEAAXHUQPrivateSignal@1@@Z" PURGE="0" COMMENT="" />
    <EXPORT ORDINAL="3641" NAME="?frameForTime@QTimeLine@@QEBAHH@Z" PURGE="0" COMMENT="" />
    <EXPORT ORDINAL="3642" NAME="?free@QRingBuffer@@QEAAX_J@Z" PURGE="0" COMMENT="" />
    <EXPORT ORDINAL="3643" NAME="?freeData@QContiguousCacheData@@SAXPEAU1@@Z" PURGE="0" COMMENT="" />
    <EXPORT ORDINAL="3644" NAME="?fromAce@QUrl@@SA?AVQString@@AEBVQByteArray@@@Z" PURGE="0" COMMENT="" />
    <EXPORT ORDINAL="3645" NAME="?fromAce@QUrl@@SA?AVQString@@AEBVQByteArray@@V?$QFlags@W4AceProcessingOption@QUrl@@@@@Z" PURGE="0" COMMENT="" />
    <EXPORT ORDINAL="3646" NAME="?fromBase64@QByteArray@@SA?AV1@AEBV1@V?$QFlags@W4Base64Option@QByteArray@@@@@Z" PURGE="0" COMMENT="" />
    <EXPORT ORDINAL="3647" NAME="?fromBase64Encoding@QByteArray@@SA?AVFromBase64Result@1@$$QEAV1@V?$QFlags@W4Base64Option@QByteArray@@@@@Z" PURGE="0" COMMENT="" />
    <EXPORT ORDINAL="3648" NAME="?fromBase64Encoding@QByteArray@@SA?AVFromBase64Result@1@AEBV1@V?$QFlags@W4Base64Option@QByteArray@@@@@Z" PURGE="0" COMMENT="" />
    <EXPORT ORDINAL="3649" NAME="?fromBits@QBitArray@@SA?AV1@PEBD_J@Z" PURGE="0" COMMENT="" />
    <EXPORT ORDINAL="3650" NAME="?fromBytes@QUuid@@SA?AV1@PEBXW4Endian@QSysInfo@@@Z" PURGE="0" COMMENT="" />
    <EXPORT ORDINAL="3651" NAME="?fromCbor@QCborValue@@SA?AV1@AEAVQCborStreamReader@@@Z" PURGE="0" COMMENT="" />
    <EXPORT ORDINAL="3652" NAME="?fromCbor@QCborValue@@SA?AV1@AEBVQByteArray@@PEAUQCborParserError@@@Z" PURGE="0" COMMENT="" />
    <EXPORT ORDINAL="3653" NAME="?fromCbor@QCborValue@@SA?AV1@PEBD_JPEAUQCborParserError@@@Z" PURGE="0" COMMENT="" />
    <EXPORT ORDINAL="3654" NAME="?fromCbor@QCborValue@@SA?AV1@PEBE_JPEAUQCborParserError@@@Z" PURGE="0" COMMENT="" />
    <EXPORT ORDINAL="3655" NAME="?fromDurationAheadOfUtc@QTimeZone@@SA?AV1@V?$duration@_JU?$ratio@$00$00@std@@@chrono@std@@@Z" PURGE="0" COMMENT="" />
    <EXPORT ORDINAL="3656" NAME="?fromEncoded@QUrl@@SA?AV1@AEBVQByteArray@@W4ParsingMode@1@@Z" PURGE="0" COMMENT="" />
    <EXPORT ORDINAL="3657" NAME="?fromEncoded@QUrl@@SA?AV1@VQByteArrayView@@W4ParsingMode@1@@Z" PURGE="0" COMMENT="" />
    <EXPORT ORDINAL="3658" NAME="?fromEnum@QCalendarBackend@@CAPEBV1@W4System@QCalendar@@@Z" PURGE="0" COMMENT="" />
    <EXPORT ORDINAL="3659" NAME="?fromHex@QByteArray@@SA?AV1@AEBV1@@Z" PURGE="0" COMMENT="" />
    <EXPORT ORDINAL="3660" NAME="?fromId@QCalendarBackend@@CAPEBV1@VSystemId@QCalendar@@@Z" PURGE="0" COMMENT="" />
    <EXPORT ORDINAL="3661" NAME="?fromJson@QJsonDocument@@SA?AV1@AEBVQByteArray@@PEAUQJsonParseError@@@Z" PURGE="0" COMMENT="" />
    <EXPORT ORDINAL="3662" NAME="?fromJsonArray@QCborArray@@SA?AV1@$$QEAVQJsonArray@@@Z" PURGE="0" COMMENT="" />
    <EXPORT ORDINAL="3663" NAME="?fromJsonArray@QCborArray@@SA?AV1@AEBVQJsonArray@@@Z" PURGE="0" COMMENT="" />
    <EXPORT ORDINAL="3664" NAME="?fromJsonObject@QCborMap@@SA?AV1@$$QEAVQJsonObject@@@Z" PURGE="0" COMMENT="" />
    <EXPORT ORDINAL="3665" NAME="?fromJsonObject@QCborMap@@SA?AV1@AEBVQJsonObject@@@Z" PURGE="0" COMMENT="" />
    <EXPORT ORDINAL="3666" NAME="?fromJsonValue@QCborValue@@SA?AV1@AEBVQJsonValue@@@Z" PURGE="0" COMMENT="" />
    <EXPORT ORDINAL="3667" NAME="?fromJulianDay@QDate@@SA?AV1@_J@Z" PURGE="0" COMMENT="" />
    <EXPORT ORDINAL="3668" NAME="?fromLatin1@QChar@@SA?AV1@D@Z" PURGE="0" COMMENT="" />
    <EXPORT ORDINAL="3669" NAME="?fromLatin1@QString@@SA?AV1@PEBD_J@Z" PURGE="0" COMMENT="" />
    <EXPORT ORDINAL="3670" NAME="?fromLatin1@QString@@SA?AV1@VQByteArrayView@@@Z" PURGE="0" COMMENT="" />
    <EXPORT ORDINAL="3671" NAME="?fromLocal8Bit@QString@@SA?AV1@PEBD_J@Z" PURGE="0" COMMENT="" />
    <EXPORT ORDINAL="3672" NAME="?fromLocal8Bit@QString@@SA?AV1@VQByteArrayView@@@Z" PURGE="0" COMMENT="" />
    <EXPORT ORDINAL="3673" NAME="?fromLocalFile@QUrl@@SA?AV1@AEBVQString@@@Z" PURGE="0" COMMENT="" />
    <EXPORT ORDINAL="3674" NAME="?fromMSecsSinceEpoch@QDateTime@@SA?AV1@_J@Z" PURGE="0" COMMENT="" />
    <EXPORT ORDINAL="3675" NAME="?fromMSecsSinceEpoch@QDateTime@@SA?AV1@_JAEBVQTimeZone@@@Z" PURGE="0" COMMENT="" />
    <EXPORT ORDINAL="3676" NAME="?fromMSecsSinceEpoch@QDateTime@@SA?AV1@_JW4TimeSpec@Qt@@H@Z" PURGE="0" COMMENT="" />
    <EXPORT ORDINAL="3677" NAME="?fromMSecsSinceStartOfDay@QTime@@SA?AV1@H@Z" PURGE="0" COMMENT="" />
    <EXPORT ORDINAL="3678" NAME="?fromMetaType@QVariant@@SA?AV1@VQMetaType@@PEBX@Z" PURGE="0" COMMENT="" />
    <EXPORT ORDINAL="3679" NAME="?fromName@QCalendarBackend@@CAPEBV1@VQAnyStringView@@@Z" PURGE="0" COMMENT="" />
    <EXPORT ORDINAL="3680" NAME="?fromName@QMetaType@@SA?AV1@VQByteArrayView@@@Z" PURGE="0" COMMENT="" />
    <EXPORT ORDINAL="3681" NAME="?fromNativeSeparators@QDir@@SA?AVQString@@AEBV2@@Z" PURGE="0" COMMENT="" />
    <EXPORT ORDINAL="3682" NAME="?fromPercentEncoding@QByteArray@@SA?AV1@AEBV1@D@Z" PURGE="0" COMMENT="" />
    <EXPORT ORDINAL="3683" NAME="?fromPercentEncoding@QUrl@@SA?AVQString@@AEBVQByteArray@@@Z" PURGE="0" COMMENT="" />
    <EXPORT ORDINAL="3684" NAME="?fromPolar@QLineF@@SA?AV1@NN@Z" PURGE="0" COMMENT="" />
    <EXPORT ORDINAL="3685" NAME="?fromRawData@QByteArray@@SA?AV1@PEBD_J@Z" PURGE="0" COMMENT="" />
    <EXPORT ORDINAL="3686" NAME="?fromRawData@QString@@SA?AV1@PEBVQChar@@_J@Z" PURGE="0" COMMENT="" />
    <EXPORT ORDINAL="3687" NAME="?fromRelativeConstructorIndex@QMetaMethod@@CA?AV1@PEBUQMetaObject@@H@Z" PURGE="0" COMMENT="" />
    <EXPORT ORDINAL="3688" NAME="?fromRelativeMethodIndex@QMetaMethod@@CA?AV1@PEBUQMetaObject@@H@Z" PURGE="0" COMMENT="" />
    <EXPORT ORDINAL="3689" NAME="?fromRfc4122@QUuid@@SA?AV1@AEBVQByteArray@@@Z" PURGE="0" COMMENT="" />
    <EXPORT ORDINAL="3690" NAME="?fromRfc4122@QUuid@@SA?AV1@VQByteArrayView@@@Z" PURGE="0" COMMENT="" />
    <EXPORT ORDINAL="3691" NAME="?fromSecondsAheadOfUtc@QTimeZone@@SA?AV1@H@Z" PURGE="0" COMMENT="" />
    <EXPORT ORDINAL="3692" NAME="?fromSecsSinceEpoch@QDateTime@@SA?AV1@_J@Z" PURGE="0" COMMENT="" />
    <EXPORT ORDINAL="3693" NAME="?fromSecsSinceEpoch@QDateTime@@SA?AV1@_JAEBVQTimeZone@@@Z" PURGE="0" COMMENT="" />
    <EXPORT ORDINAL="3694" NAME="?fromSecsSinceEpoch@QDateTime@@SA?AV1@_JW4TimeSpec@Qt@@H@Z" PURGE="0" COMMENT="" />
    <EXPORT ORDINAL="3695" NAME="?fromSignalImpl@QMetaMethod@@CA?AV1@PEBUQMetaObject@@PEAPEAX@Z" PURGE="0" COMMENT="" />
    <EXPORT ORDINAL="3696" NAME="?fromStdString@QByteArray@@SA?AV1@AEBV?$basic_string@DU?$char_traits@D@std@@V?$allocator@D@2@@std@@@Z" PURGE="0" COMMENT="" />
    <EXPORT ORDINAL="3697" NAME="?fromStdString@QString@@SA?AV1@AEBV?$basic_string@DU?$char_traits@D@std@@V?$allocator@D@2@@std@@@Z" PURGE="0" COMMENT="" />
    <EXPORT ORDINAL="3698" NAME="?fromStdU16String@QString@@SA?AV1@AEBV?$basic_string@_SU?$char_traits@_S@std@@V?$allocator@_S@2@@std@@@Z" PURGE="0" COMMENT="" />
    <EXPORT ORDINAL="3699" NAME="?fromStdU32String@QString@@SA?AV1@AEBV?$basic_string@_UU?$char_traits@_U@std@@V?$allocator@_U@2@@std@@@Z" PURGE="0" COMMENT="" />
    <EXPORT ORDINAL="3700" NAME="?fromStdWString@QString@@SA?AV1@AEBV?$basic_string@_WU?$char_traits@_W@std@@V?$allocator@_W@2@@std@@@Z" PURGE="0" COMMENT="" />
    <EXPORT ORDINAL="3701" NAME="?fromString@QDate@@SA?AV1@AEBVQString@@0H@Z" PURGE="0" COMMENT="" />
    <EXPORT ORDINAL="3702" NAME="?fromString@QDate@@SA?AV1@AEBVQString@@0HVQCalendar@@@Z" PURGE="0" COMMENT="" />
    <EXPORT ORDINAL="3703" NAME="?fromString@QDate@@SA?AV1@AEBVQString@@0VQCalendar@@@Z" PURGE="0" COMMENT="" />
    <EXPORT ORDINAL="3704" NAME="?fromString@QDate@@SA?AV1@AEBVQString@@VQStringView@@H@Z" PURGE="0" COMMENT="" />
    <EXPORT ORDINAL="3705" NAME="?fromString@QDate@@SA?AV1@AEBVQString@@VQStringView@@HVQCalendar@@@Z" PURGE="0" COMMENT="" />
    <EXPORT ORDINAL="3706" NAME="?fromString@QDate@@SA?AV1@AEBVQString@@VQStringView@@VQCalendar@@@Z" PURGE="0" COMMENT="" />
    <EXPORT ORDINAL="3707" NAME="?fromString@QDate@@SA?AV1@AEBVQString@@W4DateFormat@Qt@@@Z" PURGE="0" COMMENT="" />
    <EXPORT ORDINAL="3708" NAME="?fromString@QDate@@SA?AV1@VQStringView@@0H@Z" PURGE="0" COMMENT="" />
    <EXPORT ORDINAL="3709" NAME="?fromString@QDate@@SA?AV1@VQStringView@@0HVQCalendar@@@Z" PURGE="0" COMMENT="" />
    <EXPORT ORDINAL="3710" NAME="?fromString@QDate@@SA?AV1@VQStringView@@0VQCalendar@@@Z" PURGE="0" COMMENT="" />
    <EXPORT ORDINAL="3711" NAME="?fromString@QDate@@SA?AV1@VQStringView@@W4DateFormat@Qt@@@Z" PURGE="0" COMMENT="" />
    <EXPORT ORDINAL="3712" NAME="?fromString@QDateTime@@SA?AV1@AEBVQString@@0H@Z" PURGE="0" COMMENT="" />
    <EXPORT ORDINAL="3713" NAME="?fromString@QDateTime@@SA?AV1@AEBVQString@@0HVQCalendar@@@Z" PURGE="0" COMMENT="" />
    <EXPORT ORDINAL="3714" NAME="?fromString@QDateTime@@SA?AV1@AEBVQString@@0VQCalendar@@@Z" PURGE="0" COMMENT="" />
    <EXPORT ORDINAL="3715" NAME="?fromString@QDateTime@@SA?AV1@AEBVQString@@VQStringView@@H@Z" PURGE="0" COMMENT="" />
    <EXPORT ORDINAL="3716" NAME="?fromString@QDateTime@@SA?AV1@AEBVQString@@VQStringView@@HVQCalendar@@@Z" PURGE="0" COMMENT="" />
    <EXPORT ORDINAL="3717" NAME="?fromString@QDateTime@@SA?AV1@AEBVQString@@VQStringView@@VQCalendar@@@Z" PURGE="0" COMMENT="" />
    <EXPORT ORDINAL="3718" NAME="?fromString@QDateTime@@SA?AV1@AEBVQString@@W4DateFormat@Qt@@@Z" PURGE="0" COMMENT="" />
    <EXPORT ORDINAL="3719" NAME="?fromString@QDateTime@@SA?AV1@VQStringView@@0H@Z" PURGE="0" COMMENT="" />
    <EXPORT ORDINAL="3720" NAME="?fromString@QDateTime@@SA?AV1@VQStringView@@0HVQCalendar@@@Z" PURGE="0" COMMENT="" />
    <EXPORT ORDINAL="3721" NAME="?fromString@QDateTime@@SA?AV1@VQStringView@@0VQCalendar@@@Z" PURGE="0" COMMENT="" />
    <EXPORT ORDINAL="3722" NAME="?fromString@QDateTime@@SA?AV1@VQStringView@@W4DateFormat@Qt@@@Z" PURGE="0" COMMENT="" />
    <EXPORT ORDINAL="3723" NAME="?fromString@QDateTimeParser@@QEBA_NAEBVQString@@PEAVQDate@@PEAVQTime@@H@Z" PURGE="0" COMMENT="" />
    <EXPORT ORDINAL="3724" NAME="?fromString@QDateTimeParser@@QEBA_NAEBVQString@@PEAVQDateTime@@H@Z" PURGE="0" COMMENT="" />
    <EXPORT ORDINAL="3725" NAME="?fromString@QNativeIpcKey@@SA?AV1@AEBVQString@@@Z" PURGE="0" COMMENT="" />
    <EXPORT ORDINAL="3726" NAME="?fromString@QTime@@SA?AV1@AEBVQString@@0@Z" PURGE="0" COMMENT="" />
    <EXPORT ORDINAL="3727" NAME="?fromString@QTime@@SA?AV1@AEBVQString@@VQStringView@@@Z" PURGE="0" COMMENT="" />
    <EXPORT ORDINAL="3728" NAME="?fromString@QTime@@SA?AV1@AEBVQString@@W4DateFormat@Qt@@@Z" PURGE="0" COMMENT="" />
    <EXPORT ORDINAL="3729" NAME="?fromString@QTime@@SA?AV1@VQStringView@@0@Z" PURGE="0" COMMENT="" />
    <EXPORT ORDINAL="3730" NAME="?fromString@QTime@@SA?AV1@VQStringView@@W4DateFormat@Qt@@@Z" PURGE="0" COMMENT="" />
    <EXPORT ORDINAL="3731" NAME="?fromString@QUuid@@SA?AV1@VQAnyStringView@@@Z" PURGE="0" COMMENT="" />
    <EXPORT ORDINAL="3732" NAME="?fromString@QUuid@@SA?AV1@VQLatin1String@@@Z" PURGE="0" COMMENT="" />
    <EXPORT ORDINAL="3733" NAME="?fromString@QUuid@@SA?AV1@VQStringView@@@Z" PURGE="0" COMMENT="" />
    <EXPORT ORDINAL="3734" NAME="?fromString@QVersionNumber@@SA?AV1@AEBVQString@@PEAH@Z" PURGE="0" COMMENT="" />
    <EXPORT ORDINAL="3735" NAME="?fromString@QVersionNumber@@SA?AV1@VQAnyStringView@@PEA_J@Z" PURGE="0" COMMENT="" />
    <EXPORT ORDINAL="3736" NAME="?fromString@QVersionNumber@@SA?AV1@VQLatin1String@@PEAH@Z" PURGE="0" COMMENT="" />
    <EXPORT ORDINAL="3737" NAME="?fromString@QVersionNumber@@SA?AV1@VQStringView@@PEAH@Z" PURGE="0" COMMENT="" />
    <EXPORT ORDINAL="3738" NAME="?fromStringList@QCborArray@@SA?AV1@AEBV?$QList@VQString@@@@@Z" PURGE="0" COMMENT="" />
    <EXPORT ORDINAL="3739" NAME="?fromStringList@QJsonArray@@SA?AV1@AEBV?$QList@VQString@@@@@Z" PURGE="0" COMMENT="" />
    <EXPORT ORDINAL="3740" NAME="?fromStringList@QUrl@@SA?AV?$QList@VQUrl@@@@AEBV?$QList@VQString@@@@W4ParsingMode@1@@Z" PURGE="0" COMMENT="" />
    <EXPORT ORDINAL="3741" NAME="?fromUcs2@QChar@@SA?AV1@_S@Z" PURGE="0" COMMENT="" />
    <EXPORT ORDINAL="3742" NAME="?fromUcs4@QChar@@SA@_U@Z" PURGE="0" COMMENT="" />
    <EXPORT ORDINAL="3743" NAME="?fromUcs4@QString@@SA?AV1@PEBI_J@Z" PURGE="0" COMMENT="" />
    <EXPORT ORDINAL="3744" NAME="?fromUcs4@QString@@SA?AV1@PEB_U_J@Z" PURGE="0" COMMENT="" />
    <EXPORT ORDINAL="3745" NAME="?fromUserInput@QUrl@@SA?AV1@AEBVQString@@0V?$QFlags@W4UserInputResolutionOption@QUrl@@@@@Z" PURGE="0" COMMENT="" />
    <EXPORT ORDINAL="3746" NAME="?fromUtf16@QString@@SA?AV1@PEBG_J@Z" PURGE="0" COMMENT="" />
    <EXPORT ORDINAL="3747" NAME="?fromUtf16@QString@@SA?AV1@PEB_S_J@Z" PURGE="0" COMMENT="" />
    <EXPORT ORDINAL="3748" NAME="?fromUtf8@QString@@SA?AV1@PEBD_J@Z" PURGE="0" COMMENT="" />
    <EXPORT ORDINAL="3749" NAME="?fromUtf8@QString@@SA?AV1@VQByteArrayView@@@Z" PURGE="0" COMMENT="" />
    <EXPORT ORDINAL="3750" NAME="?fromVariant@QCborValue@@SA?AV1@AEBVQVariant@@@Z" PURGE="0" COMMENT="" />
    <EXPORT ORDINAL="3751" NAME="?fromVariant@QJsonDocument@@SA?AV1@AEBVQVariant@@@Z" PURGE="0" COMMENT="" />
    <EXPORT ORDINAL="3752" NAME="?fromVariant@QJsonValue@@SA?AV1@AEBVQVariant@@@Z" PURGE="0" COMMENT="" />
    <EXPORT ORDINAL="3753" NAME="?fromVariantHash@QCborMap@@SA?AV1@AEBV?$QHash@VQString@@VQVariant@@@@@Z" PURGE="0" COMMENT="" />
    <EXPORT ORDINAL="3754" NAME="?fromVariantHash@QJsonObject@@SA?AV1@AEBV?$QHash@VQString@@VQVariant@@@@@Z" PURGE="0" COMMENT="" />
    <EXPORT ORDINAL="3755" NAME="?fromVariantList@QCborArray@@SA?AV1@AEBV?$QList@VQVariant@@@@@Z" PURGE="0" COMMENT="" />
    <EXPORT ORDINAL="3756" NAME="?fromVariantList@QJsonArray@@SA?AV1@AEBV?$QList@VQVariant@@@@@Z" PURGE="0" COMMENT="" />
    <EXPORT ORDINAL="3757" NAME="?fromVariantMap@QCborMap@@SA?AV1@AEBV?$QMap@VQString@@VQVariant@@@@@Z" PURGE="0" COMMENT="" />
    <EXPORT ORDINAL="3758" NAME="?fromVariantMap@QJsonObject@@SA?AV1@AEBV?$QMap@VQString@@VQVariant@@@@@Z" PURGE="0" COMMENT="" />
    <EXPORT ORDINAL="3759" NAME="?fromWCharArray@QString@@SA?AV1@PEB_W_J@Z" PURGE="0" COMMENT="" />
    <EXPORT ORDINAL="3760" NAME="?fromWildcard@QRegularExpression@@SA?AV1@VQStringView@@W4CaseSensitivity@Qt@@V?$QFlags@W4WildcardConversionOption@QRegularExpression@@@@@Z" PURGE="0" COMMENT="" />
    <EXPORT ORDINAL="3761" NAME="?front@QByteArray@@QEAAAEADXZ" PURGE="0" COMMENT="" />
    <EXPORT ORDINAL="3762" NAME="?front@QByteArray@@QEBADXZ" PURGE="0" COMMENT="" />
    <EXPORT ORDINAL="3763" NAME="?front@QByteArrayView@@QEBADXZ" PURGE="0" COMMENT="" />
    <EXPORT ORDINAL="3764" NAME="?front@QString@@QEAAAEAVQChar@@XZ" PURGE="0" COMMENT="" />
    <EXPORT ORDINAL="3765" NAME="?front@QString@@QEBA?AVQChar@@XZ" PURGE="0" COMMENT="" />
    <EXPORT ORDINAL="3766" NAME="?generateByteOrderMark@QTextStream@@QEBA_NXZ" PURGE="0" COMMENT="" />
    <EXPORT ORDINAL="3767" NAME="?genericIconName@QMimeType@@QEBA?AVQString@@XZ" PURGE="0" COMMENT="" />
    <EXPORT ORDINAL="3768" NAME="?get@QAbstractAnimationPrivate@@SAPEAV1@PEAVQAbstractAnimation@@@Z" PURGE="0" COMMENT="" />
    <EXPORT ORDINAL="3769" NAME="?get@QObjectPrivate@@SAPEAV1@PEAVQObject@@@Z" PURGE="0" COMMENT="" />
    <EXPORT ORDINAL="3770" NAME="?get@QObjectPrivate@@SAPEBV1@PEBVQObject@@@Z" PURGE="0" COMMENT="" />
    <EXPORT ORDINAL="3771" NAME="?get@QPropertyBindingPrivate@@SAPEAV1@AEBVQUntypedPropertyBinding@@@Z" PURGE="0" COMMENT="" />
    <EXPORT ORDINAL="3772" NAME="?get@QThreadStorageData@@QEBAPEAPEAXXZ" PURGE="0" COMMENT="" />
    <EXPORT ORDINAL="3773" NAME="?getAmPmText@QDateTimeParser@@AEBA?AVQString@@W4AmPm@1@W4Case@1@@Z" PURGE="0" COMMENT="" />
    <EXPORT ORDINAL="3774" NAME="?getAndRef@ExternalRefCountData@QtSharedPointer@@SAPEAU12@PEBVQObject@@@Z" PURGE="0" COMMENT="" />
    <EXPORT ORDINAL="3775" NAME="?getBinding@PropertyAdaptorSlotObjectHelpers@QtPrivate@@YA?AVQUntypedPropertyBinding@@PEBVQUntypedPropertyData@@@Z" PURGE="0" COMMENT="" />
    <EXPORT ORDINAL="3776" NAME="?getChar@QIODevice@@QEAA_NPEAD@Z" PURGE="0" COMMENT="" />
    <EXPORT ORDINAL="3777" NAME="?getCoords@QRect@@QEBAXPEAH000@Z" PURGE="0" COMMENT="" />
    <EXPORT ORDINAL="3778" NAME="?getCoords@QRectF@@QEBAXPEAN000@Z" PURGE="0" COMMENT="" />
    <EXPORT ORDINAL="3779" NAME="?getCurrentStandardUtcOffset@QLocalTime@@YAHXZ" PURGE="0" COMMENT="" />
    <EXPORT ORDINAL="3780" NAME="?getDate@QDate@@QEBAXPEAH00@Z" PURGE="0" COMMENT="" />
    <EXPORT ORDINAL="3781" NAME="?getDigit@QDateTimeParser@@IEBAHAEBVQDateTime@@H@Z" PURGE="0" COMMENT="" />
    <EXPORT ORDINAL="3782" NAME="?getInterpolator@QVariantAnimationPrivate@@SAP6A?AVQVariant@@PEBX0N@ZH@Z" PURGE="0" COMMENT="" />
    <EXPORT ORDINAL="3783" NAME="?getLockInfo@QLockFile@@QEBA_NPEA_JPEAVQString@@1@Z" PURGE="0" COMMENT="" />
    <EXPORT ORDINAL="3784" NAME="?getMaximum@QDateTimeParser@@MEBA?AVQDateTime@@XZ" PURGE="0" COMMENT="" />
    <EXPORT ORDINAL="3785" NAME="?getMetaPropertyData@QMetaProperty@@CA?AUData@1@PEBUQMetaObject@@H@Z" PURGE="0" COMMENT="" />
    <EXPORT ORDINAL="3786" NAME="?getMinimum@QDateTimeParser@@MEBA?AVQDateTime@@XZ" PURGE="0" COMMENT="" />
    <EXPORT ORDINAL="3787" NAME="?getModelForwarder@QAbstractProxyModelPrivate@@QEBAPEAVQAbstractItemModel@@XZ" PURGE="0" COMMENT="" />
    <EXPORT ORDINAL="3788" NAME="?getParameterTypes@QMetaMethod@@QEBAXPEAH@Z" PURGE="0" COMMENT="" />
    <EXPORT ORDINAL="3789" NAME="?getPropertyAdaptorSlotObject@QObjectPrivate@@QEAAPEAVQPropertyAdaptorSlotObject@QtPrivate@@AEBVQMetaProperty@@@Z" PURGE="0" COMMENT="" />
    <EXPORT ORDINAL="3790" NAME="?getRect@QRect@@QEBAXPEAH000@Z" PURGE="0" COMMENT="" />
    <EXPORT ORDINAL="3791" NAME="?getRect@QRectF@@QEBAXPEAN000@Z" PURGE="0" COMMENT="" />
    <EXPORT ORDINAL="3792" NAME="?getSizeEnsuringAlignment@QPropertyBindingPrivate@@SA_KXZ" PURGE="0" COMMENT="" />
    <EXPORT ORDINAL="3793" NAME="?getUtcOffset@QLocalTime@@YAH_J@Z" PURGE="0" COMMENT="" />
    <EXPORT ORDINAL="3794" NAME="?getter@PropertyAdaptorSlotObjectHelpers@QtPrivate@@YAXPEBVQUntypedPropertyData@@PEAX@Z" PURGE="0" COMMENT="" />
    <EXPORT ORDINAL="3795" NAME="?globPatterns@QMimeType@@QEBA?AV?$QList@VQString@@@@XZ" PURGE="0" COMMENT="" />
    <EXPORT ORDINAL="3796" NAME="?global@QRandomGenerator64@@SAPEAV1@XZ" PURGE="0" COMMENT="" />
    <EXPORT ORDINAL="3797" NAME="?globalInstance@QThreadPool@@SAPEAV1@XZ" PURGE="0" COMMENT="" />
    <EXPORT ORDINAL="3798" NAME="?globalMatch@QRegularExpression@@QEBA?AVQRegularExpressionMatchIterator@@AEBVQString@@_JW4MatchType@1@V?$QFlags@W4MatchOption@QRegularExpression@@@@@Z" PURGE="0" COMMENT="" />
    <EXPORT ORDINAL="3799" NAME="?globalMatch@QRegularExpression@@QEBA?AVQRegularExpressionMatchIterator@@VQStringView@@_JW4MatchType@1@V?$QFlags@W4MatchOption@QRegularExpression@@@@@Z" PURGE="0" COMMENT="" />
    <EXPORT ORDINAL="3800" NAME="?globalMatchView@QRegularExpression@@QEBA?AVQRegularExpressionMatchIterator@@VQStringView@@_JW4MatchType@1@V?$QFlags@W4MatchOption@QRegularExpression@@@@@Z" PURGE="0" COMMENT="" />
    <EXPORT ORDINAL="3801" NAME="?globalSeed@QHashSeed@@SA?AU1@XZ" PURGE="0" COMMENT="" />
    <EXPORT ORDINAL="3802" NAME="?graphemeBreakClass@QUnicodeTables@@YA?AW4GraphemeBreakClass@1@_U@Z" PURGE="0" COMMENT="" />
    <EXPORT ORDINAL="3803" NAME="?gregorian@QCalendarBackend@@CAPEBV1@XZ" PURGE="0" COMMENT="" />
    <EXPORT ORDINAL="3804" NAME="?group@QAbstractAnimation@@QEBAPEAVQAnimationGroup@@XZ" PURGE="0" COMMENT="" />
    <EXPORT ORDINAL="3805" NAME="?group@QFileInfo@@QEBA?AVQString@@XZ" PURGE="0" COMMENT="" />
    <EXPORT ORDINAL="3806" NAME="?group@QSettings@@QEBA?AVQString@@XZ" PURGE="0" COMMENT="" />
    <EXPORT ORDINAL="3807" NAME="?groupId@QFileInfo@@QEBAIXZ" PURGE="0" COMMENT="" />
    <EXPORT ORDINAL="3808" NAME="?groupSeparator@QLocale@@QEBA?AVQString@@XZ" PURGE="0" COMMENT="" />
    <EXPORT ORDINAL="3809" NAME="?grownBy@QSize@@QEBA?AV1@VQMargins@@@Z" PURGE="0" COMMENT="" />
    <EXPORT ORDINAL="3810" NAME="?grownBy@QSizeF@@QEBA?AV1@VQMarginsF@@@Z" PURGE="0" COMMENT="" />
    <EXPORT ORDINAL="3811" NAME="?handle@QAbstractFileEngine@@UEBAHXZ" PURGE="0" COMMENT="" />
    <EXPORT ORDINAL="3812" NAME="?handle@QFSFileEngine@@UEBAHXZ" PURGE="0" COMMENT="" />
    <EXPORT ORDINAL="3813" NAME="?handle@QFileDevice@@QEBAHXZ" PURGE="0" COMMENT="" />
    <EXPORT ORDINAL="3814" NAME="?handle@QWinEventNotifier@@QEBAPEAXXZ" PURGE="0" COMMENT="" />
    <EXPORT ORDINAL="3815" NAME="?handle@QWinRegistryKey@@QEBAPEAUHKEY__@@XZ" PURGE="0" COMMENT="" />
    <EXPORT ORDINAL="3816" NAME="?hasBidirectionalIterator@QMetaContainer@@QEBA_NXZ" PURGE="0" COMMENT="" />
    <EXPORT ORDINAL="3817" NAME="?hasBinding@QPropertyBindingData@QtPrivate@@QEBA_NXZ" PURGE="0" COMMENT="" />
    <EXPORT ORDINAL="3818" NAME="?hasCaptured@QRegularExpressionMatch@@QEBA_NAEBVQString@@@Z" PURGE="0" COMMENT="" />
    <EXPORT ORDINAL="3819" NAME="?hasCaptured@QRegularExpressionMatch@@QEBA_NH@Z" PURGE="0" COMMENT="" />
    <EXPORT ORDINAL="3820" NAME="?hasCaptured@QRegularExpressionMatch@@QEBA_NVQStringView@@@Z" PURGE="0" COMMENT="" />
    <EXPORT ORDINAL="3821" NAME="?hasChildren@QAbstractItemModel@@UEBA_NAEBVQModelIndex@@@Z" PURGE="0" COMMENT="" />
    <EXPORT ORDINAL="3822" NAME="?hasChildren@QAbstractListModel@@EEBA_NAEBVQModelIndex@@@Z" PURGE="0" COMMENT="" />
    <EXPORT ORDINAL="3823" NAME="?hasChildren@QAbstractProxyModel@@UEBA_NAEBVQModelIndex@@@Z" PURGE="0" COMMENT="" />
    <EXPORT ORDINAL="3824" NAME="?hasChildren@QAbstractTableModel@@EEBA_NAEBVQModelIndex@@@Z" PURGE="0" COMMENT="" />
    <EXPORT ORDINAL="3825" NAME="?hasChildren@QSortFilterProxyModel@@UEBA_NAEBVQModelIndex@@@Z" PURGE="0" COMMENT="" />
    <EXPORT ORDINAL="3826" NAME="?hasColor@QMimeData@@QEBA_NXZ" PURGE="0" COMMENT="" />
    <EXPORT ORDINAL="3827" NAME="?hasConstIterator@QMetaContainer@@QEBA_NXZ" PURGE="0" COMMENT="" />
    <EXPORT ORDINAL="3828" NAME="?hasCustomVTable@QPropertyBindingPrivate@@QEBA_NXZ" PURGE="0" COMMENT="" />
    <EXPORT ORDINAL="3829" NAME="?hasDaylightTime@QTimeZone@@QEBA_NXZ" PURGE="0" COMMENT="" />
    <EXPORT ORDINAL="3830" NAME="?hasError@QPropertyBindingError@@QEBA_NXZ" PURGE="0" COMMENT="" />
    <EXPORT ORDINAL="3831" NAME="?hasError@QXmlStreamReader@@QEBA_NXZ" PURGE="0" COMMENT="" />
    <EXPORT ORDINAL="3832" NAME="?hasError@QXmlStreamWriter@@QEBA_NXZ" PURGE="0" COMMENT="" />
    <EXPORT ORDINAL="3833" NAME="?hasException@ExceptionStore@QtPrivate@@QEBA_NXZ" PURGE="0" COMMENT="" />
    <EXPORT ORDINAL="3834" NAME="?hasException@QFutureInterfaceBase@@QEBA_NXZ" PURGE="0" COMMENT="" />
    <EXPORT ORDINAL="3835" NAME="?hasExpired@QDeadlineTimer@@QEBA_NXZ" PURGE="0" COMMENT="" />
    <EXPORT ORDINAL="3836" NAME="?hasExpired@QElapsedTimer@@QEBA_N_J@Z" PURGE="0" COMMENT="" />
    <EXPORT ORDINAL="3837" NAME="?hasFormat@QMimeData@@UEBA_NAEBVQString@@@Z" PURGE="0" COMMENT="" />
    <EXPORT ORDINAL="3838" NAME="?hasForwardIterator@QMetaContainer@@QEBA_NXZ" PURGE="0" COMMENT="" />
    <EXPORT ORDINAL="3839" NAME="?hasFragment@QUrl@@QEBA_NXZ" PURGE="0" COMMENT="" />
    <EXPORT ORDINAL="3840" NAME="?hasHtml@QMimeData@@QEBA_NXZ" PURGE="0" COMMENT="" />
    <EXPORT ORDINAL="3841" NAME="?hasImage@QMimeData@@QEBA_NXZ" PURGE="0" COMMENT="" />
    <EXPORT ORDINAL="3842" NAME="?hasIndex@QAbstractItemModel@@QEBA_NHHAEBVQModelIndex@@@Z" PURGE="0" COMMENT="" />
    <EXPORT ORDINAL="3843" NAME="?hasInputIterator@QMetaContainer@@QEBA_NXZ" PURGE="0" COMMENT="" />
    <EXPORT ORDINAL="3844" NAME="?hasIterator@QMetaContainer@@QEBA_NXZ" PURGE="0" COMMENT="" />
    <EXPORT ORDINAL="3845" NAME="?hasMatch@QRegularExpressionMatch@@QEBA_NXZ" PURGE="0" COMMENT="" />
    <EXPORT ORDINAL="3846" NAME="?hasMirrored@QChar@@QEBA_NXZ" PURGE="0" COMMENT="" />
    <EXPORT ORDINAL="3847" NAME="?hasMirrored@QChar@@SA_N_U@Z" PURGE="0" COMMENT="" />
    <EXPORT ORDINAL="3848" NAME="?hasNext@QCborStreamReader@@QEBA_NXZ" PURGE="0" COMMENT="" />
    <EXPORT ORDINAL="3849" NAME="?hasNext@QDirIterator@@QEBA_NXZ" PURGE="0" COMMENT="" />
    <EXPORT ORDINAL="3850" NAME="?hasNext@QRegularExpressionMatchIterator@@QEBA_NXZ" PURGE="0" COMMENT="" />
    <EXPORT ORDINAL="3851" NAME="?hasNextResult@ResultStoreBase@QtPrivate@@QEBA_NXZ" PURGE="0" COMMENT="" />
    <EXPORT ORDINAL="3852" NAME="?hasNotifySignal@QMetaProperty@@QEBA_NXZ" PURGE="0" COMMENT="" />
    <EXPORT ORDINAL="3853" NAME="?hasNotifySignal@QMetaPropertyBuilder@@QEBA_NXZ" PURGE="0" COMMENT="" />
    <EXPORT ORDINAL="3854" NAME="?hasPartialMatch@QRegularExpressionMatch@@QEBA_NXZ" PURGE="0" COMMENT="" />
    <EXPORT ORDINAL="3855" NAME="?hasQuery@QUrl@@QEBA_NXZ" PURGE="0" COMMENT="" />
    <EXPORT ORDINAL="3856" NAME="?hasQueryItem@QUrlQuery@@QEBA_NAEBVQString@@@Z" PURGE="0" COMMENT="" />
    <EXPORT ORDINAL="3857" NAME="?hasRandomAccessIterator@QMetaContainer@@QEBA_NXZ" PURGE="0" COMMENT="" />
    <EXPORT ORDINAL="3858" NAME="?hasRegisteredConverterFunction@QMetaType@@SA_NV1@0@Z" PURGE="0" COMMENT="" />
    <EXPORT ORDINAL="3859" NAME="?hasRegisteredDataStreamOperators@QMetaType@@QEBA_NXZ" PURGE="0" COMMENT="" />
    <EXPORT ORDINAL="3860" NAME="?hasRegisteredDebugStreamOperator@QMetaType@@QEBA_NXZ" PURGE="0" COMMENT="" />
    <EXPORT ORDINAL="3861" NAME="?hasRegisteredDebugStreamOperator@QMetaType@@SA_NH@Z" PURGE="0" COMMENT="" />
    <EXPORT ORDINAL="3862" NAME="?hasRegisteredMutableViewFunction@QMetaType@@SA_NV1@0@Z" PURGE="0" COMMENT="" />
    <EXPORT ORDINAL="3863" NAME="?hasSelection@QItemSelectionModel@@QEBA_NXZ" PURGE="0" COMMENT="" />
    <EXPORT ORDINAL="3864" NAME="?hasSize@QMetaContainer@@QEBA_NXZ" PURGE="0" COMMENT="" />
    <EXPORT ORDINAL="3865" NAME="?hasStandaloneDeclaration@QXmlStreamReader@@QEBA_NXZ" PURGE="0" COMMENT="" />
    <EXPORT ORDINAL="3866" NAME="?hasStdCppSet@QMetaProperty@@QEBA_NXZ" PURGE="0" COMMENT="" />
    <EXPORT ORDINAL="3867" NAME="?hasStdCppSet@QMetaPropertyBuilder@@QEBA_NXZ" PURGE="0" COMMENT="" />
    <EXPORT ORDINAL="3868" NAME="?hasText@QMimeData@@QEBA_NXZ" PURGE="0" COMMENT="" />
    <EXPORT ORDINAL="3869" NAME="?hasTransitions@QTimeZone@@QEBA_NXZ" PURGE="0" COMMENT="" />
    <EXPORT ORDINAL="3870" NAME="?hasUrls@QMimeData@@QEBA_NXZ" PURGE="0" COMMENT="" />
    <EXPORT ORDINAL="3871" NAME="?hasYearZero@QCalendar@@QEBA_NXZ" PURGE="0" COMMENT="" />
    <EXPORT ORDINAL="3872" NAME="?hasYearZero@QCalendarBackend@@UEBA_NXZ" PURGE="0" COMMENT="" />
    <EXPORT ORDINAL="3873" NAME="?hash@QCryptographicHash@@SA?AVQByteArray@@AEBV2@W4Algorithm@1@@Z" PURGE="0" COMMENT="" />
    <EXPORT ORDINAL="3874" NAME="?hash@QCryptographicHash@@SA?AVQByteArray@@VQByteArrayView@@W4Algorithm@1@@Z" PURGE="0" COMMENT="" />
    <EXPORT ORDINAL="3875" NAME="?hash@QMessageAuthenticationCode@@SA?AVQByteArray@@AEBV2@0W4Algorithm@QCryptographicHash@@@Z" PURGE="0" COMMENT="" />
    <EXPORT ORDINAL="3876" NAME="?hash@QMessageAuthenticationCode@@SA?AVQByteArray@@VQByteArrayView@@0W4Algorithm@QCryptographicHash@@@Z" PURGE="0" COMMENT="" />
    <EXPORT ORDINAL="3877" NAME="?hashLength@QCryptographicHash@@SAHW4Algorithm@1@@Z" PURGE="0" COMMENT="" />
    <EXPORT ORDINAL="3878" NAME="?headerData@QAbstractItemModel@@UEBA?AVQVariant@@HW4Orientation@Qt@@H@Z" PURGE="0" COMMENT="" />
    <EXPORT ORDINAL="3879" NAME="?headerData@QAbstractProxyModel@@UEBA?AVQVariant@@HW4Orientation@Qt@@H@Z" PURGE="0" COMMENT="" />
    <EXPORT ORDINAL="3880" NAME="?headerData@QConcatenateTablesProxyModel@@UEBA?AVQVariant@@HW4Orientation@Qt@@H@Z" PURGE="0" COMMENT="" />
    <EXPORT ORDINAL="3881" NAME="?headerData@QIdentityProxyModel@@UEBA?AVQVariant@@HW4Orientation@Qt@@H@Z" PURGE="0" COMMENT="" />
    <EXPORT ORDINAL="3882" NAME="?headerData@QSortFilterProxyModel@@UEBA?AVQVariant@@HW4Orientation@Qt@@H@Z" PURGE="0" COMMENT="" />
    <EXPORT ORDINAL="3883" NAME="?headerData@QTransposeProxyModel@@UEBA?AVQVariant@@HW4Orientation@Qt@@H@Z" PURGE="0" COMMENT="" />
    <EXPORT ORDINAL="3884" NAME="?headerDataChanged@QAbstractItemModel@@QEAAXW4Orientation@Qt@@HH@Z" PURGE="0" COMMENT="" />
    <EXPORT ORDINAL="3885" NAME="?height@QItemSelectionRange@@QEBAHXZ" PURGE="0" COMMENT="" />
    <EXPORT ORDINAL="3886" NAME="?height@QRect@@QEBAHXZ" PURGE="0" COMMENT="" />
    <EXPORT ORDINAL="3887" NAME="?height@QRectF@@QEBANXZ" PURGE="0" COMMENT="" />
    <EXPORT ORDINAL="3888" NAME="?height@QSize@@QEBAHXZ" PURGE="0" COMMENT="" />
    <EXPORT ORDINAL="3889" NAME="?height@QSizeF@@QEBANXZ" PURGE="0" COMMENT="" />
    <EXPORT ORDINAL="3890" NAME="?helpText@QCommandLineParser@@QEBA?AVQString@@XZ" PURGE="0" COMMENT="" />
    <EXPORT ORDINAL="3891" NAME="?hex@Qt@@YAAEAVQTextStream@@AEAV2@@Z" PURGE="0" COMMENT="" />
    <EXPORT ORDINAL="3892" NAME="?highSurrogate@QChar@@SA_S_U@Z" PURGE="0" COMMENT="" />
    <EXPORT ORDINAL="3893" NAME="?home@QDir@@SA?AV1@XZ" PURGE="0" COMMENT="" />
    <EXPORT ORDINAL="3894" NAME="?homePath@QDir@@SA?AVQString@@XZ" PURGE="0" COMMENT="" />
    <EXPORT ORDINAL="3895" NAME="?homePath@QFSFileEngine@@SA?AVQString@@XZ" PURGE="0" COMMENT="" />
    <EXPORT ORDINAL="3896" NAME="?host@QUrl@@QEBA?AVQString@@V?$QFlags@W4ComponentFormattingOption@QUrl@@@@@Z" PURGE="0" COMMENT="" />
    <EXPORT ORDINAL="3897" NAME="?hour@QTime@@QEBAHXZ" PURGE="0" COMMENT="" />
    <EXPORT ORDINAL="3898" NAME="?html@QMimeData@@QEBA?AVQString@@XZ" PURGE="0" COMMENT="" />
    <EXPORT ORDINAL="3899" NAME="?ianaIdToWindowsId@QTimeZone@@SA?AVQByteArray@@AEBV2@@Z" PURGE="0" COMMENT="" />
    <EXPORT ORDINAL="3900" NAME="?iconName@QMimeType@@QEBA?AVQString@@XZ" PURGE="0" COMMENT="" />
    <EXPORT ORDINAL="3901" NAME="?id@QAbstractFileEngine@@UEBA?AVQByteArray@@XZ" PURGE="0" COMMENT="" />
    <EXPORT ORDINAL="3902" NAME="?id@QFSFileEngine@@UEBA?AVQByteArray@@XZ" PURGE="0" COMMENT="" />
    <EXPORT ORDINAL="3903" NAME="?id@QMetaCallEvent@@QEBAHXZ" PURGE="0" COMMENT="" />
    <EXPORT ORDINAL="3904" NAME="?id@QMetaType@@QEBAHH@Z" PURGE="0" COMMENT="" />
    <EXPORT ORDINAL="3905" NAME="?id@QMetaType@@QEBAHXZ" PURGE="0" COMMENT="" />
    <EXPORT ORDINAL="3906" NAME="?id@QTimeZone@@QEBA?AVQByteArray@@XZ" PURGE="0" COMMENT="" />
    <EXPORT ORDINAL="3907" NAME="?idHelper@QMetaType@@AEBAHXZ" PURGE="0" COMMENT="" />
    <EXPORT ORDINAL="3908" NAME="?idealThreadCount@QThread@@SAHXZ" PURGE="0" COMMENT="" />
    <EXPORT ORDINAL="3909" NAME="?idnWhitelist@QUrl@@SA?AV?$QList@VQString@@@@XZ" PURGE="0" COMMENT="" />
    <EXPORT ORDINAL="3910" NAME="?idnaMapping@QUnicodeTables@@YA?AVQStringView@@_U@Z" PURGE="0" COMMENT="" />
    <EXPORT ORDINAL="3911" NAME="?idnaStatus@QUnicodeTables@@YA?AW4IdnaStatus@1@_U@Z" PURGE="0" COMMENT="" />
    <EXPORT ORDINAL="3912" NAME="?iface@QMetaAssociation@@QEBAPEBVQMetaAssociationInterface@QtMetaContainerPrivate@@XZ" PURGE="0" COMMENT="" />
    <EXPORT ORDINAL="3913" NAME="?iface@QMetaSequence@@QEBAPEBVQMetaSequenceInterface@QtMetaContainerPrivate@@XZ" PURGE="0" COMMENT="" />
    <EXPORT ORDINAL="3914" NAME="?iface@QMetaType@@QEAAPEBVQMetaTypeInterface@QtPrivate@@XZ" PURGE="0" COMMENT="" />
    <EXPORT ORDINAL="3915" NAME="?iface@QMetaType@@QEBAPEBVQMetaTypeInterface@QtPrivate@@XZ" PURGE="0" COMMENT="" />
    <EXPORT ORDINAL="3916" NAME="?ignore@QEvent@@QEAAXXZ" PURGE="0" COMMENT="" />
    <EXPORT ORDINAL="3917" NAME="?ignorePunctuation@QCollator@@QEBA_NXZ" PURGE="0" COMMENT="" />
    <EXPORT ORDINAL="3918" NAME="?imageData@QMimeData@@QEBA?AVQVariant@@XZ" PURGE="0" COMMENT="" />
    <EXPORT ORDINAL="3919" NAME="?index@QAbstractListModel@@UEBA?AVQModelIndex@@HHAEBV2@@Z" PURGE="0" COMMENT="" />
    <EXPORT ORDINAL="3920" NAME="?index@QAbstractTableModel@@UEBA?AVQModelIndex@@HHAEBV2@@Z" PURGE="0" COMMENT="" />
    <EXPORT ORDINAL="3921" NAME="?index@QConcatenateTablesProxyModel@@UEBA?AVQModelIndex@@HHAEBV2@@Z" PURGE="0" COMMENT="" />
    <EXPORT ORDINAL="3922" NAME="?index@QIdentityProxyModel@@UEBA?AVQModelIndex@@HHAEBV2@@Z" PURGE="0" COMMENT="" />
    <EXPORT ORDINAL="3923" NAME="?index@QMetaEnumBuilder@@QEBAHXZ" PURGE="0" COMMENT="" />
    <EXPORT ORDINAL="3924" NAME="?index@QMetaMethodBuilder@@QEBAHXZ" PURGE="0" COMMENT="" />
    <EXPORT ORDINAL="3925" NAME="?index@QMetaPropertyBuilder@@QEBAHXZ" PURGE="0" COMMENT="" />
    <EXPORT ORDINAL="3926" NAME="?index@QSortFilterProxyModel@@UEBA?AVQModelIndex@@HHAEBV2@@Z" PURGE="0" COMMENT="" />
    <EXPORT ORDINAL="3927" NAME="?index@QTransposeProxyModel@@UEBA?AVQModelIndex@@HHAEBV2@@Z" PURGE="0" COMMENT="" />
    <EXPORT ORDINAL="3928" NAME="?indexIn@QByteArrayMatcher@@QEBA_JAEBVQByteArray@@_J@Z" PURGE="0" COMMENT="" />
    <EXPORT ORDINAL="3929" NAME="?indexIn@QByteArrayMatcher@@QEBA_JPEBD_J1@Z" PURGE="0" COMMENT="" />
    <EXPORT ORDINAL="3930" NAME="?indexIn@QByteArrayMatcher@@QEBA_JVQByteArrayView@@_J@Z" PURGE="0" COMMENT="" />
    <EXPORT ORDINAL="3931" NAME="?indexIn@QLatin1StringMatcher@@QEBA_JVQLatin1String@@_J@Z" PURGE="0" COMMENT="" />
    <EXPORT ORDINAL="3932" NAME="?indexIn@QStringMatcher@@QEBA_JAEBVQString@@_J@Z" PURGE="0" COMMENT="" />
    <EXPORT ORDINAL="3933" NAME="?indexIn@QStringMatcher@@QEBA_JPEBVQChar@@_J1@Z" PURGE="0" COMMENT="" />
    <EXPORT ORDINAL="3934" NAME="?indexIn@QStringMatcher@@QEBA_JVQStringView@@_J@Z" PURGE="0" COMMENT="" />
    <EXPORT ORDINAL="3935" NAME="?indexOf@QByteArray@@QEBA_JD_J@Z" PURGE="0" COMMENT="" />
    <EXPORT ORDINAL="3936" NAME="?indexOf@QByteArray@@QEBA_JVQByteArrayView@@_J@Z" PURGE="0" COMMENT="" />
    <EXPORT ORDINAL="3937" NAME="?indexOf@QByteArrayView@@QEBA_JD_J@Z" PURGE="0" COMMENT="" />
    <EXPORT ORDINAL="3938" NAME="?indexOf@QByteArrayView@@QEBA_JV1@_J@Z" PURGE="0" COMMENT="" />
    <EXPORT ORDINAL="3939" NAME="?indexOf@QFactoryLoader@@QEBAHAEBVQString@@@Z" PURGE="0" COMMENT="" />
    <EXPORT ORDINAL="3940" NAME="?indexOf@QRingBuffer@@QEBA_JD_J0@Z" PURGE="0" COMMENT="" />
    <EXPORT ORDINAL="3941" NAME="?indexOf@QString@@QEBA_JAEBV1@_JW4CaseSensitivity@Qt@@@Z" PURGE="0" COMMENT="" />
    <EXPORT ORDINAL="3942" NAME="?indexOf@QString@@QEBA_JAEBVQRegularExpression@@_JPEAVQRegularExpressionMatch@@@Z" PURGE="0" COMMENT="" />
    <EXPORT ORDINAL="3943" NAME="?indexOf@QString@@QEBA_JVQChar@@_JW4CaseSensitivity@Qt@@@Z" PURGE="0" COMMENT="" />
    <EXPORT ORDINAL="3944" NAME="?indexOf@QString@@QEBA_JVQLatin1String@@_JW4CaseSensitivity@Qt@@@Z" PURGE="0" COMMENT="" />
    <EXPORT ORDINAL="3945" NAME="?indexOf@QString@@QEBA_JVQStringView@@_JW4CaseSensitivity@Qt@@@Z" PURGE="0" COMMENT="" />
    <EXPORT ORDINAL="3946" NAME="?indexOf@QtPrivate@@YA_JVQStringView@@AEBVQRegularExpression@@_JPEAVQRegularExpressionMatch@@@Z" PURGE="0" COMMENT="" />
    <EXPORT ORDINAL="3947" NAME="?indexOfAnimation@QAnimationGroup@@QEBAHPEAVQAbstractAnimation@@@Z" PURGE="0" COMMENT="" />
    <EXPORT ORDINAL="3948" NAME="?indexOfClassInfo@QMetaObject@@QEBAHPEBD@Z" PURGE="0" COMMENT="" />
    <EXPORT ORDINAL="3949" NAME="?indexOfClassInfo@QMetaObjectBuilder@@QEAAHAEBVQByteArray@@@Z" PURGE="0" COMMENT="" />
    <EXPORT ORDINAL="3950" NAME="?indexOfConstructor@QMetaObject@@QEBAHPEBD@Z" PURGE="0" COMMENT="" />
    <EXPORT ORDINAL="3951" NAME="?indexOfConstructor@QMetaObjectBuilder@@QEAAHAEBVQByteArray@@@Z" PURGE="0" COMMENT="" />
    <EXPORT ORDINAL="3952" NAME="?indexOfEnumerator@QMetaObject@@QEBAHPEBD@Z" PURGE="0" COMMENT="" />
    <EXPORT ORDINAL="3953" NAME="?indexOfEnumerator@QMetaObjectBuilder@@QEAAHAEBVQByteArray@@@Z" PURGE="0" COMMENT="" />
    <EXPORT ORDINAL="3954" NAME="?indexOfIn@QStaticByteArrayMatcherBase@@IEBAHPEBDI0HH@Z" PURGE="0" COMMENT="" />
    <EXPORT ORDINAL="3955" NAME="?indexOfIn@QStaticByteArrayMatcherBase@@IEBA_JPEBD_K0_J2@Z" PURGE="0" COMMENT="" />
    <EXPORT ORDINAL="3956" NAME="?indexOfMethod@QMetaObject@@QEBAHPEBD@Z" PURGE="0" COMMENT="" />
    <EXPORT ORDINAL="3957" NAME="?indexOfMethod@QMetaObjectBuilder@@QEAAHAEBVQByteArray@@@Z" PURGE="0" COMMENT="" />
    <EXPORT ORDINAL="3958" NAME="?indexOfProperty@QMetaObject@@QEBAHPEBD@Z" PURGE="0" COMMENT="" />
    <EXPORT ORDINAL="3959" NAME="?indexOfProperty@QMetaObjectBuilder@@QEAAHAEBVQByteArray@@@Z" PURGE="0" COMMENT="" />
    <EXPORT ORDINAL="3960" NAME="?indexOfSignal@QMetaObject@@QEBAHPEBD@Z" PURGE="0" COMMENT="" />
    <EXPORT ORDINAL="3961" NAME="?indexOfSignal@QMetaObjectBuilder@@QEAAHAEBVQByteArray@@@Z" PURGE="0" COMMENT="" />
    <EXPORT ORDINAL="3962" NAME="?indexOfSlot@QMetaObject@@QEBAHPEBD@Z" PURGE="0" COMMENT="" />
    <EXPORT ORDINAL="3963" NAME="?indexOfSlot@QMetaObjectBuilder@@QEAAHAEBVQByteArray@@@Z" PURGE="0" COMMENT="" />
    <EXPORT ORDINAL="3964" NAME="?indexValid@QAbstractItemModelPrivate@@QEBA_NAEBVQModelIndex@@@Z" PURGE="0" COMMENT="" />
    <EXPORT ORDINAL="3965" NAME="?indexes@QItemSelection@@QEBA?AV?$QList@VQModelIndex@@@@XZ" PURGE="0" COMMENT="" />
    <EXPORT ORDINAL="3966" NAME="?indexes@QItemSelectionRange@@QEBA?AV?$QList@VQModelIndex@@@@XZ" PURGE="0" COMMENT="" />
    <EXPORT ORDINAL="3967" NAME="?info@QMessageLogger@@QEBA?AVQDebug@@AEBVQLoggingCategory@@@Z" PURGE="0" COMMENT="" />
    <EXPORT ORDINAL="3968" NAME="?info@QMessageLogger@@QEBA?AVQDebug@@P6AAEBVQLoggingCategory@@XZ@Z" PURGE="0" COMMENT="" />
    <EXPORT ORDINAL="3969" NAME="?info@QMessageLogger@@QEBA?AVQDebug@@XZ" PURGE="0" COMMENT="" />
    <EXPORT ORDINAL="3970" NAME="?info@QMessageLogger@@QEBAXAEBVQLoggingCategory@@PEBDZZ" PURGE="0" COMMENT="" />
    <EXPORT ORDINAL="3971" NAME="?info@QMessageLogger@@QEBAXP6AAEBVQLoggingCategory@@XZPEBDZZ" PURGE="0" COMMENT="" />
    <EXPORT ORDINAL="3972" NAME="?info@QMessageLogger@@QEBAXPEBDZZ" PURGE="0" COMMENT="" />
    <EXPORT ORDINAL="3973" NAME="?inherits@QMetaObject@@QEBA_NPEBU1@@Z" PURGE="0" COMMENT="" />
    <EXPORT ORDINAL="3974" NAME="?inherits@QMimeType@@QEBA_NAEBVQString@@@Z" PURGE="0" COMMENT="" />
    <EXPORT ORDINAL="3975" NAME="?inherits@QObject@@QEBA_NPEBD@Z" PURGE="0" COMMENT="" />
    <EXPORT ORDINAL="3976" NAME="?inheritsFromParent@QProcessEnvironment@@QEBA_NXZ" PURGE="0" COMMENT="" />
    <EXPORT ORDINAL="3977" NAME="?init@QCoreApplicationPrivate@@QEAAXXZ" PURGE="0" COMMENT="" />
    <EXPORT ORDINAL="3978" NAME="?init@QLoggingCategory@@AEAAXPEBDW4QtMsgType@@@Z" PURGE="0" COMMENT="" />
    <EXPORT ORDINAL="3979" NAME="?initBindingStatusThreadId@QtPrivate@@YAXXZ" PURGE="0" COMMENT="" />
    <EXPORT ORDINAL="3980" NAME="?initCharAttributes@QUnicodeTools@@YAXVQStringView@@PEBUScriptItem@1@_JPEAUQCharAttributes@@V?$QFlags@W4CharAttributeOption@QUnicodeTools@@@@@Z" PURGE="0" COMMENT="" />
    <EXPORT ORDINAL="3981" NAME="?initConsole@QCoreApplicationPrivate@@QEAAXXZ" PURGE="0" COMMENT="" />
    <EXPORT ORDINAL="3982" NAME="?initIterator@?$QBaseIterator@VQMetaAssociation@@@@IEAAXPEBX@Z" PURGE="0" COMMENT="" />
    <EXPORT ORDINAL="3983" NAME="?initIterator@?$QBaseIterator@VQMetaSequence@@@@IEAAXPEBX@Z" PURGE="0" COMMENT="" />
    <EXPORT ORDINAL="3984" NAME="?initLocale@QCoreApplicationPrivate@@SAXXZ" PURGE="0" COMMENT="" />
    <EXPORT ORDINAL="3985" NAME="?initRecursive@QReadWriteLock@@CAPEAVQReadWriteLockPrivate@@XZ" PURGE="0" COMMENT="" />
    <EXPORT ORDINAL="3986" NAME="?initScripts@QUnicodeTools@@YAXVQStringView@@PEAV?$QVarLengthArray@UScriptItem@QUnicodeTools@@$0EA@@@@Z" PURGE="0" COMMENT="" />
    <EXPORT ORDINAL="3987" NAME="?inputChannelMode@QProcess@@QEBA?AW4InputChannelMode@1@XZ" PURGE="0" COMMENT="" />
    <EXPORT ORDINAL="3988" NAME="?insert@QByteArray@@QEAAAEAV1@_J0D@Z" PURGE="0" COMMENT="" />
    <EXPORT ORDINAL="3989" NAME="?insert@QByteArray@@QEAAAEAV1@_JAEBV1@@Z" PURGE="0" COMMENT="" />
    <EXPORT ORDINAL="3990" NAME="?insert@QByteArray@@QEAAAEAV1@_JD@Z" PURGE="0" COMMENT="" />
    <EXPORT ORDINAL="3991" NAME="?insert@QByteArray@@QEAAAEAV1@_JPEBD0@Z" PURGE="0" COMMENT="" />
    <EXPORT ORDINAL="3992" NAME="?insert@QByteArray@@QEAAAEAV1@_JPEBD@Z" PURGE="0" COMMENT="" />
    <EXPORT ORDINAL="3993" NAME="?insert@QByteArray@@QEAAAEAV1@_JVQByteArrayView@@@Z" PURGE="0" COMMENT="" />
    <EXPORT ORDINAL="3994" NAME="?insert@QCborArray@@QEAA?AVIterator@1@V21@AEBVQCborValue@@@Z" PURGE="0" COMMENT="" />
    <EXPORT ORDINAL="3995" NAME="?insert@QCborArray@@QEAA?AVIterator@1@VConstIterator@1@AEBVQCborValue@@@Z" PURGE="0" COMMENT="" />
    <EXPORT ORDINAL="3996" NAME="?insert@QCborArray@@QEAAX_J$$QEAVQCborValue@@@Z" PURGE="0" COMMENT="" />
    <EXPORT ORDINAL="3997" NAME="?insert@QCborArray@@QEAAX_JAEBVQCborValue@@@Z" PURGE="0" COMMENT="" />
    <EXPORT ORDINAL="3998" NAME="?insert@QCborMap@@QEAA?AVIterator@1@AEBVQCborValue@@0@Z" PURGE="0" COMMENT="" />
    <EXPORT ORDINAL="3999" NAME="?insert@QCborMap@@QEAA?AVIterator@1@AEBVQString@@AEBVQCborValue@@@Z" PURGE="0" COMMENT="" />
    <EXPORT ORDINAL="4000" NAME="?insert@QCborMap@@QEAA?AVIterator@1@U?$pair@VQCborValue@@V1@@std@@@Z" PURGE="0" COMMENT="" />
    <EXPORT ORDINAL="4001" NAME="?insert@QCborMap@@QEAA?AVIterator@1@VQLatin1String@@AEBVQCborValue@@@Z" PURGE="0" COMMENT="" />
    <EXPORT ORDINAL="4002" NAME="?insert@QCborMap@@QEAA?AVIterator@1@_JAEBVQCborValue@@@Z" PURGE="0" COMMENT="" />
    <EXPORT ORDINAL="4003" NAME="?insert@QJsonArray@@QEAA?AViterator@1@V21@AEBVQJsonValue@@@Z" PURGE="0" COMMENT="" />
    <EXPORT ORDINAL="4004" NAME="?insert@QJsonArray@@QEAAX_JAEBVQJsonValue@@@Z" PURGE="0" COMMENT="" />
    <EXPORT ORDINAL="4005" NAME="?insert@QJsonObject@@QEAA?AViterator@1@AEBVQString@@AEBVQJsonValue@@@Z" PURGE="0" COMMENT="" />
    <EXPORT ORDINAL="4006" NAME="?insert@QJsonObject@@QEAA?AViterator@1@VQLatin1String@@AEBVQJsonValue@@@Z" PURGE="0" COMMENT="" />
    <EXPORT ORDINAL="4007" NAME="?insert@QJsonObject@@QEAA?AViterator@1@VQStringView@@AEBVQJsonValue@@@Z" PURGE="0" COMMENT="" />
    <EXPORT ORDINAL="4008" NAME="?insert@QProcessEnvironment@@QEAAXAEBV1@@Z" PURGE="0" COMMENT="" />
    <EXPORT ORDINAL="4009" NAME="?insert@QProcessEnvironment@@QEAAXAEBVQString@@0@Z" PURGE="0" COMMENT="" />
    <EXPORT ORDINAL="4010" NAME="?insert@QString@@QEAAAEAV1@_JAEBV1@@Z" PURGE="0" COMMENT="" />
    <EXPORT ORDINAL="4011" NAME="?insert@QString@@QEAAAEAV1@_JAEBVQByteArray@@@Z" PURGE="0" COMMENT="" />
    <EXPORT ORDINAL="4012" NAME="?insert@QString@@QEAAAEAV1@_JPEBD@Z" PURGE="0" COMMENT="" />
    <EXPORT ORDINAL="4013" NAME="?insert@QString@@QEAAAEAV1@_JPEBVQChar@@0@Z" PURGE="0" COMMENT="" />
    <EXPORT ORDINAL="4014" NAME="?insert@QString@@QEAAAEAV1@_JV?$QBasicUtf8StringView@$0A@@@@Z" PURGE="0" COMMENT="" />
    <EXPORT ORDINAL="4015" NAME="?insert@QString@@QEAAAEAV1@_JVQChar@@@Z" PURGE="0" COMMENT="" />
    <EXPORT ORDINAL="4016" NAME="?insert@QString@@QEAAAEAV1@_JVQLatin1String@@@Z" PURGE="0" COMMENT="" />
    <EXPORT ORDINAL="4017" NAME="?insert@QString@@QEAAAEAV1@_JVQStringView@@@Z" PURGE="0" COMMENT="" />
    <EXPORT ORDINAL="4018" NAME="?insertAnimation@QAnimationGroup@@QEAAXHPEAVQAbstractAnimation@@@Z" PURGE="0" COMMENT="" />
    <EXPORT ORDINAL="4019" NAME="?insertColumn@QAbstractItemModel@@QEAA_NHAEBVQModelIndex@@@Z" PURGE="0" COMMENT="" />
    <EXPORT ORDINAL="4020" NAME="?insertColumns@QAbstractItemModel@@UEAA_NHHAEBVQModelIndex@@@Z" PURGE="0" COMMENT="" />
    <EXPORT ORDINAL="4021" NAME="?insertColumns@QIdentityProxyModel@@UEAA_NHHAEBVQModelIndex@@@Z" PURGE="0" COMMENT="" />
    <EXPORT ORDINAL="4022" NAME="?insertColumns@QSortFilterProxyModel@@UEAA_NHHAEBVQModelIndex@@@Z" PURGE="0" COMMENT="" />
    <EXPORT ORDINAL="4023" NAME="?insertColumns@QTransposeProxyModel@@UEAA_NHHAEBVQModelIndex@@@Z" PURGE="0" COMMENT="" />
    <EXPORT ORDINAL="4024" NAME="?insertKey@QAssociativeIterable@@QEAAXAEBVQVariant@@@Z" PURGE="0" COMMENT="" />
    <EXPORT ORDINAL="4025" NAME="?insertKey@QMetaAssociation@@QEBAXPEAXPEBX@Z" PURGE="0" COMMENT="" />
    <EXPORT ORDINAL="4026" NAME="?insertPause@QSequentialAnimationGroup@@QEAAPEAVQPauseAnimation@@HH@Z" PURGE="0" COMMENT="" />
    <EXPORT ORDINAL="4027" NAME="?insertResultItem@ResultStoreBase@QtPrivate@@IEAAHHAEAVResultItem@2@@Z" PURGE="0" COMMENT="" />
    <EXPORT ORDINAL="4028" NAME="?insertResultItemIfValid@ResultStoreBase@QtPrivate@@IEAAXHAEAVResultItem@2@@Z" PURGE="0" COMMENT="" />
    <EXPORT ORDINAL="4029" NAME="?insertRow@QAbstractItemModel@@QEAA_NHAEBVQModelIndex@@@Z" PURGE="0" COMMENT="" />
    <EXPORT ORDINAL="4030" NAME="?insertRows@QAbstractItemModel@@UEAA_NHHAEBVQModelIndex@@@Z" PURGE="0" COMMENT="" />
    <EXPORT ORDINAL="4031" NAME="?insertRows@QIdentityProxyModel@@UEAA_NHHAEBVQModelIndex@@@Z" PURGE="0" COMMENT="" />
    <EXPORT ORDINAL="4032" NAME="?insertRows@QSortFilterProxyModel@@UEAA_NHHAEBVQModelIndex@@@Z" PURGE="0" COMMENT="" />
    <EXPORT ORDINAL="4033" NAME="?insertRows@QStringListModel@@UEAA_NHHAEBVQModelIndex@@@Z" PURGE="0" COMMENT="" />
    <EXPORT ORDINAL="4034" NAME="?insertRows@QTransposeProxyModel@@UEAA_NHHAEBVQModelIndex@@@Z" PURGE="0" COMMENT="" />
    <EXPORT ORDINAL="4035" NAME="?insertValueAtIterator@QMetaSequence@@QEBAXPEAXPEBX1@Z" PURGE="0" COMMENT="" />
    <EXPORT ORDINAL="4036" NAME="?install@QAnimationDriver@@QEAAXXZ" PURGE="0" COMMENT="" />
    <EXPORT ORDINAL="4037" NAME="?installAnimationDriver@QUnifiedTimer@@QEAAXPEAVQAnimationDriver@@@Z" PURGE="0" COMMENT="" />
    <EXPORT ORDINAL="4038" NAME="?installEventFilter@QObject@@QEAAXPEAV1@@Z" PURGE="0" COMMENT="" />
    <EXPORT ORDINAL="4039" NAME="?installFilter@QLoggingCategory@@SAP6AXPEAV1@@ZP6AX0@Z@Z" PURGE="0" COMMENT="" />
    <EXPORT ORDINAL="4040" NAME="?installNativeEventFilter@QAbstractEventDispatcher@@QEAAXPEAVQAbstractNativeEventFilter@@@Z" PURGE="0" COMMENT="" />
    <EXPORT ORDINAL="4041" NAME="?installNativeEventFilter@QCoreApplication@@QEAAXPEAVQAbstractNativeEventFilter@@@Z" PURGE="0" COMMENT="" />
    <EXPORT ORDINAL="4042" NAME="?installTranslator@QCoreApplication@@SA_NPEAVQTranslator@@@Z" PURGE="0" COMMENT="" />
    <EXPORT ORDINAL="4043" NAME="?instance@QAbstractEventDispatcher@@SAPEAV1@PEAVQThread@@@Z" PURGE="0" COMMENT="" />
    <EXPORT ORDINAL="4044" NAME="?instance@QCoreApplication@@SAPEAV1@XZ" PURGE="0" COMMENT="" />
    <EXPORT ORDINAL="4045" NAME="?instance@QFactoryLoader@@QEBAPEAVQObject@@H@Z" PURGE="0" COMMENT="" />
    <EXPORT ORDINAL="4046" NAME="?instance@QPluginLoader@@QEAAPEAVQObject@@XZ" PURGE="0" COMMENT="" />
    <EXPORT ORDINAL="4047" NAME="?instance@QUnifiedTimer@@SAPEAV1@XZ" PURGE="0" COMMENT="" />
    <EXPORT ORDINAL="4048" NAME="?instance@QUnifiedTimer@@SAPEAV1@_N@Z" PURGE="0" COMMENT="" />
    <EXPORT ORDINAL="4049" NAME="?integerBase@QTextStream@@QEBAHXZ" PURGE="0" COMMENT="" />
    <EXPORT ORDINAL="4050" NAME="?internalHwnd@QEventDispatcherWin32@@QEAAPEAUHWND__@@XZ" PURGE="0" COMMENT="" />
    <EXPORT ORDINAL="4051" NAME="?internalId@QPersistentModelIndex@@QEBA_KXZ" PURGE="0" COMMENT="" />
    <EXPORT ORDINAL="4052" NAME="?internalPointer@QPersistentModelIndex@@QEBAPEAXXZ" PURGE="0" COMMENT="" />
    <EXPORT ORDINAL="4053" NAME="?internalSafetyCheckAdd@QtSharedPointer@@YAXPEBXPEDX@Z" PURGE="0" COMMENT="" />
    <EXPORT ORDINAL="4054" NAME="?internalSafetyCheckRemove@QtSharedPointer@@YAXPEBX@Z" PURGE="0" COMMENT="" />
    <EXPORT ORDINAL="4055" NAME="?interpolated@QVariantAnimation@@MEBA?AVQVariant@@AEBV2@0N@Z" PURGE="0" COMMENT="" />
    <EXPORT ORDINAL="4056" NAME="?interrupt@QEventDispatcherWin32@@UEAAXXZ" PURGE="2147483647" COMMENT="" />
    <EXPORT ORDINAL="4057" NAME="?intersected@QItemSelectionRange@@QEBA?AV1@AEBV1@@Z" PURGE="0" COMMENT="" />
    <EXPORT ORDINAL="4058" NAME="?intersected@QRect@@QEBA?AV1@AEBV1@@Z" PURGE="0" COMMENT="" />
    <EXPORT ORDINAL="4059" NAME="?intersected@QRectF@@QEBA?AV1@AEBV1@@Z" PURGE="0" COMMENT="" />
    <EXPORT ORDINAL="4060" NAME="?intersects@QItemSelectionRange@@QEBA_NAEBV1@@Z" PURGE="0" COMMENT="" />
    <EXPORT ORDINAL="4061" NAME="?intersects@QLineF@@QEBA?AW4IntersectionType@1@AEBV1@PEAVQPointF@@@Z" PURGE="0" COMMENT="" />
    <EXPORT ORDINAL="4062" NAME="?intersects@QRect@@QEBA_NAEBV1@@Z" PURGE="0" COMMENT="" />
    <EXPORT ORDINAL="4063" NAME="?intersects@QRectF@@QEBA_NAEBV1@@Z" PURGE="0" COMMENT="" />
    <EXPORT ORDINAL="4064" NAME="?interval@QTimer@@QEBAHXZ" PURGE="0" COMMENT="" />
    <EXPORT ORDINAL="4065" NAME="?intervalAsDuration@QTimer@@QEBA?AV?$duration@_JU?$ratio@$00$0DOI@@std@@@chrono@std@@XZ" PURGE="0" COMMENT="" />
    <EXPORT ORDINAL="4066" NAME="?invalidate@QElapsedTimer@@QEAAXXZ" PURGE="0" COMMENT="" />
    <EXPORT ORDINAL="4067" NAME="?invalidate@QSortFilterProxyModel@@QEAAXXZ" PURGE="0" COMMENT="" />
    <EXPORT ORDINAL="4068" NAME="?invalidateColumnsFilter@QSortFilterProxyModel@@IEAAXXZ" PURGE="0" COMMENT="" />
    <EXPORT ORDINAL="4069" NAME="?invalidateFilter@QSortFilterProxyModel@@IEAAXXZ" PURGE="0" COMMENT="" />
    <EXPORT ORDINAL="4070" NAME="?invalidatePersistentIndex@QAbstractItemModelPrivate@@QEAAXAEBVQModelIndex@@@Z" PURGE="0" COMMENT="" />
    <EXPORT ORDINAL="4071" NAME="?invalidatePersistentIndexes@QAbstractItemModelPrivate@@QEAAXXZ" PURGE="0" COMMENT="" />
    <EXPORT ORDINAL="4072" NAME="?invalidateRowsFilter@QSortFilterProxyModel@@IEAAXXZ" PURGE="0" COMMENT="" />
    <EXPORT ORDINAL="4073" NAME="?inverted_inplace@QBitArray@@AEHAA?AV1@XZ" PURGE="0" COMMENT="" />
    <EXPORT ORDINAL="4074" NAME="?invoke@QMetaMethod@@QEBA_NPEAVQObject@@VQGenericArgument@@111111111@Z" PURGE="0" COMMENT="" />
    <EXPORT ORDINAL="4075" NAME="?invoke@QMetaMethod@@QEBA_NPEAVQObject@@VQGenericReturnArgument@@VQGenericArgument@@222222222@Z" PURGE="0" COMMENT="" />
    <EXPORT ORDINAL="4076" NAME="?invoke@QMetaMethod@@QEBA_NPEAVQObject@@W4ConnectionType@Qt@@VQGenericArgument@@222222222@Z" PURGE="0" COMMENT="" />
    <EXPORT ORDINAL="4077" NAME="?invoke@QMetaMethod@@QEBA_NPEAVQObject@@W4ConnectionType@Qt@@VQGenericReturnArgument@@VQGenericArgument@@333333333@Z" PURGE="0" COMMENT="" />
    <EXPORT ORDINAL="4078" NAME="?invokeImpl@QMetaMethod@@CA_NV1@PEAXW4ConnectionType@Qt@@_JPEBQEBXPEBQEBDPEBQEBVQMetaTypeInterface@QtPrivate@@@Z" PURGE="0" COMMENT="" />
    <EXPORT ORDINAL="4079" NAME="?invokeImpl@QMetaMethodInvoker@@SA?AW4InvokeFailReason@1@VQMetaMethod@@PEAXW4ConnectionType@Qt@@_JPEBQEBXPEBQEBDPEBQEBVQMetaTypeInterface@QtPrivate@@@Z" PURGE="0" COMMENT="" />
    <EXPORT ORDINAL="4080" NAME="?invokeMethod@QMetaObject@@SA_NPEAVQObject@@PEBDVQGenericArgument@@222222222@Z" PURGE="0" COMMENT="" />
    <EXPORT ORDINAL="4081" NAME="?invokeMethod@QMetaObject@@SA_NPEAVQObject@@PEBDVQGenericReturnArgument@@VQGenericArgument@@333333333@Z" PURGE="0" COMMENT="" />
    <EXPORT ORDINAL="4082" NAME="?invokeMethod@QMetaObject@@SA_NPEAVQObject@@PEBDW4ConnectionType@Qt@@VQGenericArgument@@333333333@Z" PURGE="0" COMMENT="" />
    <EXPORT ORDINAL="4083" NAME="?invokeMethod@QMetaObject@@SA_NPEAVQObject@@PEBDW4ConnectionType@Qt@@VQGenericReturnArgument@@VQGenericArgument@@444444444@Z" PURGE="0" COMMENT="" />
    <EXPORT ORDINAL="4084" NAME="?invokeMethodImpl@QMetaObject@@CA_NPEAVQObject@@PEAVQSlotObjectBase@QtPrivate@@W4ConnectionType@Qt@@PEAX@Z" PURGE="0" COMMENT="" />
    <EXPORT ORDINAL="4085" NAME="?invokeMethodImpl@QMetaObject@@CA_NPEAVQObject@@PEAVQSlotObjectBase@QtPrivate@@W4ConnectionType@Qt@@_JPEBQEBXPEBQEBDPEBQEBVQMetaTypeInterface@4@@Z" PURGE="0" COMMENT="" />
    <EXPORT ORDINAL="4086" NAME="?invokeMethodImpl@QMetaObject@@CA_NPEAVQObject@@PEBDW4ConnectionType@Qt@@_JPEBQEBXPEBQEBDPEBQEBVQMetaTypeInterface@QtPrivate@@@Z" PURGE="0" COMMENT="" />
    <EXPORT ORDINAL="4087" NAME="?invokeOnGadget@QMetaMethod@@QEBA_NPEAXVQGenericArgument@@111111111@Z" PURGE="0" COMMENT="" />
    <EXPORT ORDINAL="4088" NAME="?invokeOnGadget@QMetaMethod@@QEBA_NPEAXVQGenericReturnArgument@@VQGenericArgument@@222222222@Z" PURGE="0" COMMENT="" />
    <EXPORT ORDINAL="4089" NAME="?isAbsolute@QDir@@QEBA_NXZ" PURGE="0" COMMENT="" />
    <EXPORT ORDINAL="4090" NAME="?isAbsolute@QFileInfo@@QEBA_NXZ" PURGE="0" COMMENT="" />
    <EXPORT ORDINAL="4091" NAME="?isAbsolutePath@QDir@@SA_NAEBVQString@@@Z" PURGE="0" COMMENT="" />
    <EXPORT ORDINAL="4092" NAME="?isAccepted@QEvent@@QEBA_NXZ" PURGE="0" COMMENT="" />
    <EXPORT ORDINAL="4093" NAME="?isActive@QBasicTimer@@QEBA_NXZ" PURGE="0" COMMENT="" />
    <EXPORT ORDINAL="4094" NAME="?isActive@QTimer@@QEBA_NXZ" PURGE="0" COMMENT="" />
    <EXPORT ORDINAL="4095" NAME="?isAlias@QFileInfo@@QEBA_NXZ" PURGE="0" COMMENT="" />
    <EXPORT ORDINAL="4096" NAME="?isAlias@QMetaProperty@@QEBA_NXZ" PURGE="0" COMMENT="" />
    <EXPORT ORDINAL="4097" NAME="?isAlias@QMetaPropertyBuilder@@QEBA_NXZ" PURGE="0" COMMENT="" />
    <EXPORT ORDINAL="4098" NAME="?isAnyBindingEvaluating@QtPrivate@@YA_NXZ" PURGE="0" COMMENT="" />
    <EXPORT ORDINAL="4099" NAME="?isAnyOfType@QOperatingSystemVersion@@QEBA_NV?$initializer_list@W4OSType@QOperatingSystemVersion@@@std@@@Z" PURGE="0" COMMENT="" />
    <EXPORT ORDINAL="4100" NAME="?isAnyOfType@QOperatingSystemVersionBase@@SA_NV?$initializer_list@W4OSType@QOperatingSystemVersionBase@@@std@@W4OSType@1@@Z" PURGE="0" COMMENT="" />
    <EXPORT ORDINAL="4101" NAME="?isArray@QCborStreamReader@@QEBA_NXZ" PURGE="0" COMMENT="" />
    <EXPORT ORDINAL="4102" NAME="?isArray@QCborValue@@QEBA_NXZ" PURGE="0" COMMENT="" />
    <EXPORT ORDINAL="4103" NAME="?isArray@QCborValueRef@@QEBA_NXZ" PURGE="0" COMMENT="" />
    <EXPORT ORDINAL="4104" NAME="?isArray@QJsonDocument@@QEBA_NXZ" PURGE="0" COMMENT="" />
    <EXPORT ORDINAL="4105" NAME="?isArray@QJsonValue@@QEBA_NXZ" PURGE="0" COMMENT="" />
    <EXPORT ORDINAL="4106" NAME="?isArray@QJsonValueRef@@QEBA_NXZ" PURGE="0" COMMENT="" />
    <EXPORT ORDINAL="4107" NAME="?isAscii@QtPrivate@@YA_NVQLatin1String@@@Z" PURGE="0" COMMENT="" />
    <EXPORT ORDINAL="4108" NAME="?isAscii@QtPrivate@@YA_NVQStringView@@@Z" PURGE="0" COMMENT="" />
    <EXPORT ORDINAL="4109" NAME="?isAtBoundary@QTextBoundaryFinder@@QEBA_NXZ" PURGE="0" COMMENT="" />
    <EXPORT ORDINAL="4110" NAME="?isAtomicSyncRequired@QSettings@@QEBA_NXZ" PURGE="0" COMMENT="" />
    <EXPORT ORDINAL="4111" NAME="?isAttached@QSharedMemory@@QEBA_NXZ" PURGE="0" COMMENT="" />
    <EXPORT ORDINAL="4112" NAME="?isBaseChar@QXmlUtils@@CA_NVQChar@@@Z" PURGE="0" COMMENT="" />
    <EXPORT ORDINAL="4113" NAME="?isBindable@QMetaProperty@@QEBA_NXZ" PURGE="0" COMMENT="" />
    <EXPORT ORDINAL="4114" NAME="?isBindable@QMetaPropertyBuilder@@QEBA_NXZ" PURGE="0" COMMENT="" />
    <EXPORT ORDINAL="4115" NAME="?isBool@QCborStreamReader@@QEBA_NXZ" PURGE="0" COMMENT="" />
    <EXPORT ORDINAL="4116" NAME="?isBool@QCborValue@@QEBA_NXZ" PURGE="0" COMMENT="" />
    <EXPORT ORDINAL="4117" NAME="?isBool@QCborValueRef@@QEBA_NXZ" PURGE="0" COMMENT="" />
    <EXPORT ORDINAL="4118" NAME="?isBool@QJsonValue@@QEBA_NXZ" PURGE="0" COMMENT="" />
    <EXPORT ORDINAL="4119" NAME="?isBool@QJsonValueRef@@QEBA_NXZ" PURGE="0" COMMENT="" />
    <EXPORT ORDINAL="4120" NAME="?isBufferEmpty@QIODevicePrivate@@QEBA_NXZ" PURGE="0" COMMENT="" />
    <EXPORT ORDINAL="4121" NAME="?isBuiltinType@QtPrivate@@YA_NAEBVQByteArray@@@Z" PURGE="0" COMMENT="" />
    <EXPORT ORDINAL="4122" NAME="?isBundle@QFileInfo@@QEBA_NXZ" PURGE="0" COMMENT="" />
    <EXPORT ORDINAL="4123" NAME="?isByteArray@QCborStreamReader@@QEBA_NXZ" PURGE="0" COMMENT="" />
    <EXPORT ORDINAL="4124" NAME="?isByteArray@QCborValue@@QEBA_NXZ" PURGE="0" COMMENT="" />
    <EXPORT ORDINAL="4125" NAME="?isByteArray@QCborValueRef@@QEBA_NXZ" PURGE="0" COMMENT="" />
    <EXPORT ORDINAL="4126" NAME="?isCDATA@QXmlStreamReader@@QEBA_NXZ" PURGE="0" COMMENT="" />
    <EXPORT ORDINAL="4127" NAME="?isCanceled@QFutureInterfaceBase@@QEBA_NXZ" PURGE="0" COMMENT="" />
    <EXPORT ORDINAL="4128" NAME="?isCanceled@QFutureWatcherBase@@QEBA_NXZ" PURGE="0" COMMENT="" />
    <EXPORT ORDINAL="4129" NAME="?isChainCanceled@QFutureInterfaceBase@@QEBA_NXZ" PURGE="0" COMMENT="" />
    <EXPORT ORDINAL="4130" NAME="?isChar@QXmlUtils@@SA_N_U@Z" PURGE="0" COMMENT="" />
    <EXPORT ORDINAL="4131" NAME="?isCharacters@QXmlStreamReader@@QEBA_NXZ" PURGE="0" COMMENT="" />
    <EXPORT ORDINAL="4132" NAME="?isColumnSelected@QItemSelectionModel@@QEBA_NHAEBVQModelIndex@@@Z" PURGE="0" COMMENT="" />
    <EXPORT ORDINAL="4133" NAME="?isCombiningChar@QXmlUtils@@CA_NVQChar@@@Z" PURGE="0" COMMENT="" />
    <EXPORT ORDINAL="4134" NAME="?isComment@QXmlStreamReader@@QEBA_NXZ" PURGE="0" COMMENT="" />
    <EXPORT ORDINAL="4135" NAME="?isConnected_helper@Connection@QMetaObject@@AEBA_NXZ" PURGE="0" COMMENT="" />
    <EXPORT ORDINAL="4136" NAME="?isConst@QMetaMethod@@QEBA_NXZ" PURGE="0" COMMENT="" />
    <EXPORT ORDINAL="4137" NAME="?isConst@QMetaMethodBuilder@@QEBAHXZ" PURGE="0" COMMENT="" />
    <EXPORT ORDINAL="4138" NAME="?isConstant@QMetaProperty@@QEBA_NXZ" PURGE="0" COMMENT="" />
    <EXPORT ORDINAL="4139" NAME="?isConstant@QMetaPropertyBuilder@@QEBA_NXZ" PURGE="0" COMMENT="" />
    <EXPORT ORDINAL="4140" NAME="?isContainer@QCborStreamReader@@QEBA_NXZ" PURGE="0" COMMENT="" />
    <EXPORT ORDINAL="4141" NAME="?isContainer@QCborValue@@QEBA_NXZ" PURGE="0" COMMENT="" />
    <EXPORT ORDINAL="4142" NAME="?isContainer@QCborValueRef@@QEBA_NXZ" PURGE="0" COMMENT="" />
    <EXPORT ORDINAL="4143" NAME="?isCopyConstructible@QMetaType@@CA_NPEBVQMetaTypeInterface@QtPrivate@@@Z" PURGE="0" COMMENT="" />
    <EXPORT ORDINAL="4144" NAME="?isCopyConstructible@QMetaType@@QEBA_NXZ" PURGE="0" COMMENT="" />
    <EXPORT ORDINAL="4145" NAME="?isCriticalEnabled@QLoggingCategory@@QEBA_NXZ" PURGE="0" COMMENT="" />
    <EXPORT ORDINAL="4146" NAME="?isDTD@QXmlStreamReader@@QEBA_NXZ" PURGE="0" COMMENT="" />
    <EXPORT ORDINAL="4147" NAME="?isDateTime@QCborValue@@QEBA_NXZ" PURGE="0" COMMENT="" />
    <EXPORT ORDINAL="4148" NAME="?isDateTime@QCborValueRef@@QEBA_NXZ" PURGE="0" COMMENT="" />
    <EXPORT ORDINAL="4149" NAME="?isDateValid@QCalendar@@QEBA_NHHH@Z" PURGE="0" COMMENT="" />
    <EXPORT ORDINAL="4150" NAME="?isDateValid@QCalendarBackend@@UEBA_NHHH@Z" PURGE="0" COMMENT="" />
    <EXPORT ORDINAL="4151" NAME="?isDaylightTime@QDateTime@@QEBA_NXZ" PURGE="0" COMMENT="" />
    <EXPORT ORDINAL="4152" NAME="?isDaylightTime@QTimeZone@@QEBA_NAEBVQDateTime@@@Z" PURGE="0" COMMENT="" />
    <EXPORT ORDINAL="4153" NAME="?isDebugBuild@QLibraryInfo@@SA_NXZ" PURGE="0" COMMENT="" />
    <EXPORT ORDINAL="4154" NAME="?isDebugEnabled@QLoggingCategory@@QEBA_NXZ" PURGE="0" COMMENT="" />
    <EXPORT ORDINAL="4155" NAME="?isDeclarativeSignalConnected@QObjectPrivate@@QEBA_NI@Z" PURGE="0" COMMENT="" />
    <EXPORT ORDINAL="4156" NAME="?isDefault@QMimeType@@QEBA_NXZ" PURGE="0" COMMENT="" />
    <EXPORT ORDINAL="4157" NAME="?isDefault@QXmlStreamAttribute@@QEBA_NXZ" PURGE="0" COMMENT="" />
    <EXPORT ORDINAL="4158" NAME="?isDefaultConstructible@QMetaType@@CA_NPEBVQMetaTypeInterface@QtPrivate@@@Z" PURGE="0" COMMENT="" />
    <EXPORT ORDINAL="4159" NAME="?isDefaultConstructible@QMetaType@@QEBA_NXZ" PURGE="0" COMMENT="" />
    <EXPORT ORDINAL="4160" NAME="?isDesignable@QMetaProperty@@QEBA_NXZ" PURGE="0" COMMENT="" />
    <EXPORT ORDINAL="4161" NAME="?isDesignable@QMetaPropertyBuilder@@QEBA_NXZ" PURGE="0" COMMENT="" />
    <EXPORT ORDINAL="4162" NAME="?isDestructible@QMetaType@@CA_NPEBVQMetaTypeInterface@QtPrivate@@@Z" PURGE="0" COMMENT="" />
    <EXPORT ORDINAL="4163" NAME="?isDestructible@QMetaType@@QEBA_NXZ" PURGE="0" COMMENT="" />
    <EXPORT ORDINAL="4164" NAME="?isDetached@QBitArray@@QEBA_NXZ" PURGE="0" COMMENT="" />
    <EXPORT ORDINAL="4165" NAME="?isDetached@QByteArray@@QEBA_NXZ" PURGE="0" COMMENT="" />
    <EXPORT ORDINAL="4166" NAME="?isDetached@QString@@QEBA_NXZ" PURGE="0" COMMENT="" />
    <EXPORT ORDINAL="4167" NAME="?isDetached@QUrl@@QEBA_NXZ" PURGE="0" COMMENT="" />
    <EXPORT ORDINAL="4168" NAME="?isDetached@QUrlQuery@@QEBA_NXZ" PURGE="0" COMMENT="" />
    <EXPORT ORDINAL="4169" NAME="?isDetached@QVariant@@QEBA_NXZ" PURGE="0" COMMENT="" />
    <EXPORT ORDINAL="4170" NAME="?isDeviceTransactionStarted@QDataStream@@QEBA_NXZ" PURGE="0" COMMENT="" />
    <EXPORT ORDINAL="4171" NAME="?isDigit@QChar@@QEBA_NXZ" PURGE="0" COMMENT="" />
    <EXPORT ORDINAL="4172" NAME="?isDigit@QChar@@SA_N_U@Z" PURGE="0" COMMENT="" />
    <EXPORT ORDINAL="4173" NAME="?isDigit@QXmlUtils@@CA_NVQChar@@@Z" PURGE="0" COMMENT="" />
    <EXPORT ORDINAL="4174" NAME="?isDir@QFileInfo@@QEBA_NXZ" PURGE="0" COMMENT="" />
    <EXPORT ORDINAL="4175" NAME="?isDir@QResource@@IEBA_NXZ" PURGE="0" COMMENT="" />
    <EXPORT ORDINAL="4176" NAME="?isDouble@QCborStreamReader@@QEBA_NXZ" PURGE="0" COMMENT="" />
    <EXPORT ORDINAL="4177" NAME="?isDouble@QCborValue@@QEBA_NXZ" PURGE="0" COMMENT="" />
    <EXPORT ORDINAL="4178" NAME="?isDouble@QCborValueRef@@QEBA_NXZ" PURGE="0" COMMENT="" />
    <EXPORT ORDINAL="4179" NAME="?isDouble@QJsonValue@@QEBA_NXZ" PURGE="0" COMMENT="" />
    <EXPORT ORDINAL="4180" NAME="?isDouble@QJsonValueRef@@QEBA_NXZ" PURGE="0" COMMENT="" />
    <EXPORT ORDINAL="4181" NAME="?isEmpty@QBindingStorage@@QEAA_NXZ" PURGE="0" COMMENT="" />
    <EXPORT ORDINAL="4182" NAME="?isEmpty@QBitArray@@QEBA_NXZ" PURGE="0" COMMENT="" />
    <EXPORT ORDINAL="4183" NAME="?isEmpty@QByteArray@@QEBA_NXZ" PURGE="0" COMMENT="" />
    <EXPORT ORDINAL="4184" NAME="?isEmpty@QByteArrayView@@QEBA_NXZ" PURGE="0" COMMENT="" />
    <EXPORT ORDINAL="4185" NAME="?isEmpty@QCborArray@@QEBA_NXZ" PURGE="0" COMMENT="" />
    <EXPORT ORDINAL="4186" NAME="?isEmpty@QCborMap@@QEBA_NXZ" PURGE="0" COMMENT="" />
    <EXPORT ORDINAL="4187" NAME="?isEmpty@QDir@@QEBA_NV?$QFlags@W4Filter@QDir@@@@@Z" PURGE="0" COMMENT="" />
    <EXPORT ORDINAL="4188" NAME="?isEmpty@QItemSelectionRange@@QEBA_NXZ" PURGE="0" COMMENT="" />
    <EXPORT ORDINAL="4189" NAME="?isEmpty@QJsonArray@@QEBA_NXZ" PURGE="0" COMMENT="" />
    <EXPORT ORDINAL="4190" NAME="?isEmpty@QJsonDocument@@QEBA_NXZ" PURGE="0" COMMENT="" />
    <EXPORT ORDINAL="4191" NAME="?isEmpty@QJsonObject@@QEBA_NXZ" PURGE="0" COMMENT="" />
    <EXPORT ORDINAL="4192" NAME="?isEmpty@QObjectCleanupHandler@@QEBA_NXZ" PURGE="0" COMMENT="" />
    <EXPORT ORDINAL="4193" NAME="?isEmpty@QProcessEnvironment@@QEBA_NXZ" PURGE="0" COMMENT="" />
    <EXPORT ORDINAL="4194" NAME="?isEmpty@QRect@@QEBA_NXZ" PURGE="0" COMMENT="" />
    <EXPORT ORDINAL="4195" NAME="?isEmpty@QRectF@@QEBA_NXZ" PURGE="0" COMMENT="" />
    <EXPORT ORDINAL="4196" NAME="?isEmpty@QSize@@QEBA_NXZ" PURGE="0" COMMENT="" />
    <EXPORT ORDINAL="4197" NAME="?isEmpty@QSizeF@@QEBA_NXZ" PURGE="0" COMMENT="" />
    <EXPORT ORDINAL="4198" NAME="?isEmpty@QString@@QEBA_NXZ" PURGE="0" COMMENT="" />
    <EXPORT ORDINAL="4199" NAME="?isEmpty@QTranslator@@UEBA_NXZ" PURGE="0" COMMENT="" />
    <EXPORT ORDINAL="4200" NAME="?isEmpty@QUrl@@QEBA_NXZ" PURGE="0" COMMENT="" />
    <EXPORT ORDINAL="4201" NAME="?isEmpty@QUrlQuery@@QEBA_NXZ" PURGE="0" COMMENT="" />
    <EXPORT ORDINAL="4202" NAME="?isEnabled@QLoggingCategory@@QEBA_NW4QtMsgType@@@Z" PURGE="0" COMMENT="" />
    <EXPORT ORDINAL="4203" NAME="?isEnabled@QSocketNotifier@@QEBA_NXZ" PURGE="0" COMMENT="" />
    <EXPORT ORDINAL="4204" NAME="?isEnabled@QWinEventNotifier@@QEBA_NXZ" PURGE="0" COMMENT="" />
    <EXPORT ORDINAL="4205" NAME="?isEncName@QXmlUtils@@SA_NVQStringView@@@Z" PURGE="0" COMMENT="" />
    <EXPORT ORDINAL="4206" NAME="?isEndDocument@QXmlStreamReader@@QEBA_NXZ" PURGE="0" COMMENT="" />
    <EXPORT ORDINAL="4207" NAME="?isEndElement@QXmlStreamReader@@QEBA_NXZ" PURGE="0" COMMENT="" />
    <EXPORT ORDINAL="4208" NAME="?isEntityReference@QXmlStreamReader@@QEBA_NXZ" PURGE="0" COMMENT="" />
    <EXPORT ORDINAL="4209" NAME="?isEnumOrFlag@QMetaPropertyBuilder@@QEBA_NXZ" PURGE="0" COMMENT="" />
    <EXPORT ORDINAL="4210" NAME="?isEnumType@QMetaProperty@@QEBA_NXZ" PURGE="0" COMMENT="" />
    <EXPORT ORDINAL="4211" NAME="?isEqualityComparable@QMetaType@@QEBA_NXZ" PURGE="0" COMMENT="" />
    <EXPORT ORDINAL="4212" NAME="?isExecutable@QFileInfo@@QEBA_NXZ" PURGE="0" COMMENT="" />
    <EXPORT ORDINAL="4213" NAME="?isExtender@QXmlUtils@@CA_NVQChar@@@Z" PURGE="0" COMMENT="" />
    <EXPORT ORDINAL="4214" NAME="?isFalse@QCborStreamReader@@QEBA_NXZ" PURGE="0" COMMENT="" />
    <EXPORT ORDINAL="4215" NAME="?isFalse@QCborValue@@QEBA_NXZ" PURGE="0" COMMENT="" />
    <EXPORT ORDINAL="4216" NAME="?isFalse@QCborValueRef@@QEBA_NXZ" PURGE="0" COMMENT="" />
    <EXPORT ORDINAL="4217" NAME="?isFile@QFileInfo@@QEBA_NXZ" PURGE="0" COMMENT="" />
    <EXPORT ORDINAL="4218" NAME="?isFile@QResource@@IEBA_NXZ" PURGE="0" COMMENT="" />
    <EXPORT ORDINAL="4219" NAME="?isFinal@QMetaProperty@@QEBA_NXZ" PURGE="0" COMMENT="" />
    <EXPORT ORDINAL="4220" NAME="?isFinal@QMetaPropertyBuilder@@QEBA_NXZ" PURGE="0" COMMENT="" />
    <EXPORT ORDINAL="4221" NAME="?isFinished@QFutureInterfaceBase@@QEBA_NXZ" PURGE="0" COMMENT="" />
    <EXPORT ORDINAL="4222" NAME="?isFinished@QFutureWatcherBase@@QEBA_NXZ" PURGE="0" COMMENT="" />
    <EXPORT ORDINAL="4223" NAME="?isFinished@QThread@@QEBA_NXZ" PURGE="0" COMMENT="" />
    <EXPORT ORDINAL="4224" NAME="?isFlag@QMetaEnum@@QEBA_NXZ" PURGE="0" COMMENT="" />
    <EXPORT ORDINAL="4225" NAME="?isFlag@QMetaEnumBuilder@@QEBA_NXZ" PURGE="0" COMMENT="" />
    <EXPORT ORDINAL="4226" NAME="?isFlagType@QMetaProperty@@QEBA_NXZ" PURGE="0" COMMENT="" />
    <EXPORT ORDINAL="4227" NAME="?isFloat16@QCborStreamReader@@QEBA_NXZ" PURGE="0" COMMENT="" />
    <EXPORT ORDINAL="4228" NAME="?isFloat@QCborStreamReader@@QEBA_NXZ" PURGE="0" COMMENT="" />
    <EXPORT ORDINAL="4229" NAME="?isForever@QDeadlineTimer@@QEBA_NXZ" PURGE="0" COMMENT="" />
    <EXPORT ORDINAL="4230" NAME="?isGregorian@QCalendar@@QEBA_NXZ" PURGE="0" COMMENT="" />
    <EXPORT ORDINAL="4231" NAME="?isGregorian@QCalendarBackend@@QEBA_NXZ" PURGE="0" COMMENT="" />
    <EXPORT ORDINAL="4232" NAME="?isHidden@QFileInfo@@QEBA_NXZ" PURGE="0" COMMENT="" />
    <EXPORT ORDINAL="4233" NAME="?isHighSurrogate@QChar@@QEBA_NXZ" PURGE="0" COMMENT="" />
    <EXPORT ORDINAL="4234" NAME="?isHighSurrogate@QChar@@SA_N_U@Z" PURGE="0" COMMENT="" />
    <EXPORT ORDINAL="4235" NAME="?isIdeographic@QXmlUtils@@CA_NVQChar@@@Z" PURGE="0" COMMENT="" />
    <EXPORT ORDINAL="4236" NAME="?isInfoEnabled@QLoggingCategory@@QEBA_NXZ" PURGE="0" COMMENT="" />
    <EXPORT ORDINAL="4237" NAME="?isInputEvent@QEvent@@QEBA_NXZ" PURGE="0" COMMENT="" />
    <EXPORT ORDINAL="4238" NAME="?isInteger@QCborStreamReader@@QEBA_NXZ" PURGE="0" COMMENT="" />
    <EXPORT ORDINAL="4239" NAME="?isInteger@QCborValue@@QEBA_NXZ" PURGE="0" COMMENT="" />
    <EXPORT ORDINAL="4240" NAME="?isInteger@QCborValueRef@@QEBA_NXZ" PURGE="0" COMMENT="" />
    <EXPORT ORDINAL="4241" NAME="?isInterruptionRequested@QThread@@QEBA_NXZ" PURGE="0" COMMENT="" />
    <EXPORT ORDINAL="4242" NAME="?isInvalid@QCborStreamReader@@QEBA_NXZ" PURGE="0" COMMENT="" />
    <EXPORT ORDINAL="4243" NAME="?isInvalid@QCborValue@@QEBA_NXZ" PURGE="0" COMMENT="" />
    <EXPORT ORDINAL="4244" NAME="?isInvalid@QCborValueRef@@QEBA_NXZ" PURGE="0" COMMENT="" />
    <EXPORT ORDINAL="4245" NAME="?isJunction@QFileInfo@@QEBA_NXZ" PURGE="0" COMMENT="" />
    <EXPORT ORDINAL="4246" NAME="?isKeyTypeSupported@QSharedMemory@@SA_NW4Type@QNativeIpcKey@@@Z" PURGE="0" COMMENT="" />
    <EXPORT ORDINAL="4247" NAME="?isKeyTypeSupported@QSystemSemaphore@@SA_NW4Type@QNativeIpcKey@@@Z" PURGE="0" COMMENT="" />
    <EXPORT ORDINAL="4248" NAME="?isLatin1@QtPrivate@@YA_NVQStringView@@@Z" PURGE="0" COMMENT="" />
    <EXPORT ORDINAL="4249" NAME="?isLeapYear@QCalendar@@QEBA_NH@Z" PURGE="0" COMMENT="" />
    <EXPORT ORDINAL="4250" NAME="?isLeapYear@QDate@@SA_NH@Z" PURGE="0" COMMENT="" />
    <EXPORT ORDINAL="4251" NAME="?isLeapYear@QGregorianCalendar@@UEBA_NH@Z" PURGE="0" COMMENT="" />
    <EXPORT ORDINAL="4252" NAME="?isLeapYear@QIslamicCivilCalendar@@UEBA_NH@Z" PURGE="0" COMMENT="" />
    <EXPORT ORDINAL="4253" NAME="?isLeapYear@QJalaliCalendar@@UEBA_NH@Z" PURGE="0" COMMENT="" />
    <EXPORT ORDINAL="4254" NAME="?isLeapYear@QJulianCalendar@@UEBA_NH@Z" PURGE="0" COMMENT="" />
    <EXPORT ORDINAL="4255" NAME="?isLeapYear@QMilankovicCalendar@@UEBA_NH@Z" PURGE="0" COMMENT="" />
    <EXPORT ORDINAL="4256" NAME="?isLengthKnown@QCborStreamReader@@QEBA_NXZ" PURGE="0" COMMENT="" />
    <EXPORT ORDINAL="4257" NAME="?isLetter@QChar@@QEBA_NXZ" PURGE="0" COMMENT="" />
    <EXPORT ORDINAL="4258" NAME="?isLetter@QChar@@SA_N_U@Z" PURGE="0" COMMENT="" />
    <EXPORT ORDINAL="4259" NAME="?isLetter@QXmlUtils@@SA_NVQChar@@@Z" PURGE="0" COMMENT="" />
    <EXPORT ORDINAL="4260" NAME="?isLetterOrNumber@QChar@@QEBA_NXZ" PURGE="0" COMMENT="" />
    <EXPORT ORDINAL="4261" NAME="?isLetterOrNumber@QChar@@SA_N_U@Z" PURGE="0" COMMENT="" />
    <EXPORT ORDINAL="4262" NAME="?isLetterOrNumber_helper@QChar@@CA_N_U@Z" PURGE="0" COMMENT="" />
    <EXPORT ORDINAL="4263" NAME="?isLetter_helper@QChar@@CA_N_U@Z" PURGE="0" COMMENT="" />
    <EXPORT ORDINAL="4264" NAME="?isLibrary@QLibrary@@SA_NAEBVQString@@@Z" PURGE="0" COMMENT="" />
    <EXPORT ORDINAL="4265" NAME="?isLoaded@QLibrary@@QEBA_NXZ" PURGE="0" COMMENT="" />
    <EXPORT ORDINAL="4266" NAME="?isLoaded@QPluginLoader@@QEBA_NXZ" PURGE="0" COMMENT="" />
    <EXPORT ORDINAL="4267" NAME="?isLocalFile@QUrl@@QEBA_NXZ" PURGE="0" COMMENT="" />
    <EXPORT ORDINAL="4268" NAME="?isLocked@QLockFile@@QEBA_NXZ" PURGE="0" COMMENT="" />
    <EXPORT ORDINAL="4269" NAME="?isLowSurrogate@QChar@@QEBA_NXZ" PURGE="0" COMMENT="" />
    <EXPORT ORDINAL="4270" NAME="?isLowSurrogate@QChar@@SA_N_U@Z" PURGE="0" COMMENT="" />
    <EXPORT ORDINAL="4271" NAME="?isLower@QByteArray@@QEBA_NXZ" PURGE="0" COMMENT="" />
    <EXPORT ORDINAL="4272" NAME="?isLower@QChar@@QEBA_NXZ" PURGE="0" COMMENT="" />
    <EXPORT ORDINAL="4273" NAME="?isLower@QChar@@SA_N_U@Z" PURGE="0" COMMENT="" />
    <EXPORT ORDINAL="4274" NAME="?isLower@QString@@QEBA_NXZ" PURGE="0" COMMENT="" />
    <EXPORT ORDINAL="4275" NAME="?isLower@QtPrivate@@YA_NVQStringView@@@Z" PURGE="0" COMMENT="" />
    <EXPORT ORDINAL="4276" NAME="?isLunar@QCalendar@@QEBA_NXZ" PURGE="0" COMMENT="" />
    <EXPORT ORDINAL="4277" NAME="?isLunar@QHijriCalendar@@UEBA_NXZ" PURGE="0" COMMENT="" />
    <EXPORT ORDINAL="4278" NAME="?isLunar@QJalaliCalendar@@UEBA_NXZ" PURGE="0" COMMENT="" />
    <EXPORT ORDINAL="4279" NAME="?isLunar@QRomanCalendar@@UEBA_NXZ" PURGE="0" COMMENT="" />
    <EXPORT ORDINAL="4280" NAME="?isLuniSolar@QCalendar@@QEBA_NXZ" PURGE="0" COMMENT="" />
    <EXPORT ORDINAL="4281" NAME="?isLuniSolar@QHijriCalendar@@UEBA_NXZ" PURGE="0" COMMENT="" />
    <EXPORT ORDINAL="4282" NAME="?isLuniSolar@QJalaliCalendar@@UEBA_NXZ" PURGE="0" COMMENT="" />
    <EXPORT ORDINAL="4283" NAME="?isLuniSolar@QRomanCalendar@@UEBA_NXZ" PURGE="0" COMMENT="" />
    <EXPORT ORDINAL="4284" NAME="?isMap@QCborStreamReader@@QEBA_NXZ" PURGE="0" COMMENT="" />
    <EXPORT ORDINAL="4285" NAME="?isMap@QCborValue@@QEBA_NXZ" PURGE="0" COMMENT="" />
    <EXPORT ORDINAL="4286" NAME="?isMap@QCborValueRef@@QEBA_NXZ" PURGE="0" COMMENT="" />
    <EXPORT ORDINAL="4287" NAME="?isMark@QChar@@QEBA_NXZ" PURGE="0" COMMENT="" />
    <EXPORT ORDINAL="4288" NAME="?isMark@QChar@@SA_N_U@Z" PURGE="0" COMMENT="" />
    <EXPORT ORDINAL="4289" NAME="?isMonotonic@QElapsedTimer@@SA_NXZ" PURGE="0" COMMENT="" />
    <EXPORT ORDINAL="4290" NAME="?isMoveConstructible@QMetaType@@CA_NPEBVQMetaTypeInterface@QtPrivate@@@Z" PURGE="0" COMMENT="" />
    <EXPORT ORDINAL="4291" NAME="?isMoveConstructible@QMetaType@@QEBA_NXZ" PURGE="0" COMMENT="" />
    <EXPORT ORDINAL="4292" NAME="?isNCName@QXmlUtils@@SA_NVQStringView@@@Z" PURGE="0" COMMENT="" />
    <EXPORT ORDINAL="4293" NAME="?isNameChar@QXmlUtils@@SA_NVQChar@@@Z" PURGE="0" COMMENT="" />
    <EXPORT ORDINAL="4294" NAME="?isNativePath@QFileInfo@@QEBA_NXZ" PURGE="0" COMMENT="" />
    <EXPORT ORDINAL="4295" NAME="?isNegativeInteger@QCborStreamReader@@QEBA_NXZ" PURGE="0" COMMENT="" />
    <EXPORT ORDINAL="4296" NAME="?isNonCharacter@QChar@@QEBA_NXZ" PURGE="0" COMMENT="" />
    <EXPORT ORDINAL="4297" NAME="?isNonCharacter@QChar@@SA_N_U@Z" PURGE="0" COMMENT="" />
    <EXPORT ORDINAL="4298" NAME="?isNotificationDelayed@QPropertyBindingData@QtPrivate@@QEBA_NXZ" PURGE="0" COMMENT="" />
    <EXPORT ORDINAL="4299" NAME="?isNull@QBitArray@@QEBA_NXZ" PURGE="0" COMMENT="" />
    <EXPORT ORDINAL="4300" NAME="?isNull@QByteArray@@QEBA_NXZ" PURGE="0" COMMENT="" />
    <EXPORT ORDINAL="4301" NAME="?isNull@QByteArrayView@@QEBA_NXZ" PURGE="0" COMMENT="" />
    <EXPORT ORDINAL="4302" NAME="?isNull@QCborStreamReader@@QEBA_NXZ" PURGE="0" COMMENT="" />
    <EXPORT ORDINAL="4303" NAME="?isNull@QCborValue@@QEBA_NXZ" PURGE="0" COMMENT="" />
    <EXPORT ORDINAL="4304" NAME="?isNull@QCborValueRef@@QEBA_NXZ" PURGE="0" COMMENT="" />
    <EXPORT ORDINAL="4305" NAME="?isNull@QChar@@QEBA_NXZ" PURGE="0" COMMENT="" />
    <EXPORT ORDINAL="4306" NAME="?isNull@QDate@@QEBA_NXZ" PURGE="0" COMMENT="" />
    <EXPORT ORDINAL="4307" NAME="?isNull@QDateTime@@QEBA_NXZ" PURGE="0" COMMENT="" />
    <EXPORT ORDINAL="4308" NAME="?isNull@QJsonDocument@@QEBA_NXZ" PURGE="0" COMMENT="" />
    <EXPORT ORDINAL="4309" NAME="?isNull@QJsonValue@@QEBA_NXZ" PURGE="0" COMMENT="" />
    <EXPORT ORDINAL="4310" NAME="?isNull@QJsonValueRef@@QEBA_NXZ" PURGE="0" COMMENT="" />
    <EXPORT ORDINAL="4311" NAME="?isNull@QLine@@QEBA_NXZ" PURGE="0" COMMENT="" />
    <EXPORT ORDINAL="4312" NAME="?isNull@QLineF@@QEBA_NXZ" PURGE="0" COMMENT="" />
    <EXPORT ORDINAL="4313" NAME="?isNull@QRect@@QEBA_NXZ" PURGE="0" COMMENT="" />
    <EXPORT ORDINAL="4314" NAME="?isNull@QRectF@@QEBA_NXZ" PURGE="0" COMMENT="" />
    <EXPORT ORDINAL="4315" NAME="?isNull@QSize@@QEBA_NXZ" PURGE="0" COMMENT="" />
    <EXPORT ORDINAL="4316" NAME="?isNull@QSizeF@@QEBA_NXZ" PURGE="0" COMMENT="" />
    <EXPORT ORDINAL="4317" NAME="?isNull@QString@@QEBA_NXZ" PURGE="0" COMMENT="" />
    <EXPORT ORDINAL="4318" NAME="?isNull@QTime@@QEBA_NXZ" PURGE="0" COMMENT="" />
    <EXPORT ORDINAL="4319" NAME="?isNull@QUntypedPropertyBinding@@QEBA_NXZ" PURGE="0" COMMENT="" />
    <EXPORT ORDINAL="4320" NAME="?isNull@QUuid@@QEBA_NXZ" PURGE="0" COMMENT="" />
    <EXPORT ORDINAL="4321" NAME="?isNull@QVariant@@QEBA_NXZ" PURGE="0" COMMENT="" />
    <EXPORT ORDINAL="4322" NAME="?isNumber@QChar@@QEBA_NXZ" PURGE="0" COMMENT="" />
    <EXPORT ORDINAL="4323" NAME="?isNumber@QChar@@SA_N_U@Z" PURGE="0" COMMENT="" />
    <EXPORT ORDINAL="4324" NAME="?isNumber_helper@QChar@@CA_N_U@Z" PURGE="0" COMMENT="" />
    <EXPORT ORDINAL="4325" NAME="?isObject@QJsonDocument@@QEBA_NXZ" PURGE="0" COMMENT="" />
    <EXPORT ORDINAL="4326" NAME="?isObject@QJsonValue@@QEBA_NXZ" PURGE="0" COMMENT="" />
    <EXPORT ORDINAL="4327" NAME="?isObject@QJsonValueRef@@QEBA_NXZ" PURGE="0" COMMENT="" />
    <EXPORT ORDINAL="4328" NAME="?isOpen@QIODevice@@QEBA_NXZ" PURGE="0" COMMENT="" />
    <EXPORT ORDINAL="4329" NAME="?isOrdered@QMetaType@@QEBA_NXZ" PURGE="0" COMMENT="" />
    <EXPORT ORDINAL="4330" NAME="?isParentOf@QUrl@@QEBA_NAEBV1@@Z" PURGE="0" COMMENT="" />
    <EXPORT ORDINAL="4331" NAME="?isPaused@QFutureInterfaceBase@@QEBA_NXZ" PURGE="0" COMMENT="" />
    <EXPORT ORDINAL="4332" NAME="?isPaused@QFutureWatcherBase@@QEBA_NXZ" PURGE="0" COMMENT="" />
    <EXPORT ORDINAL="4333" NAME="?isPipeClosed@QWindowsPipeReader@@QEBA_NXZ" PURGE="0" COMMENT="" />
    <EXPORT ORDINAL="4334" NAME="?isPointerEvent@QEvent@@QEBA_NXZ" PURGE="0" COMMENT="" />
    <EXPORT ORDINAL="4335" NAME="?isPrefixOf@QVersionNumber@@QEBA_NAEBV1@@Z" PURGE="0" COMMENT="" />
    <EXPORT ORDINAL="4336" NAME="?isPrint@QChar@@QEBA_NXZ" PURGE="0" COMMENT="" />
    <EXPORT ORDINAL="4337" NAME="?isPrint@QChar@@SA_N_U@Z" PURGE="0" COMMENT="" />
    <EXPORT ORDINAL="4338" NAME="?isProcessingInstruction@QXmlStreamReader@@QEBA_NXZ" PURGE="0" COMMENT="" />
    <EXPORT ORDINAL="4339" NAME="?isProgressUpdateNeeded@QFutureInterfaceBase@@QEBA_NXZ" PURGE="0" COMMENT="" />
    <EXPORT ORDINAL="4340" NAME="?isProleptic@QCalendar@@QEBA_NXZ" PURGE="0" COMMENT="" />
    <EXPORT ORDINAL="4341" NAME="?isProleptic@QCalendarBackend@@UEBA_NXZ" PURGE="0" COMMENT="" />
    <EXPORT ORDINAL="4342" NAME="?isPropertyInBindingWrapper@QtPrivate@@YA_NPEBVQUntypedPropertyData@@@Z" PURGE="0" COMMENT="" />
    <EXPORT ORDINAL="4343" NAME="?isPublicID@QXmlUtils@@SA_NVQStringView@@@Z" PURGE="0" COMMENT="" />
    <EXPORT ORDINAL="4344" NAME="?isPunct@QChar@@QEBA_NXZ" PURGE="0" COMMENT="" />
    <EXPORT ORDINAL="4345" NAME="?isPunct@QChar@@SA_N_U@Z" PURGE="0" COMMENT="" />
    <EXPORT ORDINAL="4346" NAME="?isQuickItemType@QObject@@QEBA_NXZ" PURGE="0" COMMENT="" />
    <EXPORT ORDINAL="4347" NAME="?isQuitLockEnabled@QCoreApplication@@SA_NXZ" PURGE="0" COMMENT="" />
    <EXPORT ORDINAL="4348" NAME="?isReadOnly@QStorageInfo@@QEBA_NXZ" PURGE="0" COMMENT="" />
    <EXPORT ORDINAL="4349" NAME="?isReadOperationActive@QWindowsPipeReader@@QEBA_NXZ" PURGE="0" COMMENT="" />
    <EXPORT ORDINAL="4350" NAME="?isReadable@QDir@@QEBA_NXZ" PURGE="0" COMMENT="" />
    <EXPORT ORDINAL="4351" NAME="?isReadable@QFileInfo@@QEBA_NXZ" PURGE="0" COMMENT="" />
    <EXPORT ORDINAL="4352" NAME="?isReadable@QIODevice@@QEBA_NXZ" PURGE="0" COMMENT="" />
    <EXPORT ORDINAL="4353" NAME="?isReadable@QMetaProperty@@QEBA_NXZ" PURGE="0" COMMENT="" />
    <EXPORT ORDINAL="4354" NAME="?isReadable@QMetaPropertyBuilder@@QEBA_NXZ" PURGE="0" COMMENT="" />
    <EXPORT ORDINAL="4355" NAME="?isReadable@QZipReader@@QEBA_NXZ" PURGE="0" COMMENT="" />
    <EXPORT ORDINAL="4356" NAME="?isReady@QStorageInfo@@QEBA_NXZ" PURGE="0" COMMENT="" />
    <EXPORT ORDINAL="4357" NAME="?isRecursiveFilteringEnabled@QSortFilterProxyModel@@QEBA_NXZ" PURGE="0" COMMENT="" />
    <EXPORT ORDINAL="4358" NAME="?isRegistered@QMetaType@@QEBA_NXZ" PURGE="0" COMMENT="" />
    <EXPORT ORDINAL="4359" NAME="?isRegistered@QMetaType@@SA_NH@Z" PURGE="0" COMMENT="" />
    <EXPORT ORDINAL="4360" NAME="?isRegularExpression@QCborValue@@QEBA_NXZ" PURGE="0" COMMENT="" />
    <EXPORT ORDINAL="4361" NAME="?isRegularExpression@QCborValueRef@@QEBA_NXZ" PURGE="0" COMMENT="" />
    <EXPORT ORDINAL="4362" NAME="?isRelative@QDir@@QEBA_NXZ" PURGE="0" COMMENT="" />
    <EXPORT ORDINAL="4363" NAME="?isRelative@QFileInfo@@QEBA_NXZ" PURGE="0" COMMENT="" />
    <EXPORT ORDINAL="4364" NAME="?isRelative@QUrl@@QEBA_NXZ" PURGE="0" COMMENT="" />
    <EXPORT ORDINAL="4365" NAME="?isRelativePath@QAbstractFileEngine@@UEBA_NXZ" PURGE="0" COMMENT="" />
    <EXPORT ORDINAL="4366" NAME="?isRelativePath@QDir@@SA_NAEBVQString@@@Z" PURGE="0" COMMENT="" />
    <EXPORT ORDINAL="4367" NAME="?isRelativePath@QFSFileEngine@@UEBA_NXZ" PURGE="0" COMMENT="" />
    <EXPORT ORDINAL="4368" NAME="?isRequired@QMetaProperty@@QEBA_NXZ" PURGE="0" COMMENT="" />
    <EXPORT ORDINAL="4369" NAME="?isResettable@QMetaProperty@@QEBA_NXZ" PURGE="0" COMMENT="" />
    <EXPORT ORDINAL="4370" NAME="?isResettable@QMetaPropertyBuilder@@QEBA_NXZ" PURGE="0" COMMENT="" />
    <EXPORT ORDINAL="4371" NAME="?isResultReadyAt@QFutureInterfaceBase@@QEBA_NH@Z" PURGE="0" COMMENT="" />
    <EXPORT ORDINAL="4372" NAME="?isRightToLeft@QString@@QEBA_NXZ" PURGE="0" COMMENT="" />
    <EXPORT ORDINAL="4373" NAME="?isRightToLeft@QtPrivate@@YA_NVQStringView@@@Z" PURGE="0" COMMENT="" />
    <EXPORT ORDINAL="4374" NAME="?isRoot@QDir@@QEBA_NXZ" PURGE="0" COMMENT="" />
    <EXPORT ORDINAL="4375" NAME="?isRoot@QFileInfo@@QEBA_NXZ" PURGE="0" COMMENT="" />
    <EXPORT ORDINAL="4376" NAME="?isRoot@QStorageInfo@@QEBA_NXZ" PURGE="0" COMMENT="" />
    <EXPORT ORDINAL="4377" NAME="?isRootPath@QFileSystemEntry@@SA_NAEBVQString@@@Z" PURGE="0" COMMENT="" />
    <EXPORT ORDINAL="4378" NAME="?isRowSelected@QItemSelectionModel@@QEBA_NHAEBVQModelIndex@@@Z" PURGE="0" COMMENT="" />
    <EXPORT ORDINAL="4379" NAME="?isRunning@QAnimationDriver@@QEBA_NXZ" PURGE="0" COMMENT="" />
    <EXPORT ORDINAL="4380" NAME="?isRunning@QEventLoop@@QEBA_NXZ" PURGE="0" COMMENT="" />
    <EXPORT ORDINAL="4381" NAME="?isRunning@QFutureInterfaceBase@@QEBA_NXZ" PURGE="0" COMMENT="" />
    <EXPORT ORDINAL="4382" NAME="?isRunning@QFutureWatcherBase@@QEBA_NXZ" PURGE="0" COMMENT="" />
    <EXPORT ORDINAL="4383" NAME="?isRunning@QThread@@QEBA_NXZ" PURGE="0" COMMENT="" />
    <EXPORT ORDINAL="4384" NAME="?isRunningOrPending@QFutureInterfaceBase@@IEBA_NXZ" PURGE="0" COMMENT="" />
    <EXPORT ORDINAL="4385" NAME="?isScoped@QMetaEnum@@QEBA_NXZ" PURGE="0" COMMENT="" />
    <EXPORT ORDINAL="4386" NAME="?isScoped@QMetaEnumBuilder@@QEBA_NXZ" PURGE="0" COMMENT="" />
    <EXPORT ORDINAL="4387" NAME="?isScriptable@QMetaProperty@@QEBA_NXZ" PURGE="0" COMMENT="" />
    <EXPORT ORDINAL="4388" NAME="?isScriptable@QMetaPropertyBuilder@@QEBA_NXZ" PURGE="0" COMMENT="" />
    <EXPORT ORDINAL="4389" NAME="?isSelected@QItemSelectionModel@@QEBA_NAEBVQModelIndex@@@Z" PURGE="0" COMMENT="" />
    <EXPORT ORDINAL="4390" NAME="?isSender@QObjectPrivate@@QEBA_NPEBVQObject@@PEBD@Z" PURGE="0" COMMENT="" />
    <EXPORT ORDINAL="4391" NAME="?isSequential@QAbstractFileEngine@@UEBA_NXZ" PURGE="0" COMMENT="" />
    <EXPORT ORDINAL="4392" NAME="?isSequential@QFSFileEngine@@UEBA_NXZ" PURGE="0" COMMENT="" />
    <EXPORT ORDINAL="4393" NAME="?isSequential@QFileDevice@@UEBA_NXZ" PURGE="0" COMMENT="" />
    <EXPORT ORDINAL="4394" NAME="?isSequential@QIODevice@@UEBA_NXZ" PURGE="0" COMMENT="" />
    <EXPORT ORDINAL="4395" NAME="?isSequential@QIODevicePrivate@@QEBA_NXZ" PURGE="0" COMMENT="" />
    <EXPORT ORDINAL="4396" NAME="?isSequential@QProcess@@UEBA_NXZ" PURGE="0" COMMENT="" />
    <EXPORT ORDINAL="4397" NAME="?isSet@QCommandLineParser@@QEBA_NAEBVQCommandLineOption@@@Z" PURGE="0" COMMENT="" />
    <EXPORT ORDINAL="4398" NAME="?isSet@QCommandLineParser@@QEBA_NAEBVQString@@@Z" PURGE="0" COMMENT="" />
    <EXPORT ORDINAL="4399" NAME="?isSetuidAllowed@QCoreApplication@@SA_NXZ" PURGE="0" COMMENT="" />
    <EXPORT ORDINAL="4400" NAME="?isSharedBuild@QLibraryInfo@@SA_NXZ" PURGE="0" COMMENT="" />
    <EXPORT ORDINAL="4401" NAME="?isSharedWith@QByteArray@@QEBA_NAEBV1@@Z" PURGE="0" COMMENT="" />
    <EXPORT ORDINAL="4402" NAME="?isSharedWith@QString@@QEBA_NAEBV1@@Z" PURGE="0" COMMENT="" />
    <EXPORT ORDINAL="4403" NAME="?isShortcut@QFileInfo@@QEBA_NXZ" PURGE="0" COMMENT="" />
    <EXPORT ORDINAL="4404" NAME="?isSignalConnected@QAbstractDeclarativeData@@2P6A_NPEAV1@PEBVQObject@@H@ZEA" PURGE="-1" COMMENT="" />
    <EXPORT ORDINAL="4405" NAME="?isSignalConnected@QObject@@IEBA_NAEBVQMetaMethod@@@Z" PURGE="0" COMMENT="" />
    <EXPORT ORDINAL="4406" NAME="?isSignalConnected@QObjectPrivate@@QEBA_NI_N@Z" PURGE="0" COMMENT="" />
    <EXPORT ORDINAL="4407" NAME="?isSimpleType@QCborStreamReader@@QEBA_NW4QCborSimpleType@@@Z" PURGE="0" COMMENT="" />
    <EXPORT ORDINAL="4408" NAME="?isSimpleType@QCborStreamReader@@QEBA_NXZ" PURGE="0" COMMENT="" />
    <EXPORT ORDINAL="4409" NAME="?isSimpleType@QCborValue@@QEBA_NW4QCborSimpleType@@@Z" PURGE="0" COMMENT="" />
    <EXPORT ORDINAL="4410" NAME="?isSimpleType@QCborValue@@QEBA_NXZ" PURGE="0" COMMENT="" />
    <EXPORT ORDINAL="4411" NAME="?isSimpleType@QCborValueRef@@QEBA_NW4QCborSimpleType@@@Z" PURGE="0" COMMENT="" />
    <EXPORT ORDINAL="4412" NAME="?isSimpleType@QCborValueRef@@QEBA_NXZ" PURGE="0" COMMENT="" />
    <EXPORT ORDINAL="4413" NAME="?isSinglePointEvent@QEvent@@QEBA_NXZ" PURGE="0" COMMENT="" />
    <EXPORT ORDINAL="4414" NAME="?isSingleShot@QTimer@@QEBA_NXZ" PURGE="0" COMMENT="" />
    <EXPORT ORDINAL="4415" NAME="?isSolar@QCalendar@@QEBA_NXZ" PURGE="0" COMMENT="" />
    <EXPORT ORDINAL="4416" NAME="?isSolar@QHijriCalendar@@UEBA_NXZ" PURGE="0" COMMENT="" />
    <EXPORT ORDINAL="4417" NAME="?isSolar@QJalaliCalendar@@UEBA_NXZ" PURGE="0" COMMENT="" />
    <EXPORT ORDINAL="4418" NAME="?isSolar@QRomanCalendar@@UEBA_NXZ" PURGE="0" COMMENT="" />
    <EXPORT ORDINAL="4419" NAME="?isSortLocaleAware@QSortFilterProxyModel@@QEBA_NXZ" PURGE="0" COMMENT="" />
    <EXPORT ORDINAL="4420" NAME="?isSortable@QMetaSequence@@QEBA_NXZ" PURGE="0" COMMENT="" />
    <EXPORT ORDINAL="4421" NAME="?isSpace@QChar@@QEBA_NXZ" PURGE="0" COMMENT="" />
    <EXPORT ORDINAL="4422" NAME="?isSpace@QChar@@SA_N_U@Z" PURGE="0" COMMENT="" />
    <EXPORT ORDINAL="4423" NAME="?isSpace_helper@QChar@@CA_N_U@Z" PURGE="0" COMMENT="" />
    <EXPORT ORDINAL="4424" NAME="?isStandaloneDocument@QXmlStreamReader@@QEBA_NXZ" PURGE="0" COMMENT="" />
    <EXPORT ORDINAL="4425" NAME="?isStartDocument@QXmlStreamReader@@QEBA_NXZ" PURGE="0" COMMENT="" />
    <EXPORT ORDINAL="4426" NAME="?isStartElement@QXmlStreamReader@@QEBA_NXZ" PURGE="0" COMMENT="" />
    <EXPORT ORDINAL="4427" NAME="?isStarted@QFutureInterfaceBase@@QEBA_NXZ" PURGE="0" COMMENT="" />
    <EXPORT ORDINAL="4428" NAME="?isStarted@QFutureWatcherBase@@QEBA_NXZ" PURGE="0" COMMENT="" />
    <EXPORT ORDINAL="4429" NAME="?isSticky@QPropertyBindingPrivate@@QEAA_NXZ" PURGE="0" COMMENT="" />
    <EXPORT ORDINAL="4430" NAME="?isStored@QMetaProperty@@QEBA_NXZ" PURGE="0" COMMENT="" />
    <EXPORT ORDINAL="4431" NAME="?isStored@QMetaPropertyBuilder@@QEBA_NXZ" PURGE="0" COMMENT="" />
    <EXPORT ORDINAL="4432" NAME="?isString@QCborStreamReader@@QEBA_NXZ" PURGE="0" COMMENT="" />
    <EXPORT ORDINAL="4433" NAME="?isString@QCborValue@@QEBA_NXZ" PURGE="0" COMMENT="" />
    <EXPORT ORDINAL="4434" NAME="?isString@QCborValueRef@@QEBA_NXZ" PURGE="0" COMMENT="" />
    <EXPORT ORDINAL="4435" NAME="?isString@QJsonValue@@QEBA_NXZ" PURGE="0" COMMENT="" />
    <EXPORT ORDINAL="4436" NAME="?isString@QJsonValueRef@@QEBA_NXZ" PURGE="0" COMMENT="" />
    <EXPORT ORDINAL="4437" NAME="?isSurrogate@QChar@@QEBA_NXZ" PURGE="0" COMMENT="" />
    <EXPORT ORDINAL="4438" NAME="?isSurrogate@QChar@@SA_N_U@Z" PURGE="0" COMMENT="" />
    <EXPORT ORDINAL="4439" NAME="?isSuspended@QFutureInterfaceBase@@QEBA_NXZ" PURGE="0" COMMENT="" />
    <EXPORT ORDINAL="4440" NAME="?isSuspended@QFutureWatcherBase@@QEBA_NXZ" PURGE="0" COMMENT="" />
    <EXPORT ORDINAL="4441" NAME="?isSuspending@QFutureInterfaceBase@@QEBA_NXZ" PURGE="0" COMMENT="" />
    <EXPORT ORDINAL="4442" NAME="?isSuspending@QFutureWatcherBase@@QEBA_NXZ" PURGE="0" COMMENT="" />
    <EXPORT ORDINAL="4443" NAME="?isSymLink@QFileInfo@@QEBA_NXZ" PURGE="0" COMMENT="" />
    <EXPORT ORDINAL="4444" NAME="?isSymbol@QChar@@QEBA_NXZ" PURGE="0" COMMENT="" />
    <EXPORT ORDINAL="4445" NAME="?isSymbol@QChar@@SA_N_U@Z" PURGE="0" COMMENT="" />
    <EXPORT ORDINAL="4446" NAME="?isSymbolicLink@QFileInfo@@QEBA_NXZ" PURGE="0" COMMENT="" />
    <EXPORT ORDINAL="4447" NAME="?isTag@QCborStreamReader@@QEBA_NXZ" PURGE="0" COMMENT="" />
    <EXPORT ORDINAL="4448" NAME="?isTag@QCborValue@@QEBA_NXZ" PURGE="0" COMMENT="" />
    <EXPORT ORDINAL="4449" NAME="?isTag@QCborValueRef@@QEBA_NXZ" PURGE="0" COMMENT="" />
    <EXPORT ORDINAL="4450" NAME="?isTag_helper@QCborValue@@CA_NW4Type@1@@Z" PURGE="0" COMMENT="" />
    <EXPORT ORDINAL="4451" NAME="?isTestModeEnabled@QStandardPaths@@SA_NXZ" PURGE="0" COMMENT="" />
    <EXPORT ORDINAL="4452" NAME="?isTextModeEnabled@QIODevice@@QEBA_NXZ" PURGE="0" COMMENT="" />
    <EXPORT ORDINAL="4453" NAME="?isThrottled@QFutureInterfaceBase@@QEBA_NXZ" PURGE="0" COMMENT="" />
    <EXPORT ORDINAL="4454" NAME="?isTimeZoneIdAvailable@QTimeZone@@SA_NAEBVQByteArray@@@Z" PURGE="0" COMMENT="" />
    <EXPORT ORDINAL="4455" NAME="?isTitleCase@QChar@@QEBA_NXZ" PURGE="0" COMMENT="" />
    <EXPORT ORDINAL="4456" NAME="?isTitleCase@QChar@@SA_N_U@Z" PURGE="0" COMMENT="" />
    <EXPORT ORDINAL="4457" NAME="?isTransactionStarted@QIODevice@@QEBA_NXZ" PURGE="0" COMMENT="" />
    <EXPORT ORDINAL="4458" NAME="?isTranslatorInstalled@QCoreApplicationPrivate@@SA_NPEAVQTranslator@@@Z" PURGE="0" COMMENT="" />
    <EXPORT ORDINAL="4459" NAME="?isTrue@QCborStreamReader@@QEBA_NXZ" PURGE="0" COMMENT="" />
    <EXPORT ORDINAL="4460" NAME="?isTrue@QCborValue@@QEBA_NXZ" PURGE="0" COMMENT="" />
    <EXPORT ORDINAL="4461" NAME="?isTrue@QCborValueRef@@QEBA_NXZ" PURGE="0" COMMENT="" />
    <EXPORT ORDINAL="4462" NAME="?isUndefined@QCborStreamReader@@QEBA_NXZ" PURGE="0" COMMENT="" />
    <EXPORT ORDINAL="4463" NAME="?isUndefined@QCborValue@@QEBA_NXZ" PURGE="0" COMMENT="" />
    <EXPORT ORDINAL="4464" NAME="?isUndefined@QCborValueRef@@QEBA_NXZ" PURGE="0" COMMENT="" />
    <EXPORT ORDINAL="4465" NAME="?isUndefined@QJsonValue@@QEBA_NXZ" PURGE="0" COMMENT="" />
    <EXPORT ORDINAL="4466" NAME="?isUndefined@QJsonValueRef@@QEBA_NXZ" PURGE="0" COMMENT="" />
    <EXPORT ORDINAL="4467" NAME="?isUnnamedFile@QFSFileEngine@@UEBA_NXZ" PURGE="0" COMMENT="" />
    <EXPORT ORDINAL="4468" NAME="?isUnsignedInteger@QCborStreamReader@@QEBA_NXZ" PURGE="0" COMMENT="" />
    <EXPORT ORDINAL="4469" NAME="?isUpdating@QPropertyBindingPrivate@@QEAA_NXZ" PURGE="0" COMMENT="" />
    <EXPORT ORDINAL="4470" NAME="?isUpper@QByteArray@@QEBA_NXZ" PURGE="0" COMMENT="" />
    <EXPORT ORDINAL="4471" NAME="?isUpper@QChar@@QEBA_NXZ" PURGE="0" COMMENT="" />
    <EXPORT ORDINAL="4472" NAME="?isUpper@QChar@@SA_N_U@Z" PURGE="0" COMMENT="" />
    <EXPORT ORDINAL="4473" NAME="?isUpper@QString@@QEBA_NXZ" PURGE="0" COMMENT="" />
    <EXPORT ORDINAL="4474" NAME="?isUpper@QtPrivate@@YA_NVQStringView@@@Z" PURGE="0" COMMENT="" />
    <EXPORT ORDINAL="4475" NAME="?isUrl@QCborValue@@QEBA_NXZ" PURGE="0" COMMENT="" />
    <EXPORT ORDINAL="4476" NAME="?isUrl@QCborValueRef@@QEBA_NXZ" PURGE="0" COMMENT="" />
    <EXPORT ORDINAL="4477" NAME="?isUser@QMetaProperty@@QEBA_NXZ" PURGE="0" COMMENT="" />
    <EXPORT ORDINAL="4478" NAME="?isUser@QMetaPropertyBuilder@@QEBA_NXZ" PURGE="0" COMMENT="" />
    <EXPORT ORDINAL="4479" NAME="?isUtcOrFixedOffset@QTimeZone@@QEBA_NXZ" PURGE="0" COMMENT="" />
    <EXPORT ORDINAL="4480" NAME="?isUtcOrFixedOffset@QTimeZone@@SA_NW4TimeSpec@Qt@@@Z" PURGE="0" COMMENT="" />
    <EXPORT ORDINAL="4481" NAME="?isUtf8@QLocal8Bit@@SA_NXZ" PURGE="0" COMMENT="" />
    <EXPORT ORDINAL="4482" NAME="?isUuid@QCborValue@@QEBA_NXZ" PURGE="0" COMMENT="" />
    <EXPORT ORDINAL="4483" NAME="?isUuid@QCborValueRef@@QEBA_NXZ" PURGE="0" COMMENT="" />
    <EXPORT ORDINAL="4484" NAME="?isValid@QBindingStorage@@QEBA_NXZ" PURGE="0" COMMENT="" />
    <EXPORT ORDINAL="4485" NAME="?isValid@QCalendar@@QEBA_NXZ" PURGE="0" COMMENT="" />
    <EXPORT ORDINAL="4486" NAME="?isValid@QCborStreamReader@@QEBA_NXZ" PURGE="0" COMMENT="" />
    <EXPORT ORDINAL="4487" NAME="?isValid@QComHelper@@QEBA_NXZ" PURGE="0" COMMENT="" />
    <EXPORT ORDINAL="4488" NAME="?isValid@QDate@@QEBA_NXZ" PURGE="0" COMMENT="" />
    <EXPORT ORDINAL="4489" NAME="?isValid@QDate@@SA_NHHH@Z" PURGE="0" COMMENT="" />
    <EXPORT ORDINAL="4490" NAME="?isValid@QDateTime@@QEBA_NXZ" PURGE="0" COMMENT="" />
    <EXPORT ORDINAL="4491" NAME="?isValid@QElapsedTimer@@QEBA_NXZ" PURGE="0" COMMENT="" />
    <EXPORT ORDINAL="4492" NAME="?isValid@QFutureInterfaceBase@@QEBA_NXZ" PURGE="0" COMMENT="" />
    <EXPORT ORDINAL="4493" NAME="?isValid@QItemSelectionRange@@QEBA_NXZ" PURGE="0" COMMENT="" />
    <EXPORT ORDINAL="4494" NAME="?isValid@QMetaEnum@@QEBA_NXZ" PURGE="0" COMMENT="" />
    <EXPORT ORDINAL="4495" NAME="?isValid@QMetaMethod@@QEBA_NXZ" PURGE="0" COMMENT="" />
    <EXPORT ORDINAL="4496" NAME="?isValid@QMetaProperty@@QEBA_NXZ" PURGE="0" COMMENT="" />
    <EXPORT ORDINAL="4497" NAME="?isValid@QMetaType@@QEBA_NXZ" PURGE="0" COMMENT="" />
    <EXPORT ORDINAL="4498" NAME="?isValid@QMimeType@@QEBA_NXZ" PURGE="0" COMMENT="" />
    <EXPORT ORDINAL="4499" NAME="?isValid@QPersistentModelIndex@@QEBA_NXZ" PURGE="0" COMMENT="" />
    <EXPORT ORDINAL="4500" NAME="?isValid@QRect@@QEBA_NXZ" PURGE="0" COMMENT="" />
    <EXPORT ORDINAL="4501" NAME="?isValid@QRectF@@QEBA_NXZ" PURGE="0" COMMENT="" />
    <EXPORT ORDINAL="4502" NAME="?isValid@QRegularExpression@@QEBA_NXZ" PURGE="0" COMMENT="" />
    <EXPORT ORDINAL="4503" NAME="?isValid@QRegularExpressionMatch@@QEBA_NXZ" PURGE="0" COMMENT="" />
    <EXPORT ORDINAL="4504" NAME="?isValid@QRegularExpressionMatchIterator@@QEBA_NXZ" PURGE="0" COMMENT="" />
    <EXPORT ORDINAL="4505" NAME="?isValid@QResource@@QEBA_NXZ" PURGE="0" COMMENT="" />
    <EXPORT ORDINAL="4506" NAME="?isValid@QSize@@QEBA_NXZ" PURGE="0" COMMENT="" />
    <EXPORT ORDINAL="4507" NAME="?isValid@QSizeF@@QEBA_NXZ" PURGE="0" COMMENT="" />
    <EXPORT ORDINAL="4508" NAME="?isValid@QSocketNotifier@@QEBA_NXZ" PURGE="0" COMMENT="" />
    <EXPORT ORDINAL="4509" NAME="?isValid@QStorageInfo@@QEBA_NXZ" PURGE="0" COMMENT="" />
    <EXPORT ORDINAL="4510" NAME="?isValid@QTemporaryDir@@QEBA_NXZ" PURGE="0" COMMENT="" />
    <EXPORT ORDINAL="4511" NAME="?isValid@QTextBoundaryFinder@@QEBA_NXZ" PURGE="0" COMMENT="" />
    <EXPORT ORDINAL="4512" NAME="?isValid@QTime@@QEBA_NXZ" PURGE="0" COMMENT="" />
    <EXPORT ORDINAL="4513" NAME="?isValid@QTime@@SA_NHHHH@Z" PURGE="0" COMMENT="" />
    <EXPORT ORDINAL="4514" NAME="?isValid@QTimeZone@@QEBA_NXZ" PURGE="0" COMMENT="" />
    <EXPORT ORDINAL="4515" NAME="?isValid@QUrl@@QEBA_NXZ" PURGE="0" COMMENT="" />
    <EXPORT ORDINAL="4516" NAME="?isValid@QVariant@@QEBA_NXZ" PURGE="0" COMMENT="" />
    <EXPORT ORDINAL="4517" NAME="?isValid@QWinRegistryKey@@QEBA_NXZ" PURGE="0" COMMENT="" />
    <EXPORT ORDINAL="4518" NAME="?isValid@ResultIteratorBase@QtPrivate@@QEBA_NXZ" PURGE="0" COMMENT="" />
    <EXPORT ORDINAL="4519" NAME="?isValidUtf16@QString@@QEBA_NXZ" PURGE="0" COMMENT="" />
    <EXPORT ORDINAL="4520" NAME="?isValidUtf16@QtPrivate@@YA_NVQStringView@@@Z" PURGE="0" COMMENT="" />
    <EXPORT ORDINAL="4521" NAME="?isValidUtf8@QByteArray@@QEBA_NXZ" PURGE="0" COMMENT="" />
    <EXPORT ORDINAL="4522" NAME="?isValidUtf8@QByteArrayView@@QEBA_NXZ" PURGE="0" COMMENT="" />
    <EXPORT ORDINAL="4523" NAME="?isValidUtf8@QtPrivate@@YA_NVQByteArrayView@@@Z" PURGE="0" COMMENT="" />
    <EXPORT ORDINAL="4524" NAME="?isVariantLessThan@QAbstractItemModelPrivate@@SA_NAEBVQVariant@@0W4CaseSensitivity@Qt@@_N@Z" PURGE="0" COMMENT="" />
    <EXPORT ORDINAL="4525" NAME="?isVector@ResultIteratorBase@QtPrivate@@QEBA_NXZ" PURGE="0" COMMENT="" />
    <EXPORT ORDINAL="4526" NAME="?isWarningEnabled@QLoggingCategory@@QEBA_NXZ" PURGE="0" COMMENT="" />
    <EXPORT ORDINAL="4527" NAME="?isWhitespace@QXmlStreamReader@@QEBA_NXZ" PURGE="0" COMMENT="" />
    <EXPORT ORDINAL="4528" NAME="?isWidgetType@QObject@@QEBA_NXZ" PURGE="0" COMMENT="" />
    <EXPORT ORDINAL="4529" NAME="?isWindowType@QObject@@QEBA_NXZ" PURGE="0" COMMENT="" />
    <EXPORT ORDINAL="4530" NAME="?isWritable@QFileInfo@@QEBA_NXZ" PURGE="0" COMMENT="" />
    <EXPORT ORDINAL="4531" NAME="?isWritable@QIODevice@@QEBA_NXZ" PURGE="0" COMMENT="" />
    <EXPORT ORDINAL="4532" NAME="?isWritable@QMetaProperty@@QEBA_NXZ" PURGE="0" COMMENT="" />
    <EXPORT ORDINAL="4533" NAME="?isWritable@QMetaPropertyBuilder@@QEBA_NXZ" PURGE="0" COMMENT="" />
    <EXPORT ORDINAL="4534" NAME="?isWritable@QSettings@@QEBA_NXZ" PURGE="2147483647" COMMENT="" />
    <EXPORT ORDINAL="4535" NAME="?isWritable@QZipWriter@@QEBA_NXZ" PURGE="0" COMMENT="" />
    <EXPORT ORDINAL="4536" NAME="?isWriteChunkCached@QIODevicePrivate@@QEBA_NPEBD_J@Z" PURGE="0" COMMENT="" />
    <EXPORT ORDINAL="4537" NAME="?isWriteOperationActive@QWindowsPipeWriter@@QEBA_NXZ" PURGE="0" COMMENT="" />
    <EXPORT ORDINAL="4538" NAME="?is_app_closing@QCoreApplicationPrivate@@2_NA" PURGE="-1" COMMENT="" />
    <EXPORT ORDINAL="4539" NAME="?is_app_running@QCoreApplicationPrivate@@2_NA" PURGE="-1" COMMENT="" />
    <EXPORT ORDINAL="4540" NAME="?itemData@QAbstractItemModel@@UEBA?AV?$QMap@HVQVariant@@@@AEBVQModelIndex@@@Z" PURGE="0" COMMENT="" />
    <EXPORT ORDINAL="4541" NAME="?itemData@QAbstractProxyModel@@UEBA?AV?$QMap@HVQVariant@@@@AEBVQModelIndex@@@Z" PURGE="0" COMMENT="" />
    <EXPORT ORDINAL="4542" NAME="?itemData@QConcatenateTablesProxyModel@@UEBA?AV?$QMap@HVQVariant@@@@AEBVQModelIndex@@@Z" PURGE="0" COMMENT="" />
    <EXPORT ORDINAL="4543" NAME="?itemData@QStringListModel@@UEBA?AV?$QMap@HVQVariant@@@@AEBVQModelIndex@@@Z" PURGE="0" COMMENT="" />
    <EXPORT ORDINAL="4544" NAME="?itemData@QTransposeProxyModel@@UEBA?AV?$QMap@HVQVariant@@@@AEBVQModelIndex@@@Z" PURGE="0" COMMENT="" />
    <EXPORT ORDINAL="4545" NAME="?itemsAboutToBeMoved@QAbstractItemModelPrivate@@QEAAXAEBVQModelIndex@@HH0HW4Orientation@Qt@@@Z" PURGE="0" COMMENT="" />
    <EXPORT ORDINAL="4546" NAME="?itemsMoved@QAbstractItemModelPrivate@@QEAAXAEBVQModelIndex@@HH0HW4Orientation@Qt@@@Z" PURGE="0" COMMENT="" />
    <EXPORT ORDINAL="4547" NAME="?joiningType@QChar@@QEBA?AW4JoiningType@1@XZ" PURGE="0" COMMENT="" />
    <EXPORT ORDINAL="4548" NAME="?joiningType@QChar@@SA?AW4JoiningType@1@_U@Z" PURGE="0" COMMENT="" />
    <EXPORT ORDINAL="4549" NAME="?julianDayToDate@QGregorianCalendar@@UEBA?AUYearMonthDay@QCalendar@@_J@Z" PURGE="0" COMMENT="" />
    <EXPORT ORDINAL="4550" NAME="?julianDayToDate@QIslamicCivilCalendar@@UEBA?AUYearMonthDay@QCalendar@@_J@Z" PURGE="0" COMMENT="" />
    <EXPORT ORDINAL="4551" NAME="?julianDayToDate@QJalaliCalendar@@UEBA?AUYearMonthDay@QCalendar@@_J@Z" PURGE="0" COMMENT="" />
    <EXPORT ORDINAL="4552" NAME="?julianDayToDate@QJulianCalendar@@UEBA?AUYearMonthDay@QCalendar@@_J@Z" PURGE="0" COMMENT="" />
    <EXPORT ORDINAL="4553" NAME="?julianDayToDate@QMilankovicCalendar@@UEBA?AUYearMonthDay@QCalendar@@_J@Z" PURGE="0" COMMENT="" />
    <EXPORT ORDINAL="4554" NAME="?julianFromParts@QGregorianCalendar@@SA?AV?$optional@_J@std@@HHH@Z" PURGE="0" COMMENT="" />
    <EXPORT ORDINAL="4555" NAME="?junctionTarget@QFileInfo@@QEBA?AVQString@@XZ" PURGE="0" COMMENT="" />
    <EXPORT ORDINAL="4556" NAME="?kernelType@QSysInfo@@SA?AVQString@@XZ" PURGE="0" COMMENT="" />
    <EXPORT ORDINAL="4557" NAME="?kernelVersion@QSysInfo@@SA?AVQString@@XZ" PURGE="0" COMMENT="" />
    <EXPORT ORDINAL="4558" NAME="?key@QAssociativeConstIterator@@QEBA?AVQVariant@@XZ" PURGE="0" COMMENT="" />
    <EXPORT ORDINAL="4559" NAME="?key@QAssociativeIterator@@QEBA?AVQVariant@@XZ" PURGE="0" COMMENT="" />
    <EXPORT ORDINAL="4560" NAME="?key@QMetaEnum@@QEBAPEBDH@Z" PURGE="0" COMMENT="" />
    <EXPORT ORDINAL="4561" NAME="?key@QMetaEnumBuilder@@QEBA?AVQByteArray@@H@Z" PURGE="0" COMMENT="" />
    <EXPORT ORDINAL="4562" NAME="?key@QSharedMemory@@QEBA?AVQString@@XZ" PURGE="0" COMMENT="" />
    <EXPORT ORDINAL="4563" NAME="?key@QSystemSemaphore@@QEBA?AVQString@@XZ" PURGE="0" COMMENT="" />
    <EXPORT ORDINAL="4564" NAME="?keyAt@QJsonObject@@AEBA?AVQString@@_J@Z" PURGE="0" COMMENT="" />
    <EXPORT ORDINAL="4565" NAME="?keyAtConstIterator@QMetaAssociation@@QEBAXPEBXPEAX@Z" PURGE="0" COMMENT="" />
    <EXPORT ORDINAL="4566" NAME="?keyAtIterator@QMetaAssociation@@QEBAXPEBXPEAX@Z" PURGE="0" COMMENT="" />
    <EXPORT ORDINAL="4567" NAME="?keyCount@QMetaEnum@@QEBAHXZ" PURGE="0" COMMENT="" />
    <EXPORT ORDINAL="4568" NAME="?keyCount@QMetaEnumBuilder@@QEBAHXZ" PURGE="0" COMMENT="" />
    <EXPORT ORDINAL="4569" NAME="?keyMap@QFactoryLoader@@QEBA?AV?$QMultiMap@HVQString@@@@XZ" PURGE="0" COMMENT="" />
    <EXPORT ORDINAL="4570" NAME="?keyMetaType@QMetaAssociation@@QEBA?AVQMetaType@@XZ" PURGE="0" COMMENT="" />
    <EXPORT ORDINAL="4571" NAME="?keyToValue@QMetaEnum@@QEBAHPEBDPEA_N@Z" PURGE="0" COMMENT="" />
    <EXPORT ORDINAL="4572" NAME="?keyValueAt@QVariantAnimation@@QEBA?AVQVariant@@N@Z" PURGE="0" COMMENT="" />
    <EXPORT ORDINAL="4573" NAME="?keyValues@QVariantAnimation@@QEBA?AV?$QList@U?$pair@NVQVariant@@@std@@@@XZ" PURGE="0" COMMENT="" />
    <EXPORT ORDINAL="4574" NAME="?keys@QCborMap@@QEBA?AV?$QList@VQCborValue@@@@XZ" PURGE="0" COMMENT="" />
    <EXPORT ORDINAL="4575" NAME="?keys@QJsonObject@@QEBA?AV?$QList@VQString@@@@XZ" PURGE="0" COMMENT="" />
    <EXPORT ORDINAL="4576" NAME="?keys@QProcessEnvironment@@QEBA?AV?$QList@VQString@@@@XZ" PURGE="0" COMMENT="" />
    <EXPORT ORDINAL="4577" NAME="?keysToValue@QMetaEnum@@QEBAHPEBDPEA_N@Z" PURGE="0" COMMENT="" />
    <EXPORT ORDINAL="4578" NAME="?kill@QProcess@@QEAAXXZ" PURGE="0" COMMENT="" />
    <EXPORT ORDINAL="4579" NAME="?killTimer@QObject@@QEAAXH@Z" PURGE="0" COMMENT="" />
    <EXPORT ORDINAL="4580" NAME="?killTimer@QTimer@@AEAAXH@Z" PURGE="0" COMMENT="" />
    <EXPORT ORDINAL="4581" NAME="?language@QLocale@@QEBA?AW4Language@1@XZ" PURGE="0" COMMENT="" />
    <EXPORT ORDINAL="4582" NAME="?language@QTranslator@@QEBA?AVQString@@XZ" PURGE="0" COMMENT="" />
    <EXPORT ORDINAL="4583" NAME="?languageToCode@QLocale@@SA?AVQString@@W4Language@1@@Z" PURGE="0" COMMENT="" />
    <EXPORT ORDINAL="4584" NAME="?languageToCode@QLocale@@SA?AVQString@@W4Language@1@V?$QFlags@W4LanguageCodeType@QLocale@@@@@Z" PURGE="0" COMMENT="" />
    <EXPORT ORDINAL="4585" NAME="?languageToString@QLocale@@SA?AVQString@@W4Language@1@@Z" PURGE="0" COMMENT="" />
    <EXPORT ORDINAL="4586" NAME="?last@QByteArray@@QEBA?AV1@_J@Z" PURGE="0" COMMENT="" />
    <EXPORT ORDINAL="4587" NAME="?last@QByteArray@@QEGBA?AV1@_J@Z" PURGE="0" COMMENT="" />
    <EXPORT ORDINAL="4588" NAME="?last@QByteArray@@QEHAA?AV1@_J@Z" PURGE="0" COMMENT="" />
    <EXPORT ORDINAL="4589" NAME="?last@QByteArrayView@@QEBA?AV1@_J@Z" PURGE="0" COMMENT="" />
    <EXPORT ORDINAL="4590" NAME="?last@QByteArrayView@@QEBADXZ" PURGE="0" COMMENT="" />
    <EXPORT ORDINAL="4591" NAME="?last@QCborArray@@QEAA?AVQCborValueRef@@XZ" PURGE="0" COMMENT="" />
    <EXPORT ORDINAL="4592" NAME="?last@QCborArray@@QEBA?AVQCborValue@@XZ" PURGE="0" COMMENT="" />
    <EXPORT ORDINAL="4593" NAME="?last@QJsonArray@@QEBA?AVQJsonValue@@XZ" PURGE="0" COMMENT="" />
    <EXPORT ORDINAL="4594" NAME="?last@QString@@QEBA?AV1@_J@Z" PURGE="0" COMMENT="" />
    <EXPORT ORDINAL="4595" NAME="?last@QString@@QEGBA?AV1@_J@Z" PURGE="0" COMMENT="" />
    <EXPORT ORDINAL="4596" NAME="?last@QString@@QEHAA?AV1@_J@Z" PURGE="0" COMMENT="" />
    <EXPORT ORDINAL="4597" NAME="?lastCapturedIndex@QRegularExpressionMatch@@QEBAHXZ" PURGE="0" COMMENT="" />
    <EXPORT ORDINAL="4598" NAME="?lastError@QCborStreamReader@@QEAA?AUQCborError@@XZ" PURGE="0" COMMENT="" />
    <EXPORT ORDINAL="4599" NAME="?lastError@QCborStreamReader@@QEBA?AUQCborError@@XZ" PURGE="0" COMMENT="" />
    <EXPORT ORDINAL="4600" NAME="?lastIndexOf@QByteArray@@QEBA_JD_J@Z" PURGE="0" COMMENT="" />
    <EXPORT ORDINAL="4601" NAME="?lastIndexOf@QByteArray@@QEBA_JVQByteArrayView@@@Z" PURGE="0" COMMENT="" />
    <EXPORT ORDINAL="4602" NAME="?lastIndexOf@QByteArray@@QEBA_JVQByteArrayView@@_J@Z" PURGE="0" COMMENT="" />
    <EXPORT ORDINAL="4603" NAME="?lastIndexOf@QByteArrayView@@QEBA_JD_J@Z" PURGE="0" COMMENT="" />
    <EXPORT ORDINAL="4604" NAME="?lastIndexOf@QByteArrayView@@QEBA_JV1@@Z" PURGE="0" COMMENT="" />
    <EXPORT ORDINAL="4605" NAME="?lastIndexOf@QByteArrayView@@QEBA_JV1@_J@Z" PURGE="0" COMMENT="" />
    <EXPORT ORDINAL="4606" NAME="?lastIndexOf@QString@@QEBA_JAEBV1@W4CaseSensitivity@Qt@@@Z" PURGE="0" COMMENT="" />
    <EXPORT ORDINAL="4607" NAME="?lastIndexOf@QString@@QEBA_JAEBV1@_JW4CaseSensitivity@Qt@@@Z" PURGE="0" COMMENT="" />
    <EXPORT ORDINAL="4608" NAME="?lastIndexOf@QString@@QEBA_JAEBVQRegularExpression@@_JPEAVQRegularExpressionMatch@@@Z" PURGE="0" COMMENT="" />
    <EXPORT ORDINAL="4609" NAME="?lastIndexOf@QString@@QEBA_JVQChar@@W4CaseSensitivity@Qt@@@Z" PURGE="0" COMMENT="" />
    <EXPORT ORDINAL="4610" NAME="?lastIndexOf@QString@@QEBA_JVQChar@@_JW4CaseSensitivity@Qt@@@Z" PURGE="0" COMMENT="" />
    <EXPORT ORDINAL="4611" NAME="?lastIndexOf@QString@@QEBA_JVQLatin1String@@W4CaseSensitivity@Qt@@@Z" PURGE="0" COMMENT="" />
    <EXPORT ORDINAL="4612" NAME="?lastIndexOf@QString@@QEBA_JVQLatin1String@@_JW4CaseSensitivity@Qt@@@Z" PURGE="0" COMMENT="" />
    <EXPORT ORDINAL="4613" NAME="?lastIndexOf@QString@@QEBA_JVQStringView@@W4CaseSensitivity@Qt@@@Z" PURGE="0" COMMENT="" />
    <EXPORT ORDINAL="4614" NAME="?lastIndexOf@QString@@QEBA_JVQStringView@@_JW4CaseSensitivity@Qt@@@Z" PURGE="0" COMMENT="" />
    <EXPORT ORDINAL="4615" NAME="?lastIndexOf@QtPrivate@@YA_JVQByteArrayView@@_J0@Z" PURGE="0" COMMENT="" />
    <EXPORT ORDINAL="4616" NAME="?lastIndexOf@QtPrivate@@YA_JVQLatin1String@@_J0W4CaseSensitivity@Qt@@@Z" PURGE="0" COMMENT="" />
    <EXPORT ORDINAL="4617" NAME="?lastIndexOf@QtPrivate@@YA_JVQLatin1String@@_JVQStringView@@W4CaseSensitivity@Qt@@@Z" PURGE="0" COMMENT="" />
    <EXPORT ORDINAL="4618" NAME="?lastIndexOf@QtPrivate@@YA_JVQStringView@@AEBVQRegularExpression@@_JPEAVQRegularExpressionMatch@@@Z" PURGE="0" COMMENT="" />
    <EXPORT ORDINAL="4619" NAME="?lastIndexOf@QtPrivate@@YA_JVQStringView@@_J0W4CaseSensitivity@Qt@@@Z" PURGE="0" COMMENT="" />
    <EXPORT ORDINAL="4620" NAME="?lastIndexOf@QtPrivate@@YA_JVQStringView@@_JVQLatin1String@@W4CaseSensitivity@Qt@@@Z" PURGE="0" COMMENT="" />
    <EXPORT ORDINAL="4621" NAME="?lastModified@QFileInfo@@QEBA?AVQDateTime@@AEBVQTimeZone@@@Z" PURGE="0" COMMENT="" />
    <EXPORT ORDINAL="4622" NAME="?lastModified@QFileInfo@@QEBA?AVQDateTime@@XZ" PURGE="0" COMMENT="" />
    <EXPORT ORDINAL="4623" NAME="?lastModified@QResource@@QEBA?AVQDateTime@@XZ" PURGE="0" COMMENT="" />
    <EXPORT ORDINAL="4624" NAME="?lastRead@QFileInfo@@QEBA?AVQDateTime@@AEBVQTimeZone@@@Z" PURGE="0" COMMENT="" />
    <EXPORT ORDINAL="4625" NAME="?lastRead@QFileInfo@@QEBA?AVQDateTime@@XZ" PURGE="0" COMMENT="" />
    <EXPORT ORDINAL="4626" NAME="?launchAsync@QFutureInterfaceBase@@IEBA_NXZ" PURGE="0" COMMENT="" />
    <EXPORT ORDINAL="4627" NAME="?layoutAboutToBeChanged@QAbstractItemModel@@QEAAXAEBV?$QList@VQPersistentModelIndex@@@@W4LayoutChangeHint@1@@Z" PURGE="0" COMMENT="" />
    <EXPORT ORDINAL="4628" NAME="?layoutChanged@QAbstractItemModel@@QEAAXAEBV?$QList@VQPersistentModelIndex@@@@W4LayoutChangeHint@1@@Z" PURGE="0" COMMENT="" />
    <EXPORT ORDINAL="4629" NAME="?lcNativeInterface@QtPrivate@@YAAEBVQLoggingCategory@@XZ" PURGE="0" COMMENT="" />
    <EXPORT ORDINAL="4630" NAME="?lcPermissions@@YAAEBVQLoggingCategory@@XZ" PURGE="0" COMMENT="" />
    <EXPORT ORDINAL="4631" NAME="?leapTest@QGregorianCalendar@@SA_NH@Z" PURGE="0" COMMENT="" />
    <EXPORT ORDINAL="4632" NAME="?leaveContainer@QCborStreamReader@@QEAA_NXZ" PURGE="0" COMMENT="" />
    <EXPORT ORDINAL="4633" NAME="?left@QByteArray@@QEBA?AV1@_J@Z" PURGE="0" COMMENT="" />
    <EXPORT ORDINAL="4634" NAME="?left@QByteArray@@QEGBA?AV1@_J@Z" PURGE="0" COMMENT="" />
    <EXPORT ORDINAL="4635" NAME="?left@QByteArray@@QEHAA?AV1@_J@Z" PURGE="0" COMMENT="" />
    <EXPORT ORDINAL="4636" NAME="?left@QByteArrayView@@QEBA?AV1@_J@Z" PURGE="0" COMMENT="" />
    <EXPORT ORDINAL="4637" NAME="?left@QItemSelectionRange@@QEBAHXZ" PURGE="0" COMMENT="" />
    <EXPORT ORDINAL="4638" NAME="?left@QRect@@QEBAHXZ" PURGE="0" COMMENT="" />
    <EXPORT ORDINAL="4639" NAME="?left@QRectF@@QEBANXZ" PURGE="0" COMMENT="" />
    <EXPORT ORDINAL="4640" NAME="?left@QString@@QEBA?AV1@_J@Z" PURGE="0" COMMENT="" />
    <EXPORT ORDINAL="4641" NAME="?left@QString@@QEGBA?AV1@_J@Z" PURGE="0" COMMENT="" />
    <EXPORT ORDINAL="4642" NAME="?left@QString@@QEHAA?AV1@_J@Z" PURGE="0" COMMENT="" />
    <EXPORT ORDINAL="4643" NAME="?left@Qt@@YAAEAVQTextStream@@AEAV2@@Z" PURGE="0" COMMENT="" />
    <EXPORT ORDINAL="4644" NAME="?leftJustified@QByteArray@@QEBA?AV1@_JD_N@Z" PURGE="0" COMMENT="" />
    <EXPORT ORDINAL="4645" NAME="?leftJustified@QString@@QEBA?AV1@_JVQChar@@_N@Z" PURGE="0" COMMENT="" />
    <EXPORT ORDINAL="4646" NAME="?legacyNativeKey@QSharedMemory@@SA?AVQNativeIpcKey@@AEBVQString@@W4Type@2@@Z" PURGE="0" COMMENT="" />
    <EXPORT ORDINAL="4647" NAME="?legacyNativeKey@QSystemSemaphore@@SA?AVQNativeIpcKey@@AEBVQString@@W4Type@2@@Z" PURGE="0" COMMENT="" />
    <EXPORT ORDINAL="4648" NAME="?length@QByteArray@@QEBA_JXZ" PURGE="0" COMMENT="" />
    <EXPORT ORDINAL="4649" NAME="?length@QByteArrayView@@QEBA_JXZ" PURGE="0" COMMENT="" />
    <EXPORT ORDINAL="4650" NAME="?length@QCborStreamReader@@QEBA_KXZ" PURGE="0" COMMENT="" />
    <EXPORT ORDINAL="4651" NAME="?length@QJsonObject@@QEBA_JXZ" PURGE="0" COMMENT="" />
    <EXPORT ORDINAL="4652" NAME="?length@QLineF@@QEBANXZ" PURGE="2147483647" COMMENT="" />
    <EXPORT ORDINAL="4653" NAME="?length@QString@@QEBA_JXZ" PURGE="0" COMMENT="" />
    <EXPORT ORDINAL="4654" NAME="?lengthHelperCharArray@QByteArrayView@@CA_JPEBD_K@Z" PURGE="0" COMMENT="" />
    <EXPORT ORDINAL="4655" NAME="?lessThan@QSortFilterProxyModel@@MEBA_NAEBVQModelIndex@@0@Z" PURGE="0" COMMENT="" />
    <EXPORT ORDINAL="4656" NAME="?libraryPaths@QCoreApplication@@SA?AV?$QList@VQString@@@@XZ" PURGE="0" COMMENT="" />
    <EXPORT ORDINAL="4657" NAME="?libraryPathsLocked@QCoreApplication@@CA?AV?$QList@VQString@@@@XZ" PURGE="0" COMMENT="" />
    <EXPORT ORDINAL="4658" NAME="?lineBreakClass@QUnicodeTables@@YA?AW4LineBreakClass@1@_U@Z" PURGE="0" COMMENT="" />
    <EXPORT ORDINAL="4659" NAME="?lineNumber@QXmlStreamReader@@QEBA_JXZ" PURGE="0" COMMENT="" />
    <EXPORT ORDINAL="4660" NAME="?link@QAbstractFileEngine@@UEAA_NAEBVQString@@@Z" PURGE="0" COMMENT="" />
    <EXPORT ORDINAL="4661" NAME="?link@QFSFileEngine@@UEAA_NAEBVQString@@@Z" PURGE="0" COMMENT="" />
    <EXPORT ORDINAL="4662" NAME="?link@QFile@@QEAA_NAEBVQString@@@Z" PURGE="0" COMMENT="" />
    <EXPORT ORDINAL="4663" NAME="?link@QFile@@SA_NAEBVQString@@0@Z" PURGE="0" COMMENT="" />
    <EXPORT ORDINAL="4664" NAME="?listSeparator@QDir@@SA?AVQChar@@XZ" PURGE="0" COMMENT="" />
    <EXPORT ORDINAL="4665" NAME="?load@QLibrary@@QEAA_NXZ" PURGE="0" COMMENT="" />
    <EXPORT ORDINAL="4666" NAME="?load@QMetaType@@QEBA_NAEAVQDataStream@@PEAX@Z" PURGE="0" COMMENT="" />
    <EXPORT ORDINAL="4667" NAME="?load@QMetaType@@SA_NAEAVQDataStream@@HPEAX@Z" PURGE="0" COMMENT="" />
    <EXPORT ORDINAL="4668" NAME="?load@QPluginLoader@@QEAA_NXZ" PURGE="0" COMMENT="" />
    <EXPORT ORDINAL="4669" NAME="?load@QSystemLibrary@@SAPEAUHINSTANCE__@@PEB_W_N@Z" PURGE="0" COMMENT="" />
    <EXPORT ORDINAL="4670" NAME="?load@QTranslator@@QEAA_NAEBVQLocale@@AEBVQString@@111@Z" PURGE="0" COMMENT="" />
    <EXPORT ORDINAL="4671" NAME="?load@QTranslator@@QEAA_NAEBVQString@@000@Z" PURGE="0" COMMENT="" />
    <EXPORT ORDINAL="4672" NAME="?load@QTranslator@@QEAA_NPEBEHAEBVQString@@@Z" PURGE="0" COMMENT="" />
    <EXPORT ORDINAL="4673" NAME="?load@QVariant@@QEAAXAEAVQDataStream@@@Z" PURGE="0" COMMENT="" />
    <EXPORT ORDINAL="4674" NAME="?loadHints@QLibrary@@QEBA?AV?$QFlags@W4LoadHint@QLibrary@@@@XZ" PURGE="0" COMMENT="" />
    <EXPORT ORDINAL="4675" NAME="?loadHints@QPluginLoader@@QEBA?AV?$QFlags@W4LoadHint@QLibrary@@@@XZ" PURGE="0" COMMENT="" />
    <EXPORT ORDINAL="4676" NAME="?loadState@QFutureInterfaceBase@@QEBAHXZ" PURGE="0" COMMENT="" />
    <EXPORT ORDINAL="4677" NAME="?localRestart@QUnifiedTimer@@AEAAXXZ" PURGE="0" COMMENT="" />
    <EXPORT ORDINAL="4678" NAME="?locale@QCollator@@QEBA?AVQLocale@@XZ" PURGE="0" COMMENT="" />
    <EXPORT ORDINAL="4679" NAME="?locale@QDateTimeParser@@MEBA?AVQLocale@@XZ" PURGE="0" COMMENT="" />
    <EXPORT ORDINAL="4680" NAME="?locale@QResource@@QEBA?AVQLocale@@XZ" PURGE="0" COMMENT="" />
    <EXPORT ORDINAL="4681" NAME="?locale@QTextStream@@QEBA?AVQLocale@@XZ" PURGE="0" COMMENT="" />
    <EXPORT ORDINAL="4682" NAME="?localeAwareCompare@QString@@QEBAHAEBV1@@Z" PURGE="0" COMMENT="" />
    <EXPORT ORDINAL="4683" NAME="?localeAwareCompare@QString@@QEBAHVQStringView@@@Z" PURGE="0" COMMENT="" />
    <EXPORT ORDINAL="4684" NAME="?localeAwareCompare@QString@@SAHAEBV1@0@Z" PURGE="0" COMMENT="" />
    <EXPORT ORDINAL="4685" NAME="?localeAwareCompare@QString@@SAHVQStringView@@0@Z" PURGE="0" COMMENT="" />
    <EXPORT ORDINAL="4686" NAME="?localeAwareCompare_helper@QString@@CAHPEBVQChar@@_J01@Z" PURGE="0" COMMENT="" />
    <EXPORT ORDINAL="4687" NAME="?localeMonthData@QHijriCalendar@@MEBAPEB_SXZ" PURGE="0" COMMENT="" />
    <EXPORT ORDINAL="4688" NAME="?localeMonthData@QJalaliCalendar@@MEBAPEB_SXZ" PURGE="0" COMMENT="" />
    <EXPORT ORDINAL="4689" NAME="?localeMonthData@QRomanCalendar@@MEBAPEB_SXZ" PURGE="0" COMMENT="" />
    <EXPORT ORDINAL="4690" NAME="?localeMonthIndexData@QHijriCalendar@@MEBAPEBUQCalendarLocale@@XZ" PURGE="0" COMMENT="" />
    <EXPORT ORDINAL="4691" NAME="?localeMonthIndexData@QJalaliCalendar@@MEBAPEBUQCalendarLocale@@XZ" PURGE="0" COMMENT="" />
    <EXPORT ORDINAL="4692" NAME="?localeMonthIndexData@QRomanCalendar@@MEBAPEBUQCalendarLocale@@XZ" PURGE="0" COMMENT="" />
    <EXPORT ORDINAL="4693" NAME="?locate@QStandardPaths@@SA?AVQString@@W4StandardLocation@1@AEBV2@V?$QFlags@W4LocateOption@QStandardPaths@@@@@Z" PURGE="0" COMMENT="" />
    <EXPORT ORDINAL="4694" NAME="?locateAll@QStandardPaths@@SA?AV?$QList@VQString@@@@W4StandardLocation@1@AEBVQString@@V?$QFlags@W4LocateOption@QStandardPaths@@@@@Z" PURGE="0" COMMENT="" />
    <EXPORT ORDINAL="4695" NAME="?location@QLibraryInfo@@SA?AVQString@@W4LibraryPath@1@@Z" PURGE="0" COMMENT="" />
    <EXPORT ORDINAL="4696" NAME="?locationInfo@QLibraryInfoPrivate@@SA?AULocationInfo@1@W4LibraryPath@QLibraryInfo@@@Z" PURGE="0" COMMENT="" />
    <EXPORT ORDINAL="4697" NAME="?lock@QBasicMutex@@QEAAXXZ" PURGE="0" COMMENT="" />
    <EXPORT ORDINAL="4698" NAME="?lock@QLockFile@@QEAA_NXZ" PURGE="0" COMMENT="" />
    <EXPORT ORDINAL="4699" NAME="?lock@QRecursiveMutex@@QEAAXXZ" PURGE="0" COMMENT="" />
    <EXPORT ORDINAL="4700" NAME="?lock@QSharedMemory@@QEAA_NXZ" PURGE="0" COMMENT="" />
    <EXPORT ORDINAL="4701" NAME="?lockForRead@QReadWriteLock@@QEAAXXZ" PURGE="0" COMMENT="" />
    <EXPORT ORDINAL="4702" NAME="?lockForWrite@QReadWriteLock@@QEAAXXZ" PURGE="0" COMMENT="" />
    <EXPORT ORDINAL="4703" NAME="?lockInternal@QBasicMutex@@AEAAXXZ" PURGE="0" COMMENT="" />
    <EXPORT ORDINAL="4704" NAME="?lockInternal@QBasicMutex@@AEAA_NH@Z" PURGE="0" COMMENT="" />
    <EXPORT ORDINAL="4705" NAME="?lockInternal@QBasicMutex@@AEAA_NVQDeadlineTimer@@@Z" PURGE="0" COMMENT="" />
    <EXPORT ORDINAL="4706" NAME="?lockThreadPostEventList@QCoreApplicationPrivate@@SA?AUQPostEventListLocker@1@PEAVQObject@@@Z" PURGE="0" COMMENT="" />
    <EXPORT ORDINAL="4707" NAME="?loopCount@QAbstractAnimation@@QEBAHXZ" PURGE="0" COMMENT="" />
    <EXPORT ORDINAL="4708" NAME="?loopCount@QTimeLine@@QEBAHXZ" PURGE="0" COMMENT="" />
    <EXPORT ORDINAL="4709" NAME="?loopLevel@QThread@@QEBAHXZ" PURGE="0" COMMENT="" />
    <EXPORT ORDINAL="4710" NAME="?lowSurrogate@QChar@@SA_S_U@Z" PURGE="0" COMMENT="" />
    <EXPORT ORDINAL="4711" NAME="?lowercasebase@Qt@@YAAEAVQTextStream@@AEAV2@@Z" PURGE="0" COMMENT="" />
    <EXPORT ORDINAL="4712" NAME="?lowercasedigits@Qt@@YAAEAVQTextStream@@AEAV2@@Z" PURGE="0" COMMENT="" />
    <EXPORT ORDINAL="4713" NAME="?machineHostName@QSysInfo@@SA?AVQString@@XZ" PURGE="0" COMMENT="" />
    <EXPORT ORDINAL="4714" NAME="?machineUniqueId@QSysInfo@@SA?AVQByteArray@@XZ" PURGE="0" COMMENT="" />
    <EXPORT ORDINAL="4715" NAME="?mainThread@QCoreApplicationPrivate@@SAPEAVQThread@@XZ" PURGE="0" COMMENT="" />
    <EXPORT ORDINAL="4716" NAME="?majorVersion@QOperatingSystemVersion@@QEBAHXZ" PURGE="0" COMMENT="" />
    <EXPORT ORDINAL="4717" NAME="?makeAbsolute@QDir@@QEAA_NXZ" PURGE="0" COMMENT="" />
    <EXPORT ORDINAL="4718" NAME="?makeAbsolute@QFileInfo@@QEAA_NXZ" PURGE="0" COMMENT="" />
    <EXPORT ORDINAL="4719" NAME="?makeReadyVoidFuture@QtFuture@@YA?AV?$QFuture@X@@XZ" PURGE="0" COMMENT="" />
    <EXPORT ORDINAL="4720" NAME="?mantissatable@qfloat16@@0QBIB" PURGE="-1" COMMENT="" />
    <EXPORT ORDINAL="4721" NAME="?map@QAbstractFileEngine@@QEAAPEAE_J0V?$QFlags@W4MemoryMapFlag@QFileDevice@@@@@Z" PURGE="0" COMMENT="" />
    <EXPORT ORDINAL="4722" NAME="?map@QFileDevice@@QEAAPEAE_J0V?$QFlags@W4MemoryMapFlag@QFileDevice@@@@@Z" PURGE="0" COMMENT="" />
    <EXPORT ORDINAL="4723" NAME="?map@QSignalMapper@@QEAAXPEAVQObject@@@Z" PURGE="0" COMMENT="" />
    <EXPORT ORDINAL="4724" NAME="?map@QSignalMapper@@QEAAXXZ" PURGE="0" COMMENT="" />
    <EXPORT ORDINAL="4725" NAME="?mapDropCoordinatesToSource@QAbstractProxyModelPrivate@@QEBAXHHAEBVQModelIndex@@PEAH1PEAV2@@Z" PURGE="0" COMMENT="" />
    <EXPORT ORDINAL="4726" NAME="?mapFromSource@QConcatenateTablesProxyModel@@QEBA?AVQModelIndex@@AEBV2@@Z" PURGE="0" COMMENT="" />
    <EXPORT ORDINAL="4727" NAME="?mapFromSource@QIdentityProxyModel@@UEBA?AVQModelIndex@@AEBV2@@Z" PURGE="0" COMMENT="" />
    <EXPORT ORDINAL="4728" NAME="?mapFromSource@QSortFilterProxyModel@@UEBA?AVQModelIndex@@AEBV2@@Z" PURGE="0" COMMENT="" />
    <EXPORT ORDINAL="4729" NAME="?mapFromSource@QTransposeProxyModel@@UEBA?AVQModelIndex@@AEBV2@@Z" PURGE="0" COMMENT="" />
    <EXPORT ORDINAL="4730" NAME="?mapSelectionFromSource@QAbstractProxyModel@@UEBA?AVQItemSelection@@AEBV2@@Z" PURGE="0" COMMENT="" />
    <EXPORT ORDINAL="4731" NAME="?mapSelectionFromSource@QIdentityProxyModel@@UEBA?AVQItemSelection@@AEBV2@@Z" PURGE="0" COMMENT="" />
    <EXPORT ORDINAL="4732" NAME="?mapSelectionFromSource@QSortFilterProxyModel@@UEBA?AVQItemSelection@@AEBV2@@Z" PURGE="0" COMMENT="" />
    <EXPORT ORDINAL="4733" NAME="?mapSelectionToSource@QAbstractProxyModel@@UEBA?AVQItemSelection@@AEBV2@@Z" PURGE="0" COMMENT="" />
    <EXPORT ORDINAL="4734" NAME="?mapSelectionToSource@QIdentityProxyModel@@UEBA?AVQItemSelection@@AEBV2@@Z" PURGE="0" COMMENT="" />
    <EXPORT ORDINAL="4735" NAME="?mapSelectionToSource@QSortFilterProxyModel@@UEBA?AVQItemSelection@@AEBV2@@Z" PURGE="0" COMMENT="" />
    <EXPORT ORDINAL="4736" NAME="?mapToSource@QConcatenateTablesProxyModel@@QEBA?AVQModelIndex@@AEBV2@@Z" PURGE="0" COMMENT="" />
    <EXPORT ORDINAL="4737" NAME="?mapToSource@QIdentityProxyModel@@UEBA?AVQModelIndex@@AEBV2@@Z" PURGE="0" COMMENT="" />
